
DM-910-x.elf:     file format elf32-avr

Sections:
Idx Name          Size      VMA       LMA       File off  Algn
  0 .data         0000004e  00800100  00005478  0000550c  2**0
                  CONTENTS, ALLOC, LOAD, DATA
  1 .text         00005478  00000000  00000000  00000094  2**1
                  CONTENTS, ALLOC, LOAD, READONLY, CODE
  2 .bss          0000042a  0080014e  0080014e  0000555a  2**0
                  ALLOC
  3 .comment      00000030  00000000  00000000  0000555a  2**0
                  CONTENTS, READONLY
  4 .note.gnu.avr.deviceinfo 00000040  00000000  00000000  0000558c  2**2
                  CONTENTS, READONLY
  5 .debug_info   000005f4  00000000  00000000  000055cc  2**0
                  CONTENTS, READONLY, DEBUGGING
  6 .debug_abbrev 000005a2  00000000  00000000  00005bc0  2**0
                  CONTENTS, READONLY, DEBUGGING
  7 .debug_line   00000134  00000000  00000000  00006162  2**0
                  CONTENTS, READONLY, DEBUGGING
  8 .debug_str    00000208  00000000  00000000  00006296  2**0
                  CONTENTS, READONLY, DEBUGGING

Disassembly of section .text:

00000000 <__vectors>:
       0:	ad c0       	rjmp	.+346    	; 0x15c <__ctors_end>
       2:	00 00       	nop
       4:	0c 94 6e 1d 	jmp	0x3adc	; 0x3adc <__vector_1>
       8:	0c 94 9b 1d 	jmp	0x3b36	; 0x3b36 <__vector_2>
       c:	cf c0       	rjmp	.+414    	; 0x1ac <__bad_interrupt>
       e:	00 00       	nop
      10:	cd c0       	rjmp	.+410    	; 0x1ac <__bad_interrupt>
      12:	00 00       	nop
      14:	cb c0       	rjmp	.+406    	; 0x1ac <__bad_interrupt>
      16:	00 00       	nop
      18:	c9 c0       	rjmp	.+402    	; 0x1ac <__bad_interrupt>
      1a:	00 00       	nop
      1c:	0c 94 d9 1a 	jmp	0x35b2	; 0x35b2 <__vector_7>
      20:	c5 c0       	rjmp	.+394    	; 0x1ac <__bad_interrupt>
      22:	00 00       	nop
      24:	c3 c0       	rjmp	.+390    	; 0x1ac <__bad_interrupt>
      26:	00 00       	nop
      28:	0c 94 c8 21 	jmp	0x4390	; 0x4390 <__vector_10>
      2c:	0c 94 df 20 	jmp	0x41be	; 0x41be <__vector_11>
      30:	0c 94 a6 22 	jmp	0x454c	; 0x454c <__vector_12>
      34:	0c 94 f5 25 	jmp	0x4bea	; 0x4bea <__vector_13>
      38:	b9 c0       	rjmp	.+370    	; 0x1ac <__bad_interrupt>
      3a:	00 00       	nop
      3c:	b7 c0       	rjmp	.+366    	; 0x1ac <__bad_interrupt>
      3e:	00 00       	nop
      40:	0c 94 2a 1f 	jmp	0x3e54	; 0x3e54 <__vector_16>
      44:	b3 c0       	rjmp	.+358    	; 0x1ac <__bad_interrupt>
      46:	00 00       	nop
      48:	0c 94 1a 19 	jmp	0x3234	; 0x3234 <__vector_18>
      4c:	0c 94 5b 19 	jmp	0x32b6	; 0x32b6 <__vector_19>
      50:	0c 94 e1 23 	jmp	0x47c2	; 0x47c2 <__vector_20>
      54:	ab c0       	rjmp	.+342    	; 0x1ac <__bad_interrupt>
      56:	00 00       	nop
      58:	a9 c0       	rjmp	.+338    	; 0x1ac <__bad_interrupt>
      5a:	00 00       	nop
      5c:	a7 c0       	rjmp	.+334    	; 0x1ac <__bad_interrupt>
      5e:	00 00       	nop
      60:	0c 94 44 1c 	jmp	0x3888	; 0x3888 <__vector_24>
      64:	a3 c0       	rjmp	.+326    	; 0x1ac <__bad_interrupt>
      66:	00 00       	nop
      68:	3e 16       	cp	r3, r30
      6a:	44 16       	cp	r4, r20
      6c:	46 16       	cp	r4, r22
      6e:	49 16       	cp	r4, r25
      70:	5d 16       	cp	r5, r29
      72:	1c 18       	sub	r1, r12
      74:	88 16       	cp	r8, r24
      76:	a3 16       	cp	r10, r19
      78:	8a 16       	cp	r8, r26
      7a:	a5 16       	cp	r10, r21
      7c:	ed 16       	cp	r14, r29
      7e:	f1 16       	cp	r15, r17
      80:	1c 18       	sub	r1, r12
      82:	27 17       	cp	r18, r23
      84:	08 00       	.word	0x0008	; ????
      86:	00 00       	nop
      88:	be 92       	st	-X, r11
      8a:	24 49       	sbci	r18, 0x94	; 148
      8c:	12 3e       	cpi	r17, 0xE2	; 226
      8e:	ab aa       	std	Y+51, r10	; 0x33
      90:	aa 2a       	or	r10, r26
      92:	be cd       	rjmp	.-1156   	; 0xfffffc10 <__eeprom_end+0xff7efc10>
      94:	cc cc       	rjmp	.-1640   	; 0xfffffa2e <__eeprom_end+0xff7efa2e>
      96:	4c 3e       	cpi	r20, 0xEC	; 236
      98:	00 00       	nop
      9a:	00 80       	ld	r0, Z
      9c:	be ab       	std	Y+54, r27	; 0x36
      9e:	aa aa       	std	Y+50, r10	; 0x32
      a0:	aa 3e       	cpi	r26, 0xEA	; 234
      a2:	00 00       	nop
      a4:	00 00       	nop
      a6:	bf 00       	.word	0x00bf	; ????
      a8:	00 00       	nop
      aa:	80 3f       	cpi	r24, 0xF0	; 240
      ac:	00 00       	nop
      ae:	00 00       	nop
      b0:	00 08       	sbc	r0, r0
      b2:	41 78       	andi	r20, 0x81	; 129
      b4:	d3 bb       	out	0x13, r29	; 19
      b6:	43 87       	std	Z+11, r20	; 0x0b
      b8:	d1 13       	cpse	r29, r17
      ba:	3d 19       	sub	r19, r13
      bc:	0e 3c       	cpi	r16, 0xCE	; 206
      be:	c3 bd       	out	0x23, r28	; 35
      c0:	42 82       	std	Z+2, r4	; 0x02
      c2:	ad 2b       	or	r26, r29
      c4:	3e 68       	ori	r19, 0x8E	; 142
      c6:	ec 82       	std	Y+4, r14	; 0x04
      c8:	76 be       	out	0x36, r7	; 54
      ca:	d9 8f       	std	Y+25, r29	; 0x19
      cc:	e1 a9       	ldd	r30, Z+49	; 0x31
      ce:	3e 4c       	sbci	r19, 0xCE	; 206
      d0:	80 ef       	ldi	r24, 0xF0	; 240
      d2:	ff be       	out	0x3f, r15	; 63
      d4:	01 c4       	rjmp	.+2050   	; 0x8d8 <__DATA_REGION_LENGTH__+0xd8>
      d6:	ff 7f       	andi	r31, 0xFF	; 255
      d8:	3f 00       	.word	0x003f	; ????
      da:	00 00       	nop
      dc:	00 00       	nop
      de:	07 63       	ori	r16, 0x37	; 55
      e0:	42 36       	cpi	r20, 0x62	; 98
      e2:	b7 9b       	sbis	0x16, 7	; 22
      e4:	d8 a7       	std	Y+40, r29	; 0x28
      e6:	1a 39       	cpi	r17, 0x9A	; 154
      e8:	68 56       	subi	r22, 0x68	; 104
      ea:	18 ae       	std	Y+56, r1	; 0x38
      ec:	ba ab       	std	Y+50, r27	; 0x32
      ee:	55 8c       	ldd	r5, Z+29	; 0x1d
      f0:	1d 3c       	cpi	r17, 0xCD	; 205
      f2:	b7 cc       	rjmp	.-1682   	; 0xfffffa62 <__eeprom_end+0xff7efa62>
      f4:	57 63       	ori	r21, 0x37	; 55
      f6:	bd 6d       	ori	r27, 0xDD	; 221
      f8:	ed fd       	.word	0xfded	; ????
      fa:	75 3e       	cpi	r23, 0xE5	; 229
      fc:	f6 17       	cp	r31, r22
      fe:	72 31       	cpi	r23, 0x12	; 18
     100:	bf 00       	.word	0x00bf	; ????
     102:	00 00       	nop
     104:	80 3f       	cpi	r24, 0xF0	; 240

00000106 <__trampolines_end>:
     106:	02 00       	Address 0x00000106 is out of bounds.
.word	0xffff	; ????

00000107 <digital_pin_to_timer_PGM>:
     107:	00 00 00 07 00 02 01 00 00 03 04 06 00 00 00 00     ................
     117:	00 00 00 00                                         ....

0000011b <digital_pin_to_bit_mask_PGM>:
     11b:	01 02 04 08 10 20 40 80 01 02 04 08 10 20 01 02     ..... @...... ..
     12b:	04 08 10 20                                         ... 

0000012f <digital_pin_to_port_PGM>:
     12f:	04 04 04 04 04 04 04 04 02 02 02 02 02 02 03 03     ................
     13f:	03 03 03 03                                         ....

00000143 <port_to_output_PGM>:
     143:	00 00 00 00 25 00 28 00 2b 00                       ....%.(.+.

0000014d <port_to_mode_PGM>:
     14d:	00 00 00 00 24 00 27 00 2a 00 00                    ....$.'.*..

00000158 <__ctors_start>:
     158:	1f 1a       	sub	r1, r31
     15a:	27 1f       	adc	r18, r23

0000015c <__ctors_end>:
     15c:	11 24       	eor	r1, r1
     15e:	1f be       	out	0x3f, r1	; 63
     160:	cf ef       	ldi	r28, 0xFF	; 255
     162:	d8 e0       	ldi	r29, 0x08	; 8
     164:	de bf       	out	0x3e, r29	; 62
     166:	cd bf       	out	0x3d, r28	; 61

00000168 <__do_copy_data>:
     168:	11 e0       	ldi	r17, 0x01	; 1
     16a:	a0 e0       	ldi	r26, 0x00	; 0
     16c:	b1 e0       	ldi	r27, 0x01	; 1
     16e:	e8 e7       	ldi	r30, 0x78	; 120
     170:	f4 e5       	ldi	r31, 0x54	; 84
     172:	02 c0       	rjmp	.+4      	; 0x178 <__do_copy_data+0x10>
     174:	05 90       	lpm	r0, Z+
     176:	0d 92       	st	X+, r0
     178:	ae 34       	cpi	r26, 0x4E	; 78
     17a:	b1 07       	cpc	r27, r17
     17c:	d9 f7       	brne	.-10     	; 0x174 <__do_copy_data+0xc>

0000017e <__do_clear_bss>:
     17e:	25 e0       	ldi	r18, 0x05	; 5
     180:	ae e4       	ldi	r26, 0x4E	; 78
     182:	b1 e0       	ldi	r27, 0x01	; 1
     184:	01 c0       	rjmp	.+2      	; 0x188 <.do_clear_bss_start>

00000186 <.do_clear_bss_loop>:
     186:	1d 92       	st	X+, r1

00000188 <.do_clear_bss_start>:
     188:	a8 37       	cpi	r26, 0x78	; 120
     18a:	b2 07       	cpc	r27, r18
     18c:	e1 f7       	brne	.-8      	; 0x186 <.do_clear_bss_loop>

0000018e <__do_global_ctors>:
     18e:	10 e0       	ldi	r17, 0x00	; 0
     190:	ce ea       	ldi	r28, 0xAE	; 174
     192:	d0 e0       	ldi	r29, 0x00	; 0
     194:	04 c0       	rjmp	.+8      	; 0x19e <__do_global_ctors+0x10>
     196:	21 97       	sbiw	r28, 0x01	; 1
     198:	fe 01       	movw	r30, r28
     19a:	0e 94 51 26 	call	0x4ca2	; 0x4ca2 <__tablejump2__>
     19e:	cc 3a       	cpi	r28, 0xAC	; 172
     1a0:	d1 07       	cpc	r29, r17
     1a2:	c9 f7       	brne	.-14     	; 0x196 <__do_global_ctors+0x8>
     1a4:	0e 94 5b 1a 	call	0x34b6	; 0x34b6 <main>
     1a8:	0c 94 3a 2a 	jmp	0x5474	; 0x5474 <_exit>

000001ac <__bad_interrupt>:
     1ac:	29 cf       	rjmp	.-430    	; 0x0 <__vectors>

000001ae <_Z10initArraysfff>:
     1ae:	cf 92       	push	r12
     1b0:	df 92       	push	r13
     1b2:	ef 92       	push	r14
     1b4:	ff 92       	push	r15
     1b6:	0f 93       	push	r16
     1b8:	1f 93       	push	r17
     1ba:	cf 93       	push	r28
     1bc:	df 93       	push	r29
     1be:	e1 e0       	ldi	r30, 0x01	; 1
     1c0:	e0 93 6f 01 	sts	0x016F, r30	; 0x80016f <VIP_firstRead>
     1c4:	ed e6       	ldi	r30, 0x6D	; 109
     1c6:	f2 e0       	ldi	r31, 0x02	; 2
     1c8:	cd ec       	ldi	r28, 0xCD	; 205
     1ca:	d2 e0       	ldi	r29, 0x02	; 2
     1cc:	ad e9       	ldi	r26, 0x9D	; 157
     1ce:	ca 2e       	mov	r12, r26
     1d0:	a2 e0       	ldi	r26, 0x02	; 2
     1d2:	da 2e       	mov	r13, r26
     1d4:	61 93       	st	Z+, r22
     1d6:	71 93       	st	Z+, r23
     1d8:	81 93       	st	Z+, r24
     1da:	91 93       	st	Z+, r25
     1dc:	29 93       	st	Y+, r18
     1de:	39 93       	st	Y+, r19
     1e0:	49 93       	st	Y+, r20
     1e2:	59 93       	st	Y+, r21
     1e4:	d6 01       	movw	r26, r12
     1e6:	ed 92       	st	X+, r14
     1e8:	fd 92       	st	X+, r15
     1ea:	0d 93       	st	X+, r16
     1ec:	1d 93       	st	X+, r17
     1ee:	6d 01       	movw	r12, r26
     1f0:	b2 e0       	ldi	r27, 0x02	; 2
     1f2:	e1 38       	cpi	r30, 0x81	; 129
     1f4:	fb 07       	cpc	r31, r27
     1f6:	71 f7       	brne	.-36     	; 0x1d4 <_Z10initArraysfff+0x26>
     1f8:	e8 ef       	ldi	r30, 0xF8	; 248
     1fa:	f1 e0       	ldi	r31, 0x01	; 1
     1fc:	a0 e1       	ldi	r26, 0x10	; 16
     1fe:	b2 e0       	ldi	r27, 0x02	; 2
     200:	61 93       	st	Z+, r22
     202:	71 93       	st	Z+, r23
     204:	81 93       	st	Z+, r24
     206:	91 93       	st	Z+, r25
     208:	ae 17       	cp	r26, r30
     20a:	bf 07       	cpc	r27, r31
     20c:	c9 f7       	brne	.-14     	; 0x200 <_Z10initArraysfff+0x52>
     20e:	e4 e1       	ldi	r30, 0x14	; 20
     210:	f2 e0       	ldi	r31, 0x02	; 2
     212:	ac e2       	ldi	r26, 0x2C	; 44
     214:	b2 e0       	ldi	r27, 0x02	; 2
     216:	21 93       	st	Z+, r18
     218:	31 93       	st	Z+, r19
     21a:	41 93       	st	Z+, r20
     21c:	51 93       	st	Z+, r21
     21e:	ae 17       	cp	r26, r30
     220:	bf 07       	cpc	r27, r31
     222:	c9 f7       	brne	.-14     	; 0x216 <_Z10initArraysfff+0x68>
     224:	e0 e3       	ldi	r30, 0x30	; 48
     226:	f2 e0       	ldi	r31, 0x02	; 2
     228:	a8 e4       	ldi	r26, 0x48	; 72
     22a:	b2 e0       	ldi	r27, 0x02	; 2
     22c:	e1 92       	st	Z+, r14
     22e:	f1 92       	st	Z+, r15
     230:	01 93       	st	Z+, r16
     232:	11 93       	st	Z+, r17
     234:	ae 17       	cp	r26, r30
     236:	bf 07       	cpc	r27, r31
     238:	c9 f7       	brne	.-14     	; 0x22c <_Z10initArraysfff+0x7e>
     23a:	60 93 4d 02 	sts	0x024D, r22	; 0x80024d <PIDFILTER>
     23e:	70 93 4e 02 	sts	0x024E, r23	; 0x80024e <PIDFILTER+0x1>
     242:	80 93 4f 02 	sts	0x024F, r24	; 0x80024f <PIDFILTER+0x2>
     246:	90 93 50 02 	sts	0x0250, r25	; 0x800250 <PIDFILTER+0x3>
     24a:	20 93 51 02 	sts	0x0251, r18	; 0x800251 <PIDFILTER+0x4>
     24e:	30 93 52 02 	sts	0x0252, r19	; 0x800252 <PIDFILTER+0x5>
     252:	40 93 53 02 	sts	0x0253, r20	; 0x800253 <PIDFILTER+0x6>
     256:	50 93 54 02 	sts	0x0254, r21	; 0x800254 <PIDFILTER+0x7>
     25a:	e0 92 55 02 	sts	0x0255, r14	; 0x800255 <PIDFILTER+0x8>
     25e:	f0 92 56 02 	sts	0x0256, r15	; 0x800256 <PIDFILTER+0x9>
     262:	00 93 57 02 	sts	0x0257, r16	; 0x800257 <PIDFILTER+0xa>
     266:	10 93 58 02 	sts	0x0258, r17	; 0x800258 <PIDFILTER+0xb>
     26a:	df 91       	pop	r29
     26c:	cf 91       	pop	r28
     26e:	1f 91       	pop	r17
     270:	0f 91       	pop	r16
     272:	ff 90       	pop	r15
     274:	ef 90       	pop	r14
     276:	df 90       	pop	r13
     278:	cf 90       	pop	r12
     27a:	08 95       	ret

0000027c <_Z11trendBufferv>:
     27c:	80 91 4c 02 	lds	r24, 0x024C	; 0x80024c <tail>
     280:	8f 5f       	subi	r24, 0xFF	; 255
     282:	86 30       	cpi	r24, 0x06	; 6
     284:	18 f4       	brcc	.+6      	; 0x28c <_Z11trendBufferv+0x10>
     286:	80 93 4c 02 	sts	0x024C, r24	; 0x80024c <tail>
     28a:	02 c0       	rjmp	.+4      	; 0x290 <_Z11trendBufferv+0x14>
     28c:	10 92 4c 02 	sts	0x024C, r1	; 0x80024c <tail>
     290:	20 91 4c 02 	lds	r18, 0x024C	; 0x80024c <tail>
     294:	ad e5       	ldi	r26, 0x5D	; 93
     296:	b2 e0       	ldi	r27, 0x02	; 2
     298:	84 e0       	ldi	r24, 0x04	; 4
     29a:	28 9f       	mul	r18, r24
     29c:	90 01       	movw	r18, r0
     29e:	11 24       	eor	r1, r1
     2a0:	80 e0       	ldi	r24, 0x00	; 0
     2a2:	90 e0       	ldi	r25, 0x00	; 0
     2a4:	4d 91       	ld	r20, X+
     2a6:	5d 91       	ld	r21, X+
     2a8:	6d 91       	ld	r22, X+
     2aa:	7d 91       	ld	r23, X+
     2ac:	fc 01       	movw	r30, r24
     2ae:	e2 0f       	add	r30, r18
     2b0:	f3 1f       	adc	r31, r19
     2b2:	e8 50       	subi	r30, 0x08	; 8
     2b4:	fe 4f       	sbci	r31, 0xFE	; 254
     2b6:	40 83       	st	Z, r20
     2b8:	51 83       	std	Z+1, r21	; 0x01
     2ba:	62 83       	std	Z+2, r22	; 0x02
     2bc:	73 83       	std	Z+3, r23	; 0x03
     2be:	4c 96       	adiw	r24, 0x1c	; 28
     2c0:	84 35       	cpi	r24, 0x54	; 84
     2c2:	91 05       	cpc	r25, r1
     2c4:	79 f7       	brne	.-34     	; 0x2a4 <_Z11trendBufferv+0x28>
     2c6:	08 95       	ret

000002c8 <_Z10checkErrorv>:
     2c8:	8f 92       	push	r8
     2ca:	9f 92       	push	r9
     2cc:	af 92       	push	r10
     2ce:	bf 92       	push	r11
     2d0:	cf 92       	push	r12
     2d2:	df 92       	push	r13
     2d4:	ef 92       	push	r14
     2d6:	ff 92       	push	r15
     2d8:	80 91 6a 01 	lds	r24, 0x016A	; 0x80016a <pressGaugeLost>
     2dc:	81 11       	cpse	r24, r1
     2de:	ee c0       	rjmp	.+476    	; 0x4bc <__EEPROM_REGION_LENGTH__+0xbc>
     2e0:	c0 90 16 03 	lds	r12, 0x0316	; 0x800316 <pressureRAW>
     2e4:	d0 90 17 03 	lds	r13, 0x0317	; 0x800317 <pressureRAW+0x1>
     2e8:	e0 90 18 03 	lds	r14, 0x0318	; 0x800318 <pressureRAW+0x2>
     2ec:	f0 90 19 03 	lds	r15, 0x0319	; 0x800319 <pressureRAW+0x3>
     2f0:	20 e0       	ldi	r18, 0x00	; 0
     2f2:	30 e0       	ldi	r19, 0x00	; 0
     2f4:	a9 01       	movw	r20, r18
     2f6:	c7 01       	movw	r24, r14
     2f8:	b6 01       	movw	r22, r12
     2fa:	0e 94 d0 26 	call	0x4da0	; 0x4da0 <__cmpsf2>
     2fe:	87 ff       	sbrs	r24, 7
     300:	09 c0       	rjmp	.+18     	; 0x314 <_Z10checkErrorv+0x4c>
     302:	80 91 88 03 	lds	r24, 0x0388	; 0x800388 <errorInt>
     306:	90 91 89 03 	lds	r25, 0x0389	; 0x800389 <errorInt+0x1>
     30a:	81 60       	ori	r24, 0x01	; 1
     30c:	90 93 89 03 	sts	0x0389, r25	; 0x800389 <errorInt+0x1>
     310:	80 93 88 03 	sts	0x0388, r24	; 0x800388 <errorInt>
     314:	20 e0       	ldi	r18, 0x00	; 0
     316:	30 e4       	ldi	r19, 0x40	; 64
     318:	4c e9       	ldi	r20, 0x9C	; 156
     31a:	55 e4       	ldi	r21, 0x45	; 69
     31c:	c7 01       	movw	r24, r14
     31e:	b6 01       	movw	r22, r12
     320:	0e 94 1f 28 	call	0x503e	; 0x503e <__gesf2>
     324:	18 16       	cp	r1, r24
     326:	4c f4       	brge	.+18     	; 0x33a <_Z10checkErrorv+0x72>
     328:	80 91 88 03 	lds	r24, 0x0388	; 0x800388 <errorInt>
     32c:	90 91 89 03 	lds	r25, 0x0389	; 0x800389 <errorInt+0x1>
     330:	82 60       	ori	r24, 0x02	; 2
     332:	90 93 89 03 	sts	0x0389, r25	; 0x800389 <errorInt+0x1>
     336:	80 93 88 03 	sts	0x0388, r24	; 0x800388 <errorInt>
     33a:	20 e0       	ldi	r18, 0x00	; 0
     33c:	30 e4       	ldi	r19, 0x40	; 64
     33e:	4c e1       	ldi	r20, 0x1C	; 28
     340:	56 e4       	ldi	r21, 0x46	; 70
     342:	c7 01       	movw	r24, r14
     344:	b6 01       	movw	r22, r12
     346:	0e 94 1f 28 	call	0x503e	; 0x503e <__gesf2>
     34a:	18 16       	cp	r1, r24
     34c:	54 f0       	brlt	.+20     	; 0x362 <_Z10checkErrorv+0x9a>
     34e:	20 e0       	ldi	r18, 0x00	; 0
     350:	30 e0       	ldi	r19, 0x00	; 0
     352:	48 ec       	ldi	r20, 0xC8	; 200
     354:	52 ec       	ldi	r21, 0xC2	; 194
     356:	c7 01       	movw	r24, r14
     358:	b6 01       	movw	r22, r12
     35a:	0e 94 d0 26 	call	0x4da0	; 0x4da0 <__cmpsf2>
     35e:	87 ff       	sbrs	r24, 7
     360:	09 c0       	rjmp	.+18     	; 0x374 <_Z10checkErrorv+0xac>
     362:	80 91 88 03 	lds	r24, 0x0388	; 0x800388 <errorInt>
     366:	90 91 89 03 	lds	r25, 0x0389	; 0x800389 <errorInt+0x1>
     36a:	84 60       	ori	r24, 0x04	; 4
     36c:	90 93 89 03 	sts	0x0389, r25	; 0x800389 <errorInt+0x1>
     370:	80 93 88 03 	sts	0x0388, r24	; 0x800388 <errorInt>
     374:	c0 90 12 03 	lds	r12, 0x0312	; 0x800312 <temperatureRAW>
     378:	d0 90 13 03 	lds	r13, 0x0313	; 0x800313 <temperatureRAW+0x1>
     37c:	e0 90 14 03 	lds	r14, 0x0314	; 0x800314 <temperatureRAW+0x2>
     380:	f0 90 15 03 	lds	r15, 0x0315	; 0x800315 <temperatureRAW+0x3>
     384:	20 e0       	ldi	r18, 0x00	; 0
     386:	30 e0       	ldi	r19, 0x00	; 0
     388:	40 e7       	ldi	r20, 0x70	; 112
     38a:	52 ec       	ldi	r21, 0xC2	; 194
     38c:	c7 01       	movw	r24, r14
     38e:	b6 01       	movw	r22, r12
     390:	0e 94 d0 26 	call	0x4da0	; 0x4da0 <__cmpsf2>
     394:	87 ff       	sbrs	r24, 7
     396:	09 c0       	rjmp	.+18     	; 0x3aa <_Z10checkErrorv+0xe2>
     398:	80 91 88 03 	lds	r24, 0x0388	; 0x800388 <errorInt>
     39c:	90 91 89 03 	lds	r25, 0x0389	; 0x800389 <errorInt+0x1>
     3a0:	88 60       	ori	r24, 0x08	; 8
     3a2:	90 93 89 03 	sts	0x0389, r25	; 0x800389 <errorInt+0x1>
     3a6:	80 93 88 03 	sts	0x0388, r24	; 0x800388 <errorInt>
     3aa:	20 e0       	ldi	r18, 0x00	; 0
     3ac:	30 e0       	ldi	r19, 0x00	; 0
     3ae:	40 ea       	ldi	r20, 0xA0	; 160
     3b0:	52 e4       	ldi	r21, 0x42	; 66
     3b2:	c7 01       	movw	r24, r14
     3b4:	b6 01       	movw	r22, r12
     3b6:	0e 94 1f 28 	call	0x503e	; 0x503e <__gesf2>
     3ba:	18 16       	cp	r1, r24
     3bc:	4c f4       	brge	.+18     	; 0x3d0 <_Z10checkErrorv+0x108>
     3be:	80 91 88 03 	lds	r24, 0x0388	; 0x800388 <errorInt>
     3c2:	90 91 89 03 	lds	r25, 0x0389	; 0x800389 <errorInt+0x1>
     3c6:	80 61       	ori	r24, 0x10	; 16
     3c8:	90 93 89 03 	sts	0x0389, r25	; 0x800389 <errorInt+0x1>
     3cc:	80 93 88 03 	sts	0x0388, r24	; 0x800388 <errorInt>
     3d0:	c0 90 53 03 	lds	r12, 0x0353	; 0x800353 <gasDensityG>
     3d4:	d0 90 54 03 	lds	r13, 0x0354	; 0x800354 <gasDensityG+0x1>
     3d8:	e0 90 55 03 	lds	r14, 0x0355	; 0x800355 <gasDensityG+0x2>
     3dc:	f0 90 56 03 	lds	r15, 0x0356	; 0x800356 <gasDensityG+0x3>
     3e0:	60 91 52 03 	lds	r22, 0x0352	; 0x800352 <liquefaction>
     3e4:	70 e0       	ldi	r23, 0x00	; 0
     3e6:	80 e0       	ldi	r24, 0x00	; 0
     3e8:	90 e0       	ldi	r25, 0x00	; 0
     3ea:	0e 94 6f 27 	call	0x4ede	; 0x4ede <__floatsisf>
     3ee:	a7 01       	movw	r20, r14
     3f0:	96 01       	movw	r18, r12
     3f2:	0e 94 d0 26 	call	0x4da0	; 0x4da0 <__cmpsf2>
     3f6:	87 ff       	sbrs	r24, 7
     3f8:	09 c0       	rjmp	.+18     	; 0x40c <__EEPROM_REGION_LENGTH__+0xc>
     3fa:	80 91 88 03 	lds	r24, 0x0388	; 0x800388 <errorInt>
     3fe:	90 91 89 03 	lds	r25, 0x0389	; 0x800389 <errorInt+0x1>
     402:	80 64       	ori	r24, 0x40	; 64
     404:	90 93 89 03 	sts	0x0389, r25	; 0x800389 <errorInt+0x1>
     408:	80 93 88 03 	sts	0x0388, r24	; 0x800388 <errorInt>
     40c:	60 91 51 03 	lds	r22, 0x0351	; 0x800351 <overdensity>
     410:	70 e0       	ldi	r23, 0x00	; 0
     412:	80 e0       	ldi	r24, 0x00	; 0
     414:	90 e0       	ldi	r25, 0x00	; 0
     416:	0e 94 6f 27 	call	0x4ede	; 0x4ede <__floatsisf>
     41a:	9b 01       	movw	r18, r22
     41c:	ac 01       	movw	r20, r24
     41e:	c7 01       	movw	r24, r14
     420:	b6 01       	movw	r22, r12
     422:	0e 94 1f 28 	call	0x503e	; 0x503e <__gesf2>
     426:	18 16       	cp	r1, r24
     428:	4c f4       	brge	.+18     	; 0x43c <__EEPROM_REGION_LENGTH__+0x3c>
     42a:	80 91 88 03 	lds	r24, 0x0388	; 0x800388 <errorInt>
     42e:	90 91 89 03 	lds	r25, 0x0389	; 0x800389 <errorInt+0x1>
     432:	80 68       	ori	r24, 0x80	; 128
     434:	90 93 89 03 	sts	0x0389, r25	; 0x800389 <errorInt+0x1>
     438:	80 93 88 03 	sts	0x0388, r24	; 0x800388 <errorInt>
     43c:	60 91 4c 03 	lds	r22, 0x034C	; 0x80034c <alarmLevel>
     440:	70 e0       	ldi	r23, 0x00	; 0
     442:	80 e0       	ldi	r24, 0x00	; 0
     444:	90 e0       	ldi	r25, 0x00	; 0
     446:	0e 94 6f 27 	call	0x4ede	; 0x4ede <__floatsisf>
     44a:	4b 01       	movw	r8, r22
     44c:	5c 01       	movw	r10, r24
     44e:	c0 90 4d 03 	lds	r12, 0x034D	; 0x80034d <pressure_Bar20>
     452:	d0 90 4e 03 	lds	r13, 0x034E	; 0x80034e <pressure_Bar20+0x1>
     456:	e0 90 4f 03 	lds	r14, 0x034F	; 0x80034f <pressure_Bar20+0x2>
     45a:	f0 90 50 03 	lds	r15, 0x0350	; 0x800350 <pressure_Bar20+0x3>
     45e:	a7 01       	movw	r20, r14
     460:	96 01       	movw	r18, r12
     462:	0e 94 1f 28 	call	0x503e	; 0x503e <__gesf2>
     466:	18 16       	cp	r1, r24
     468:	4c f4       	brge	.+18     	; 0x47c <__EEPROM_REGION_LENGTH__+0x7c>
     46a:	80 91 88 03 	lds	r24, 0x0388	; 0x800388 <errorInt>
     46e:	90 91 89 03 	lds	r25, 0x0389	; 0x800389 <errorInt+0x1>
     472:	98 60       	ori	r25, 0x08	; 8
     474:	90 93 89 03 	sts	0x0389, r25	; 0x800389 <errorInt+0x1>
     478:	80 93 88 03 	sts	0x0388, r24	; 0x800388 <errorInt>
     47c:	a7 01       	movw	r20, r14
     47e:	96 01       	movw	r18, r12
     480:	c5 01       	movw	r24, r10
     482:	b4 01       	movw	r22, r8
     484:	0e 94 d0 26 	call	0x4da0	; 0x4da0 <__cmpsf2>
     488:	87 ff       	sbrs	r24, 7
     48a:	18 c0       	rjmp	.+48     	; 0x4bc <__EEPROM_REGION_LENGTH__+0xbc>
     48c:	60 91 4b 03 	lds	r22, 0x034B	; 0x80034b <warningLevel>
     490:	70 e0       	ldi	r23, 0x00	; 0
     492:	80 e0       	ldi	r24, 0x00	; 0
     494:	90 e0       	ldi	r25, 0x00	; 0
     496:	0e 94 6f 27 	call	0x4ede	; 0x4ede <__floatsisf>
     49a:	9b 01       	movw	r18, r22
     49c:	ac 01       	movw	r20, r24
     49e:	c7 01       	movw	r24, r14
     4a0:	b6 01       	movw	r22, r12
     4a2:	0e 94 d0 26 	call	0x4da0	; 0x4da0 <__cmpsf2>
     4a6:	87 ff       	sbrs	r24, 7
     4a8:	09 c0       	rjmp	.+18     	; 0x4bc <__EEPROM_REGION_LENGTH__+0xbc>
     4aa:	80 91 88 03 	lds	r24, 0x0388	; 0x800388 <errorInt>
     4ae:	90 91 89 03 	lds	r25, 0x0389	; 0x800389 <errorInt+0x1>
     4b2:	90 61       	ori	r25, 0x10	; 16
     4b4:	90 93 89 03 	sts	0x0389, r25	; 0x800389 <errorInt+0x1>
     4b8:	80 93 88 03 	sts	0x0388, r24	; 0x800388 <errorInt>
     4bc:	80 91 05 03 	lds	r24, 0x0305	; 0x800305 <negativeRHflag>
     4c0:	88 23       	and	r24, r24
     4c2:	49 f0       	breq	.+18     	; 0x4d6 <__EEPROM_REGION_LENGTH__+0xd6>
     4c4:	80 91 88 03 	lds	r24, 0x0388	; 0x800388 <errorInt>
     4c8:	90 91 89 03 	lds	r25, 0x0389	; 0x800389 <errorInt+0x1>
     4cc:	90 62       	ori	r25, 0x20	; 32
     4ce:	90 93 89 03 	sts	0x0389, r25	; 0x800389 <errorInt+0x1>
     4d2:	80 93 88 03 	sts	0x0388, r24	; 0x800388 <errorInt>
     4d6:	ff 90       	pop	r15
     4d8:	ef 90       	pop	r14
     4da:	df 90       	pop	r13
     4dc:	cf 90       	pop	r12
     4de:	bf 90       	pop	r11
     4e0:	af 90       	pop	r10
     4e2:	9f 90       	pop	r9
     4e4:	8f 90       	pop	r8
     4e6:	08 95       	ret

000004e8 <_Z9PIDfilterv>:
     4e8:	2f 92       	push	r2
     4ea:	3f 92       	push	r3
     4ec:	4f 92       	push	r4
     4ee:	5f 92       	push	r5
     4f0:	6f 92       	push	r6
     4f2:	7f 92       	push	r7
     4f4:	8f 92       	push	r8
     4f6:	9f 92       	push	r9
     4f8:	af 92       	push	r10
     4fa:	bf 92       	push	r11
     4fc:	cf 92       	push	r12
     4fe:	df 92       	push	r13
     500:	ef 92       	push	r14
     502:	ff 92       	push	r15
     504:	0f 93       	push	r16
     506:	1f 93       	push	r17
     508:	cf 93       	push	r28
     50a:	df 93       	push	r29
     50c:	cd b7       	in	r28, 0x3d	; 61
     50e:	de b7       	in	r29, 0x3e	; 62
     510:	28 97       	sbiw	r28, 0x08	; 8
     512:	0f b6       	in	r0, 0x3f	; 63
     514:	f8 94       	cli
     516:	de bf       	out	0x3e, r29	; 62
     518:	0f be       	out	0x3f, r0	; 63
     51a:	cd bf       	out	0x3d, r28	; 61
     51c:	8d e5       	ldi	r24, 0x5D	; 93
     51e:	92 e0       	ldi	r25, 0x02	; 2
     520:	9a 83       	std	Y+2, r25	; 0x02
     522:	89 83       	std	Y+1, r24	; 0x01
     524:	ed e4       	ldi	r30, 0x4D	; 77
     526:	f2 e0       	ldi	r31, 0x02	; 2
     528:	f8 87       	std	Y+8, r31	; 0x08
     52a:	ef 83       	std	Y+7, r30	; 0x07
     52c:	81 e2       	ldi	r24, 0x21	; 33
     52e:	91 e0       	ldi	r25, 0x01	; 1
     530:	9c 83       	std	Y+4, r25	; 0x04
     532:	8b 83       	std	Y+3, r24	; 0x03
     534:	e5 e1       	ldi	r30, 0x15	; 21
     536:	f1 e0       	ldi	r31, 0x01	; 1
     538:	fe 83       	std	Y+6, r31	; 0x06
     53a:	ed 83       	std	Y+5, r30	; 0x05
     53c:	38 ef       	ldi	r19, 0xF8	; 248
     53e:	23 2e       	mov	r2, r19
     540:	31 e0       	ldi	r19, 0x01	; 1
     542:	33 2e       	mov	r3, r19
     544:	e1 2c       	mov	r14, r1
     546:	f1 2c       	mov	r15, r1
     548:	61 2c       	mov	r6, r1
     54a:	80 e5       	ldi	r24, 0x50	; 80
     54c:	78 2e       	mov	r7, r24
     54e:	93 ec       	ldi	r25, 0xC3	; 195
     550:	89 2e       	mov	r8, r25
     552:	27 e4       	ldi	r18, 0x47	; 71
     554:	92 2e       	mov	r9, r18
     556:	a1 2c       	mov	r10, r1
     558:	b1 2c       	mov	r11, r1
     55a:	0a e7       	ldi	r16, 0x7A	; 122
     55c:	14 ec       	ldi	r17, 0xC4	; 196
     55e:	f1 01       	movw	r30, r2
     560:	ee 0d       	add	r30, r14
     562:	ff 1d       	adc	r31, r15
     564:	50 80       	ld	r5, Z
     566:	c1 80       	ldd	r12, Z+1	; 0x01
     568:	d2 80       	ldd	r13, Z+2	; 0x02
     56a:	43 80       	ldd	r4, Z+3	; 0x03
     56c:	95 01       	movw	r18, r10
     56e:	a8 01       	movw	r20, r16
     570:	65 2d       	mov	r22, r5
     572:	7c 2d       	mov	r23, r12
     574:	8d 2d       	mov	r24, r13
     576:	94 2d       	mov	r25, r4
     578:	0e 94 1f 28 	call	0x503e	; 0x503e <__gesf2>
     57c:	18 16       	cp	r1, r24
     57e:	24 f4       	brge	.+8      	; 0x588 <_Z9PIDfilterv+0xa0>
     580:	a5 2c       	mov	r10, r5
     582:	bc 2c       	mov	r11, r12
     584:	0d 2d       	mov	r16, r13
     586:	14 2d       	mov	r17, r4
     588:	93 01       	movw	r18, r6
     58a:	a4 01       	movw	r20, r8
     58c:	65 2d       	mov	r22, r5
     58e:	7c 2d       	mov	r23, r12
     590:	8d 2d       	mov	r24, r13
     592:	94 2d       	mov	r25, r4
     594:	0e 94 d0 26 	call	0x4da0	; 0x4da0 <__cmpsf2>
     598:	87 ff       	sbrs	r24, 7
     59a:	04 c0       	rjmp	.+8      	; 0x5a4 <_Z9PIDfilterv+0xbc>
     59c:	65 2c       	mov	r6, r5
     59e:	7c 2c       	mov	r7, r12
     5a0:	8d 2c       	mov	r8, r13
     5a2:	94 2c       	mov	r9, r4
     5a4:	f4 e0       	ldi	r31, 0x04	; 4
     5a6:	ef 0e       	add	r14, r31
     5a8:	f1 1c       	adc	r15, r1
     5aa:	24 e1       	ldi	r18, 0x14	; 20
     5ac:	e2 16       	cp	r14, r18
     5ae:	f1 04       	cpc	r15, r1
     5b0:	b1 f6       	brne	.-84     	; 0x55e <_Z9PIDfilterv+0x76>
     5b2:	ef 81       	ldd	r30, Y+7	; 0x07
     5b4:	f8 85       	ldd	r31, Y+8	; 0x08
     5b6:	c0 80       	ld	r12, Z
     5b8:	d1 80       	ldd	r13, Z+1	; 0x01
     5ba:	e2 80       	ldd	r14, Z+2	; 0x02
     5bc:	f3 80       	ldd	r15, Z+3	; 0x03
     5be:	24 ea       	ldi	r18, 0xA4	; 164
     5c0:	30 e7       	ldi	r19, 0x70	; 112
     5c2:	4d e7       	ldi	r20, 0x7D	; 125
     5c4:	5f e3       	ldi	r21, 0x3F	; 63
     5c6:	b3 01       	movw	r22, r6
     5c8:	c4 01       	movw	r24, r8
     5ca:	0e 94 6e 28 	call	0x50dc	; 0x50dc <__mulsf3>
     5ce:	a7 01       	movw	r20, r14
     5d0:	96 01       	movw	r18, r12
     5d2:	0e 94 d0 26 	call	0x4da0	; 0x4da0 <__cmpsf2>
     5d6:	87 ff       	sbrs	r24, 7
     5d8:	11 c0       	rjmp	.+34     	; 0x5fc <_Z9PIDfilterv+0x114>
     5da:	2e ea       	ldi	r18, 0xAE	; 174
     5dc:	37 e4       	ldi	r19, 0x47	; 71
     5de:	41 e8       	ldi	r20, 0x81	; 129
     5e0:	5f e3       	ldi	r21, 0x3F	; 63
     5e2:	b5 01       	movw	r22, r10
     5e4:	c8 01       	movw	r24, r16
     5e6:	0e 94 6e 28 	call	0x50dc	; 0x50dc <__mulsf3>
     5ea:	a7 01       	movw	r20, r14
     5ec:	96 01       	movw	r18, r12
     5ee:	0e 94 1f 28 	call	0x503e	; 0x503e <__gesf2>
     5f2:	18 16       	cp	r1, r24
     5f4:	1c f4       	brge	.+6      	; 0x5fc <_Z9PIDfilterv+0x114>
     5f6:	eb 81       	ldd	r30, Y+3	; 0x03
     5f8:	fc 81       	ldd	r31, Y+4	; 0x04
     5fa:	02 c0       	rjmp	.+4      	; 0x600 <_Z9PIDfilterv+0x118>
     5fc:	ed 81       	ldd	r30, Y+5	; 0x05
     5fe:	fe 81       	ldd	r31, Y+6	; 0x06
     600:	80 80       	ld	r8, Z
     602:	91 80       	ldd	r9, Z+1	; 0x01
     604:	a2 80       	ldd	r10, Z+2	; 0x02
     606:	b3 80       	ldd	r11, Z+3	; 0x03
     608:	e9 81       	ldd	r30, Y+1	; 0x01
     60a:	fa 81       	ldd	r31, Y+2	; 0x02
     60c:	61 91       	ld	r22, Z+
     60e:	71 91       	ld	r23, Z+
     610:	81 91       	ld	r24, Z+
     612:	91 91       	ld	r25, Z+
     614:	fa 83       	std	Y+2, r31	; 0x02
     616:	e9 83       	std	Y+1, r30	; 0x01
     618:	a7 01       	movw	r20, r14
     61a:	96 01       	movw	r18, r12
     61c:	0e 94 6b 26 	call	0x4cd6	; 0x4cd6 <__subsf3>
     620:	a5 01       	movw	r20, r10
     622:	94 01       	movw	r18, r8
     624:	0e 94 6e 28 	call	0x50dc	; 0x50dc <__mulsf3>
     628:	a7 01       	movw	r20, r14
     62a:	96 01       	movw	r18, r12
     62c:	0e 94 6c 26 	call	0x4cd8	; 0x4cd8 <__addsf3>
     630:	ef 81       	ldd	r30, Y+7	; 0x07
     632:	f8 85       	ldd	r31, Y+8	; 0x08
     634:	61 93       	st	Z+, r22
     636:	71 93       	st	Z+, r23
     638:	81 93       	st	Z+, r24
     63a:	91 93       	st	Z+, r25
     63c:	f8 87       	std	Y+8, r31	; 0x08
     63e:	ef 83       	std	Y+7, r30	; 0x07
     640:	8b 81       	ldd	r24, Y+3	; 0x03
     642:	9c 81       	ldd	r25, Y+4	; 0x04
     644:	04 96       	adiw	r24, 0x04	; 4
     646:	9c 83       	std	Y+4, r25	; 0x04
     648:	8b 83       	std	Y+3, r24	; 0x03
     64a:	ed 81       	ldd	r30, Y+5	; 0x05
     64c:	fe 81       	ldd	r31, Y+6	; 0x06
     64e:	34 96       	adiw	r30, 0x04	; 4
     650:	fe 83       	std	Y+6, r31	; 0x06
     652:	ed 83       	std	Y+5, r30	; 0x05
     654:	fc e1       	ldi	r31, 0x1C	; 28
     656:	2f 0e       	add	r2, r31
     658:	31 1c       	adc	r3, r1
     65a:	89 81       	ldd	r24, Y+1	; 0x01
     65c:	9a 81       	ldd	r25, Y+2	; 0x02
     65e:	89 56       	subi	r24, 0x69	; 105
     660:	92 40       	sbci	r25, 0x02	; 2
     662:	09 f0       	breq	.+2      	; 0x666 <_Z9PIDfilterv+0x17e>
     664:	6f cf       	rjmp	.-290    	; 0x544 <_Z9PIDfilterv+0x5c>
     666:	28 96       	adiw	r28, 0x08	; 8
     668:	0f b6       	in	r0, 0x3f	; 63
     66a:	f8 94       	cli
     66c:	de bf       	out	0x3e, r29	; 62
     66e:	0f be       	out	0x3f, r0	; 63
     670:	cd bf       	out	0x3d, r28	; 61
     672:	df 91       	pop	r29
     674:	cf 91       	pop	r28
     676:	1f 91       	pop	r17
     678:	0f 91       	pop	r16
     67a:	ff 90       	pop	r15
     67c:	ef 90       	pop	r14
     67e:	df 90       	pop	r13
     680:	cf 90       	pop	r12
     682:	bf 90       	pop	r11
     684:	af 90       	pop	r10
     686:	9f 90       	pop	r9
     688:	8f 90       	pop	r8
     68a:	7f 90       	pop	r7
     68c:	6f 90       	pop	r6
     68e:	5f 90       	pop	r5
     690:	4f 90       	pop	r4
     692:	3f 90       	pop	r3
     694:	2f 90       	pop	r2
     696:	08 95       	ret

00000698 <_Z8rebootDMv>:
     698:	0f b6       	in	r0, 0x3f	; 63
     69a:	f8 94       	cli
     69c:	a8 95       	wdr
     69e:	80 91 60 00 	lds	r24, 0x0060	; 0x800060 <__TEXT_REGION_LENGTH__+0x7f8060>
     6a2:	88 61       	ori	r24, 0x18	; 24
     6a4:	80 93 60 00 	sts	0x0060, r24	; 0x800060 <__TEXT_REGION_LENGTH__+0x7f8060>
     6a8:	10 92 60 00 	sts	0x0060, r1	; 0x800060 <__TEXT_REGION_LENGTH__+0x7f8060>
     6ac:	0f be       	out	0x3f, r0	; 63
     6ae:	98 e0       	ldi	r25, 0x08	; 8
     6b0:	88 e1       	ldi	r24, 0x18	; 24
     6b2:	0f b6       	in	r0, 0x3f	; 63
     6b4:	f8 94       	cli
     6b6:	a8 95       	wdr
     6b8:	80 93 60 00 	sts	0x0060, r24	; 0x800060 <__TEXT_REGION_LENGTH__+0x7f8060>
     6bc:	0f be       	out	0x3f, r0	; 63
     6be:	90 93 60 00 	sts	0x0060, r25	; 0x800060 <__TEXT_REGION_LENGTH__+0x7f8060>
     6c2:	ff cf       	rjmp	.-2      	; 0x6c2 <_Z8rebootDMv+0x2a>

000006c4 <_Z9loop_5000v>:
     6c4:	40 91 dd 01 	lds	r20, 0x01DD	; 0x8001dd <currentTime>
     6c8:	50 91 de 01 	lds	r21, 0x01DE	; 0x8001de <currentTime+0x1>
     6cc:	60 91 df 01 	lds	r22, 0x01DF	; 0x8001df <currentTime+0x2>
     6d0:	70 91 e0 01 	lds	r23, 0x01E0	; 0x8001e0 <currentTime+0x3>
     6d4:	80 91 91 03 	lds	r24, 0x0391	; 0x800391 <IGAS_mb_X+0x3>
     6d8:	90 91 92 03 	lds	r25, 0x0392	; 0x800392 <IGAS_mb_X+0x4>
     6dc:	a0 91 93 03 	lds	r26, 0x0393	; 0x800393 <IGAS_mb_X+0x5>
     6e0:	b0 91 94 03 	lds	r27, 0x0394	; 0x800394 <IGAS_mb_X+0x6>
     6e4:	48 1b       	sub	r20, r24
     6e6:	59 0b       	sbc	r21, r25
     6e8:	6a 0b       	sbc	r22, r26
     6ea:	7b 0b       	sbc	r23, r27
     6ec:	80 91 01 01 	lds	r24, 0x0101	; 0x800101 <incomingTimeOut>
     6f0:	90 91 02 01 	lds	r25, 0x0102	; 0x800102 <incomingTimeOut+0x1>
     6f4:	a0 e0       	ldi	r26, 0x00	; 0
     6f6:	b0 e0       	ldi	r27, 0x00	; 0
     6f8:	84 17       	cp	r24, r20
     6fa:	95 07       	cpc	r25, r21
     6fc:	a6 07       	cpc	r26, r22
     6fe:	b7 07       	cpc	r27, r23
     700:	58 f4       	brcc	.+22     	; 0x718 <_Z9loop_5000v+0x54>
     702:	98 e0       	ldi	r25, 0x08	; 8
     704:	88 e1       	ldi	r24, 0x18	; 24
     706:	0f b6       	in	r0, 0x3f	; 63
     708:	f8 94       	cli
     70a:	a8 95       	wdr
     70c:	80 93 60 00 	sts	0x0060, r24	; 0x800060 <__TEXT_REGION_LENGTH__+0x7f8060>
     710:	0f be       	out	0x3f, r0	; 63
     712:	90 93 60 00 	sts	0x0060, r25	; 0x800060 <__TEXT_REGION_LENGTH__+0x7f8060>
     716:	ff cf       	rjmp	.-2      	; 0x716 <_Z9loop_5000v+0x52>
     718:	08 95       	ret

0000071a <_Z8loop_500v>:
     71a:	0f 93       	push	r16
     71c:	1f 93       	push	r17
     71e:	80 91 dd 01 	lds	r24, 0x01DD	; 0x8001dd <currentTime>
     722:	90 91 de 01 	lds	r25, 0x01DE	; 0x8001de <currentTime+0x1>
     726:	a0 91 df 01 	lds	r26, 0x01DF	; 0x8001df <currentTime+0x2>
     72a:	b0 91 e0 01 	lds	r27, 0x01E0	; 0x8001e0 <currentTime+0x3>
     72e:	40 91 d5 01 	lds	r20, 0x01D5	; 0x8001d5 <loop_500_start>
     732:	50 91 d6 01 	lds	r21, 0x01D6	; 0x8001d6 <loop_500_start+0x1>
     736:	60 91 d7 01 	lds	r22, 0x01D7	; 0x8001d7 <loop_500_start+0x2>
     73a:	70 91 d8 01 	lds	r23, 0x01D8	; 0x8001d8 <loop_500_start+0x3>
     73e:	8c 01       	movw	r16, r24
     740:	9d 01       	movw	r18, r26
     742:	04 1b       	sub	r16, r20
     744:	15 0b       	sbc	r17, r21
     746:	26 0b       	sbc	r18, r22
     748:	37 0b       	sbc	r19, r23
     74a:	b9 01       	movw	r22, r18
     74c:	a8 01       	movw	r20, r16
     74e:	45 3f       	cpi	r20, 0xF5	; 245
     750:	51 40       	sbci	r21, 0x01	; 1
     752:	61 05       	cpc	r22, r1
     754:	71 05       	cpc	r23, r1
     756:	c0 f0       	brcs	.+48     	; 0x788 <_Z8loop_500v+0x6e>
     758:	80 93 d5 01 	sts	0x01D5, r24	; 0x8001d5 <loop_500_start>
     75c:	90 93 d6 01 	sts	0x01D6, r25	; 0x8001d6 <loop_500_start+0x1>
     760:	a0 93 d7 01 	sts	0x01D7, r26	; 0x8001d7 <loop_500_start+0x2>
     764:	b0 93 d8 01 	sts	0x01D8, r27	; 0x8001d8 <loop_500_start+0x3>
     768:	80 91 6b 01 	lds	r24, 0x016B	; 0x80016b <sensorStep>
     76c:	81 11       	cpse	r24, r1
     76e:	03 c0       	rjmp	.+6      	; 0x776 <_Z8loop_500v+0x5c>
     770:	81 e0       	ldi	r24, 0x01	; 1
     772:	80 93 6b 01 	sts	0x016B, r24	; 0x80016b <sensorStep>
     776:	80 91 6c 01 	lds	r24, 0x016C	; 0x80016c <watchdogQnt>
     77a:	90 91 6d 01 	lds	r25, 0x016D	; 0x80016d <watchdogQnt+0x1>
     77e:	01 96       	adiw	r24, 0x01	; 1
     780:	90 93 6d 01 	sts	0x016D, r25	; 0x80016d <watchdogQnt+0x1>
     784:	80 93 6c 01 	sts	0x016C, r24	; 0x80016c <watchdogQnt>
     788:	1f 91       	pop	r17
     78a:	0f 91       	pop	r16
     78c:	08 95       	ret

0000078e <_Z4crc8PKhh>:
     78e:	fc 01       	movw	r30, r24
     790:	8f ef       	ldi	r24, 0xFF	; 255
     792:	21 e3       	ldi	r18, 0x31	; 49
     794:	66 23       	and	r22, r22
     796:	69 f0       	breq	.+26     	; 0x7b2 <_Z4crc8PKhh+0x24>
     798:	91 91       	ld	r25, Z+
     79a:	89 27       	eor	r24, r25
     79c:	98 e0       	ldi	r25, 0x08	; 8
     79e:	87 ff       	sbrs	r24, 7
     7a0:	03 c0       	rjmp	.+6      	; 0x7a8 <_Z4crc8PKhh+0x1a>
     7a2:	88 0f       	add	r24, r24
     7a4:	82 27       	eor	r24, r18
     7a6:	01 c0       	rjmp	.+2      	; 0x7aa <_Z4crc8PKhh+0x1c>
     7a8:	88 0f       	add	r24, r24
     7aa:	91 50       	subi	r25, 0x01	; 1
     7ac:	c1 f7       	brne	.-16     	; 0x79e <_Z4crc8PKhh+0x10>
     7ae:	61 50       	subi	r22, 0x01	; 1
     7b0:	f1 cf       	rjmp	.-30     	; 0x794 <_Z4crc8PKhh+0x6>
     7b2:	08 95       	ret

000007b4 <_Z9avarageItfff>:
     7b4:	2f 92       	push	r2
     7b6:	3f 92       	push	r3
     7b8:	4f 92       	push	r4
     7ba:	5f 92       	push	r5
     7bc:	6f 92       	push	r6
     7be:	7f 92       	push	r7
     7c0:	8f 92       	push	r8
     7c2:	9f 92       	push	r9
     7c4:	af 92       	push	r10
     7c6:	bf 92       	push	r11
     7c8:	cf 92       	push	r12
     7ca:	df 92       	push	r13
     7cc:	ef 92       	push	r14
     7ce:	ff 92       	push	r15
     7d0:	0f 93       	push	r16
     7d2:	1f 93       	push	r17
     7d4:	cf 93       	push	r28
     7d6:	df 93       	push	r29
     7d8:	a0 91 1a 03 	lds	r26, 0x031A	; 0x80031a <avarPosition>
     7dc:	e4 e0       	ldi	r30, 0x04	; 4
     7de:	ae 9f       	mul	r26, r30
     7e0:	e0 01       	movw	r28, r0
     7e2:	11 24       	eor	r1, r1
     7e4:	fe 01       	movw	r30, r28
     7e6:	e3 59       	subi	r30, 0x93	; 147
     7e8:	fd 4f       	sbci	r31, 0xFD	; 253
     7ea:	60 83       	st	Z, r22
     7ec:	71 83       	std	Z+1, r23	; 0x01
     7ee:	82 83       	std	Z+2, r24	; 0x02
     7f0:	93 83       	std	Z+3, r25	; 0x03
     7f2:	fe 01       	movw	r30, r28
     7f4:	e3 53       	subi	r30, 0x33	; 51
     7f6:	fd 4f       	sbci	r31, 0xFD	; 253
     7f8:	20 83       	st	Z, r18
     7fa:	31 83       	std	Z+1, r19	; 0x01
     7fc:	42 83       	std	Z+2, r20	; 0x02
     7fe:	53 83       	std	Z+3, r21	; 0x03
     800:	fe 01       	movw	r30, r28
     802:	e3 56       	subi	r30, 0x63	; 99
     804:	fd 4f       	sbci	r31, 0xFD	; 253
     806:	e0 82       	st	Z, r14
     808:	f1 82       	std	Z+1, r15	; 0x01
     80a:	02 83       	std	Z+2, r16	; 0x02
     80c:	13 83       	std	Z+3, r17	; 0x03
     80e:	81 e0       	ldi	r24, 0x01	; 1
     810:	8a 0f       	add	r24, r26
     812:	85 30       	cpi	r24, 0x05	; 5
     814:	18 f4       	brcc	.+6      	; 0x81c <__DATA_REGION_LENGTH__+0x1c>
     816:	80 93 1a 03 	sts	0x031A, r24	; 0x80031a <avarPosition>
     81a:	02 c0       	rjmp	.+4      	; 0x820 <__DATA_REGION_LENGTH__+0x20>
     81c:	10 92 1a 03 	sts	0x031A, r1	; 0x80031a <avarPosition>
     820:	cd e6       	ldi	r28, 0x6D	; 109
     822:	d2 e0       	ldi	r29, 0x02	; 2
     824:	0d ec       	ldi	r16, 0xCD	; 205
     826:	12 e0       	ldi	r17, 0x02	; 2
     828:	8d e9       	ldi	r24, 0x9D	; 157
     82a:	28 2e       	mov	r2, r24
     82c:	82 e0       	ldi	r24, 0x02	; 2
     82e:	38 2e       	mov	r3, r24
     830:	c1 2c       	mov	r12, r1
     832:	d1 2c       	mov	r13, r1
     834:	76 01       	movw	r14, r12
     836:	46 01       	movw	r8, r12
     838:	57 01       	movw	r10, r14
     83a:	26 01       	movw	r4, r12
     83c:	37 01       	movw	r6, r14
     83e:	29 91       	ld	r18, Y+
     840:	39 91       	ld	r19, Y+
     842:	49 91       	ld	r20, Y+
     844:	59 91       	ld	r21, Y+
     846:	c3 01       	movw	r24, r6
     848:	b2 01       	movw	r22, r4
     84a:	0e 94 6c 26 	call	0x4cd8	; 0x4cd8 <__addsf3>
     84e:	2b 01       	movw	r4, r22
     850:	3c 01       	movw	r6, r24
     852:	f8 01       	movw	r30, r16
     854:	21 91       	ld	r18, Z+
     856:	31 91       	ld	r19, Z+
     858:	41 91       	ld	r20, Z+
     85a:	51 91       	ld	r21, Z+
     85c:	8f 01       	movw	r16, r30
     85e:	c5 01       	movw	r24, r10
     860:	b4 01       	movw	r22, r8
     862:	0e 94 6c 26 	call	0x4cd8	; 0x4cd8 <__addsf3>
     866:	4b 01       	movw	r8, r22
     868:	5c 01       	movw	r10, r24
     86a:	f1 01       	movw	r30, r2
     86c:	21 91       	ld	r18, Z+
     86e:	31 91       	ld	r19, Z+
     870:	41 91       	ld	r20, Z+
     872:	51 91       	ld	r21, Z+
     874:	1f 01       	movw	r2, r30
     876:	c7 01       	movw	r24, r14
     878:	b6 01       	movw	r22, r12
     87a:	0e 94 6c 26 	call	0x4cd8	; 0x4cd8 <__addsf3>
     87e:	6b 01       	movw	r12, r22
     880:	7c 01       	movw	r14, r24
     882:	f2 e0       	ldi	r31, 0x02	; 2
     884:	c1 38       	cpi	r28, 0x81	; 129
     886:	df 07       	cpc	r29, r31
     888:	d1 f6       	brne	.-76     	; 0x83e <__DATA_REGION_LENGTH__+0x3e>
     88a:	2d ec       	ldi	r18, 0xCD	; 205
     88c:	3c ec       	ldi	r19, 0xCC	; 204
     88e:	4c e4       	ldi	r20, 0x4C	; 76
     890:	5e e3       	ldi	r21, 0x3E	; 62
     892:	c3 01       	movw	r24, r6
     894:	b2 01       	movw	r22, r4
     896:	0e 94 6e 28 	call	0x50dc	; 0x50dc <__mulsf3>
     89a:	60 93 5d 02 	sts	0x025D, r22	; 0x80025d <AVARAGED>
     89e:	70 93 5e 02 	sts	0x025E, r23	; 0x80025e <AVARAGED+0x1>
     8a2:	80 93 5f 02 	sts	0x025F, r24	; 0x80025f <AVARAGED+0x2>
     8a6:	90 93 60 02 	sts	0x0260, r25	; 0x800260 <AVARAGED+0x3>
     8aa:	2d ec       	ldi	r18, 0xCD	; 205
     8ac:	3c ec       	ldi	r19, 0xCC	; 204
     8ae:	4c e4       	ldi	r20, 0x4C	; 76
     8b0:	5e e3       	ldi	r21, 0x3E	; 62
     8b2:	c5 01       	movw	r24, r10
     8b4:	b4 01       	movw	r22, r8
     8b6:	0e 94 6e 28 	call	0x50dc	; 0x50dc <__mulsf3>
     8ba:	60 93 61 02 	sts	0x0261, r22	; 0x800261 <AVARAGED+0x4>
     8be:	70 93 62 02 	sts	0x0262, r23	; 0x800262 <AVARAGED+0x5>
     8c2:	80 93 63 02 	sts	0x0263, r24	; 0x800263 <AVARAGED+0x6>
     8c6:	90 93 64 02 	sts	0x0264, r25	; 0x800264 <AVARAGED+0x7>
     8ca:	2d ec       	ldi	r18, 0xCD	; 205
     8cc:	3c ec       	ldi	r19, 0xCC	; 204
     8ce:	4c e4       	ldi	r20, 0x4C	; 76
     8d0:	5e e3       	ldi	r21, 0x3E	; 62
     8d2:	c7 01       	movw	r24, r14
     8d4:	b6 01       	movw	r22, r12
     8d6:	0e 94 6e 28 	call	0x50dc	; 0x50dc <__mulsf3>
     8da:	60 93 65 02 	sts	0x0265, r22	; 0x800265 <AVARAGED+0x8>
     8de:	70 93 66 02 	sts	0x0266, r23	; 0x800266 <AVARAGED+0x9>
     8e2:	80 93 67 02 	sts	0x0267, r24	; 0x800267 <AVARAGED+0xa>
     8e6:	90 93 68 02 	sts	0x0268, r25	; 0x800268 <AVARAGED+0xb>
     8ea:	df 91       	pop	r29
     8ec:	cf 91       	pop	r28
     8ee:	1f 91       	pop	r17
     8f0:	0f 91       	pop	r16
     8f2:	ff 90       	pop	r15
     8f4:	ef 90       	pop	r14
     8f6:	df 90       	pop	r13
     8f8:	cf 90       	pop	r12
     8fa:	bf 90       	pop	r11
     8fc:	af 90       	pop	r10
     8fe:	9f 90       	pop	r9
     900:	8f 90       	pop	r8
     902:	7f 90       	pop	r7
     904:	6f 90       	pop	r6
     906:	5f 90       	pop	r5
     908:	4f 90       	pop	r4
     90a:	3f 90       	pop	r3
     90c:	2f 90       	pop	r2
     90e:	08 95       	ret

00000910 <_Z17initCommunicationv>:
     910:	0f 93       	push	r16
     912:	1f 93       	push	r17
     914:	e0 91 eb 01 	lds	r30, 0x01EB	; 0x8001eb <baudRate>
     918:	e1 50       	subi	r30, 0x01	; 1
     91a:	e7 30       	cpi	r30, 0x07	; 7
     91c:	50 f4       	brcc	.+20     	; 0x932 <_Z17initCommunicationv+0x22>
     91e:	f0 e0       	ldi	r31, 0x00	; 0
     920:	ee 0f       	add	r30, r30
     922:	ff 1f       	adc	r31, r31
     924:	e9 5f       	subi	r30, 0xF9	; 249
     926:	fe 4f       	sbci	r31, 0xFE	; 254
     928:	40 81       	ld	r20, Z
     92a:	51 81       	ldd	r21, Z+1	; 0x01
     92c:	60 e0       	ldi	r22, 0x00	; 0
     92e:	70 e0       	ldi	r23, 0x00	; 0
     930:	04 c0       	rjmp	.+8      	; 0x93a <_Z17initCommunicationv+0x2a>
     932:	40 e8       	ldi	r20, 0x80	; 128
     934:	55 e2       	ldi	r21, 0x25	; 37
     936:	60 e0       	ldi	r22, 0x00	; 0
     938:	70 e0       	ldi	r23, 0x00	; 0
     93a:	80 91 ea 01 	lds	r24, 0x01EA	; 0x8001ea <parity>
     93e:	81 30       	cpi	r24, 0x01	; 1
     940:	11 f0       	breq	.+4      	; 0x946 <_Z17initCommunicationv+0x36>
     942:	26 e0       	ldi	r18, 0x06	; 6
     944:	01 c0       	rjmp	.+2      	; 0x948 <_Z17initCommunicationv+0x38>
     946:	26 e2       	ldi	r18, 0x26	; 38
     948:	30 e0       	ldi	r19, 0x00	; 0
     94a:	09 ee       	ldi	r16, 0xE9	; 233
     94c:	13 e0       	ldi	r17, 0x03	; 3
     94e:	8e e8       	ldi	r24, 0x8E	; 142
     950:	93 e0       	ldi	r25, 0x03	; 3
     952:	0e 94 fb 22 	call	0x45f6	; 0x45f6 <_ZN12IGAS_X2X_4856initMBEmii>
     956:	68 ed       	ldi	r22, 0xD8	; 216
     958:	74 e0       	ldi	r23, 0x04	; 4
     95a:	8e e8       	ldi	r24, 0x8E	; 142
     95c:	93 e0       	ldi	r25, 0x03	; 3
     95e:	0e 94 8d 23 	call	0x471a	; 0x471a <_ZN12IGAS_X2X_48511setDelegateEPFvPiiiiE>
     962:	80 91 8d 03 	lds	r24, 0x038D	; 0x80038d <slaveAddr>
     966:	80 93 8e 03 	sts	0x038E, r24	; 0x80038e <IGAS_mb_X>
     96a:	1f 91       	pop	r17
     96c:	0f 91       	pop	r16
     96e:	08 95       	ret

00000970 <_Z12convertFloatfh>:
     970:	cf 93       	push	r28
     972:	df 93       	push	r29
     974:	00 d0       	rcall	.+0      	; 0x976 <_Z12convertFloatfh+0x6>
     976:	00 d0       	rcall	.+0      	; 0x978 <_Z12convertFloatfh+0x8>
     978:	cd b7       	in	r28, 0x3d	; 61
     97a:	de b7       	in	r29, 0x3e	; 62
     97c:	69 83       	std	Y+1, r22	; 0x01
     97e:	7a 83       	std	Y+2, r23	; 0x02
     980:	8b 83       	std	Y+3, r24	; 0x03
     982:	9c 83       	std	Y+4, r25	; 0x04
     984:	50 e0       	ldi	r21, 0x00	; 0
     986:	44 0f       	add	r20, r20
     988:	55 1f       	adc	r21, r21
     98a:	fe 01       	movw	r30, r28
     98c:	e4 0f       	add	r30, r20
     98e:	f5 1f       	adc	r31, r21
     990:	82 81       	ldd	r24, Z+2	; 0x02
     992:	90 e0       	ldi	r25, 0x00	; 0
     994:	98 2f       	mov	r25, r24
     996:	88 27       	eor	r24, r24
     998:	fe 01       	movw	r30, r28
     99a:	e4 0f       	add	r30, r20
     99c:	f5 1f       	adc	r31, r21
     99e:	21 81       	ldd	r18, Z+1	; 0x01
     9a0:	82 2b       	or	r24, r18
     9a2:	0f 90       	pop	r0
     9a4:	0f 90       	pop	r0
     9a6:	0f 90       	pop	r0
     9a8:	0f 90       	pop	r0
     9aa:	df 91       	pop	r29
     9ac:	cf 91       	pop	r28
     9ae:	08 95       	ret

000009b0 <_Z13modbusProceedPiiii>:
     9b0:	2f 92       	push	r2
     9b2:	3f 92       	push	r3
     9b4:	4f 92       	push	r4
     9b6:	5f 92       	push	r5
     9b8:	6f 92       	push	r6
     9ba:	7f 92       	push	r7
     9bc:	8f 92       	push	r8
     9be:	9f 92       	push	r9
     9c0:	af 92       	push	r10
     9c2:	bf 92       	push	r11
     9c4:	cf 92       	push	r12
     9c6:	df 92       	push	r13
     9c8:	ef 92       	push	r14
     9ca:	ff 92       	push	r15
     9cc:	0f 93       	push	r16
     9ce:	1f 93       	push	r17
     9d0:	cf 93       	push	r28
     9d2:	df 93       	push	r29
     9d4:	cd b7       	in	r28, 0x3d	; 61
     9d6:	de b7       	in	r29, 0x3e	; 62
     9d8:	2a 97       	sbiw	r28, 0x0a	; 10
     9da:	0f b6       	in	r0, 0x3f	; 63
     9dc:	f8 94       	cli
     9de:	de bf       	out	0x3e, r29	; 62
     9e0:	0f be       	out	0x3f, r0	; 63
     9e2:	cd bf       	out	0x3d, r28	; 61
     9e4:	7c 01       	movw	r14, r24
     9e6:	a6 2e       	mov	r10, r22
     9e8:	1a 01       	movw	r2, r20
     9ea:	69 01       	movw	r12, r18
     9ec:	80 91 90 03 	lds	r24, 0x0390	; 0x800390 <IGAS_mb_X+0x2>
     9f0:	bb 24       	eor	r11, r11
     9f2:	b3 94       	inc	r11
     9f4:	80 31       	cpi	r24, 0x10	; 16
     9f6:	19 f0       	breq	.+6      	; 0x9fe <_Z13modbusProceedPiiii+0x4e>
     9f8:	86 30       	cpi	r24, 0x06	; 6
     9fa:	09 f0       	breq	.+2      	; 0x9fe <_Z13modbusProceedPiiii+0x4e>
     9fc:	b1 2c       	mov	r11, r1
     9fe:	80 91 dd 01 	lds	r24, 0x01DD	; 0x8001dd <currentTime>
     a02:	90 91 de 01 	lds	r25, 0x01DE	; 0x8001de <currentTime+0x1>
     a06:	a0 91 df 01 	lds	r26, 0x01DF	; 0x8001df <currentTime+0x2>
     a0a:	b0 91 e0 01 	lds	r27, 0x01E0	; 0x8001e0 <currentTime+0x3>
     a0e:	80 93 91 03 	sts	0x0391, r24	; 0x800391 <IGAS_mb_X+0x3>
     a12:	90 93 92 03 	sts	0x0392, r25	; 0x800392 <IGAS_mb_X+0x4>
     a16:	a0 93 93 03 	sts	0x0393, r26	; 0x800393 <IGAS_mb_X+0x5>
     a1a:	b0 93 94 03 	sts	0x0394, r27	; 0x800394 <IGAS_mb_X+0x6>
     a1e:	0a 2d       	mov	r16, r10
     a20:	17 2f       	mov	r17, r23
     a22:	c6 01       	movw	r24, r12
     a24:	0d 2c       	mov	r0, r13
     a26:	00 0c       	add	r0, r0
     a28:	aa 0b       	sbc	r26, r26
     a2a:	bb 0b       	sbc	r27, r27
     a2c:	89 83       	std	Y+1, r24	; 0x01
     a2e:	9a 83       	std	Y+2, r25	; 0x02
     a30:	ab 83       	std	Y+3, r26	; 0x03
     a32:	bc 83       	std	Y+4, r27	; 0x04
     a34:	c6 01       	movw	r24, r12
     a36:	a0 e0       	ldi	r26, 0x00	; 0
     a38:	b0 e0       	ldi	r27, 0x00	; 0
     a3a:	8d 83       	std	Y+5, r24	; 0x05
     a3c:	9e 83       	std	Y+6, r25	; 0x06
     a3e:	af 83       	std	Y+7, r26	; 0x07
     a40:	b8 87       	std	Y+8, r27	; 0x08
     a42:	46 01       	movw	r8, r12
     a44:	99 24       	eor	r9, r9
     a46:	40 2f       	mov	r20, r16
     a48:	90 2f       	mov	r25, r16
     a4a:	9a 19       	sub	r25, r10
     a4c:	a9 2f       	mov	r26, r25
     a4e:	b0 e0       	ldi	r27, 0x00	; 0
     a50:	ba 87       	std	Y+10, r27	; 0x0a
     a52:	a9 87       	std	Y+9, r26	; 0x09
     a54:	a2 15       	cp	r26, r2
     a56:	b3 05       	cpc	r27, r3
     a58:	14 f0       	brlt	.+4      	; 0xa5e <_Z13modbusProceedPiiii+0xae>
     a5a:	0c 94 da 11 	jmp	0x23b4	; 0x23b4 <_Z13modbusProceedPiiii+0x1a04>
     a5e:	06 36       	cpi	r16, 0x66	; 102
     a60:	11 05       	cpc	r17, r1
     a62:	09 f4       	brne	.+2      	; 0xa66 <_Z13modbusProceedPiiii+0xb6>
     a64:	7b c7       	rjmp	.+3830   	; 0x195c <_Z13modbusProceedPiiii+0xfac>
     a66:	0c f0       	brlt	.+2      	; 0xa6a <_Z13modbusProceedPiiii+0xba>
     a68:	33 c2       	rjmp	.+1126   	; 0xed0 <_Z13modbusProceedPiiii+0x520>
     a6a:	0e 31       	cpi	r16, 0x1E	; 30
     a6c:	11 05       	cpc	r17, r1
     a6e:	09 f4       	brne	.+2      	; 0xa72 <_Z13modbusProceedPiiii+0xc2>
     a70:	a5 c5       	rjmp	.+2890   	; 0x15bc <_Z13modbusProceedPiiii+0xc0c>
     a72:	0c f0       	brlt	.+2      	; 0xa76 <_Z13modbusProceedPiiii+0xc6>
     a74:	19 c1       	rjmp	.+562    	; 0xca8 <_Z13modbusProceedPiiii+0x2f8>
     a76:	0e 30       	cpi	r16, 0x0E	; 14
     a78:	11 05       	cpc	r17, r1
     a7a:	09 f4       	brne	.+2      	; 0xa7e <_Z13modbusProceedPiiii+0xce>
     a7c:	9b c4       	rjmp	.+2358   	; 0x13b4 <_Z13modbusProceedPiiii+0xa04>
     a7e:	0c f0       	brlt	.+2      	; 0xa82 <_Z13modbusProceedPiiii+0xd2>
     a80:	8b c0       	rjmp	.+278    	; 0xb98 <_Z13modbusProceedPiiii+0x1e8>
     a82:	06 30       	cpi	r16, 0x06	; 6
     a84:	11 05       	cpc	r17, r1
     a86:	09 f4       	brne	.+2      	; 0xa8a <_Z13modbusProceedPiiii+0xda>
     a88:	06 c4       	rjmp	.+2060   	; 0x1296 <_Z13modbusProceedPiiii+0x8e6>
     a8a:	0c f0       	brlt	.+2      	; 0xa8e <_Z13modbusProceedPiiii+0xde>
     a8c:	44 c0       	rjmp	.+136    	; 0xb16 <_Z13modbusProceedPiiii+0x166>
     a8e:	02 30       	cpi	r16, 0x02	; 2
     a90:	11 05       	cpc	r17, r1
     a92:	09 f4       	brne	.+2      	; 0xa96 <_Z13modbusProceedPiiii+0xe6>
     a94:	b8 c3       	rjmp	.+1904   	; 0x1206 <_Z13modbusProceedPiiii+0x856>
     a96:	0c f5       	brge	.+66     	; 0xada <_Z13modbusProceedPiiii+0x12a>
     a98:	01 15       	cp	r16, r1
     a9a:	11 05       	cpc	r17, r1
     a9c:	09 f4       	brne	.+2      	; 0xaa0 <_Z13modbusProceedPiiii+0xf0>
     a9e:	9b c3       	rjmp	.+1846   	; 0x11d6 <_Z13modbusProceedPiiii+0x826>
     aa0:	01 30       	cpi	r16, 0x01	; 1
     aa2:	11 05       	cpc	r17, r1
     aa4:	11 f0       	breq	.+4      	; 0xaaa <_Z13modbusProceedPiiii+0xfa>
     aa6:	0c 94 cc 11 	jmp	0x2398	; 0x2398 <_Z13modbusProceedPiiii+0x19e8>
     aaa:	e9 85       	ldd	r30, Y+9	; 0x09
     aac:	fa 85       	ldd	r31, Y+10	; 0x0a
     aae:	ee 0f       	add	r30, r30
     ab0:	ff 1f       	adc	r31, r31
     ab2:	ee 0d       	add	r30, r14
     ab4:	ff 1d       	adc	r31, r15
     ab6:	fa 87       	std	Y+10, r31	; 0x0a
     ab8:	e9 87       	std	Y+9, r30	; 0x09
     aba:	60 91 7f 03 	lds	r22, 0x037F	; 0x80037f <pressure_Bar>
     abe:	70 91 80 03 	lds	r23, 0x0380	; 0x800380 <pressure_Bar+0x1>
     ac2:	80 91 81 03 	lds	r24, 0x0381	; 0x800381 <pressure_Bar+0x2>
     ac6:	90 91 82 03 	lds	r25, 0x0382	; 0x800382 <pressure_Bar+0x3>
     aca:	41 e0       	ldi	r20, 0x01	; 1
     acc:	51 df       	rcall	.-350    	; 0x970 <_Z12convertFloatfh>
     ace:	a9 85       	ldd	r26, Y+9	; 0x09
     ad0:	ba 85       	ldd	r27, Y+10	; 0x0a
     ad2:	8d 93       	st	X+, r24
     ad4:	9c 93       	st	X, r25
     ad6:	0c 94 d6 11 	jmp	0x23ac	; 0x23ac <_Z13modbusProceedPiiii+0x19fc>
     ada:	04 30       	cpi	r16, 0x04	; 4
     adc:	11 05       	cpc	r17, r1
     ade:	09 f4       	brne	.+2      	; 0xae2 <_Z13modbusProceedPiiii+0x132>
     ae0:	aa c3       	rjmp	.+1876   	; 0x1236 <_Z13modbusProceedPiiii+0x886>
     ae2:	0c f0       	brlt	.+2      	; 0xae6 <_Z13modbusProceedPiiii+0x136>
     ae4:	c0 c3       	rjmp	.+1920   	; 0x1266 <_Z13modbusProceedPiiii+0x8b6>
     ae6:	e9 85       	ldd	r30, Y+9	; 0x09
     ae8:	fa 85       	ldd	r31, Y+10	; 0x0a
     aea:	ee 0f       	add	r30, r30
     aec:	ff 1f       	adc	r31, r31
     aee:	ee 0d       	add	r30, r14
     af0:	ff 1d       	adc	r31, r15
     af2:	fa 87       	std	Y+10, r31	; 0x0a
     af4:	e9 87       	std	Y+9, r30	; 0x09
     af6:	60 91 7b 03 	lds	r22, 0x037B	; 0x80037b <pressure_MPa>
     afa:	70 91 7c 03 	lds	r23, 0x037C	; 0x80037c <pressure_MPa+0x1>
     afe:	80 91 7d 03 	lds	r24, 0x037D	; 0x80037d <pressure_MPa+0x2>
     b02:	90 91 7e 03 	lds	r25, 0x037E	; 0x80037e <pressure_MPa+0x3>
     b06:	41 e0       	ldi	r20, 0x01	; 1
     b08:	33 df       	rcall	.-410    	; 0x970 <_Z12convertFloatfh>
     b0a:	a9 85       	ldd	r26, Y+9	; 0x09
     b0c:	ba 85       	ldd	r27, Y+10	; 0x0a
     b0e:	8d 93       	st	X+, r24
     b10:	9c 93       	st	X, r25
     b12:	0c 94 d6 11 	jmp	0x23ac	; 0x23ac <_Z13modbusProceedPiiii+0x19fc>
     b16:	0a 30       	cpi	r16, 0x0A	; 10
     b18:	11 05       	cpc	r17, r1
     b1a:	09 f4       	brne	.+2      	; 0xb1e <_Z13modbusProceedPiiii+0x16e>
     b1c:	04 c4       	rjmp	.+2056   	; 0x1326 <_Z13modbusProceedPiiii+0x976>
     b1e:	f4 f4       	brge	.+60     	; 0xb5c <_Z13modbusProceedPiiii+0x1ac>
     b20:	08 30       	cpi	r16, 0x08	; 8
     b22:	11 05       	cpc	r17, r1
     b24:	09 f4       	brne	.+2      	; 0xb28 <_Z13modbusProceedPiiii+0x178>
     b26:	cf c3       	rjmp	.+1950   	; 0x12c6 <_Z13modbusProceedPiiii+0x916>
     b28:	0c f0       	brlt	.+2      	; 0xb2c <_Z13modbusProceedPiiii+0x17c>
     b2a:	e5 c3       	rjmp	.+1994   	; 0x12f6 <_Z13modbusProceedPiiii+0x946>
     b2c:	e9 85       	ldd	r30, Y+9	; 0x09
     b2e:	fa 85       	ldd	r31, Y+10	; 0x0a
     b30:	ee 0f       	add	r30, r30
     b32:	ff 1f       	adc	r31, r31
     b34:	ee 0d       	add	r30, r14
     b36:	ff 1d       	adc	r31, r15
     b38:	fa 87       	std	Y+10, r31	; 0x0a
     b3a:	e9 87       	std	Y+9, r30	; 0x09
     b3c:	60 91 83 03 	lds	r22, 0x0383	; 0x800383 <pressure_kPa>
     b40:	70 91 84 03 	lds	r23, 0x0384	; 0x800384 <pressure_kPa+0x1>
     b44:	80 91 85 03 	lds	r24, 0x0385	; 0x800385 <pressure_kPa+0x2>
     b48:	90 91 86 03 	lds	r25, 0x0386	; 0x800386 <pressure_kPa+0x3>
     b4c:	41 e0       	ldi	r20, 0x01	; 1
     b4e:	10 df       	rcall	.-480    	; 0x970 <_Z12convertFloatfh>
     b50:	a9 85       	ldd	r26, Y+9	; 0x09
     b52:	ba 85       	ldd	r27, Y+10	; 0x0a
     b54:	8d 93       	st	X+, r24
     b56:	9c 93       	st	X, r25
     b58:	0c 94 d6 11 	jmp	0x23ac	; 0x23ac <_Z13modbusProceedPiiii+0x19fc>
     b5c:	0c 30       	cpi	r16, 0x0C	; 12
     b5e:	11 05       	cpc	r17, r1
     b60:	09 f4       	brne	.+2      	; 0xb64 <_Z13modbusProceedPiiii+0x1b4>
     b62:	f9 c3       	rjmp	.+2034   	; 0x1356 <_Z13modbusProceedPiiii+0x9a6>
     b64:	0c f0       	brlt	.+2      	; 0xb68 <_Z13modbusProceedPiiii+0x1b8>
     b66:	0f c4       	rjmp	.+2078   	; 0x1386 <_Z13modbusProceedPiiii+0x9d6>
     b68:	e9 85       	ldd	r30, Y+9	; 0x09
     b6a:	fa 85       	ldd	r31, Y+10	; 0x0a
     b6c:	ee 0f       	add	r30, r30
     b6e:	ff 1f       	adc	r31, r31
     b70:	ee 0d       	add	r30, r14
     b72:	ff 1d       	adc	r31, r15
     b74:	fa 87       	std	Y+10, r31	; 0x0a
     b76:	e9 87       	std	Y+9, r30	; 0x09
     b78:	60 91 6f 03 	lds	r22, 0x036F	; 0x80036f <pressure_Ncm2>
     b7c:	70 91 70 03 	lds	r23, 0x0370	; 0x800370 <pressure_Ncm2+0x1>
     b80:	80 91 71 03 	lds	r24, 0x0371	; 0x800371 <pressure_Ncm2+0x2>
     b84:	90 91 72 03 	lds	r25, 0x0372	; 0x800372 <pressure_Ncm2+0x3>
     b88:	41 e0       	ldi	r20, 0x01	; 1
     b8a:	f2 de       	rcall	.-540    	; 0x970 <_Z12convertFloatfh>
     b8c:	a9 85       	ldd	r26, Y+9	; 0x09
     b8e:	ba 85       	ldd	r27, Y+10	; 0x0a
     b90:	8d 93       	st	X+, r24
     b92:	9c 93       	st	X, r25
     b94:	0c 94 d6 11 	jmp	0x23ac	; 0x23ac <_Z13modbusProceedPiiii+0x19fc>
     b98:	06 31       	cpi	r16, 0x16	; 22
     b9a:	11 05       	cpc	r17, r1
     b9c:	09 f4       	brne	.+2      	; 0xba0 <_Z13modbusProceedPiiii+0x1f0>
     b9e:	84 c4       	rjmp	.+2312   	; 0x14a8 <_Z13modbusProceedPiiii+0xaf8>
     ba0:	0c f0       	brlt	.+2      	; 0xba4 <_Z13modbusProceedPiiii+0x1f4>
     ba2:	41 c0       	rjmp	.+130    	; 0xc26 <_Z13modbusProceedPiiii+0x276>
     ba4:	02 31       	cpi	r16, 0x12	; 18
     ba6:	11 05       	cpc	r17, r1
     ba8:	09 f4       	brne	.+2      	; 0xbac <_Z13modbusProceedPiiii+0x1fc>
     baa:	49 c4       	rjmp	.+2194   	; 0x143e <_Z13modbusProceedPiiii+0xa8e>
     bac:	f4 f4       	brge	.+60     	; 0xbea <_Z13modbusProceedPiiii+0x23a>
     bae:	00 31       	cpi	r16, 0x10	; 16
     bb0:	11 05       	cpc	r17, r1
     bb2:	09 f4       	brne	.+2      	; 0xbb6 <_Z13modbusProceedPiiii+0x206>
     bb4:	16 c4       	rjmp	.+2092   	; 0x13e2 <_Z13modbusProceedPiiii+0xa32>
     bb6:	0c f0       	brlt	.+2      	; 0xbba <_Z13modbusProceedPiiii+0x20a>
     bb8:	2b c4       	rjmp	.+2134   	; 0x1410 <_Z13modbusProceedPiiii+0xa60>
     bba:	e9 85       	ldd	r30, Y+9	; 0x09
     bbc:	fa 85       	ldd	r31, Y+10	; 0x0a
     bbe:	ee 0f       	add	r30, r30
     bc0:	ff 1f       	adc	r31, r31
     bc2:	ee 0d       	add	r30, r14
     bc4:	ff 1d       	adc	r31, r15
     bc6:	fa 87       	std	Y+10, r31	; 0x0a
     bc8:	e9 87       	std	Y+9, r30	; 0x09
     bca:	60 91 5b 03 	lds	r22, 0x035B	; 0x80035b <temperatureK>
     bce:	70 91 5c 03 	lds	r23, 0x035C	; 0x80035c <temperatureK+0x1>
     bd2:	80 91 5d 03 	lds	r24, 0x035D	; 0x80035d <temperatureK+0x2>
     bd6:	90 91 5e 03 	lds	r25, 0x035E	; 0x80035e <temperatureK+0x3>
     bda:	41 e0       	ldi	r20, 0x01	; 1
     bdc:	c9 de       	rcall	.-622    	; 0x970 <_Z12convertFloatfh>
     bde:	a9 85       	ldd	r26, Y+9	; 0x09
     be0:	ba 85       	ldd	r27, Y+10	; 0x0a
     be2:	8d 93       	st	X+, r24
     be4:	9c 93       	st	X, r25
     be6:	0c 94 d6 11 	jmp	0x23ac	; 0x23ac <_Z13modbusProceedPiiii+0x19fc>
     bea:	60 91 53 03 	lds	r22, 0x0353	; 0x800353 <gasDensityG>
     bee:	70 91 54 03 	lds	r23, 0x0354	; 0x800354 <gasDensityG+0x1>
     bf2:	80 91 55 03 	lds	r24, 0x0355	; 0x800355 <gasDensityG+0x2>
     bf6:	90 91 56 03 	lds	r25, 0x0356	; 0x800356 <gasDensityG+0x3>
     bfa:	04 31       	cpi	r16, 0x14	; 20
     bfc:	11 05       	cpc	r17, r1
     bfe:	09 f4       	brne	.+2      	; 0xc02 <_Z13modbusProceedPiiii+0x252>
     c00:	35 c4       	rjmp	.+2154   	; 0x146c <_Z13modbusProceedPiiii+0xabc>
     c02:	0c f0       	brlt	.+2      	; 0xc06 <_Z13modbusProceedPiiii+0x256>
     c04:	42 c4       	rjmp	.+2180   	; 0x148a <_Z13modbusProceedPiiii+0xada>
     c06:	e9 85       	ldd	r30, Y+9	; 0x09
     c08:	fa 85       	ldd	r31, Y+10	; 0x0a
     c0a:	ee 0f       	add	r30, r30
     c0c:	ff 1f       	adc	r31, r31
     c0e:	ee 0d       	add	r30, r14
     c10:	ff 1d       	adc	r31, r15
     c12:	fa 87       	std	Y+10, r31	; 0x0a
     c14:	e9 87       	std	Y+9, r30	; 0x09
     c16:	41 e0       	ldi	r20, 0x01	; 1
     c18:	ab de       	rcall	.-682    	; 0x970 <_Z12convertFloatfh>
     c1a:	a9 85       	ldd	r26, Y+9	; 0x09
     c1c:	ba 85       	ldd	r27, Y+10	; 0x0a
     c1e:	8d 93       	st	X+, r24
     c20:	9c 93       	st	X, r25
     c22:	0c 94 d6 11 	jmp	0x23ac	; 0x23ac <_Z13modbusProceedPiiii+0x19fc>
     c26:	0a 31       	cpi	r16, 0x1A	; 26
     c28:	11 05       	cpc	r17, r1
     c2a:	09 f4       	brne	.+2      	; 0xc2e <_Z13modbusProceedPiiii+0x27e>
     c2c:	82 c4       	rjmp	.+2308   	; 0x1532 <_Z13modbusProceedPiiii+0xb82>
     c2e:	f4 f4       	brge	.+60     	; 0xc6c <_Z13modbusProceedPiiii+0x2bc>
     c30:	08 31       	cpi	r16, 0x18	; 24
     c32:	11 05       	cpc	r17, r1
     c34:	09 f4       	brne	.+2      	; 0xc38 <_Z13modbusProceedPiiii+0x288>
     c36:	4f c4       	rjmp	.+2206   	; 0x14d6 <_Z13modbusProceedPiiii+0xb26>
     c38:	0c f0       	brlt	.+2      	; 0xc3c <_Z13modbusProceedPiiii+0x28c>
     c3a:	64 c4       	rjmp	.+2248   	; 0x1504 <_Z13modbusProceedPiiii+0xb54>
     c3c:	e9 85       	ldd	r30, Y+9	; 0x09
     c3e:	fa 85       	ldd	r31, Y+10	; 0x0a
     c40:	ee 0f       	add	r30, r30
     c42:	ff 1f       	adc	r31, r31
     c44:	ee 0d       	add	r30, r14
     c46:	ff 1d       	adc	r31, r15
     c48:	fa 87       	std	Y+10, r31	; 0x0a
     c4a:	e9 87       	std	Y+9, r30	; 0x09
     c4c:	60 91 4d 03 	lds	r22, 0x034D	; 0x80034d <pressure_Bar20>
     c50:	70 91 4e 03 	lds	r23, 0x034E	; 0x80034e <pressure_Bar20+0x1>
     c54:	80 91 4f 03 	lds	r24, 0x034F	; 0x80034f <pressure_Bar20+0x2>
     c58:	90 91 50 03 	lds	r25, 0x0350	; 0x800350 <pressure_Bar20+0x3>
     c5c:	41 e0       	ldi	r20, 0x01	; 1
     c5e:	88 de       	rcall	.-752    	; 0x970 <_Z12convertFloatfh>
     c60:	a9 85       	ldd	r26, Y+9	; 0x09
     c62:	ba 85       	ldd	r27, Y+10	; 0x0a
     c64:	8d 93       	st	X+, r24
     c66:	9c 93       	st	X, r25
     c68:	0c 94 d6 11 	jmp	0x23ac	; 0x23ac <_Z13modbusProceedPiiii+0x19fc>
     c6c:	0c 31       	cpi	r16, 0x1C	; 28
     c6e:	11 05       	cpc	r17, r1
     c70:	09 f4       	brne	.+2      	; 0xc74 <_Z13modbusProceedPiiii+0x2c4>
     c72:	76 c4       	rjmp	.+2284   	; 0x1560 <_Z13modbusProceedPiiii+0xbb0>
     c74:	0c f0       	brlt	.+2      	; 0xc78 <_Z13modbusProceedPiiii+0x2c8>
     c76:	8b c4       	rjmp	.+2326   	; 0x158e <_Z13modbusProceedPiiii+0xbde>
     c78:	e9 85       	ldd	r30, Y+9	; 0x09
     c7a:	fa 85       	ldd	r31, Y+10	; 0x0a
     c7c:	ee 0f       	add	r30, r30
     c7e:	ff 1f       	adc	r31, r31
     c80:	ee 0d       	add	r30, r14
     c82:	ff 1d       	adc	r31, r15
     c84:	fa 87       	std	Y+10, r31	; 0x0a
     c86:	e9 87       	std	Y+9, r30	; 0x09
     c88:	60 91 2f 03 	lds	r22, 0x032F	; 0x80032f <dewPointAtm>
     c8c:	70 91 30 03 	lds	r23, 0x0330	; 0x800330 <dewPointAtm+0x1>
     c90:	80 91 31 03 	lds	r24, 0x0331	; 0x800331 <dewPointAtm+0x2>
     c94:	90 91 32 03 	lds	r25, 0x0332	; 0x800332 <dewPointAtm+0x3>
     c98:	41 e0       	ldi	r20, 0x01	; 1
     c9a:	6a de       	rcall	.-812    	; 0x970 <_Z12convertFloatfh>
     c9c:	a9 85       	ldd	r26, Y+9	; 0x09
     c9e:	ba 85       	ldd	r27, Y+10	; 0x0a
     ca0:	8d 93       	st	X+, r24
     ca2:	9c 93       	st	X, r25
     ca4:	0c 94 d6 11 	jmp	0x23ac	; 0x23ac <_Z13modbusProceedPiiii+0x19fc>
     ca8:	07 34       	cpi	r16, 0x47	; 71
     caa:	11 05       	cpc	r17, r1
     cac:	09 f4       	brne	.+2      	; 0xcb0 <_Z13modbusProceedPiiii+0x300>
     cae:	83 c5       	rjmp	.+2822   	; 0x17b6 <_Z13modbusProceedPiiii+0xe06>
     cb0:	0c f0       	brlt	.+2      	; 0xcb4 <_Z13modbusProceedPiiii+0x304>
     cb2:	9a c0       	rjmp	.+308    	; 0xde8 <_Z13modbusProceedPiiii+0x438>
     cb4:	01 33       	cpi	r16, 0x31	; 49
     cb6:	11 05       	cpc	r17, r1
     cb8:	09 f4       	brne	.+2      	; 0xcbc <_Z13modbusProceedPiiii+0x30c>
     cba:	f3 c4       	rjmp	.+2534   	; 0x16a2 <_Z13modbusProceedPiiii+0xcf2>
     cbc:	0c f0       	brlt	.+2      	; 0xcc0 <_Z13modbusProceedPiiii+0x310>
     cbe:	49 c0       	rjmp	.+146    	; 0xd52 <_Z13modbusProceedPiiii+0x3a2>
     cc0:	09 32       	cpi	r16, 0x29	; 41
     cc2:	11 05       	cpc	r17, r1
     cc4:	09 f4       	brne	.+2      	; 0xcc8 <_Z13modbusProceedPiiii+0x318>
     cc6:	a8 c4       	rjmp	.+2384   	; 0x1618 <_Z13modbusProceedPiiii+0xc68>
     cc8:	0c f5       	brge	.+66     	; 0xd0c <_Z13modbusProceedPiiii+0x35c>
     cca:	0f 31       	cpi	r16, 0x1F	; 31
     ccc:	11 05       	cpc	r17, r1
     cce:	09 f4       	brne	.+2      	; 0xcd2 <_Z13modbusProceedPiiii+0x322>
     cd0:	8c c4       	rjmp	.+2328   	; 0x15ea <_Z13modbusProceedPiiii+0xc3a>
     cd2:	08 32       	cpi	r16, 0x28	; 40
     cd4:	11 05       	cpc	r17, r1
     cd6:	11 f0       	breq	.+4      	; 0xcdc <_Z13modbusProceedPiiii+0x32c>
     cd8:	0c 94 cc 11 	jmp	0x2398	; 0x2398 <_Z13modbusProceedPiiii+0x19e8>
     cdc:	e9 85       	ldd	r30, Y+9	; 0x09
     cde:	fa 85       	ldd	r31, Y+10	; 0x0a
     ce0:	ee 0f       	add	r30, r30
     ce2:	ff 1f       	adc	r31, r31
     ce4:	ee 0d       	add	r30, r14
     ce6:	ff 1d       	adc	r31, r15
     ce8:	fa 87       	std	Y+10, r31	; 0x0a
     cea:	e9 87       	std	Y+9, r30	; 0x09
     cec:	60 91 27 03 	lds	r22, 0x0327	; 0x800327 <PPMv>
     cf0:	70 91 28 03 	lds	r23, 0x0328	; 0x800328 <PPMv+0x1>
     cf4:	80 91 29 03 	lds	r24, 0x0329	; 0x800329 <PPMv+0x2>
     cf8:	90 91 2a 03 	lds	r25, 0x032A	; 0x80032a <PPMv+0x3>
     cfc:	40 e0       	ldi	r20, 0x00	; 0
     cfe:	38 de       	rcall	.-912    	; 0x970 <_Z12convertFloatfh>
     d00:	a9 85       	ldd	r26, Y+9	; 0x09
     d02:	ba 85       	ldd	r27, Y+10	; 0x0a
     d04:	8d 93       	st	X+, r24
     d06:	9c 93       	st	X, r25
     d08:	0c 94 d6 11 	jmp	0x23ac	; 0x23ac <_Z13modbusProceedPiiii+0x19fc>
     d0c:	0b 32       	cpi	r16, 0x2B	; 43
     d0e:	11 05       	cpc	r17, r1
     d10:	09 f4       	brne	.+2      	; 0xd14 <_Z13modbusProceedPiiii+0x364>
     d12:	b0 c4       	rjmp	.+2400   	; 0x1674 <_Z13modbusProceedPiiii+0xcc4>
     d14:	0c f4       	brge	.+2      	; 0xd18 <_Z13modbusProceedPiiii+0x368>
     d16:	97 c4       	rjmp	.+2350   	; 0x1646 <_Z13modbusProceedPiiii+0xc96>
     d18:	00 33       	cpi	r16, 0x30	; 48
     d1a:	11 05       	cpc	r17, r1
     d1c:	11 f0       	breq	.+4      	; 0xd22 <_Z13modbusProceedPiiii+0x372>
     d1e:	0c 94 cc 11 	jmp	0x2398	; 0x2398 <_Z13modbusProceedPiiii+0x19e8>
     d22:	e9 85       	ldd	r30, Y+9	; 0x09
     d24:	fa 85       	ldd	r31, Y+10	; 0x0a
     d26:	ee 0f       	add	r30, r30
     d28:	ff 1f       	adc	r31, r31
     d2a:	ee 0d       	add	r30, r14
     d2c:	ff 1d       	adc	r31, r15
     d2e:	fa 87       	std	Y+10, r31	; 0x0a
     d30:	e9 87       	std	Y+9, r30	; 0x09
     d32:	60 91 0a 03 	lds	r22, 0x030A	; 0x80030a <RH_Tuned>
     d36:	70 91 0b 03 	lds	r23, 0x030B	; 0x80030b <RH_Tuned+0x1>
     d3a:	80 91 0c 03 	lds	r24, 0x030C	; 0x80030c <RH_Tuned+0x2>
     d3e:	90 91 0d 03 	lds	r25, 0x030D	; 0x80030d <RH_Tuned+0x3>
     d42:	40 e0       	ldi	r20, 0x00	; 0
     d44:	15 de       	rcall	.-982    	; 0x970 <_Z12convertFloatfh>
     d46:	a9 85       	ldd	r26, Y+9	; 0x09
     d48:	ba 85       	ldd	r27, Y+10	; 0x0a
     d4a:	8d 93       	st	X+, r24
     d4c:	9c 93       	st	X, r25
     d4e:	0c 94 d6 11 	jmp	0x23ac	; 0x23ac <_Z13modbusProceedPiiii+0x19fc>
     d52:	0d 33       	cpi	r16, 0x3D	; 61
     d54:	11 05       	cpc	r17, r1
     d56:	09 f4       	brne	.+2      	; 0xd5a <_Z13modbusProceedPiiii+0x3aa>
     d58:	e9 c4       	rjmp	.+2514   	; 0x172c <_Z13modbusProceedPiiii+0xd7c>
     d5a:	1c f5       	brge	.+70     	; 0xda2 <_Z13modbusProceedPiiii+0x3f2>
     d5c:	0b 33       	cpi	r16, 0x3B	; 59
     d5e:	11 05       	cpc	r17, r1
     d60:	09 f4       	brne	.+2      	; 0xd64 <_Z13modbusProceedPiiii+0x3b4>
     d62:	b6 c4       	rjmp	.+2412   	; 0x16d0 <_Z13modbusProceedPiiii+0xd20>
     d64:	0c f0       	brlt	.+2      	; 0xd68 <_Z13modbusProceedPiiii+0x3b8>
     d66:	cb c4       	rjmp	.+2454   	; 0x16fe <_Z13modbusProceedPiiii+0xd4e>
     d68:	0a 33       	cpi	r16, 0x3A	; 58
     d6a:	11 05       	cpc	r17, r1
     d6c:	11 f0       	breq	.+4      	; 0xd72 <_Z13modbusProceedPiiii+0x3c2>
     d6e:	0c 94 cc 11 	jmp	0x2398	; 0x2398 <_Z13modbusProceedPiiii+0x19e8>
     d72:	e9 85       	ldd	r30, Y+9	; 0x09
     d74:	fa 85       	ldd	r31, Y+10	; 0x0a
     d76:	ee 0f       	add	r30, r30
     d78:	ff 1f       	adc	r31, r31
     d7a:	ee 0d       	add	r30, r14
     d7c:	ff 1d       	adc	r31, r15
     d7e:	fa 87       	std	Y+10, r31	; 0x0a
     d80:	e9 87       	std	Y+9, r30	; 0x09
     d82:	60 91 47 03 	lds	r22, 0x0347	; 0x800347 <pressure_Bar20Rel>
     d86:	70 91 48 03 	lds	r23, 0x0348	; 0x800348 <pressure_Bar20Rel+0x1>
     d8a:	80 91 49 03 	lds	r24, 0x0349	; 0x800349 <pressure_Bar20Rel+0x2>
     d8e:	90 91 4a 03 	lds	r25, 0x034A	; 0x80034a <pressure_Bar20Rel+0x3>
     d92:	40 e0       	ldi	r20, 0x00	; 0
     d94:	ed dd       	rcall	.-1062   	; 0x970 <_Z12convertFloatfh>
     d96:	a9 85       	ldd	r26, Y+9	; 0x09
     d98:	ba 85       	ldd	r27, Y+10	; 0x0a
     d9a:	8d 93       	st	X+, r24
     d9c:	9c 93       	st	X, r25
     d9e:	0c 94 d6 11 	jmp	0x23ac	; 0x23ac <_Z13modbusProceedPiiii+0x19fc>
     da2:	0f 33       	cpi	r16, 0x3F	; 63
     da4:	11 05       	cpc	r17, r1
     da6:	09 f4       	brne	.+2      	; 0xdaa <_Z13modbusProceedPiiii+0x3fa>
     da8:	ef c4       	rjmp	.+2526   	; 0x1788 <_Z13modbusProceedPiiii+0xdd8>
     daa:	0c f4       	brge	.+2      	; 0xdae <_Z13modbusProceedPiiii+0x3fe>
     dac:	d6 c4       	rjmp	.+2476   	; 0x175a <_Z13modbusProceedPiiii+0xdaa>
     dae:	06 34       	cpi	r16, 0x46	; 70
     db0:	11 05       	cpc	r17, r1
     db2:	11 f0       	breq	.+4      	; 0xdb8 <_Z13modbusProceedPiiii+0x408>
     db4:	0c 94 cc 11 	jmp	0x2398	; 0x2398 <_Z13modbusProceedPiiii+0x19e8>
     db8:	e9 85       	ldd	r30, Y+9	; 0x09
     dba:	fa 85       	ldd	r31, Y+10	; 0x0a
     dbc:	ee 0f       	add	r30, r30
     dbe:	ff 1f       	adc	r31, r31
     dc0:	ee 0d       	add	r30, r14
     dc2:	ff 1d       	adc	r31, r15
     dc4:	fa 87       	std	Y+10, r31	; 0x0a
     dc6:	e9 87       	std	Y+9, r30	; 0x09
     dc8:	60 91 16 03 	lds	r22, 0x0316	; 0x800316 <pressureRAW>
     dcc:	70 91 17 03 	lds	r23, 0x0317	; 0x800317 <pressureRAW+0x1>
     dd0:	80 91 18 03 	lds	r24, 0x0318	; 0x800318 <pressureRAW+0x2>
     dd4:	90 91 19 03 	lds	r25, 0x0319	; 0x800319 <pressureRAW+0x3>
     dd8:	40 e0       	ldi	r20, 0x00	; 0
     dda:	ca dd       	rcall	.-1132   	; 0x970 <_Z12convertFloatfh>
     ddc:	a9 85       	ldd	r26, Y+9	; 0x09
     dde:	ba 85       	ldd	r27, Y+10	; 0x0a
     de0:	8d 93       	st	X+, r24
     de2:	9c 93       	st	X, r25
     de4:	0c 94 d6 11 	jmp	0x23ac	; 0x23ac <_Z13modbusProceedPiiii+0x19fc>
     de8:	0f 34       	cpi	r16, 0x4F	; 79
     dea:	11 05       	cpc	r17, r1
     dec:	09 f4       	brne	.+2      	; 0xdf0 <_Z13modbusProceedPiiii+0x440>
     dee:	62 c5       	rjmp	.+2756   	; 0x18b4 <_Z13modbusProceedPiiii+0xf04>
     df0:	0c f0       	brlt	.+2      	; 0xdf4 <_Z13modbusProceedPiiii+0x444>
     df2:	41 c0       	rjmp	.+130    	; 0xe76 <_Z13modbusProceedPiiii+0x4c6>
     df4:	0b 34       	cpi	r16, 0x4B	; 75
     df6:	11 05       	cpc	r17, r1
     df8:	09 f4       	brne	.+2      	; 0xdfc <_Z13modbusProceedPiiii+0x44c>
     dfa:	22 c5       	rjmp	.+2628   	; 0x1840 <_Z13modbusProceedPiiii+0xe90>
     dfc:	f4 f4       	brge	.+60     	; 0xe3a <_Z13modbusProceedPiiii+0x48a>
     dfe:	09 34       	cpi	r16, 0x49	; 73
     e00:	11 05       	cpc	r17, r1
     e02:	09 f4       	brne	.+2      	; 0xe06 <_Z13modbusProceedPiiii+0x456>
     e04:	ef c4       	rjmp	.+2526   	; 0x17e4 <_Z13modbusProceedPiiii+0xe34>
     e06:	0c f0       	brlt	.+2      	; 0xe0a <_Z13modbusProceedPiiii+0x45a>
     e08:	04 c5       	rjmp	.+2568   	; 0x1812 <_Z13modbusProceedPiiii+0xe62>
     e0a:	e9 85       	ldd	r30, Y+9	; 0x09
     e0c:	fa 85       	ldd	r31, Y+10	; 0x0a
     e0e:	ee 0f       	add	r30, r30
     e10:	ff 1f       	adc	r31, r31
     e12:	ee 0d       	add	r30, r14
     e14:	ff 1d       	adc	r31, r15
     e16:	fa 87       	std	Y+10, r31	; 0x0a
     e18:	e9 87       	std	Y+9, r30	; 0x09
     e1a:	60 91 12 03 	lds	r22, 0x0312	; 0x800312 <temperatureRAW>
     e1e:	70 91 13 03 	lds	r23, 0x0313	; 0x800313 <temperatureRAW+0x1>
     e22:	80 91 14 03 	lds	r24, 0x0314	; 0x800314 <temperatureRAW+0x2>
     e26:	90 91 15 03 	lds	r25, 0x0315	; 0x800315 <temperatureRAW+0x3>
     e2a:	40 e0       	ldi	r20, 0x00	; 0
     e2c:	a1 dd       	rcall	.-1214   	; 0x970 <_Z12convertFloatfh>
     e2e:	a9 85       	ldd	r26, Y+9	; 0x09
     e30:	ba 85       	ldd	r27, Y+10	; 0x0a
     e32:	8d 93       	st	X+, r24
     e34:	9c 93       	st	X, r25
     e36:	0c 94 d6 11 	jmp	0x23ac	; 0x23ac <_Z13modbusProceedPiiii+0x19fc>
     e3a:	0d 34       	cpi	r16, 0x4D	; 77
     e3c:	11 05       	cpc	r17, r1
     e3e:	09 f4       	brne	.+2      	; 0xe42 <_Z13modbusProceedPiiii+0x492>
     e40:	16 c5       	rjmp	.+2604   	; 0x186e <_Z13modbusProceedPiiii+0xebe>
     e42:	0c f0       	brlt	.+2      	; 0xe46 <_Z13modbusProceedPiiii+0x496>
     e44:	2b c5       	rjmp	.+2646   	; 0x189c <_Z13modbusProceedPiiii+0xeec>
     e46:	e9 85       	ldd	r30, Y+9	; 0x09
     e48:	fa 85       	ldd	r31, Y+10	; 0x0a
     e4a:	ee 0f       	add	r30, r30
     e4c:	ff 1f       	adc	r31, r31
     e4e:	ee 0d       	add	r30, r14
     e50:	ff 1d       	adc	r31, r15
     e52:	fa 87       	std	Y+10, r31	; 0x0a
     e54:	e9 87       	std	Y+9, r30	; 0x09
     e56:	60 91 67 03 	lds	r22, 0x0367	; 0x800367 <temperature>
     e5a:	70 91 68 03 	lds	r23, 0x0368	; 0x800368 <temperature+0x1>
     e5e:	80 91 69 03 	lds	r24, 0x0369	; 0x800369 <temperature+0x2>
     e62:	90 91 6a 03 	lds	r25, 0x036A	; 0x80036a <temperature+0x3>
     e66:	40 e0       	ldi	r20, 0x00	; 0
     e68:	83 dd       	rcall	.-1274   	; 0x970 <_Z12convertFloatfh>
     e6a:	a9 85       	ldd	r26, Y+9	; 0x09
     e6c:	ba 85       	ldd	r27, Y+10	; 0x0a
     e6e:	8d 93       	st	X+, r24
     e70:	9c 93       	st	X, r25
     e72:	0c 94 d6 11 	jmp	0x23ac	; 0x23ac <_Z13modbusProceedPiiii+0x19fc>
     e76:	03 35       	cpi	r16, 0x53	; 83
     e78:	11 05       	cpc	r17, r1
     e7a:	09 f4       	brne	.+2      	; 0xe7e <_Z13modbusProceedPiiii+0x4ce>
     e7c:	43 c5       	rjmp	.+2694   	; 0x1904 <_Z13modbusProceedPiiii+0xf54>
     e7e:	9c f4       	brge	.+38     	; 0xea6 <_Z13modbusProceedPiiii+0x4f6>
     e80:	01 35       	cpi	r16, 0x51	; 81
     e82:	11 05       	cpc	r17, r1
     e84:	09 f4       	brne	.+2      	; 0xe88 <_Z13modbusProceedPiiii+0x4d8>
     e86:	24 c5       	rjmp	.+2632   	; 0x18d0 <_Z13modbusProceedPiiii+0xf20>
     e88:	0c f0       	brlt	.+2      	; 0xe8c <_Z13modbusProceedPiiii+0x4dc>
     e8a:	2f c5       	rjmp	.+2654   	; 0x18ea <_Z13modbusProceedPiiii+0xf3a>
     e8c:	e9 85       	ldd	r30, Y+9	; 0x09
     e8e:	fa 85       	ldd	r31, Y+10	; 0x0a
     e90:	ee 0f       	add	r30, r30
     e92:	ff 1f       	adc	r31, r31
     e94:	ee 0d       	add	r30, r14
     e96:	ff 1d       	adc	r31, r15
     e98:	80 91 6a 01 	lds	r24, 0x016A	; 0x80016a <pressGaugeLost>
     e9c:	90 e0       	ldi	r25, 0x00	; 0
     e9e:	91 83       	std	Z+1, r25	; 0x01
     ea0:	80 83       	st	Z, r24
     ea2:	0c 94 d6 11 	jmp	0x23ac	; 0x23ac <_Z13modbusProceedPiiii+0x19fc>
     ea6:	04 36       	cpi	r16, 0x64	; 100
     ea8:	11 05       	cpc	r17, r1
     eaa:	09 f4       	brne	.+2      	; 0xeae <_Z13modbusProceedPiiii+0x4fe>
     eac:	38 c5       	rjmp	.+2672   	; 0x191e <_Z13modbusProceedPiiii+0xf6e>
     eae:	0c f0       	brlt	.+2      	; 0xeb2 <_Z13modbusProceedPiiii+0x502>
     eb0:	46 c5       	rjmp	.+2700   	; 0x193e <_Z13modbusProceedPiiii+0xf8e>
     eb2:	03 36       	cpi	r16, 0x63	; 99
     eb4:	11 05       	cpc	r17, r1
     eb6:	11 f0       	breq	.+4      	; 0xebc <_Z13modbusProceedPiiii+0x50c>
     eb8:	0c 94 cc 11 	jmp	0x2398	; 0x2398 <_Z13modbusProceedPiiii+0x19e8>
     ebc:	e9 85       	ldd	r30, Y+9	; 0x09
     ebe:	fa 85       	ldd	r31, Y+10	; 0x0a
     ec0:	ee 0f       	add	r30, r30
     ec2:	ff 1f       	adc	r31, r31
     ec4:	ee 0d       	add	r30, r14
     ec6:	ff 1d       	adc	r31, r15
     ec8:	d1 82       	std	Z+1, r13	; 0x01
     eca:	c0 82       	st	Z, r12
     ecc:	0c 94 d6 11 	jmp	0x23ac	; 0x23ac <_Z13modbusProceedPiiii+0x19fc>
     ed0:	0e 39       	cpi	r16, 0x9E	; 158
     ed2:	11 05       	cpc	r17, r1
     ed4:	11 f4       	brne	.+4      	; 0xeda <_Z13modbusProceedPiiii+0x52a>
     ed6:	0c 94 5d 10 	jmp	0x20ba	; 0x20ba <_Z13modbusProceedPiiii+0x170a>
     eda:	0c f0       	brlt	.+2      	; 0xede <_Z13modbusProceedPiiii+0x52e>
     edc:	8b c0       	rjmp	.+278    	; 0xff4 <_Z13modbusProceedPiiii+0x644>
     ede:	0a 38       	cpi	r16, 0x8A	; 138
     ee0:	11 05       	cpc	r17, r1
     ee2:	09 f4       	brne	.+2      	; 0xee6 <_Z13modbusProceedPiiii+0x536>
     ee4:	57 c6       	rjmp	.+3246   	; 0x1b94 <_Z13modbusProceedPiiii+0x11e4>
     ee6:	d4 f5       	brge	.+116    	; 0xf5c <_Z13modbusProceedPiiii+0x5ac>
     ee8:	00 37       	cpi	r16, 0x70	; 112
     eea:	11 05       	cpc	r17, r1
     eec:	09 f4       	brne	.+2      	; 0xef0 <_Z13modbusProceedPiiii+0x540>
     eee:	af c5       	rjmp	.+2910   	; 0x1a4e <_Z13modbusProceedPiiii+0x109e>
     ef0:	dc f4       	brge	.+54     	; 0xf28 <_Z13modbusProceedPiiii+0x578>
     ef2:	0a 36       	cpi	r16, 0x6A	; 106
     ef4:	11 05       	cpc	r17, r1
     ef6:	09 f4       	brne	.+2      	; 0xefa <_Z13modbusProceedPiiii+0x54a>
     ef8:	64 c5       	rjmp	.+2760   	; 0x19c2 <_Z13modbusProceedPiiii+0x1012>
     efa:	54 f4       	brge	.+20     	; 0xf10 <_Z13modbusProceedPiiii+0x560>
     efc:	08 36       	cpi	r16, 0x68	; 104
     efe:	11 05       	cpc	r17, r1
     f00:	09 f4       	brne	.+2      	; 0xf04 <_Z13modbusProceedPiiii+0x554>
     f02:	3c c5       	rjmp	.+2680   	; 0x197c <_Z13modbusProceedPiiii+0xfcc>
     f04:	09 36       	cpi	r16, 0x69	; 105
     f06:	11 05       	cpc	r17, r1
     f08:	09 f4       	brne	.+2      	; 0xf0c <_Z13modbusProceedPiiii+0x55c>
     f0a:	4b c5       	rjmp	.+2710   	; 0x19a2 <_Z13modbusProceedPiiii+0xff2>
     f0c:	0c 94 cc 11 	jmp	0x2398	; 0x2398 <_Z13modbusProceedPiiii+0x19e8>
     f10:	0e 36       	cpi	r16, 0x6E	; 110
     f12:	11 05       	cpc	r17, r1
     f14:	09 f4       	brne	.+2      	; 0xf18 <_Z13modbusProceedPiiii+0x568>
     f16:	84 c5       	rjmp	.+2824   	; 0x1a20 <_Z13modbusProceedPiiii+0x1070>
     f18:	0c f0       	brlt	.+2      	; 0xf1c <_Z13modbusProceedPiiii+0x56c>
     f1a:	8d c5       	rjmp	.+2842   	; 0x1a36 <_Z13modbusProceedPiiii+0x1086>
     f1c:	0b 36       	cpi	r16, 0x6B	; 107
     f1e:	11 05       	cpc	r17, r1
     f20:	09 f4       	brne	.+2      	; 0xf24 <_Z13modbusProceedPiiii+0x574>
     f22:	66 c5       	rjmp	.+2764   	; 0x19f0 <_Z13modbusProceedPiiii+0x1040>
     f24:	0c 94 cc 11 	jmp	0x2398	; 0x2398 <_Z13modbusProceedPiiii+0x19e8>
     f28:	06 38       	cpi	r16, 0x86	; 134
     f2a:	11 05       	cpc	r17, r1
     f2c:	09 f4       	brne	.+2      	; 0xf30 <_Z13modbusProceedPiiii+0x580>
     f2e:	f4 c5       	rjmp	.+3048   	; 0x1b18 <_Z13modbusProceedPiiii+0x1168>
     f30:	74 f4       	brge	.+28     	; 0xf4e <_Z13modbusProceedPiiii+0x59e>
     f32:	02 38       	cpi	r16, 0x82	; 130
     f34:	11 05       	cpc	r17, r1
     f36:	09 f4       	brne	.+2      	; 0xf3a <_Z13modbusProceedPiiii+0x58a>
     f38:	b1 c5       	rjmp	.+2914   	; 0x1a9c <_Z13modbusProceedPiiii+0x10ec>
     f3a:	03 38       	cpi	r16, 0x83	; 131
     f3c:	11 05       	cpc	r17, r1
     f3e:	09 f4       	brne	.+2      	; 0xf42 <_Z13modbusProceedPiiii+0x592>
     f40:	c5 c5       	rjmp	.+2954   	; 0x1acc <_Z13modbusProceedPiiii+0x111c>
     f42:	01 37       	cpi	r16, 0x71	; 113
     f44:	11 05       	cpc	r17, r1
     f46:	11 f0       	breq	.+4      	; 0xf4c <_Z13modbusProceedPiiii+0x59c>
     f48:	0c 94 cc 11 	jmp	0x2398	; 0x2398 <_Z13modbusProceedPiiii+0x19e8>
     f4c:	94 c5       	rjmp	.+2856   	; 0x1a76 <_Z13modbusProceedPiiii+0x10c6>
     f4e:	08 38       	cpi	r16, 0x88	; 136
     f50:	11 05       	cpc	r17, r1
     f52:	09 f4       	brne	.+2      	; 0xf56 <_Z13modbusProceedPiiii+0x5a6>
     f54:	00 c6       	rjmp	.+3072   	; 0x1b56 <_Z13modbusProceedPiiii+0x11a6>
     f56:	0c f4       	brge	.+2      	; 0xf5a <_Z13modbusProceedPiiii+0x5aa>
     f58:	ee c5       	rjmp	.+3036   	; 0x1b36 <_Z13modbusProceedPiiii+0x1186>
     f5a:	0c c6       	rjmp	.+3096   	; 0x1b74 <_Z13modbusProceedPiiii+0x11c4>
     f5c:	06 39       	cpi	r16, 0x96	; 150
     f5e:	11 05       	cpc	r17, r1
     f60:	09 f4       	brne	.+2      	; 0xf64 <_Z13modbusProceedPiiii+0x5b4>
     f62:	e9 c7       	rjmp	.+4050   	; 0x1f36 <_Z13modbusProceedPiiii+0x1586>
     f64:	c4 f4       	brge	.+48     	; 0xf96 <_Z13modbusProceedPiiii+0x5e6>
     f66:	0e 38       	cpi	r16, 0x8E	; 142
     f68:	11 05       	cpc	r17, r1
     f6a:	09 f4       	brne	.+2      	; 0xf6e <_Z13modbusProceedPiiii+0x5be>
     f6c:	03 c7       	rjmp	.+3590   	; 0x1d74 <_Z13modbusProceedPiiii+0x13c4>
     f6e:	3c f4       	brge	.+14     	; 0xf7e <_Z13modbusProceedPiiii+0x5ce>
     f70:	0c 38       	cpi	r16, 0x8C	; 140
     f72:	11 05       	cpc	r17, r1
     f74:	09 f4       	brne	.+2      	; 0xf78 <_Z13modbusProceedPiiii+0x5c8>
     f76:	7c c6       	rjmp	.+3320   	; 0x1c70 <_Z13modbusProceedPiiii+0x12c0>
     f78:	0c f4       	brge	.+2      	; 0xf7c <_Z13modbusProceedPiiii+0x5cc>
     f7a:	43 c6       	rjmp	.+3206   	; 0x1c02 <_Z13modbusProceedPiiii+0x1252>
     f7c:	b0 c6       	rjmp	.+3424   	; 0x1cde <_Z13modbusProceedPiiii+0x132e>
     f7e:	04 39       	cpi	r16, 0x94	; 148
     f80:	11 05       	cpc	r17, r1
     f82:	09 f4       	brne	.+2      	; 0xf86 <_Z13modbusProceedPiiii+0x5d6>
     f84:	69 c7       	rjmp	.+3794   	; 0x1e58 <_Z13modbusProceedPiiii+0x14a8>
     f86:	0c f0       	brlt	.+2      	; 0xf8a <_Z13modbusProceedPiiii+0x5da>
     f88:	9f c7       	rjmp	.+3902   	; 0x1ec8 <_Z13modbusProceedPiiii+0x1518>
     f8a:	0f 38       	cpi	r16, 0x8F	; 143
     f8c:	11 05       	cpc	r17, r1
     f8e:	09 f4       	brne	.+2      	; 0xf92 <_Z13modbusProceedPiiii+0x5e2>
     f90:	36 c7       	rjmp	.+3692   	; 0x1dfe <_Z13modbusProceedPiiii+0x144e>
     f92:	0c 94 cc 11 	jmp	0x2398	; 0x2398 <_Z13modbusProceedPiiii+0x19e8>
     f96:	0a 39       	cpi	r16, 0x9A	; 154
     f98:	11 05       	cpc	r17, r1
     f9a:	11 f4       	brne	.+4      	; 0xfa0 <_Z13modbusProceedPiiii+0x5f0>
     f9c:	0c 94 2b 10 	jmp	0x2056	; 0x2056 <_Z13modbusProceedPiiii+0x16a6>
     fa0:	4c f4       	brge	.+18     	; 0xfb4 <_Z13modbusProceedPiiii+0x604>
     fa2:	08 39       	cpi	r16, 0x98	; 152
     fa4:	11 05       	cpc	r17, r1
     fa6:	11 f4       	brne	.+4      	; 0xfac <_Z13modbusProceedPiiii+0x5fc>
     fa8:	0c 94 ed 0f 	jmp	0x1fda	; 0x1fda <_Z13modbusProceedPiiii+0x162a>
     fac:	0c f4       	brge	.+2      	; 0xfb0 <_Z13modbusProceedPiiii+0x600>
     fae:	fe c7       	rjmp	.+4092   	; 0x1fac <_Z13modbusProceedPiiii+0x15fc>
     fb0:	0c 94 05 10 	jmp	0x200a	; 0x200a <_Z13modbusProceedPiiii+0x165a>
     fb4:	0c 39       	cpi	r16, 0x9C	; 156
     fb6:	11 05       	cpc	r17, r1
     fb8:	11 f4       	brne	.+4      	; 0xfbe <_Z13modbusProceedPiiii+0x60e>
     fba:	0c 94 43 10 	jmp	0x2086	; 0x2086 <_Z13modbusProceedPiiii+0x16d6>
     fbe:	14 f0       	brlt	.+4      	; 0xfc4 <_Z13modbusProceedPiiii+0x614>
     fc0:	0c 94 4f 10 	jmp	0x209e	; 0x209e <_Z13modbusProceedPiiii+0x16ee>
     fc4:	e9 85       	ldd	r30, Y+9	; 0x09
     fc6:	fa 85       	ldd	r31, Y+10	; 0x0a
     fc8:	ee 0f       	add	r30, r30
     fca:	ff 1f       	adc	r31, r31
     fcc:	ee 0d       	add	r30, r14
     fce:	ff 1d       	adc	r31, r15
     fd0:	fa 87       	std	Y+10, r31	; 0x0a
     fd2:	e9 87       	std	Y+9, r30	; 0x09
     fd4:	60 91 70 01 	lds	r22, 0x0170	; 0x800170 <DS18B20_Temp>
     fd8:	70 91 71 01 	lds	r23, 0x0171	; 0x800171 <DS18B20_Temp+0x1>
     fdc:	80 91 72 01 	lds	r24, 0x0172	; 0x800172 <DS18B20_Temp+0x2>
     fe0:	90 91 73 01 	lds	r25, 0x0173	; 0x800173 <DS18B20_Temp+0x3>
     fe4:	41 e0       	ldi	r20, 0x01	; 1
     fe6:	c4 dc       	rcall	.-1656   	; 0x970 <_Z12convertFloatfh>
     fe8:	a9 85       	ldd	r26, Y+9	; 0x09
     fea:	ba 85       	ldd	r27, Y+10	; 0x0a
     fec:	8d 93       	st	X+, r24
     fee:	9c 93       	st	X, r25
     ff0:	0c 94 d6 11 	jmp	0x23ac	; 0x23ac <_Z13modbusProceedPiiii+0x19fc>
     ff4:	09 3c       	cpi	r16, 0xC9	; 201
     ff6:	11 05       	cpc	r17, r1
     ff8:	11 f4       	brne	.+4      	; 0xffe <_Z13modbusProceedPiiii+0x64e>
     ffa:	0c 94 f9 10 	jmp	0x21f2	; 0x21f2 <_Z13modbusProceedPiiii+0x1842>
     ffe:	0c f0       	brlt	.+2      	; 0x1002 <_Z13modbusProceedPiiii+0x652>
    1000:	5e c0       	rjmp	.+188    	; 0x10be <_Z13modbusProceedPiiii+0x70e>
    1002:	0d 3b       	cpi	r16, 0xBD	; 189
    1004:	11 05       	cpc	r17, r1
    1006:	11 f4       	brne	.+4      	; 0x100c <_Z13modbusProceedPiiii+0x65c>
    1008:	0c 94 bb 10 	jmp	0x2176	; 0x2176 <_Z13modbusProceedPiiii+0x17c6>
    100c:	2c f5       	brge	.+74     	; 0x1058 <_Z13modbusProceedPiiii+0x6a8>
    100e:	0a 3b       	cpi	r16, 0xBA	; 186
    1010:	11 05       	cpc	r17, r1
    1012:	64 f4       	brge	.+24     	; 0x102c <_Z13modbusProceedPiiii+0x67c>
    1014:	04 3b       	cpi	r16, 0xB4	; 180
    1016:	11 05       	cpc	r17, r1
    1018:	14 f0       	brlt	.+4      	; 0x101e <_Z13modbusProceedPiiii+0x66e>
    101a:	0c 94 8e 10 	jmp	0x211c	; 0x211c <_Z13modbusProceedPiiii+0x176c>
    101e:	01 3a       	cpi	r16, 0xA1	; 161
    1020:	11 05       	cpc	r17, r1
    1022:	11 f4       	brne	.+4      	; 0x1028 <_Z13modbusProceedPiiii+0x678>
    1024:	0c 94 76 10 	jmp	0x20ec	; 0x20ec <_Z13modbusProceedPiiii+0x173c>
    1028:	0c 94 cc 11 	jmp	0x2398	; 0x2398 <_Z13modbusProceedPiiii+0x19e8>
    102c:	0b 3b       	cpi	r16, 0xBB	; 187
    102e:	11 05       	cpc	r17, r1
    1030:	11 f4       	brne	.+4      	; 0x1036 <_Z13modbusProceedPiiii+0x686>
    1032:	0c 94 a0 10 	jmp	0x2140	; 0x2140 <_Z13modbusProceedPiiii+0x1790>
    1036:	14 f0       	brlt	.+4      	; 0x103c <_Z13modbusProceedPiiii+0x68c>
    1038:	0c 94 ae 10 	jmp	0x215c	; 0x215c <_Z13modbusProceedPiiii+0x17ac>
    103c:	e9 85       	ldd	r30, Y+9	; 0x09
    103e:	fa 85       	ldd	r31, Y+10	; 0x0a
    1040:	ee 0f       	add	r30, r30
    1042:	ff 1f       	adc	r31, r31
    1044:	ee 0d       	add	r30, r14
    1046:	ff 1d       	adc	r31, r15
    1048:	80 91 03 03 	lds	r24, 0x0303	; 0x800303 <_rawHumidity>
    104c:	90 91 04 03 	lds	r25, 0x0304	; 0x800304 <_rawHumidity+0x1>
    1050:	91 83       	std	Z+1, r25	; 0x01
    1052:	80 83       	st	Z, r24
    1054:	0c 94 d6 11 	jmp	0x23ac	; 0x23ac <_Z13modbusProceedPiiii+0x19fc>
    1058:	04 3c       	cpi	r16, 0xC4	; 196
    105a:	11 05       	cpc	r17, r1
    105c:	c4 f4       	brge	.+48     	; 0x108e <_Z13modbusProceedPiiii+0x6de>
    105e:	02 3c       	cpi	r16, 0xC2	; 194
    1060:	11 05       	cpc	r17, r1
    1062:	14 f0       	brlt	.+4      	; 0x1068 <_Z13modbusProceedPiiii+0x6b8>
    1064:	0c 94 c9 10 	jmp	0x2192	; 0x2192 <_Z13modbusProceedPiiii+0x17e2>
    1068:	e9 85       	ldd	r30, Y+9	; 0x09
    106a:	fa 85       	ldd	r31, Y+10	; 0x0a
    106c:	ee 0f       	add	r30, r30
    106e:	ff 1f       	adc	r31, r31
    1070:	ee 0d       	add	r30, r14
    1072:	ff 1d       	adc	r31, r15
    1074:	fa 87       	std	Y+10, r31	; 0x0a
    1076:	e9 87       	std	Y+9, r30	; 0x09
    1078:	f8 01       	movw	r30, r16
    107a:	e6 56       	subi	r30, 0x66	; 102
    107c:	ff 4f       	sbci	r31, 0xFF	; 255
    107e:	80 81       	ld	r24, Z
    1080:	90 e0       	ldi	r25, 0x00	; 0
    1082:	a9 85       	ldd	r26, Y+9	; 0x09
    1084:	ba 85       	ldd	r27, Y+10	; 0x0a
    1086:	8d 93       	st	X+, r24
    1088:	9c 93       	st	X, r25
    108a:	0c 94 d6 11 	jmp	0x23ac	; 0x23ac <_Z13modbusProceedPiiii+0x19fc>
    108e:	06 3c       	cpi	r16, 0xC6	; 198
    1090:	11 05       	cpc	r17, r1
    1092:	14 f4       	brge	.+4      	; 0x1098 <_Z13modbusProceedPiiii+0x6e8>
    1094:	0c 94 e1 10 	jmp	0x21c2	; 0x21c2 <_Z13modbusProceedPiiii+0x1812>
    1098:	08 3c       	cpi	r16, 0xC8	; 200
    109a:	11 05       	cpc	r17, r1
    109c:	11 f0       	breq	.+4      	; 0x10a2 <_Z13modbusProceedPiiii+0x6f2>
    109e:	0c 94 cc 11 	jmp	0x2398	; 0x2398 <_Z13modbusProceedPiiii+0x19e8>
    10a2:	80 91 88 03 	lds	r24, 0x0388	; 0x800388 <errorInt>
    10a6:	90 91 89 03 	lds	r25, 0x0389	; 0x800389 <errorInt+0x1>
    10aa:	e9 85       	ldd	r30, Y+9	; 0x09
    10ac:	fa 85       	ldd	r31, Y+10	; 0x0a
    10ae:	ee 0f       	add	r30, r30
    10b0:	ff 1f       	adc	r31, r31
    10b2:	ee 0d       	add	r30, r14
    10b4:	ff 1d       	adc	r31, r15
    10b6:	91 83       	std	Z+1, r25	; 0x01
    10b8:	80 83       	st	Z, r24
    10ba:	0c 94 d6 11 	jmp	0x23ac	; 0x23ac <_Z13modbusProceedPiiii+0x19fc>
    10be:	03 31       	cpi	r16, 0x13	; 19
    10c0:	e2 e0       	ldi	r30, 0x02	; 2
    10c2:	1e 07       	cpc	r17, r30
    10c4:	11 f4       	brne	.+4      	; 0x10ca <_Z13modbusProceedPiiii+0x71a>
    10c6:	0c 94 3c 11 	jmp	0x2278	; 0x2278 <_Z13modbusProceedPiiii+0x18c8>
    10ca:	0c f0       	brlt	.+2      	; 0x10ce <_Z13modbusProceedPiiii+0x71e>
    10cc:	4c c0       	rjmp	.+152    	; 0x1166 <_Z13modbusProceedPiiii+0x7b6>
    10ce:	07 3b       	cpi	r16, 0xB7	; 183
    10d0:	21 e0       	ldi	r18, 0x01	; 1
    10d2:	12 07       	cpc	r17, r18
    10d4:	f4 f4       	brge	.+60     	; 0x1112 <_Z13modbusProceedPiiii+0x762>
    10d6:	00 39       	cpi	r16, 0x90	; 144
    10d8:	31 e0       	ldi	r19, 0x01	; 1
    10da:	13 07       	cpc	r17, r19
    10dc:	14 f0       	brlt	.+4      	; 0x10e2 <_Z13modbusProceedPiiii+0x732>
    10de:	0c 94 1b 11 	jmp	0x2236	; 0x2236 <_Z13modbusProceedPiiii+0x1886>
    10e2:	0a 3c       	cpi	r16, 0xCA	; 202
    10e4:	11 05       	cpc	r17, r1
    10e6:	11 f4       	brne	.+4      	; 0x10ec <_Z13modbusProceedPiiii+0x73c>
    10e8:	0c 94 06 11 	jmp	0x220c	; 0x220c <_Z13modbusProceedPiiii+0x185c>
    10ec:	0f 38       	cpi	r16, 0x8F	; 143
    10ee:	81 e0       	ldi	r24, 0x01	; 1
    10f0:	18 07       	cpc	r17, r24
    10f2:	11 f0       	breq	.+4      	; 0x10f8 <_Z13modbusProceedPiiii+0x748>
    10f4:	0c 94 cc 11 	jmp	0x2398	; 0x2398 <_Z13modbusProceedPiiii+0x19e8>
    10f8:	e9 85       	ldd	r30, Y+9	; 0x09
    10fa:	fa 85       	ldd	r31, Y+10	; 0x0a
    10fc:	ee 0f       	add	r30, r30
    10fe:	ff 1f       	adc	r31, r31
    1100:	ee 0d       	add	r30, r14
    1102:	ff 1d       	adc	r31, r15
    1104:	80 91 63 01 	lds	r24, 0x0163	; 0x800163 <vipReplyQnt>
    1108:	90 e0       	ldi	r25, 0x00	; 0
    110a:	91 83       	std	Z+1, r25	; 0x01
    110c:	80 83       	st	Z, r24
    110e:	0c 94 d6 11 	jmp	0x23ac	; 0x23ac <_Z13modbusProceedPiiii+0x19fc>
    1112:	02 3c       	cpi	r16, 0xC2	; 194
    1114:	91 e0       	ldi	r25, 0x01	; 1
    1116:	19 07       	cpc	r17, r25
    1118:	14 f4       	brge	.+4      	; 0x111e <_Z13modbusProceedPiiii+0x76e>
    111a:	0c 94 cc 11 	jmp	0x2398	; 0x2398 <_Z13modbusProceedPiiii+0x19e8>
    111e:	09 3d       	cpi	r16, 0xD9	; 217
    1120:	a1 e0       	ldi	r26, 0x01	; 1
    1122:	1a 07       	cpc	r17, r26
    1124:	14 f4       	brge	.+4      	; 0x112a <_Z13modbusProceedPiiii+0x77a>
    1126:	0c 94 2a 11 	jmp	0x2254	; 0x2254 <_Z13modbusProceedPiiii+0x18a4>
    112a:	02 31       	cpi	r16, 0x12	; 18
    112c:	b2 e0       	ldi	r27, 0x02	; 2
    112e:	1b 07       	cpc	r17, r27
    1130:	11 f0       	breq	.+4      	; 0x1136 <_Z13modbusProceedPiiii+0x786>
    1132:	0c 94 cc 11 	jmp	0x2398	; 0x2398 <_Z13modbusProceedPiiii+0x19e8>
    1136:	e9 85       	ldd	r30, Y+9	; 0x09
    1138:	fa 85       	ldd	r31, Y+10	; 0x0a
    113a:	ee 0f       	add	r30, r30
    113c:	ff 1f       	adc	r31, r31
    113e:	ee 0d       	add	r30, r14
    1140:	ff 1d       	adc	r31, r15
    1142:	fa 87       	std	Y+10, r31	; 0x0a
    1144:	e9 87       	std	Y+9, r30	; 0x09
    1146:	60 91 06 03 	lds	r22, 0x0306	; 0x800306 <SHT_Temp_FL>
    114a:	70 91 07 03 	lds	r23, 0x0307	; 0x800307 <SHT_Temp_FL+0x1>
    114e:	80 91 08 03 	lds	r24, 0x0308	; 0x800308 <SHT_Temp_FL+0x2>
    1152:	90 91 09 03 	lds	r25, 0x0309	; 0x800309 <SHT_Temp_FL+0x3>
    1156:	40 e0       	ldi	r20, 0x00	; 0
    1158:	0b dc       	rcall	.-2026   	; 0x970 <_Z12convertFloatfh>
    115a:	a9 85       	ldd	r26, Y+9	; 0x09
    115c:	ba 85       	ldd	r27, Y+10	; 0x0a
    115e:	8d 93       	st	X+, r24
    1160:	9c 93       	st	X, r25
    1162:	0c 94 d6 11 	jmp	0x23ac	; 0x23ac <_Z13modbusProceedPiiii+0x19fc>
    1166:	08 35       	cpi	r16, 0x58	; 88
    1168:	e2 e0       	ldi	r30, 0x02	; 2
    116a:	1e 07       	cpc	r17, r30
    116c:	11 f4       	brne	.+4      	; 0x1172 <_Z13modbusProceedPiiii+0x7c2>
    116e:	0c 94 96 11 	jmp	0x232c	; 0x232c <_Z13modbusProceedPiiii+0x197c>
    1172:	8c f4       	brge	.+34     	; 0x1196 <_Z13modbusProceedPiiii+0x7e6>
    1174:	05 31       	cpi	r16, 0x15	; 21
    1176:	22 e0       	ldi	r18, 0x02	; 2
    1178:	12 07       	cpc	r17, r18
    117a:	11 f4       	brne	.+4      	; 0x1180 <_Z13modbusProceedPiiii+0x7d0>
    117c:	0c 94 6c 11 	jmp	0x22d8	; 0x22d8 <_Z13modbusProceedPiiii+0x1928>
    1180:	14 f4       	brge	.+4      	; 0x1186 <_Z13modbusProceedPiiii+0x7d6>
    1182:	0c 94 54 11 	jmp	0x22a8	; 0x22a8 <_Z13modbusProceedPiiii+0x18f8>
    1186:	02 35       	cpi	r16, 0x52	; 82
    1188:	82 e0       	ldi	r24, 0x02	; 2
    118a:	18 07       	cpc	r17, r24
    118c:	11 f4       	brne	.+4      	; 0x1192 <_Z13modbusProceedPiiii+0x7e2>
    118e:	0c 94 84 11 	jmp	0x2308	; 0x2308 <_Z13modbusProceedPiiii+0x1958>
    1192:	0c 94 cc 11 	jmp	0x2398	; 0x2398 <_Z13modbusProceedPiiii+0x19e8>
    1196:	00 32       	cpi	r16, 0x20	; 32
    1198:	93 e0       	ldi	r25, 0x03	; 3
    119a:	19 07       	cpc	r17, r25
    119c:	11 f4       	brne	.+4      	; 0x11a2 <_Z13modbusProceedPiiii+0x7f2>
    119e:	0c 94 ae 11 	jmp	0x235c	; 0x235c <_Z13modbusProceedPiiii+0x19ac>
    11a2:	04 38       	cpi	r16, 0x84	; 132
    11a4:	a3 e0       	ldi	r26, 0x03	; 3
    11a6:	1a 07       	cpc	r17, r26
    11a8:	11 f4       	brne	.+4      	; 0x11ae <_Z13modbusProceedPiiii+0x7fe>
    11aa:	0c 94 c8 11 	jmp	0x2390	; 0x2390 <_Z13modbusProceedPiiii+0x19e0>
    11ae:	09 30       	cpi	r16, 0x09	; 9
    11b0:	b3 e0       	ldi	r27, 0x03	; 3
    11b2:	1b 07       	cpc	r17, r27
    11b4:	11 f0       	breq	.+4      	; 0x11ba <_Z13modbusProceedPiiii+0x80a>
    11b6:	0c 94 cc 11 	jmp	0x2398	; 0x2398 <_Z13modbusProceedPiiii+0x19e8>
    11ba:	e9 85       	ldd	r30, Y+9	; 0x09
    11bc:	fa 85       	ldd	r31, Y+10	; 0x0a
    11be:	ee 0f       	add	r30, r30
    11c0:	ff 1f       	adc	r31, r31
    11c2:	ee 0d       	add	r30, r14
    11c4:	ff 1d       	adc	r31, r15
    11c6:	80 91 6c 01 	lds	r24, 0x016C	; 0x80016c <watchdogQnt>
    11ca:	90 91 6d 01 	lds	r25, 0x016D	; 0x80016d <watchdogQnt+0x1>
    11ce:	91 83       	std	Z+1, r25	; 0x01
    11d0:	80 83       	st	Z, r24
    11d2:	0c 94 d6 11 	jmp	0x23ac	; 0x23ac <_Z13modbusProceedPiiii+0x19fc>
    11d6:	e9 85       	ldd	r30, Y+9	; 0x09
    11d8:	fa 85       	ldd	r31, Y+10	; 0x0a
    11da:	ee 0f       	add	r30, r30
    11dc:	ff 1f       	adc	r31, r31
    11de:	ee 0d       	add	r30, r14
    11e0:	ff 1d       	adc	r31, r15
    11e2:	fa 87       	std	Y+10, r31	; 0x0a
    11e4:	e9 87       	std	Y+9, r30	; 0x09
    11e6:	60 91 7f 03 	lds	r22, 0x037F	; 0x80037f <pressure_Bar>
    11ea:	70 91 80 03 	lds	r23, 0x0380	; 0x800380 <pressure_Bar+0x1>
    11ee:	80 91 81 03 	lds	r24, 0x0381	; 0x800381 <pressure_Bar+0x2>
    11f2:	90 91 82 03 	lds	r25, 0x0382	; 0x800382 <pressure_Bar+0x3>
    11f6:	40 e0       	ldi	r20, 0x00	; 0
    11f8:	bb db       	rcall	.-2186   	; 0x970 <_Z12convertFloatfh>
    11fa:	a9 85       	ldd	r26, Y+9	; 0x09
    11fc:	ba 85       	ldd	r27, Y+10	; 0x0a
    11fe:	8d 93       	st	X+, r24
    1200:	9c 93       	st	X, r25
    1202:	0c 94 d6 11 	jmp	0x23ac	; 0x23ac <_Z13modbusProceedPiiii+0x19fc>
    1206:	e9 85       	ldd	r30, Y+9	; 0x09
    1208:	fa 85       	ldd	r31, Y+10	; 0x0a
    120a:	ee 0f       	add	r30, r30
    120c:	ff 1f       	adc	r31, r31
    120e:	ee 0d       	add	r30, r14
    1210:	ff 1d       	adc	r31, r15
    1212:	fa 87       	std	Y+10, r31	; 0x0a
    1214:	e9 87       	std	Y+9, r30	; 0x09
    1216:	60 91 7b 03 	lds	r22, 0x037B	; 0x80037b <pressure_MPa>
    121a:	70 91 7c 03 	lds	r23, 0x037C	; 0x80037c <pressure_MPa+0x1>
    121e:	80 91 7d 03 	lds	r24, 0x037D	; 0x80037d <pressure_MPa+0x2>
    1222:	90 91 7e 03 	lds	r25, 0x037E	; 0x80037e <pressure_MPa+0x3>
    1226:	40 e0       	ldi	r20, 0x00	; 0
    1228:	a3 db       	rcall	.-2234   	; 0x970 <_Z12convertFloatfh>
    122a:	a9 85       	ldd	r26, Y+9	; 0x09
    122c:	ba 85       	ldd	r27, Y+10	; 0x0a
    122e:	8d 93       	st	X+, r24
    1230:	9c 93       	st	X, r25
    1232:	0c 94 d6 11 	jmp	0x23ac	; 0x23ac <_Z13modbusProceedPiiii+0x19fc>
    1236:	e9 85       	ldd	r30, Y+9	; 0x09
    1238:	fa 85       	ldd	r31, Y+10	; 0x0a
    123a:	ee 0f       	add	r30, r30
    123c:	ff 1f       	adc	r31, r31
    123e:	ee 0d       	add	r30, r14
    1240:	ff 1d       	adc	r31, r15
    1242:	fa 87       	std	Y+10, r31	; 0x0a
    1244:	e9 87       	std	Y+9, r30	; 0x09
    1246:	60 91 77 03 	lds	r22, 0x0377	; 0x800377 <pressure_Pa>
    124a:	70 91 78 03 	lds	r23, 0x0378	; 0x800378 <pressure_Pa+0x1>
    124e:	80 91 79 03 	lds	r24, 0x0379	; 0x800379 <pressure_Pa+0x2>
    1252:	90 91 7a 03 	lds	r25, 0x037A	; 0x80037a <pressure_Pa+0x3>
    1256:	40 e0       	ldi	r20, 0x00	; 0
    1258:	8b db       	rcall	.-2282   	; 0x970 <_Z12convertFloatfh>
    125a:	a9 85       	ldd	r26, Y+9	; 0x09
    125c:	ba 85       	ldd	r27, Y+10	; 0x0a
    125e:	8d 93       	st	X+, r24
    1260:	9c 93       	st	X, r25
    1262:	0c 94 d6 11 	jmp	0x23ac	; 0x23ac <_Z13modbusProceedPiiii+0x19fc>
    1266:	e9 85       	ldd	r30, Y+9	; 0x09
    1268:	fa 85       	ldd	r31, Y+10	; 0x0a
    126a:	ee 0f       	add	r30, r30
    126c:	ff 1f       	adc	r31, r31
    126e:	ee 0d       	add	r30, r14
    1270:	ff 1d       	adc	r31, r15
    1272:	fa 87       	std	Y+10, r31	; 0x0a
    1274:	e9 87       	std	Y+9, r30	; 0x09
    1276:	60 91 77 03 	lds	r22, 0x0377	; 0x800377 <pressure_Pa>
    127a:	70 91 78 03 	lds	r23, 0x0378	; 0x800378 <pressure_Pa+0x1>
    127e:	80 91 79 03 	lds	r24, 0x0379	; 0x800379 <pressure_Pa+0x2>
    1282:	90 91 7a 03 	lds	r25, 0x037A	; 0x80037a <pressure_Pa+0x3>
    1286:	41 e0       	ldi	r20, 0x01	; 1
    1288:	73 db       	rcall	.-2330   	; 0x970 <_Z12convertFloatfh>
    128a:	a9 85       	ldd	r26, Y+9	; 0x09
    128c:	ba 85       	ldd	r27, Y+10	; 0x0a
    128e:	8d 93       	st	X+, r24
    1290:	9c 93       	st	X, r25
    1292:	0c 94 d6 11 	jmp	0x23ac	; 0x23ac <_Z13modbusProceedPiiii+0x19fc>
    1296:	e9 85       	ldd	r30, Y+9	; 0x09
    1298:	fa 85       	ldd	r31, Y+10	; 0x0a
    129a:	ee 0f       	add	r30, r30
    129c:	ff 1f       	adc	r31, r31
    129e:	ee 0d       	add	r30, r14
    12a0:	ff 1d       	adc	r31, r15
    12a2:	fa 87       	std	Y+10, r31	; 0x0a
    12a4:	e9 87       	std	Y+9, r30	; 0x09
    12a6:	60 91 83 03 	lds	r22, 0x0383	; 0x800383 <pressure_kPa>
    12aa:	70 91 84 03 	lds	r23, 0x0384	; 0x800384 <pressure_kPa+0x1>
    12ae:	80 91 85 03 	lds	r24, 0x0385	; 0x800385 <pressure_kPa+0x2>
    12b2:	90 91 86 03 	lds	r25, 0x0386	; 0x800386 <pressure_kPa+0x3>
    12b6:	40 e0       	ldi	r20, 0x00	; 0
    12b8:	5b db       	rcall	.-2378   	; 0x970 <_Z12convertFloatfh>
    12ba:	a9 85       	ldd	r26, Y+9	; 0x09
    12bc:	ba 85       	ldd	r27, Y+10	; 0x0a
    12be:	8d 93       	st	X+, r24
    12c0:	9c 93       	st	X, r25
    12c2:	0c 94 d6 11 	jmp	0x23ac	; 0x23ac <_Z13modbusProceedPiiii+0x19fc>
    12c6:	e9 85       	ldd	r30, Y+9	; 0x09
    12c8:	fa 85       	ldd	r31, Y+10	; 0x0a
    12ca:	ee 0f       	add	r30, r30
    12cc:	ff 1f       	adc	r31, r31
    12ce:	ee 0d       	add	r30, r14
    12d0:	ff 1d       	adc	r31, r15
    12d2:	fa 87       	std	Y+10, r31	; 0x0a
    12d4:	e9 87       	std	Y+9, r30	; 0x09
    12d6:	60 91 73 03 	lds	r22, 0x0373	; 0x800373 <pressure_Psi>
    12da:	70 91 74 03 	lds	r23, 0x0374	; 0x800374 <pressure_Psi+0x1>
    12de:	80 91 75 03 	lds	r24, 0x0375	; 0x800375 <pressure_Psi+0x2>
    12e2:	90 91 76 03 	lds	r25, 0x0376	; 0x800376 <pressure_Psi+0x3>
    12e6:	40 e0       	ldi	r20, 0x00	; 0
    12e8:	43 db       	rcall	.-2426   	; 0x970 <_Z12convertFloatfh>
    12ea:	a9 85       	ldd	r26, Y+9	; 0x09
    12ec:	ba 85       	ldd	r27, Y+10	; 0x0a
    12ee:	8d 93       	st	X+, r24
    12f0:	9c 93       	st	X, r25
    12f2:	0c 94 d6 11 	jmp	0x23ac	; 0x23ac <_Z13modbusProceedPiiii+0x19fc>
    12f6:	e9 85       	ldd	r30, Y+9	; 0x09
    12f8:	fa 85       	ldd	r31, Y+10	; 0x0a
    12fa:	ee 0f       	add	r30, r30
    12fc:	ff 1f       	adc	r31, r31
    12fe:	ee 0d       	add	r30, r14
    1300:	ff 1d       	adc	r31, r15
    1302:	fa 87       	std	Y+10, r31	; 0x0a
    1304:	e9 87       	std	Y+9, r30	; 0x09
    1306:	60 91 73 03 	lds	r22, 0x0373	; 0x800373 <pressure_Psi>
    130a:	70 91 74 03 	lds	r23, 0x0374	; 0x800374 <pressure_Psi+0x1>
    130e:	80 91 75 03 	lds	r24, 0x0375	; 0x800375 <pressure_Psi+0x2>
    1312:	90 91 76 03 	lds	r25, 0x0376	; 0x800376 <pressure_Psi+0x3>
    1316:	41 e0       	ldi	r20, 0x01	; 1
    1318:	2b db       	rcall	.-2474   	; 0x970 <_Z12convertFloatfh>
    131a:	a9 85       	ldd	r26, Y+9	; 0x09
    131c:	ba 85       	ldd	r27, Y+10	; 0x0a
    131e:	8d 93       	st	X+, r24
    1320:	9c 93       	st	X, r25
    1322:	0c 94 d6 11 	jmp	0x23ac	; 0x23ac <_Z13modbusProceedPiiii+0x19fc>
    1326:	e9 85       	ldd	r30, Y+9	; 0x09
    1328:	fa 85       	ldd	r31, Y+10	; 0x0a
    132a:	ee 0f       	add	r30, r30
    132c:	ff 1f       	adc	r31, r31
    132e:	ee 0d       	add	r30, r14
    1330:	ff 1d       	adc	r31, r15
    1332:	fa 87       	std	Y+10, r31	; 0x0a
    1334:	e9 87       	std	Y+9, r30	; 0x09
    1336:	60 91 6f 03 	lds	r22, 0x036F	; 0x80036f <pressure_Ncm2>
    133a:	70 91 70 03 	lds	r23, 0x0370	; 0x800370 <pressure_Ncm2+0x1>
    133e:	80 91 71 03 	lds	r24, 0x0371	; 0x800371 <pressure_Ncm2+0x2>
    1342:	90 91 72 03 	lds	r25, 0x0372	; 0x800372 <pressure_Ncm2+0x3>
    1346:	40 e0       	ldi	r20, 0x00	; 0
    1348:	13 db       	rcall	.-2522   	; 0x970 <_Z12convertFloatfh>
    134a:	a9 85       	ldd	r26, Y+9	; 0x09
    134c:	ba 85       	ldd	r27, Y+10	; 0x0a
    134e:	8d 93       	st	X+, r24
    1350:	9c 93       	st	X, r25
    1352:	0c 94 d6 11 	jmp	0x23ac	; 0x23ac <_Z13modbusProceedPiiii+0x19fc>
    1356:	e9 85       	ldd	r30, Y+9	; 0x09
    1358:	fa 85       	ldd	r31, Y+10	; 0x0a
    135a:	ee 0f       	add	r30, r30
    135c:	ff 1f       	adc	r31, r31
    135e:	ee 0d       	add	r30, r14
    1360:	ff 1d       	adc	r31, r15
    1362:	fa 87       	std	Y+10, r31	; 0x0a
    1364:	e9 87       	std	Y+9, r30	; 0x09
    1366:	60 91 5f 03 	lds	r22, 0x035F	; 0x80035f <temperatureC>
    136a:	70 91 60 03 	lds	r23, 0x0360	; 0x800360 <temperatureC+0x1>
    136e:	80 91 61 03 	lds	r24, 0x0361	; 0x800361 <temperatureC+0x2>
    1372:	90 91 62 03 	lds	r25, 0x0362	; 0x800362 <temperatureC+0x3>
    1376:	40 e0       	ldi	r20, 0x00	; 0
    1378:	fb da       	rcall	.-2570   	; 0x970 <_Z12convertFloatfh>
    137a:	a9 85       	ldd	r26, Y+9	; 0x09
    137c:	ba 85       	ldd	r27, Y+10	; 0x0a
    137e:	8d 93       	st	X+, r24
    1380:	9c 93       	st	X, r25
    1382:	0c 94 d6 11 	jmp	0x23ac	; 0x23ac <_Z13modbusProceedPiiii+0x19fc>
    1386:	e9 85       	ldd	r30, Y+9	; 0x09
    1388:	fa 85       	ldd	r31, Y+10	; 0x0a
    138a:	ee 0f       	add	r30, r30
    138c:	ff 1f       	adc	r31, r31
    138e:	ee 0d       	add	r30, r14
    1390:	ff 1d       	adc	r31, r15
    1392:	fa 87       	std	Y+10, r31	; 0x0a
    1394:	e9 87       	std	Y+9, r30	; 0x09
    1396:	60 91 5f 03 	lds	r22, 0x035F	; 0x80035f <temperatureC>
    139a:	70 91 60 03 	lds	r23, 0x0360	; 0x800360 <temperatureC+0x1>
    139e:	80 91 61 03 	lds	r24, 0x0361	; 0x800361 <temperatureC+0x2>
    13a2:	90 91 62 03 	lds	r25, 0x0362	; 0x800362 <temperatureC+0x3>
    13a6:	41 e0       	ldi	r20, 0x01	; 1
    13a8:	e3 da       	rcall	.-2618   	; 0x970 <_Z12convertFloatfh>
    13aa:	a9 85       	ldd	r26, Y+9	; 0x09
    13ac:	ba 85       	ldd	r27, Y+10	; 0x0a
    13ae:	8d 93       	st	X+, r24
    13b0:	9c 93       	st	X, r25
    13b2:	fc c7       	rjmp	.+4088   	; 0x23ac <_Z13modbusProceedPiiii+0x19fc>
    13b4:	e9 85       	ldd	r30, Y+9	; 0x09
    13b6:	fa 85       	ldd	r31, Y+10	; 0x0a
    13b8:	ee 0f       	add	r30, r30
    13ba:	ff 1f       	adc	r31, r31
    13bc:	ee 0d       	add	r30, r14
    13be:	ff 1d       	adc	r31, r15
    13c0:	fa 87       	std	Y+10, r31	; 0x0a
    13c2:	e9 87       	std	Y+9, r30	; 0x09
    13c4:	60 91 5b 03 	lds	r22, 0x035B	; 0x80035b <temperatureK>
    13c8:	70 91 5c 03 	lds	r23, 0x035C	; 0x80035c <temperatureK+0x1>
    13cc:	80 91 5d 03 	lds	r24, 0x035D	; 0x80035d <temperatureK+0x2>
    13d0:	90 91 5e 03 	lds	r25, 0x035E	; 0x80035e <temperatureK+0x3>
    13d4:	40 e0       	ldi	r20, 0x00	; 0
    13d6:	cc da       	rcall	.-2664   	; 0x970 <_Z12convertFloatfh>
    13d8:	a9 85       	ldd	r26, Y+9	; 0x09
    13da:	ba 85       	ldd	r27, Y+10	; 0x0a
    13dc:	8d 93       	st	X+, r24
    13de:	9c 93       	st	X, r25
    13e0:	e5 c7       	rjmp	.+4042   	; 0x23ac <_Z13modbusProceedPiiii+0x19fc>
    13e2:	e9 85       	ldd	r30, Y+9	; 0x09
    13e4:	fa 85       	ldd	r31, Y+10	; 0x0a
    13e6:	ee 0f       	add	r30, r30
    13e8:	ff 1f       	adc	r31, r31
    13ea:	ee 0d       	add	r30, r14
    13ec:	ff 1d       	adc	r31, r15
    13ee:	fa 87       	std	Y+10, r31	; 0x0a
    13f0:	e9 87       	std	Y+9, r30	; 0x09
    13f2:	60 91 57 03 	lds	r22, 0x0357	; 0x800357 <temperatureF>
    13f6:	70 91 58 03 	lds	r23, 0x0358	; 0x800358 <temperatureF+0x1>
    13fa:	80 91 59 03 	lds	r24, 0x0359	; 0x800359 <temperatureF+0x2>
    13fe:	90 91 5a 03 	lds	r25, 0x035A	; 0x80035a <temperatureF+0x3>
    1402:	40 e0       	ldi	r20, 0x00	; 0
    1404:	b5 da       	rcall	.-2710   	; 0x970 <_Z12convertFloatfh>
    1406:	a9 85       	ldd	r26, Y+9	; 0x09
    1408:	ba 85       	ldd	r27, Y+10	; 0x0a
    140a:	8d 93       	st	X+, r24
    140c:	9c 93       	st	X, r25
    140e:	ce c7       	rjmp	.+3996   	; 0x23ac <_Z13modbusProceedPiiii+0x19fc>
    1410:	e9 85       	ldd	r30, Y+9	; 0x09
    1412:	fa 85       	ldd	r31, Y+10	; 0x0a
    1414:	ee 0f       	add	r30, r30
    1416:	ff 1f       	adc	r31, r31
    1418:	ee 0d       	add	r30, r14
    141a:	ff 1d       	adc	r31, r15
    141c:	fa 87       	std	Y+10, r31	; 0x0a
    141e:	e9 87       	std	Y+9, r30	; 0x09
    1420:	60 91 57 03 	lds	r22, 0x0357	; 0x800357 <temperatureF>
    1424:	70 91 58 03 	lds	r23, 0x0358	; 0x800358 <temperatureF+0x1>
    1428:	80 91 59 03 	lds	r24, 0x0359	; 0x800359 <temperatureF+0x2>
    142c:	90 91 5a 03 	lds	r25, 0x035A	; 0x80035a <temperatureF+0x3>
    1430:	41 e0       	ldi	r20, 0x01	; 1
    1432:	9e da       	rcall	.-2756   	; 0x970 <_Z12convertFloatfh>
    1434:	a9 85       	ldd	r26, Y+9	; 0x09
    1436:	ba 85       	ldd	r27, Y+10	; 0x0a
    1438:	8d 93       	st	X+, r24
    143a:	9c 93       	st	X, r25
    143c:	b7 c7       	rjmp	.+3950   	; 0x23ac <_Z13modbusProceedPiiii+0x19fc>
    143e:	e9 85       	ldd	r30, Y+9	; 0x09
    1440:	fa 85       	ldd	r31, Y+10	; 0x0a
    1442:	ee 0f       	add	r30, r30
    1444:	ff 1f       	adc	r31, r31
    1446:	ee 0d       	add	r30, r14
    1448:	ff 1d       	adc	r31, r15
    144a:	fa 87       	std	Y+10, r31	; 0x0a
    144c:	e9 87       	std	Y+9, r30	; 0x09
    144e:	60 91 53 03 	lds	r22, 0x0353	; 0x800353 <gasDensityG>
    1452:	70 91 54 03 	lds	r23, 0x0354	; 0x800354 <gasDensityG+0x1>
    1456:	80 91 55 03 	lds	r24, 0x0355	; 0x800355 <gasDensityG+0x2>
    145a:	90 91 56 03 	lds	r25, 0x0356	; 0x800356 <gasDensityG+0x3>
    145e:	40 e0       	ldi	r20, 0x00	; 0
    1460:	87 da       	rcall	.-2802   	; 0x970 <_Z12convertFloatfh>
    1462:	a9 85       	ldd	r26, Y+9	; 0x09
    1464:	ba 85       	ldd	r27, Y+10	; 0x0a
    1466:	8d 93       	st	X+, r24
    1468:	9c 93       	st	X, r25
    146a:	a0 c7       	rjmp	.+3904   	; 0x23ac <_Z13modbusProceedPiiii+0x19fc>
    146c:	e9 85       	ldd	r30, Y+9	; 0x09
    146e:	fa 85       	ldd	r31, Y+10	; 0x0a
    1470:	ee 0f       	add	r30, r30
    1472:	ff 1f       	adc	r31, r31
    1474:	ee 0d       	add	r30, r14
    1476:	ff 1d       	adc	r31, r15
    1478:	fa 87       	std	Y+10, r31	; 0x0a
    147a:	e9 87       	std	Y+9, r30	; 0x09
    147c:	40 e0       	ldi	r20, 0x00	; 0
    147e:	78 da       	rcall	.-2832   	; 0x970 <_Z12convertFloatfh>
    1480:	a9 85       	ldd	r26, Y+9	; 0x09
    1482:	ba 85       	ldd	r27, Y+10	; 0x0a
    1484:	8d 93       	st	X+, r24
    1486:	9c 93       	st	X, r25
    1488:	91 c7       	rjmp	.+3874   	; 0x23ac <_Z13modbusProceedPiiii+0x19fc>
    148a:	e9 85       	ldd	r30, Y+9	; 0x09
    148c:	fa 85       	ldd	r31, Y+10	; 0x0a
    148e:	ee 0f       	add	r30, r30
    1490:	ff 1f       	adc	r31, r31
    1492:	ee 0d       	add	r30, r14
    1494:	ff 1d       	adc	r31, r15
    1496:	fa 87       	std	Y+10, r31	; 0x0a
    1498:	e9 87       	std	Y+9, r30	; 0x09
    149a:	41 e0       	ldi	r20, 0x01	; 1
    149c:	69 da       	rcall	.-2862   	; 0x970 <_Z12convertFloatfh>
    149e:	a9 85       	ldd	r26, Y+9	; 0x09
    14a0:	ba 85       	ldd	r27, Y+10	; 0x0a
    14a2:	8d 93       	st	X+, r24
    14a4:	9c 93       	st	X, r25
    14a6:	82 c7       	rjmp	.+3844   	; 0x23ac <_Z13modbusProceedPiiii+0x19fc>
    14a8:	e9 85       	ldd	r30, Y+9	; 0x09
    14aa:	fa 85       	ldd	r31, Y+10	; 0x0a
    14ac:	ee 0f       	add	r30, r30
    14ae:	ff 1f       	adc	r31, r31
    14b0:	ee 0d       	add	r30, r14
    14b2:	ff 1d       	adc	r31, r15
    14b4:	fa 87       	std	Y+10, r31	; 0x0a
    14b6:	e9 87       	std	Y+9, r30	; 0x09
    14b8:	60 91 4d 03 	lds	r22, 0x034D	; 0x80034d <pressure_Bar20>
    14bc:	70 91 4e 03 	lds	r23, 0x034E	; 0x80034e <pressure_Bar20+0x1>
    14c0:	80 91 4f 03 	lds	r24, 0x034F	; 0x80034f <pressure_Bar20+0x2>
    14c4:	90 91 50 03 	lds	r25, 0x0350	; 0x800350 <pressure_Bar20+0x3>
    14c8:	40 e0       	ldi	r20, 0x00	; 0
    14ca:	52 da       	rcall	.-2908   	; 0x970 <_Z12convertFloatfh>
    14cc:	a9 85       	ldd	r26, Y+9	; 0x09
    14ce:	ba 85       	ldd	r27, Y+10	; 0x0a
    14d0:	8d 93       	st	X+, r24
    14d2:	9c 93       	st	X, r25
    14d4:	6b c7       	rjmp	.+3798   	; 0x23ac <_Z13modbusProceedPiiii+0x19fc>
    14d6:	e9 85       	ldd	r30, Y+9	; 0x09
    14d8:	fa 85       	ldd	r31, Y+10	; 0x0a
    14da:	ee 0f       	add	r30, r30
    14dc:	ff 1f       	adc	r31, r31
    14de:	ee 0d       	add	r30, r14
    14e0:	ff 1d       	adc	r31, r15
    14e2:	fa 87       	std	Y+10, r31	; 0x0a
    14e4:	e9 87       	std	Y+9, r30	; 0x09
    14e6:	60 91 2b 03 	lds	r22, 0x032B	; 0x80032b <frostPointAtm>
    14ea:	70 91 2c 03 	lds	r23, 0x032C	; 0x80032c <frostPointAtm+0x1>
    14ee:	80 91 2d 03 	lds	r24, 0x032D	; 0x80032d <frostPointAtm+0x2>
    14f2:	90 91 2e 03 	lds	r25, 0x032E	; 0x80032e <frostPointAtm+0x3>
    14f6:	40 e0       	ldi	r20, 0x00	; 0
    14f8:	3b da       	rcall	.-2954   	; 0x970 <_Z12convertFloatfh>
    14fa:	a9 85       	ldd	r26, Y+9	; 0x09
    14fc:	ba 85       	ldd	r27, Y+10	; 0x0a
    14fe:	8d 93       	st	X+, r24
    1500:	9c 93       	st	X, r25
    1502:	54 c7       	rjmp	.+3752   	; 0x23ac <_Z13modbusProceedPiiii+0x19fc>
    1504:	e9 85       	ldd	r30, Y+9	; 0x09
    1506:	fa 85       	ldd	r31, Y+10	; 0x0a
    1508:	ee 0f       	add	r30, r30
    150a:	ff 1f       	adc	r31, r31
    150c:	ee 0d       	add	r30, r14
    150e:	ff 1d       	adc	r31, r15
    1510:	fa 87       	std	Y+10, r31	; 0x0a
    1512:	e9 87       	std	Y+9, r30	; 0x09
    1514:	60 91 2b 03 	lds	r22, 0x032B	; 0x80032b <frostPointAtm>
    1518:	70 91 2c 03 	lds	r23, 0x032C	; 0x80032c <frostPointAtm+0x1>
    151c:	80 91 2d 03 	lds	r24, 0x032D	; 0x80032d <frostPointAtm+0x2>
    1520:	90 91 2e 03 	lds	r25, 0x032E	; 0x80032e <frostPointAtm+0x3>
    1524:	41 e0       	ldi	r20, 0x01	; 1
    1526:	24 da       	rcall	.-3000   	; 0x970 <_Z12convertFloatfh>
    1528:	a9 85       	ldd	r26, Y+9	; 0x09
    152a:	ba 85       	ldd	r27, Y+10	; 0x0a
    152c:	8d 93       	st	X+, r24
    152e:	9c 93       	st	X, r25
    1530:	3d c7       	rjmp	.+3706   	; 0x23ac <_Z13modbusProceedPiiii+0x19fc>
    1532:	e9 85       	ldd	r30, Y+9	; 0x09
    1534:	fa 85       	ldd	r31, Y+10	; 0x0a
    1536:	ee 0f       	add	r30, r30
    1538:	ff 1f       	adc	r31, r31
    153a:	ee 0d       	add	r30, r14
    153c:	ff 1d       	adc	r31, r15
    153e:	fa 87       	std	Y+10, r31	; 0x0a
    1540:	e9 87       	std	Y+9, r30	; 0x09
    1542:	60 91 2f 03 	lds	r22, 0x032F	; 0x80032f <dewPointAtm>
    1546:	70 91 30 03 	lds	r23, 0x0330	; 0x800330 <dewPointAtm+0x1>
    154a:	80 91 31 03 	lds	r24, 0x0331	; 0x800331 <dewPointAtm+0x2>
    154e:	90 91 32 03 	lds	r25, 0x0332	; 0x800332 <dewPointAtm+0x3>
    1552:	40 e0       	ldi	r20, 0x00	; 0
    1554:	0d da       	rcall	.-3046   	; 0x970 <_Z12convertFloatfh>
    1556:	a9 85       	ldd	r26, Y+9	; 0x09
    1558:	ba 85       	ldd	r27, Y+10	; 0x0a
    155a:	8d 93       	st	X+, r24
    155c:	9c 93       	st	X, r25
    155e:	26 c7       	rjmp	.+3660   	; 0x23ac <_Z13modbusProceedPiiii+0x19fc>
    1560:	e9 85       	ldd	r30, Y+9	; 0x09
    1562:	fa 85       	ldd	r31, Y+10	; 0x0a
    1564:	ee 0f       	add	r30, r30
    1566:	ff 1f       	adc	r31, r31
    1568:	ee 0d       	add	r30, r14
    156a:	ff 1d       	adc	r31, r15
    156c:	fa 87       	std	Y+10, r31	; 0x0a
    156e:	e9 87       	std	Y+9, r30	; 0x09
    1570:	60 91 1b 03 	lds	r22, 0x031B	; 0x80031b <frostPoint>
    1574:	70 91 1c 03 	lds	r23, 0x031C	; 0x80031c <frostPoint+0x1>
    1578:	80 91 1d 03 	lds	r24, 0x031D	; 0x80031d <frostPoint+0x2>
    157c:	90 91 1e 03 	lds	r25, 0x031E	; 0x80031e <frostPoint+0x3>
    1580:	40 e0       	ldi	r20, 0x00	; 0
    1582:	f6 d9       	rcall	.-3092   	; 0x970 <_Z12convertFloatfh>
    1584:	a9 85       	ldd	r26, Y+9	; 0x09
    1586:	ba 85       	ldd	r27, Y+10	; 0x0a
    1588:	8d 93       	st	X+, r24
    158a:	9c 93       	st	X, r25
    158c:	0f c7       	rjmp	.+3614   	; 0x23ac <_Z13modbusProceedPiiii+0x19fc>
    158e:	e9 85       	ldd	r30, Y+9	; 0x09
    1590:	fa 85       	ldd	r31, Y+10	; 0x0a
    1592:	ee 0f       	add	r30, r30
    1594:	ff 1f       	adc	r31, r31
    1596:	ee 0d       	add	r30, r14
    1598:	ff 1d       	adc	r31, r15
    159a:	fa 87       	std	Y+10, r31	; 0x0a
    159c:	e9 87       	std	Y+9, r30	; 0x09
    159e:	60 91 1b 03 	lds	r22, 0x031B	; 0x80031b <frostPoint>
    15a2:	70 91 1c 03 	lds	r23, 0x031C	; 0x80031c <frostPoint+0x1>
    15a6:	80 91 1d 03 	lds	r24, 0x031D	; 0x80031d <frostPoint+0x2>
    15aa:	90 91 1e 03 	lds	r25, 0x031E	; 0x80031e <frostPoint+0x3>
    15ae:	41 e0       	ldi	r20, 0x01	; 1
    15b0:	df d9       	rcall	.-3138   	; 0x970 <_Z12convertFloatfh>
    15b2:	a9 85       	ldd	r26, Y+9	; 0x09
    15b4:	ba 85       	ldd	r27, Y+10	; 0x0a
    15b6:	8d 93       	st	X+, r24
    15b8:	9c 93       	st	X, r25
    15ba:	f8 c6       	rjmp	.+3568   	; 0x23ac <_Z13modbusProceedPiiii+0x19fc>
    15bc:	e9 85       	ldd	r30, Y+9	; 0x09
    15be:	fa 85       	ldd	r31, Y+10	; 0x0a
    15c0:	ee 0f       	add	r30, r30
    15c2:	ff 1f       	adc	r31, r31
    15c4:	ee 0d       	add	r30, r14
    15c6:	ff 1d       	adc	r31, r15
    15c8:	fa 87       	std	Y+10, r31	; 0x0a
    15ca:	e9 87       	std	Y+9, r30	; 0x09
    15cc:	60 91 33 03 	lds	r22, 0x0333	; 0x800333 <dewPoint>
    15d0:	70 91 34 03 	lds	r23, 0x0334	; 0x800334 <dewPoint+0x1>
    15d4:	80 91 35 03 	lds	r24, 0x0335	; 0x800335 <dewPoint+0x2>
    15d8:	90 91 36 03 	lds	r25, 0x0336	; 0x800336 <dewPoint+0x3>
    15dc:	40 e0       	ldi	r20, 0x00	; 0
    15de:	c8 d9       	rcall	.-3184   	; 0x970 <_Z12convertFloatfh>
    15e0:	a9 85       	ldd	r26, Y+9	; 0x09
    15e2:	ba 85       	ldd	r27, Y+10	; 0x0a
    15e4:	8d 93       	st	X+, r24
    15e6:	9c 93       	st	X, r25
    15e8:	e1 c6       	rjmp	.+3522   	; 0x23ac <_Z13modbusProceedPiiii+0x19fc>
    15ea:	e9 85       	ldd	r30, Y+9	; 0x09
    15ec:	fa 85       	ldd	r31, Y+10	; 0x0a
    15ee:	ee 0f       	add	r30, r30
    15f0:	ff 1f       	adc	r31, r31
    15f2:	ee 0d       	add	r30, r14
    15f4:	ff 1d       	adc	r31, r15
    15f6:	fa 87       	std	Y+10, r31	; 0x0a
    15f8:	e9 87       	std	Y+9, r30	; 0x09
    15fa:	60 91 33 03 	lds	r22, 0x0333	; 0x800333 <dewPoint>
    15fe:	70 91 34 03 	lds	r23, 0x0334	; 0x800334 <dewPoint+0x1>
    1602:	80 91 35 03 	lds	r24, 0x0335	; 0x800335 <dewPoint+0x2>
    1606:	90 91 36 03 	lds	r25, 0x0336	; 0x800336 <dewPoint+0x3>
    160a:	41 e0       	ldi	r20, 0x01	; 1
    160c:	b1 d9       	rcall	.-3230   	; 0x970 <_Z12convertFloatfh>
    160e:	a9 85       	ldd	r26, Y+9	; 0x09
    1610:	ba 85       	ldd	r27, Y+10	; 0x0a
    1612:	8d 93       	st	X+, r24
    1614:	9c 93       	st	X, r25
    1616:	ca c6       	rjmp	.+3476   	; 0x23ac <_Z13modbusProceedPiiii+0x19fc>
    1618:	e9 85       	ldd	r30, Y+9	; 0x09
    161a:	fa 85       	ldd	r31, Y+10	; 0x0a
    161c:	ee 0f       	add	r30, r30
    161e:	ff 1f       	adc	r31, r31
    1620:	ee 0d       	add	r30, r14
    1622:	ff 1d       	adc	r31, r15
    1624:	fa 87       	std	Y+10, r31	; 0x0a
    1626:	e9 87       	std	Y+9, r30	; 0x09
    1628:	60 91 27 03 	lds	r22, 0x0327	; 0x800327 <PPMv>
    162c:	70 91 28 03 	lds	r23, 0x0328	; 0x800328 <PPMv+0x1>
    1630:	80 91 29 03 	lds	r24, 0x0329	; 0x800329 <PPMv+0x2>
    1634:	90 91 2a 03 	lds	r25, 0x032A	; 0x80032a <PPMv+0x3>
    1638:	41 e0       	ldi	r20, 0x01	; 1
    163a:	9a d9       	rcall	.-3276   	; 0x970 <_Z12convertFloatfh>
    163c:	a9 85       	ldd	r26, Y+9	; 0x09
    163e:	ba 85       	ldd	r27, Y+10	; 0x0a
    1640:	8d 93       	st	X+, r24
    1642:	9c 93       	st	X, r25
    1644:	b3 c6       	rjmp	.+3430   	; 0x23ac <_Z13modbusProceedPiiii+0x19fc>
    1646:	e9 85       	ldd	r30, Y+9	; 0x09
    1648:	fa 85       	ldd	r31, Y+10	; 0x0a
    164a:	ee 0f       	add	r30, r30
    164c:	ff 1f       	adc	r31, r31
    164e:	ee 0d       	add	r30, r14
    1650:	ff 1d       	adc	r31, r15
    1652:	fa 87       	std	Y+10, r31	; 0x0a
    1654:	e9 87       	std	Y+9, r30	; 0x09
    1656:	60 91 23 03 	lds	r22, 0x0323	; 0x800323 <PPMm>
    165a:	70 91 24 03 	lds	r23, 0x0324	; 0x800324 <PPMm+0x1>
    165e:	80 91 25 03 	lds	r24, 0x0325	; 0x800325 <PPMm+0x2>
    1662:	90 91 26 03 	lds	r25, 0x0326	; 0x800326 <PPMm+0x3>
    1666:	40 e0       	ldi	r20, 0x00	; 0
    1668:	83 d9       	rcall	.-3322   	; 0x970 <_Z12convertFloatfh>
    166a:	a9 85       	ldd	r26, Y+9	; 0x09
    166c:	ba 85       	ldd	r27, Y+10	; 0x0a
    166e:	8d 93       	st	X+, r24
    1670:	9c 93       	st	X, r25
    1672:	9c c6       	rjmp	.+3384   	; 0x23ac <_Z13modbusProceedPiiii+0x19fc>
    1674:	e9 85       	ldd	r30, Y+9	; 0x09
    1676:	fa 85       	ldd	r31, Y+10	; 0x0a
    1678:	ee 0f       	add	r30, r30
    167a:	ff 1f       	adc	r31, r31
    167c:	ee 0d       	add	r30, r14
    167e:	ff 1d       	adc	r31, r15
    1680:	fa 87       	std	Y+10, r31	; 0x0a
    1682:	e9 87       	std	Y+9, r30	; 0x09
    1684:	60 91 23 03 	lds	r22, 0x0323	; 0x800323 <PPMm>
    1688:	70 91 24 03 	lds	r23, 0x0324	; 0x800324 <PPMm+0x1>
    168c:	80 91 25 03 	lds	r24, 0x0325	; 0x800325 <PPMm+0x2>
    1690:	90 91 26 03 	lds	r25, 0x0326	; 0x800326 <PPMm+0x3>
    1694:	41 e0       	ldi	r20, 0x01	; 1
    1696:	6c d9       	rcall	.-3368   	; 0x970 <_Z12convertFloatfh>
    1698:	a9 85       	ldd	r26, Y+9	; 0x09
    169a:	ba 85       	ldd	r27, Y+10	; 0x0a
    169c:	8d 93       	st	X+, r24
    169e:	9c 93       	st	X, r25
    16a0:	85 c6       	rjmp	.+3338   	; 0x23ac <_Z13modbusProceedPiiii+0x19fc>
    16a2:	e9 85       	ldd	r30, Y+9	; 0x09
    16a4:	fa 85       	ldd	r31, Y+10	; 0x0a
    16a6:	ee 0f       	add	r30, r30
    16a8:	ff 1f       	adc	r31, r31
    16aa:	ee 0d       	add	r30, r14
    16ac:	ff 1d       	adc	r31, r15
    16ae:	fa 87       	std	Y+10, r31	; 0x0a
    16b0:	e9 87       	std	Y+9, r30	; 0x09
    16b2:	60 91 0a 03 	lds	r22, 0x030A	; 0x80030a <RH_Tuned>
    16b6:	70 91 0b 03 	lds	r23, 0x030B	; 0x80030b <RH_Tuned+0x1>
    16ba:	80 91 0c 03 	lds	r24, 0x030C	; 0x80030c <RH_Tuned+0x2>
    16be:	90 91 0d 03 	lds	r25, 0x030D	; 0x80030d <RH_Tuned+0x3>
    16c2:	41 e0       	ldi	r20, 0x01	; 1
    16c4:	55 d9       	rcall	.-3414   	; 0x970 <_Z12convertFloatfh>
    16c6:	a9 85       	ldd	r26, Y+9	; 0x09
    16c8:	ba 85       	ldd	r27, Y+10	; 0x0a
    16ca:	8d 93       	st	X+, r24
    16cc:	9c 93       	st	X, r25
    16ce:	6e c6       	rjmp	.+3292   	; 0x23ac <_Z13modbusProceedPiiii+0x19fc>
    16d0:	e9 85       	ldd	r30, Y+9	; 0x09
    16d2:	fa 85       	ldd	r31, Y+10	; 0x0a
    16d4:	ee 0f       	add	r30, r30
    16d6:	ff 1f       	adc	r31, r31
    16d8:	ee 0d       	add	r30, r14
    16da:	ff 1d       	adc	r31, r15
    16dc:	fa 87       	std	Y+10, r31	; 0x0a
    16de:	e9 87       	std	Y+9, r30	; 0x09
    16e0:	60 91 47 03 	lds	r22, 0x0347	; 0x800347 <pressure_Bar20Rel>
    16e4:	70 91 48 03 	lds	r23, 0x0348	; 0x800348 <pressure_Bar20Rel+0x1>
    16e8:	80 91 49 03 	lds	r24, 0x0349	; 0x800349 <pressure_Bar20Rel+0x2>
    16ec:	90 91 4a 03 	lds	r25, 0x034A	; 0x80034a <pressure_Bar20Rel+0x3>
    16f0:	41 e0       	ldi	r20, 0x01	; 1
    16f2:	3e d9       	rcall	.-3460   	; 0x970 <_Z12convertFloatfh>
    16f4:	a9 85       	ldd	r26, Y+9	; 0x09
    16f6:	ba 85       	ldd	r27, Y+10	; 0x0a
    16f8:	8d 93       	st	X+, r24
    16fa:	9c 93       	st	X, r25
    16fc:	57 c6       	rjmp	.+3246   	; 0x23ac <_Z13modbusProceedPiiii+0x19fc>
    16fe:	e9 85       	ldd	r30, Y+9	; 0x09
    1700:	fa 85       	ldd	r31, Y+10	; 0x0a
    1702:	ee 0f       	add	r30, r30
    1704:	ff 1f       	adc	r31, r31
    1706:	ee 0d       	add	r30, r14
    1708:	ff 1d       	adc	r31, r15
    170a:	fa 87       	std	Y+10, r31	; 0x0a
    170c:	e9 87       	std	Y+9, r30	; 0x09
    170e:	60 91 43 03 	lds	r22, 0x0343	; 0x800343 <pressure_MPa20>
    1712:	70 91 44 03 	lds	r23, 0x0344	; 0x800344 <pressure_MPa20+0x1>
    1716:	80 91 45 03 	lds	r24, 0x0345	; 0x800345 <pressure_MPa20+0x2>
    171a:	90 91 46 03 	lds	r25, 0x0346	; 0x800346 <pressure_MPa20+0x3>
    171e:	40 e0       	ldi	r20, 0x00	; 0
    1720:	27 d9       	rcall	.-3506   	; 0x970 <_Z12convertFloatfh>
    1722:	a9 85       	ldd	r26, Y+9	; 0x09
    1724:	ba 85       	ldd	r27, Y+10	; 0x0a
    1726:	8d 93       	st	X+, r24
    1728:	9c 93       	st	X, r25
    172a:	40 c6       	rjmp	.+3200   	; 0x23ac <_Z13modbusProceedPiiii+0x19fc>
    172c:	e9 85       	ldd	r30, Y+9	; 0x09
    172e:	fa 85       	ldd	r31, Y+10	; 0x0a
    1730:	ee 0f       	add	r30, r30
    1732:	ff 1f       	adc	r31, r31
    1734:	ee 0d       	add	r30, r14
    1736:	ff 1d       	adc	r31, r15
    1738:	fa 87       	std	Y+10, r31	; 0x0a
    173a:	e9 87       	std	Y+9, r30	; 0x09
    173c:	60 91 43 03 	lds	r22, 0x0343	; 0x800343 <pressure_MPa20>
    1740:	70 91 44 03 	lds	r23, 0x0344	; 0x800344 <pressure_MPa20+0x1>
    1744:	80 91 45 03 	lds	r24, 0x0345	; 0x800345 <pressure_MPa20+0x2>
    1748:	90 91 46 03 	lds	r25, 0x0346	; 0x800346 <pressure_MPa20+0x3>
    174c:	41 e0       	ldi	r20, 0x01	; 1
    174e:	10 d9       	rcall	.-3552   	; 0x970 <_Z12convertFloatfh>
    1750:	a9 85       	ldd	r26, Y+9	; 0x09
    1752:	ba 85       	ldd	r27, Y+10	; 0x0a
    1754:	8d 93       	st	X+, r24
    1756:	9c 93       	st	X, r25
    1758:	29 c6       	rjmp	.+3154   	; 0x23ac <_Z13modbusProceedPiiii+0x19fc>
    175a:	e9 85       	ldd	r30, Y+9	; 0x09
    175c:	fa 85       	ldd	r31, Y+10	; 0x0a
    175e:	ee 0f       	add	r30, r30
    1760:	ff 1f       	adc	r31, r31
    1762:	ee 0d       	add	r30, r14
    1764:	ff 1d       	adc	r31, r15
    1766:	fa 87       	std	Y+10, r31	; 0x0a
    1768:	e9 87       	std	Y+9, r30	; 0x09
    176a:	60 91 3f 03 	lds	r22, 0x033F	; 0x80033f <pressure_MPa20Rel>
    176e:	70 91 40 03 	lds	r23, 0x0340	; 0x800340 <pressure_MPa20Rel+0x1>
    1772:	80 91 41 03 	lds	r24, 0x0341	; 0x800341 <pressure_MPa20Rel+0x2>
    1776:	90 91 42 03 	lds	r25, 0x0342	; 0x800342 <pressure_MPa20Rel+0x3>
    177a:	40 e0       	ldi	r20, 0x00	; 0
    177c:	f9 d8       	rcall	.-3598   	; 0x970 <_Z12convertFloatfh>
    177e:	a9 85       	ldd	r26, Y+9	; 0x09
    1780:	ba 85       	ldd	r27, Y+10	; 0x0a
    1782:	8d 93       	st	X+, r24
    1784:	9c 93       	st	X, r25
    1786:	12 c6       	rjmp	.+3108   	; 0x23ac <_Z13modbusProceedPiiii+0x19fc>
    1788:	e9 85       	ldd	r30, Y+9	; 0x09
    178a:	fa 85       	ldd	r31, Y+10	; 0x0a
    178c:	ee 0f       	add	r30, r30
    178e:	ff 1f       	adc	r31, r31
    1790:	ee 0d       	add	r30, r14
    1792:	ff 1d       	adc	r31, r15
    1794:	fa 87       	std	Y+10, r31	; 0x0a
    1796:	e9 87       	std	Y+9, r30	; 0x09
    1798:	60 91 3f 03 	lds	r22, 0x033F	; 0x80033f <pressure_MPa20Rel>
    179c:	70 91 40 03 	lds	r23, 0x0340	; 0x800340 <pressure_MPa20Rel+0x1>
    17a0:	80 91 41 03 	lds	r24, 0x0341	; 0x800341 <pressure_MPa20Rel+0x2>
    17a4:	90 91 42 03 	lds	r25, 0x0342	; 0x800342 <pressure_MPa20Rel+0x3>
    17a8:	41 e0       	ldi	r20, 0x01	; 1
    17aa:	e2 d8       	rcall	.-3644   	; 0x970 <_Z12convertFloatfh>
    17ac:	a9 85       	ldd	r26, Y+9	; 0x09
    17ae:	ba 85       	ldd	r27, Y+10	; 0x0a
    17b0:	8d 93       	st	X+, r24
    17b2:	9c 93       	st	X, r25
    17b4:	fb c5       	rjmp	.+3062   	; 0x23ac <_Z13modbusProceedPiiii+0x19fc>
    17b6:	e9 85       	ldd	r30, Y+9	; 0x09
    17b8:	fa 85       	ldd	r31, Y+10	; 0x0a
    17ba:	ee 0f       	add	r30, r30
    17bc:	ff 1f       	adc	r31, r31
    17be:	ee 0d       	add	r30, r14
    17c0:	ff 1d       	adc	r31, r15
    17c2:	fa 87       	std	Y+10, r31	; 0x0a
    17c4:	e9 87       	std	Y+9, r30	; 0x09
    17c6:	60 91 16 03 	lds	r22, 0x0316	; 0x800316 <pressureRAW>
    17ca:	70 91 17 03 	lds	r23, 0x0317	; 0x800317 <pressureRAW+0x1>
    17ce:	80 91 18 03 	lds	r24, 0x0318	; 0x800318 <pressureRAW+0x2>
    17d2:	90 91 19 03 	lds	r25, 0x0319	; 0x800319 <pressureRAW+0x3>
    17d6:	41 e0       	ldi	r20, 0x01	; 1
    17d8:	cb d8       	rcall	.-3690   	; 0x970 <_Z12convertFloatfh>
    17da:	a9 85       	ldd	r26, Y+9	; 0x09
    17dc:	ba 85       	ldd	r27, Y+10	; 0x0a
    17de:	8d 93       	st	X+, r24
    17e0:	9c 93       	st	X, r25
    17e2:	e4 c5       	rjmp	.+3016   	; 0x23ac <_Z13modbusProceedPiiii+0x19fc>
    17e4:	e9 85       	ldd	r30, Y+9	; 0x09
    17e6:	fa 85       	ldd	r31, Y+10	; 0x0a
    17e8:	ee 0f       	add	r30, r30
    17ea:	ff 1f       	adc	r31, r31
    17ec:	ee 0d       	add	r30, r14
    17ee:	ff 1d       	adc	r31, r15
    17f0:	fa 87       	std	Y+10, r31	; 0x0a
    17f2:	e9 87       	std	Y+9, r30	; 0x09
    17f4:	60 91 12 03 	lds	r22, 0x0312	; 0x800312 <temperatureRAW>
    17f8:	70 91 13 03 	lds	r23, 0x0313	; 0x800313 <temperatureRAW+0x1>
    17fc:	80 91 14 03 	lds	r24, 0x0314	; 0x800314 <temperatureRAW+0x2>
    1800:	90 91 15 03 	lds	r25, 0x0315	; 0x800315 <temperatureRAW+0x3>
    1804:	41 e0       	ldi	r20, 0x01	; 1
    1806:	b4 d8       	rcall	.-3736   	; 0x970 <_Z12convertFloatfh>
    1808:	a9 85       	ldd	r26, Y+9	; 0x09
    180a:	ba 85       	ldd	r27, Y+10	; 0x0a
    180c:	8d 93       	st	X+, r24
    180e:	9c 93       	st	X, r25
    1810:	cd c5       	rjmp	.+2970   	; 0x23ac <_Z13modbusProceedPiiii+0x19fc>
    1812:	e9 85       	ldd	r30, Y+9	; 0x09
    1814:	fa 85       	ldd	r31, Y+10	; 0x0a
    1816:	ee 0f       	add	r30, r30
    1818:	ff 1f       	adc	r31, r31
    181a:	ee 0d       	add	r30, r14
    181c:	ff 1d       	adc	r31, r15
    181e:	fa 87       	std	Y+10, r31	; 0x0a
    1820:	e9 87       	std	Y+9, r30	; 0x09
    1822:	60 91 6b 03 	lds	r22, 0x036B	; 0x80036b <pressure>
    1826:	70 91 6c 03 	lds	r23, 0x036C	; 0x80036c <pressure+0x1>
    182a:	80 91 6d 03 	lds	r24, 0x036D	; 0x80036d <pressure+0x2>
    182e:	90 91 6e 03 	lds	r25, 0x036E	; 0x80036e <pressure+0x3>
    1832:	40 e0       	ldi	r20, 0x00	; 0
    1834:	9d d8       	rcall	.-3782   	; 0x970 <_Z12convertFloatfh>
    1836:	a9 85       	ldd	r26, Y+9	; 0x09
    1838:	ba 85       	ldd	r27, Y+10	; 0x0a
    183a:	8d 93       	st	X+, r24
    183c:	9c 93       	st	X, r25
    183e:	b6 c5       	rjmp	.+2924   	; 0x23ac <_Z13modbusProceedPiiii+0x19fc>
    1840:	e9 85       	ldd	r30, Y+9	; 0x09
    1842:	fa 85       	ldd	r31, Y+10	; 0x0a
    1844:	ee 0f       	add	r30, r30
    1846:	ff 1f       	adc	r31, r31
    1848:	ee 0d       	add	r30, r14
    184a:	ff 1d       	adc	r31, r15
    184c:	fa 87       	std	Y+10, r31	; 0x0a
    184e:	e9 87       	std	Y+9, r30	; 0x09
    1850:	60 91 6b 03 	lds	r22, 0x036B	; 0x80036b <pressure>
    1854:	70 91 6c 03 	lds	r23, 0x036C	; 0x80036c <pressure+0x1>
    1858:	80 91 6d 03 	lds	r24, 0x036D	; 0x80036d <pressure+0x2>
    185c:	90 91 6e 03 	lds	r25, 0x036E	; 0x80036e <pressure+0x3>
    1860:	41 e0       	ldi	r20, 0x01	; 1
    1862:	86 d8       	rcall	.-3828   	; 0x970 <_Z12convertFloatfh>
    1864:	a9 85       	ldd	r26, Y+9	; 0x09
    1866:	ba 85       	ldd	r27, Y+10	; 0x0a
    1868:	8d 93       	st	X+, r24
    186a:	9c 93       	st	X, r25
    186c:	9f c5       	rjmp	.+2878   	; 0x23ac <_Z13modbusProceedPiiii+0x19fc>
    186e:	e9 85       	ldd	r30, Y+9	; 0x09
    1870:	fa 85       	ldd	r31, Y+10	; 0x0a
    1872:	ee 0f       	add	r30, r30
    1874:	ff 1f       	adc	r31, r31
    1876:	ee 0d       	add	r30, r14
    1878:	ff 1d       	adc	r31, r15
    187a:	fa 87       	std	Y+10, r31	; 0x0a
    187c:	e9 87       	std	Y+9, r30	; 0x09
    187e:	60 91 67 03 	lds	r22, 0x0367	; 0x800367 <temperature>
    1882:	70 91 68 03 	lds	r23, 0x0368	; 0x800368 <temperature+0x1>
    1886:	80 91 69 03 	lds	r24, 0x0369	; 0x800369 <temperature+0x2>
    188a:	90 91 6a 03 	lds	r25, 0x036A	; 0x80036a <temperature+0x3>
    188e:	41 e0       	ldi	r20, 0x01	; 1
    1890:	6f d8       	rcall	.-3874   	; 0x970 <_Z12convertFloatfh>
    1892:	a9 85       	ldd	r26, Y+9	; 0x09
    1894:	ba 85       	ldd	r27, Y+10	; 0x0a
    1896:	8d 93       	st	X+, r24
    1898:	9c 93       	st	X, r25
    189a:	88 c5       	rjmp	.+2832   	; 0x23ac <_Z13modbusProceedPiiii+0x19fc>
    189c:	e9 85       	ldd	r30, Y+9	; 0x09
    189e:	fa 85       	ldd	r31, Y+10	; 0x0a
    18a0:	ee 0f       	add	r30, r30
    18a2:	ff 1f       	adc	r31, r31
    18a4:	ee 0d       	add	r30, r14
    18a6:	ff 1d       	adc	r31, r15
    18a8:	80 91 69 01 	lds	r24, 0x0169	; 0x800169 <lostCntPressure>
    18ac:	90 e0       	ldi	r25, 0x00	; 0
    18ae:	91 83       	std	Z+1, r25	; 0x01
    18b0:	80 83       	st	Z, r24
    18b2:	7c c5       	rjmp	.+2808   	; 0x23ac <_Z13modbusProceedPiiii+0x19fc>
    18b4:	29 85       	ldd	r18, Y+9	; 0x09
    18b6:	3a 85       	ldd	r19, Y+10	; 0x0a
    18b8:	22 0f       	add	r18, r18
    18ba:	33 1f       	adc	r19, r19
    18bc:	2e 0d       	add	r18, r14
    18be:	3f 1d       	adc	r19, r15
    18c0:	80 91 67 01 	lds	r24, 0x0167	; 0x800167 <totalLostPressureCnt>
    18c4:	90 91 68 01 	lds	r25, 0x0168	; 0x800168 <totalLostPressureCnt+0x1>
    18c8:	d9 01       	movw	r26, r18
    18ca:	8d 93       	st	X+, r24
    18cc:	9c 93       	st	X, r25
    18ce:	6e c5       	rjmp	.+2780   	; 0x23ac <_Z13modbusProceedPiiii+0x19fc>
    18d0:	29 85       	ldd	r18, Y+9	; 0x09
    18d2:	3a 85       	ldd	r19, Y+10	; 0x0a
    18d4:	22 0f       	add	r18, r18
    18d6:	33 1f       	adc	r19, r19
    18d8:	2e 0d       	add	r18, r14
    18da:	3f 1d       	adc	r19, r15
    18dc:	80 91 66 01 	lds	r24, 0x0166	; 0x800166 <lostCntRH>
    18e0:	90 e0       	ldi	r25, 0x00	; 0
    18e2:	d9 01       	movw	r26, r18
    18e4:	8d 93       	st	X+, r24
    18e6:	9c 93       	st	X, r25
    18e8:	61 c5       	rjmp	.+2754   	; 0x23ac <_Z13modbusProceedPiiii+0x19fc>
    18ea:	e9 85       	ldd	r30, Y+9	; 0x09
    18ec:	fa 85       	ldd	r31, Y+10	; 0x0a
    18ee:	ee 0f       	add	r30, r30
    18f0:	ff 1f       	adc	r31, r31
    18f2:	ee 0d       	add	r30, r14
    18f4:	ff 1d       	adc	r31, r15
    18f6:	80 91 64 01 	lds	r24, 0x0164	; 0x800164 <totalLostRHCnt>
    18fa:	90 91 65 01 	lds	r25, 0x0165	; 0x800165 <totalLostRHCnt+0x1>
    18fe:	91 83       	std	Z+1, r25	; 0x01
    1900:	80 83       	st	Z, r24
    1902:	54 c5       	rjmp	.+2728   	; 0x23ac <_Z13modbusProceedPiiii+0x19fc>
    1904:	29 85       	ldd	r18, Y+9	; 0x09
    1906:	3a 85       	ldd	r19, Y+10	; 0x0a
    1908:	22 0f       	add	r18, r18
    190a:	33 1f       	adc	r19, r19
    190c:	2e 0d       	add	r18, r14
    190e:	3f 1d       	adc	r19, r15
    1910:	80 91 87 03 	lds	r24, 0x0387	; 0x800387 <shtSensorLost>
    1914:	90 e0       	ldi	r25, 0x00	; 0
    1916:	d9 01       	movw	r26, r18
    1918:	8d 93       	st	X+, r24
    191a:	9c 93       	st	X, r25
    191c:	47 c5       	rjmp	.+2702   	; 0x23ac <_Z13modbusProceedPiiii+0x19fc>
    191e:	80 91 8d 03 	lds	r24, 0x038D	; 0x80038d <slaveAddr>
    1922:	b1 10       	cpse	r11, r1
    1924:	80 93 8e 03 	sts	0x038E, r24	; 0x80038e <IGAS_mb_X>
    1928:	29 85       	ldd	r18, Y+9	; 0x09
    192a:	3a 85       	ldd	r19, Y+10	; 0x0a
    192c:	22 0f       	add	r18, r18
    192e:	33 1f       	adc	r19, r19
    1930:	2e 0d       	add	r18, r14
    1932:	3f 1d       	adc	r19, r15
    1934:	90 e0       	ldi	r25, 0x00	; 0
    1936:	d9 01       	movw	r26, r18
    1938:	8d 93       	st	X+, r24
    193a:	9c 93       	st	X, r25
    193c:	37 c5       	rjmp	.+2670   	; 0x23ac <_Z13modbusProceedPiiii+0x19fc>
    193e:	b1 10       	cpse	r11, r1
    1940:	c0 92 eb 01 	sts	0x01EB, r12	; 0x8001eb <baudRate>
    1944:	e9 85       	ldd	r30, Y+9	; 0x09
    1946:	fa 85       	ldd	r31, Y+10	; 0x0a
    1948:	ee 0f       	add	r30, r30
    194a:	ff 1f       	adc	r31, r31
    194c:	ee 0d       	add	r30, r14
    194e:	ff 1d       	adc	r31, r15
    1950:	80 91 eb 01 	lds	r24, 0x01EB	; 0x8001eb <baudRate>
    1954:	90 e0       	ldi	r25, 0x00	; 0
    1956:	91 83       	std	Z+1, r25	; 0x01
    1958:	80 83       	st	Z, r24
    195a:	28 c5       	rjmp	.+2640   	; 0x23ac <_Z13modbusProceedPiiii+0x19fc>
    195c:	b1 10       	cpse	r11, r1
    195e:	c0 92 ea 01 	sts	0x01EA, r12	; 0x8001ea <parity>
    1962:	29 85       	ldd	r18, Y+9	; 0x09
    1964:	3a 85       	ldd	r19, Y+10	; 0x0a
    1966:	22 0f       	add	r18, r18
    1968:	33 1f       	adc	r19, r19
    196a:	2e 0d       	add	r18, r14
    196c:	3f 1d       	adc	r19, r15
    196e:	80 91 ea 01 	lds	r24, 0x01EA	; 0x8001ea <parity>
    1972:	90 e0       	ldi	r25, 0x00	; 0
    1974:	d9 01       	movw	r26, r18
    1976:	8d 93       	st	X+, r24
    1978:	9c 93       	st	X, r25
    197a:	18 c5       	rjmp	.+2608   	; 0x23ac <_Z13modbusProceedPiiii+0x19fc>
    197c:	bb 20       	and	r11, r11
    197e:	21 f0       	breq	.+8      	; 0x1988 <_Z13modbusProceedPiiii+0xfd8>
    1980:	d0 92 e8 01 	sts	0x01E8, r13	; 0x8001e8 <densitySet+0x1>
    1984:	c0 92 e7 01 	sts	0x01E7, r12	; 0x8001e7 <densitySet>
    1988:	e9 85       	ldd	r30, Y+9	; 0x09
    198a:	fa 85       	ldd	r31, Y+10	; 0x0a
    198c:	ee 0f       	add	r30, r30
    198e:	ff 1f       	adc	r31, r31
    1990:	ee 0d       	add	r30, r14
    1992:	ff 1d       	adc	r31, r15
    1994:	80 91 e7 01 	lds	r24, 0x01E7	; 0x8001e7 <densitySet>
    1998:	90 91 e8 01 	lds	r25, 0x01E8	; 0x8001e8 <densitySet+0x1>
    199c:	91 83       	std	Z+1, r25	; 0x01
    199e:	80 83       	st	Z, r24
    19a0:	05 c5       	rjmp	.+2570   	; 0x23ac <_Z13modbusProceedPiiii+0x19fc>
    19a2:	b1 10       	cpse	r11, r1
    19a4:	c0 92 e9 01 	sts	0x01E9, r12	; 0x8001e9 <gasPartner>
    19a8:	29 85       	ldd	r18, Y+9	; 0x09
    19aa:	3a 85       	ldd	r19, Y+10	; 0x0a
    19ac:	22 0f       	add	r18, r18
    19ae:	33 1f       	adc	r19, r19
    19b0:	2e 0d       	add	r18, r14
    19b2:	3f 1d       	adc	r19, r15
    19b4:	80 91 e9 01 	lds	r24, 0x01E9	; 0x8001e9 <gasPartner>
    19b8:	90 e0       	ldi	r25, 0x00	; 0
    19ba:	d9 01       	movw	r26, r18
    19bc:	8d 93       	st	X+, r24
    19be:	9c 93       	st	X, r25
    19c0:	f5 c4       	rjmp	.+2538   	; 0x23ac <_Z13modbusProceedPiiii+0x19fc>
    19c2:	bb 20       	and	r11, r11
    19c4:	41 f0       	breq	.+16     	; 0x19d6 <_Z13modbusProceedPiiii+0x1026>
    19c6:	80 91 d4 01 	lds	r24, 0x01D4	; 0x8001d4 <pinCode>
    19ca:	88 23       	and	r24, r24
    19cc:	21 f0       	breq	.+8      	; 0x19d6 <_Z13modbusProceedPiiii+0x1026>
    19ce:	d0 92 ed 01 	sts	0x01ED, r13	; 0x8001ed <serialHigh+0x1>
    19d2:	c0 92 ec 01 	sts	0x01EC, r12	; 0x8001ec <serialHigh>
    19d6:	80 91 ec 01 	lds	r24, 0x01EC	; 0x8001ec <serialHigh>
    19da:	90 91 ed 01 	lds	r25, 0x01ED	; 0x8001ed <serialHigh+0x1>
    19de:	e9 85       	ldd	r30, Y+9	; 0x09
    19e0:	fa 85       	ldd	r31, Y+10	; 0x0a
    19e2:	ee 0f       	add	r30, r30
    19e4:	ff 1f       	adc	r31, r31
    19e6:	ee 0d       	add	r30, r14
    19e8:	ff 1d       	adc	r31, r15
    19ea:	91 83       	std	Z+1, r25	; 0x01
    19ec:	80 83       	st	Z, r24
    19ee:	de c4       	rjmp	.+2492   	; 0x23ac <_Z13modbusProceedPiiii+0x19fc>
    19f0:	bb 20       	and	r11, r11
    19f2:	41 f0       	breq	.+16     	; 0x1a04 <_Z13modbusProceedPiiii+0x1054>
    19f4:	80 91 d4 01 	lds	r24, 0x01D4	; 0x8001d4 <pinCode>
    19f8:	88 23       	and	r24, r24
    19fa:	21 f0       	breq	.+8      	; 0x1a04 <_Z13modbusProceedPiiii+0x1054>
    19fc:	d0 92 ef 01 	sts	0x01EF, r13	; 0x8001ef <serialLow+0x1>
    1a00:	c0 92 ee 01 	sts	0x01EE, r12	; 0x8001ee <serialLow>
    1a04:	80 91 ee 01 	lds	r24, 0x01EE	; 0x8001ee <serialLow>
    1a08:	90 91 ef 01 	lds	r25, 0x01EF	; 0x8001ef <serialLow+0x1>
    1a0c:	29 85       	ldd	r18, Y+9	; 0x09
    1a0e:	3a 85       	ldd	r19, Y+10	; 0x0a
    1a10:	22 0f       	add	r18, r18
    1a12:	33 1f       	adc	r19, r19
    1a14:	2e 0d       	add	r18, r14
    1a16:	3f 1d       	adc	r19, r15
    1a18:	d9 01       	movw	r26, r18
    1a1a:	8d 93       	st	X+, r24
    1a1c:	9c 93       	st	X, r25
    1a1e:	c6 c4       	rjmp	.+2444   	; 0x23ac <_Z13modbusProceedPiiii+0x19fc>
    1a20:	e9 85       	ldd	r30, Y+9	; 0x09
    1a22:	fa 85       	ldd	r31, Y+10	; 0x0a
    1a24:	ee 0f       	add	r30, r30
    1a26:	ff 1f       	adc	r31, r31
    1a28:	ee 0d       	add	r30, r14
    1a2a:	ff 1d       	adc	r31, r15
    1a2c:	27 e0       	ldi	r18, 0x07	; 7
    1a2e:	30 e0       	ldi	r19, 0x00	; 0
    1a30:	31 83       	std	Z+1, r19	; 0x01
    1a32:	20 83       	st	Z, r18
    1a34:	bb c4       	rjmp	.+2422   	; 0x23ac <_Z13modbusProceedPiiii+0x19fc>
    1a36:	89 85       	ldd	r24, Y+9	; 0x09
    1a38:	9a 85       	ldd	r25, Y+10	; 0x0a
    1a3a:	88 0f       	add	r24, r24
    1a3c:	99 1f       	adc	r25, r25
    1a3e:	8e 0d       	add	r24, r14
    1a40:	9f 1d       	adc	r25, r15
    1a42:	e1 e3       	ldi	r30, 0x31	; 49
    1a44:	f1 e0       	ldi	r31, 0x01	; 1
    1a46:	dc 01       	movw	r26, r24
    1a48:	ed 93       	st	X+, r30
    1a4a:	fc 93       	st	X, r31
    1a4c:	af c4       	rjmp	.+2398   	; 0x23ac <_Z13modbusProceedPiiii+0x19fc>
    1a4e:	bb 20       	and	r11, r11
    1a50:	29 f0       	breq	.+10     	; 0x1a5c <_Z13modbusProceedPiiii+0x10ac>
    1a52:	80 91 d4 01 	lds	r24, 0x01D4	; 0x8001d4 <pinCode>
    1a56:	81 11       	cpse	r24, r1
    1a58:	c0 92 03 01 	sts	0x0103, r12	; 0x800103 <modelDN>
    1a5c:	29 85       	ldd	r18, Y+9	; 0x09
    1a5e:	3a 85       	ldd	r19, Y+10	; 0x0a
    1a60:	22 0f       	add	r18, r18
    1a62:	33 1f       	adc	r19, r19
    1a64:	2e 0d       	add	r18, r14
    1a66:	3f 1d       	adc	r19, r15
    1a68:	80 91 03 01 	lds	r24, 0x0103	; 0x800103 <modelDN>
    1a6c:	90 e0       	ldi	r25, 0x00	; 0
    1a6e:	d9 01       	movw	r26, r18
    1a70:	8d 93       	st	X+, r24
    1a72:	9c 93       	st	X, r25
    1a74:	9b c4       	rjmp	.+2358   	; 0x23ac <_Z13modbusProceedPiiii+0x19fc>
    1a76:	bb 20       	and	r11, r11
    1a78:	29 f0       	breq	.+10     	; 0x1a84 <_Z13modbusProceedPiiii+0x10d4>
    1a7a:	80 91 d4 01 	lds	r24, 0x01D4	; 0x8001d4 <pinCode>
    1a7e:	81 11       	cpse	r24, r1
    1a80:	c0 92 8f 01 	sts	0x018F, r12	; 0x80018f <getTempFromSHT>
    1a84:	e9 85       	ldd	r30, Y+9	; 0x09
    1a86:	fa 85       	ldd	r31, Y+10	; 0x0a
    1a88:	ee 0f       	add	r30, r30
    1a8a:	ff 1f       	adc	r31, r31
    1a8c:	ee 0d       	add	r30, r14
    1a8e:	ff 1d       	adc	r31, r15
    1a90:	80 91 8f 01 	lds	r24, 0x018F	; 0x80018f <getTempFromSHT>
    1a94:	90 e0       	ldi	r25, 0x00	; 0
    1a96:	91 83       	std	Z+1, r25	; 0x01
    1a98:	80 83       	st	Z, r24
    1a9a:	88 c4       	rjmp	.+2320   	; 0x23ac <_Z13modbusProceedPiiii+0x19fc>
    1a9c:	29 85       	ldd	r18, Y+9	; 0x09
    1a9e:	3a 85       	ldd	r19, Y+10	; 0x0a
    1aa0:	22 0f       	add	r18, r18
    1aa2:	33 1f       	adc	r19, r19
    1aa4:	2e 0d       	add	r18, r14
    1aa6:	3f 1d       	adc	r19, r15
    1aa8:	3a 87       	std	Y+10, r19	; 0x0a
    1aaa:	29 87       	std	Y+9, r18	; 0x09
    1aac:	60 91 e3 01 	lds	r22, 0x01E3	; 0x8001e3 <densitySetFlt>
    1ab0:	70 91 e4 01 	lds	r23, 0x01E4	; 0x8001e4 <densitySetFlt+0x1>
    1ab4:	80 91 e5 01 	lds	r24, 0x01E5	; 0x8001e5 <densitySetFlt+0x2>
    1ab8:	90 91 e6 01 	lds	r25, 0x01E6	; 0x8001e6 <densitySetFlt+0x3>
    1abc:	40 e0       	ldi	r20, 0x00	; 0
    1abe:	0e 94 b8 04 	call	0x970	; 0x970 <_Z12convertFloatfh>
    1ac2:	a9 85       	ldd	r26, Y+9	; 0x09
    1ac4:	ba 85       	ldd	r27, Y+10	; 0x0a
    1ac6:	8d 93       	st	X+, r24
    1ac8:	9c 93       	st	X, r25
    1aca:	70 c4       	rjmp	.+2272   	; 0x23ac <_Z13modbusProceedPiiii+0x19fc>
    1acc:	bb 20       	and	r11, r11
    1ace:	61 f0       	breq	.+24     	; 0x1ae8 <_Z13modbusProceedPiiii+0x1138>
    1ad0:	80 91 d4 01 	lds	r24, 0x01D4	; 0x8001d4 <pinCode>
    1ad4:	88 23       	and	r24, r24
    1ad6:	41 f0       	breq	.+16     	; 0x1ae8 <_Z13modbusProceedPiiii+0x1138>
    1ad8:	10 92 e3 01 	sts	0x01E3, r1	; 0x8001e3 <densitySetFlt>
    1adc:	10 92 e4 01 	sts	0x01E4, r1	; 0x8001e4 <densitySetFlt+0x1>
    1ae0:	10 92 e5 01 	sts	0x01E5, r1	; 0x8001e5 <densitySetFlt+0x2>
    1ae4:	10 92 e6 01 	sts	0x01E6, r1	; 0x8001e6 <densitySetFlt+0x3>
    1ae8:	e9 85       	ldd	r30, Y+9	; 0x09
    1aea:	fa 85       	ldd	r31, Y+10	; 0x0a
    1aec:	ee 0f       	add	r30, r30
    1aee:	ff 1f       	adc	r31, r31
    1af0:	ee 0d       	add	r30, r14
    1af2:	ff 1d       	adc	r31, r15
    1af4:	fa 87       	std	Y+10, r31	; 0x0a
    1af6:	e9 87       	std	Y+9, r30	; 0x09
    1af8:	60 91 e3 01 	lds	r22, 0x01E3	; 0x8001e3 <densitySetFlt>
    1afc:	70 91 e4 01 	lds	r23, 0x01E4	; 0x8001e4 <densitySetFlt+0x1>
    1b00:	80 91 e5 01 	lds	r24, 0x01E5	; 0x8001e5 <densitySetFlt+0x2>
    1b04:	90 91 e6 01 	lds	r25, 0x01E6	; 0x8001e6 <densitySetFlt+0x3>
    1b08:	41 e0       	ldi	r20, 0x01	; 1
    1b0a:	0e 94 b8 04 	call	0x970	; 0x970 <_Z12convertFloatfh>
    1b0e:	a9 85       	ldd	r26, Y+9	; 0x09
    1b10:	ba 85       	ldd	r27, Y+10	; 0x0a
    1b12:	8d 93       	st	X+, r24
    1b14:	9c 93       	st	X, r25
    1b16:	4a c4       	rjmp	.+2196   	; 0x23ac <_Z13modbusProceedPiiii+0x19fc>
    1b18:	bb 20       	and	r11, r11
    1b1a:	09 f4       	brne	.+2      	; 0x1b1e <_Z13modbusProceedPiiii+0x116e>
    1b1c:	47 c4       	rjmp	.+2190   	; 0x23ac <_Z13modbusProceedPiiii+0x19fc>
    1b1e:	e9 85       	ldd	r30, Y+9	; 0x09
    1b20:	fa 85       	ldd	r31, Y+10	; 0x0a
    1b22:	ee 0f       	add	r30, r30
    1b24:	ff 1f       	adc	r31, r31
    1b26:	ee 0d       	add	r30, r14
    1b28:	ff 1d       	adc	r31, r15
    1b2a:	80 91 52 03 	lds	r24, 0x0352	; 0x800352 <liquefaction>
    1b2e:	90 e0       	ldi	r25, 0x00	; 0
    1b30:	91 83       	std	Z+1, r25	; 0x01
    1b32:	80 83       	st	Z, r24
    1b34:	3b c4       	rjmp	.+2166   	; 0x23ac <_Z13modbusProceedPiiii+0x19fc>
    1b36:	bb 20       	and	r11, r11
    1b38:	09 f4       	brne	.+2      	; 0x1b3c <_Z13modbusProceedPiiii+0x118c>
    1b3a:	38 c4       	rjmp	.+2160   	; 0x23ac <_Z13modbusProceedPiiii+0x19fc>
    1b3c:	29 85       	ldd	r18, Y+9	; 0x09
    1b3e:	3a 85       	ldd	r19, Y+10	; 0x0a
    1b40:	22 0f       	add	r18, r18
    1b42:	33 1f       	adc	r19, r19
    1b44:	2e 0d       	add	r18, r14
    1b46:	3f 1d       	adc	r19, r15
    1b48:	80 91 51 03 	lds	r24, 0x0351	; 0x800351 <overdensity>
    1b4c:	90 e0       	ldi	r25, 0x00	; 0
    1b4e:	d9 01       	movw	r26, r18
    1b50:	8d 93       	st	X+, r24
    1b52:	9c 93       	st	X, r25
    1b54:	2b c4       	rjmp	.+2134   	; 0x23ac <_Z13modbusProceedPiiii+0x19fc>
    1b56:	bb 20       	and	r11, r11
    1b58:	09 f4       	brne	.+2      	; 0x1b5c <_Z13modbusProceedPiiii+0x11ac>
    1b5a:	28 c4       	rjmp	.+2128   	; 0x23ac <_Z13modbusProceedPiiii+0x19fc>
    1b5c:	e9 85       	ldd	r30, Y+9	; 0x09
    1b5e:	fa 85       	ldd	r31, Y+10	; 0x0a
    1b60:	ee 0f       	add	r30, r30
    1b62:	ff 1f       	adc	r31, r31
    1b64:	ee 0d       	add	r30, r14
    1b66:	ff 1d       	adc	r31, r15
    1b68:	80 91 4b 03 	lds	r24, 0x034B	; 0x80034b <warningLevel>
    1b6c:	90 e0       	ldi	r25, 0x00	; 0
    1b6e:	91 83       	std	Z+1, r25	; 0x01
    1b70:	80 83       	st	Z, r24
    1b72:	1c c4       	rjmp	.+2104   	; 0x23ac <_Z13modbusProceedPiiii+0x19fc>
    1b74:	bb 20       	and	r11, r11
    1b76:	09 f4       	brne	.+2      	; 0x1b7a <_Z13modbusProceedPiiii+0x11ca>
    1b78:	19 c4       	rjmp	.+2098   	; 0x23ac <_Z13modbusProceedPiiii+0x19fc>
    1b7a:	29 85       	ldd	r18, Y+9	; 0x09
    1b7c:	3a 85       	ldd	r19, Y+10	; 0x0a
    1b7e:	22 0f       	add	r18, r18
    1b80:	33 1f       	adc	r19, r19
    1b82:	2e 0d       	add	r18, r14
    1b84:	3f 1d       	adc	r19, r15
    1b86:	80 91 4c 03 	lds	r24, 0x034C	; 0x80034c <alarmLevel>
    1b8a:	90 e0       	ldi	r25, 0x00	; 0
    1b8c:	d9 01       	movw	r26, r18
    1b8e:	8d 93       	st	X+, r24
    1b90:	9c 93       	st	X, r25
    1b92:	0c c4       	rjmp	.+2072   	; 0x23ac <_Z13modbusProceedPiiii+0x19fc>
    1b94:	bb 20       	and	r11, r11
    1b96:	c1 f0       	breq	.+48     	; 0x1bc8 <_Z13modbusProceedPiiii+0x1218>
    1b98:	80 91 d4 01 	lds	r24, 0x01D4	; 0x8001d4 <pinCode>
    1b9c:	88 23       	and	r24, r24
    1b9e:	a1 f0       	breq	.+40     	; 0x1bc8 <_Z13modbusProceedPiiii+0x1218>
    1ba0:	69 81       	ldd	r22, Y+1	; 0x01
    1ba2:	7a 81       	ldd	r23, Y+2	; 0x02
    1ba4:	8b 81       	ldd	r24, Y+3	; 0x03
    1ba6:	9c 81       	ldd	r25, Y+4	; 0x04
    1ba8:	0e 94 6f 27 	call	0x4ede	; 0x4ede <__floatsisf>
    1bac:	2d ec       	ldi	r18, 0xCD	; 205
    1bae:	3c ec       	ldi	r19, 0xCC	; 204
    1bb0:	4c ec       	ldi	r20, 0xCC	; 204
    1bb2:	5d e3       	ldi	r21, 0x3D	; 61
    1bb4:	0e 94 6e 28 	call	0x50dc	; 0x50dc <__mulsf3>
    1bb8:	60 93 8a 01 	sts	0x018A, r22	; 0x80018a <offsetTemp>
    1bbc:	70 93 8b 01 	sts	0x018B, r23	; 0x80018b <offsetTemp+0x1>
    1bc0:	80 93 8c 01 	sts	0x018C, r24	; 0x80018c <offsetTemp+0x2>
    1bc4:	90 93 8d 01 	sts	0x018D, r25	; 0x80018d <offsetTemp+0x3>
    1bc8:	e9 85       	ldd	r30, Y+9	; 0x09
    1bca:	fa 85       	ldd	r31, Y+10	; 0x0a
    1bcc:	ee 0f       	add	r30, r30
    1bce:	ff 1f       	adc	r31, r31
    1bd0:	ee 0d       	add	r30, r14
    1bd2:	ff 1d       	adc	r31, r15
    1bd4:	fa 87       	std	Y+10, r31	; 0x0a
    1bd6:	e9 87       	std	Y+9, r30	; 0x09
    1bd8:	20 e0       	ldi	r18, 0x00	; 0
    1bda:	30 e0       	ldi	r19, 0x00	; 0
    1bdc:	40 e2       	ldi	r20, 0x20	; 32
    1bde:	51 e4       	ldi	r21, 0x41	; 65
    1be0:	60 91 8a 01 	lds	r22, 0x018A	; 0x80018a <offsetTemp>
    1be4:	70 91 8b 01 	lds	r23, 0x018B	; 0x80018b <offsetTemp+0x1>
    1be8:	80 91 8c 01 	lds	r24, 0x018C	; 0x80018c <offsetTemp+0x2>
    1bec:	90 91 8d 01 	lds	r25, 0x018D	; 0x80018d <offsetTemp+0x3>
    1bf0:	0e 94 6e 28 	call	0x50dc	; 0x50dc <__mulsf3>
    1bf4:	0e 94 3c 27 	call	0x4e78	; 0x4e78 <__fixsfsi>
    1bf8:	a9 85       	ldd	r26, Y+9	; 0x09
    1bfa:	ba 85       	ldd	r27, Y+10	; 0x0a
    1bfc:	6d 93       	st	X+, r22
    1bfe:	7c 93       	st	X, r23
    1c00:	d5 c3       	rjmp	.+1962   	; 0x23ac <_Z13modbusProceedPiiii+0x19fc>
    1c02:	bb 20       	and	r11, r11
    1c04:	c1 f0       	breq	.+48     	; 0x1c36 <_Z13modbusProceedPiiii+0x1286>
    1c06:	80 91 d4 01 	lds	r24, 0x01D4	; 0x8001d4 <pinCode>
    1c0a:	88 23       	and	r24, r24
    1c0c:	a1 f0       	breq	.+40     	; 0x1c36 <_Z13modbusProceedPiiii+0x1286>
    1c0e:	69 81       	ldd	r22, Y+1	; 0x01
    1c10:	7a 81       	ldd	r23, Y+2	; 0x02
    1c12:	8b 81       	ldd	r24, Y+3	; 0x03
    1c14:	9c 81       	ldd	r25, Y+4	; 0x04
    1c16:	0e 94 6f 27 	call	0x4ede	; 0x4ede <__floatsisf>
    1c1a:	2a e0       	ldi	r18, 0x0A	; 10
    1c1c:	37 ed       	ldi	r19, 0xD7	; 215
    1c1e:	43 e2       	ldi	r20, 0x23	; 35
    1c20:	5c e3       	ldi	r21, 0x3C	; 60
    1c22:	0e 94 6e 28 	call	0x50dc	; 0x50dc <__mulsf3>
    1c26:	60 93 86 01 	sts	0x0186, r22	; 0x800186 <offsetHumidity_b>
    1c2a:	70 93 87 01 	sts	0x0187, r23	; 0x800187 <offsetHumidity_b+0x1>
    1c2e:	80 93 88 01 	sts	0x0188, r24	; 0x800188 <offsetHumidity_b+0x2>
    1c32:	90 93 89 01 	sts	0x0189, r25	; 0x800189 <offsetHumidity_b+0x3>
    1c36:	e9 85       	ldd	r30, Y+9	; 0x09
    1c38:	fa 85       	ldd	r31, Y+10	; 0x0a
    1c3a:	ee 0f       	add	r30, r30
    1c3c:	ff 1f       	adc	r31, r31
    1c3e:	ee 0d       	add	r30, r14
    1c40:	ff 1d       	adc	r31, r15
    1c42:	fa 87       	std	Y+10, r31	; 0x0a
    1c44:	e9 87       	std	Y+9, r30	; 0x09
    1c46:	20 e0       	ldi	r18, 0x00	; 0
    1c48:	30 e0       	ldi	r19, 0x00	; 0
    1c4a:	48 ec       	ldi	r20, 0xC8	; 200
    1c4c:	52 e4       	ldi	r21, 0x42	; 66
    1c4e:	60 91 86 01 	lds	r22, 0x0186	; 0x800186 <offsetHumidity_b>
    1c52:	70 91 87 01 	lds	r23, 0x0187	; 0x800187 <offsetHumidity_b+0x1>
    1c56:	80 91 88 01 	lds	r24, 0x0188	; 0x800188 <offsetHumidity_b+0x2>
    1c5a:	90 91 89 01 	lds	r25, 0x0189	; 0x800189 <offsetHumidity_b+0x3>
    1c5e:	0e 94 6e 28 	call	0x50dc	; 0x50dc <__mulsf3>
    1c62:	0e 94 3c 27 	call	0x4e78	; 0x4e78 <__fixsfsi>
    1c66:	a9 85       	ldd	r26, Y+9	; 0x09
    1c68:	ba 85       	ldd	r27, Y+10	; 0x0a
    1c6a:	6d 93       	st	X+, r22
    1c6c:	7c 93       	st	X, r23
    1c6e:	9e c3       	rjmp	.+1852   	; 0x23ac <_Z13modbusProceedPiiii+0x19fc>
    1c70:	bb 20       	and	r11, r11
    1c72:	c1 f0       	breq	.+48     	; 0x1ca4 <_Z13modbusProceedPiiii+0x12f4>
    1c74:	80 91 d4 01 	lds	r24, 0x01D4	; 0x8001d4 <pinCode>
    1c78:	88 23       	and	r24, r24
    1c7a:	a1 f0       	breq	.+40     	; 0x1ca4 <_Z13modbusProceedPiiii+0x12f4>
    1c7c:	69 81       	ldd	r22, Y+1	; 0x01
    1c7e:	7a 81       	ldd	r23, Y+2	; 0x02
    1c80:	8b 81       	ldd	r24, Y+3	; 0x03
    1c82:	9c 81       	ldd	r25, Y+4	; 0x04
    1c84:	0e 94 6f 27 	call	0x4ede	; 0x4ede <__floatsisf>
    1c88:	2f e6       	ldi	r18, 0x6F	; 111
    1c8a:	32 e1       	ldi	r19, 0x12	; 18
    1c8c:	43 e8       	ldi	r20, 0x83	; 131
    1c8e:	5a e3       	ldi	r21, 0x3A	; 58
    1c90:	0e 94 6e 28 	call	0x50dc	; 0x50dc <__mulsf3>
    1c94:	60 93 82 01 	sts	0x0182, r22	; 0x800182 <offsetHumidity_K>
    1c98:	70 93 83 01 	sts	0x0183, r23	; 0x800183 <offsetHumidity_K+0x1>
    1c9c:	80 93 84 01 	sts	0x0184, r24	; 0x800184 <offsetHumidity_K+0x2>
    1ca0:	90 93 85 01 	sts	0x0185, r25	; 0x800185 <offsetHumidity_K+0x3>
    1ca4:	e9 85       	ldd	r30, Y+9	; 0x09
    1ca6:	fa 85       	ldd	r31, Y+10	; 0x0a
    1ca8:	ee 0f       	add	r30, r30
    1caa:	ff 1f       	adc	r31, r31
    1cac:	ee 0d       	add	r30, r14
    1cae:	ff 1d       	adc	r31, r15
    1cb0:	fa 87       	std	Y+10, r31	; 0x0a
    1cb2:	e9 87       	std	Y+9, r30	; 0x09
    1cb4:	20 e0       	ldi	r18, 0x00	; 0
    1cb6:	30 e0       	ldi	r19, 0x00	; 0
    1cb8:	4a e7       	ldi	r20, 0x7A	; 122
    1cba:	54 e4       	ldi	r21, 0x44	; 68
    1cbc:	60 91 82 01 	lds	r22, 0x0182	; 0x800182 <offsetHumidity_K>
    1cc0:	70 91 83 01 	lds	r23, 0x0183	; 0x800183 <offsetHumidity_K+0x1>
    1cc4:	80 91 84 01 	lds	r24, 0x0184	; 0x800184 <offsetHumidity_K+0x2>
    1cc8:	90 91 85 01 	lds	r25, 0x0185	; 0x800185 <offsetHumidity_K+0x3>
    1ccc:	0e 94 6e 28 	call	0x50dc	; 0x50dc <__mulsf3>
    1cd0:	0e 94 3c 27 	call	0x4e78	; 0x4e78 <__fixsfsi>
    1cd4:	a9 85       	ldd	r26, Y+9	; 0x09
    1cd6:	ba 85       	ldd	r27, Y+10	; 0x0a
    1cd8:	6d 93       	st	X+, r22
    1cda:	7c 93       	st	X, r23
    1cdc:	67 c3       	rjmp	.+1742   	; 0x23ac <_Z13modbusProceedPiiii+0x19fc>
    1cde:	bb 20       	and	r11, r11
    1ce0:	61 f1       	breq	.+88     	; 0x1d3a <_Z13modbusProceedPiiii+0x138a>
    1ce2:	80 91 d4 01 	lds	r24, 0x01D4	; 0x8001d4 <pinCode>
    1ce6:	88 23       	and	r24, r24
    1ce8:	41 f1       	breq	.+80     	; 0x1d3a <_Z13modbusProceedPiiii+0x138a>
    1cea:	69 81       	ldd	r22, Y+1	; 0x01
    1cec:	7a 81       	ldd	r23, Y+2	; 0x02
    1cee:	8b 81       	ldd	r24, Y+3	; 0x03
    1cf0:	9c 81       	ldd	r25, Y+4	; 0x04
    1cf2:	0e 94 6f 27 	call	0x4ede	; 0x4ede <__floatsisf>
    1cf6:	2a e0       	ldi	r18, 0x0A	; 10
    1cf8:	37 ed       	ldi	r19, 0xD7	; 215
    1cfa:	43 e2       	ldi	r20, 0x23	; 35
    1cfc:	5c e3       	ldi	r21, 0x3C	; 60
    1cfe:	0e 94 6e 28 	call	0x50dc	; 0x50dc <__mulsf3>
    1d02:	20 91 86 01 	lds	r18, 0x0186	; 0x800186 <offsetHumidity_b>
    1d06:	30 91 87 01 	lds	r19, 0x0187	; 0x800187 <offsetHumidity_b+0x1>
    1d0a:	40 91 88 01 	lds	r20, 0x0188	; 0x800188 <offsetHumidity_b+0x2>
    1d0e:	50 91 89 01 	lds	r21, 0x0189	; 0x800189 <offsetHumidity_b+0x3>
    1d12:	0e 94 6b 26 	call	0x4cd6	; 0x4cd6 <__subsf3>
    1d16:	20 91 63 03 	lds	r18, 0x0363	; 0x800363 <RH_RH>
    1d1a:	30 91 64 03 	lds	r19, 0x0364	; 0x800364 <RH_RH+0x1>
    1d1e:	40 91 65 03 	lds	r20, 0x0365	; 0x800365 <RH_RH+0x2>
    1d22:	50 91 66 03 	lds	r21, 0x0366	; 0x800366 <RH_RH+0x3>
    1d26:	0e 94 d4 26 	call	0x4da8	; 0x4da8 <__divsf3>
    1d2a:	60 93 82 01 	sts	0x0182, r22	; 0x800182 <offsetHumidity_K>
    1d2e:	70 93 83 01 	sts	0x0183, r23	; 0x800183 <offsetHumidity_K+0x1>
    1d32:	80 93 84 01 	sts	0x0184, r24	; 0x800184 <offsetHumidity_K+0x2>
    1d36:	90 93 85 01 	sts	0x0185, r25	; 0x800185 <offsetHumidity_K+0x3>
    1d3a:	e9 85       	ldd	r30, Y+9	; 0x09
    1d3c:	fa 85       	ldd	r31, Y+10	; 0x0a
    1d3e:	ee 0f       	add	r30, r30
    1d40:	ff 1f       	adc	r31, r31
    1d42:	ee 0d       	add	r30, r14
    1d44:	ff 1d       	adc	r31, r15
    1d46:	fa 87       	std	Y+10, r31	; 0x0a
    1d48:	e9 87       	std	Y+9, r30	; 0x09
    1d4a:	20 e0       	ldi	r18, 0x00	; 0
    1d4c:	30 e0       	ldi	r19, 0x00	; 0
    1d4e:	4a e7       	ldi	r20, 0x7A	; 122
    1d50:	54 e4       	ldi	r21, 0x44	; 68
    1d52:	60 91 82 01 	lds	r22, 0x0182	; 0x800182 <offsetHumidity_K>
    1d56:	70 91 83 01 	lds	r23, 0x0183	; 0x800183 <offsetHumidity_K+0x1>
    1d5a:	80 91 84 01 	lds	r24, 0x0184	; 0x800184 <offsetHumidity_K+0x2>
    1d5e:	90 91 85 01 	lds	r25, 0x0185	; 0x800185 <offsetHumidity_K+0x3>
    1d62:	0e 94 6e 28 	call	0x50dc	; 0x50dc <__mulsf3>
    1d66:	0e 94 3c 27 	call	0x4e78	; 0x4e78 <__fixsfsi>
    1d6a:	a9 85       	ldd	r26, Y+9	; 0x09
    1d6c:	ba 85       	ldd	r27, Y+10	; 0x0a
    1d6e:	6d 93       	st	X+, r22
    1d70:	7c 93       	st	X, r23
    1d72:	1c c3       	rjmp	.+1592   	; 0x23ac <_Z13modbusProceedPiiii+0x19fc>
    1d74:	bb 20       	and	r11, r11
    1d76:	31 f1       	breq	.+76     	; 0x1dc4 <_Z13modbusProceedPiiii+0x1414>
    1d78:	80 91 d4 01 	lds	r24, 0x01D4	; 0x8001d4 <pinCode>
    1d7c:	88 23       	and	r24, r24
    1d7e:	11 f1       	breq	.+68     	; 0x1dc4 <_Z13modbusProceedPiiii+0x1414>
    1d80:	20 91 63 03 	lds	r18, 0x0363	; 0x800363 <RH_RH>
    1d84:	30 91 64 03 	lds	r19, 0x0364	; 0x800364 <RH_RH+0x1>
    1d88:	40 91 65 03 	lds	r20, 0x0365	; 0x800365 <RH_RH+0x2>
    1d8c:	50 91 66 03 	lds	r21, 0x0366	; 0x800366 <RH_RH+0x3>
    1d90:	60 91 82 01 	lds	r22, 0x0182	; 0x800182 <offsetHumidity_K>
    1d94:	70 91 83 01 	lds	r23, 0x0183	; 0x800183 <offsetHumidity_K+0x1>
    1d98:	80 91 84 01 	lds	r24, 0x0184	; 0x800184 <offsetHumidity_K+0x2>
    1d9c:	90 91 85 01 	lds	r25, 0x0185	; 0x800185 <offsetHumidity_K+0x3>
    1da0:	0e 94 6e 28 	call	0x50dc	; 0x50dc <__mulsf3>
    1da4:	9b 01       	movw	r18, r22
    1da6:	ac 01       	movw	r20, r24
    1da8:	6a e0       	ldi	r22, 0x0A	; 10
    1daa:	77 ed       	ldi	r23, 0xD7	; 215
    1dac:	83 e2       	ldi	r24, 0x23	; 35
    1dae:	9c e3       	ldi	r25, 0x3C	; 60
    1db0:	0e 94 6b 26 	call	0x4cd6	; 0x4cd6 <__subsf3>
    1db4:	60 93 86 01 	sts	0x0186, r22	; 0x800186 <offsetHumidity_b>
    1db8:	70 93 87 01 	sts	0x0187, r23	; 0x800187 <offsetHumidity_b+0x1>
    1dbc:	80 93 88 01 	sts	0x0188, r24	; 0x800188 <offsetHumidity_b+0x2>
    1dc0:	90 93 89 01 	sts	0x0189, r25	; 0x800189 <offsetHumidity_b+0x3>
    1dc4:	e9 85       	ldd	r30, Y+9	; 0x09
    1dc6:	fa 85       	ldd	r31, Y+10	; 0x0a
    1dc8:	ee 0f       	add	r30, r30
    1dca:	ff 1f       	adc	r31, r31
    1dcc:	ee 0d       	add	r30, r14
    1dce:	ff 1d       	adc	r31, r15
    1dd0:	fa 87       	std	Y+10, r31	; 0x0a
    1dd2:	e9 87       	std	Y+9, r30	; 0x09
    1dd4:	20 e0       	ldi	r18, 0x00	; 0
    1dd6:	30 e0       	ldi	r19, 0x00	; 0
    1dd8:	48 ec       	ldi	r20, 0xC8	; 200
    1dda:	52 e4       	ldi	r21, 0x42	; 66
    1ddc:	60 91 86 01 	lds	r22, 0x0186	; 0x800186 <offsetHumidity_b>
    1de0:	70 91 87 01 	lds	r23, 0x0187	; 0x800187 <offsetHumidity_b+0x1>
    1de4:	80 91 88 01 	lds	r24, 0x0188	; 0x800188 <offsetHumidity_b+0x2>
    1de8:	90 91 89 01 	lds	r25, 0x0189	; 0x800189 <offsetHumidity_b+0x3>
    1dec:	0e 94 6e 28 	call	0x50dc	; 0x50dc <__mulsf3>
    1df0:	0e 94 3c 27 	call	0x4e78	; 0x4e78 <__fixsfsi>
    1df4:	a9 85       	ldd	r26, Y+9	; 0x09
    1df6:	ba 85       	ldd	r27, Y+10	; 0x0a
    1df8:	6d 93       	st	X+, r22
    1dfa:	7c 93       	st	X, r23
    1dfc:	d7 c2       	rjmp	.+1454   	; 0x23ac <_Z13modbusProceedPiiii+0x19fc>
    1dfe:	bb 20       	and	r11, r11
    1e00:	11 f1       	breq	.+68     	; 0x1e46 <_Z13modbusProceedPiiii+0x1496>
    1e02:	80 91 d4 01 	lds	r24, 0x01D4	; 0x8001d4 <pinCode>
    1e06:	88 23       	and	r24, r24
    1e08:	f1 f0       	breq	.+60     	; 0x1e46 <_Z13modbusProceedPiiii+0x1496>
    1e0a:	10 92 86 01 	sts	0x0186, r1	; 0x800186 <offsetHumidity_b>
    1e0e:	10 92 87 01 	sts	0x0187, r1	; 0x800187 <offsetHumidity_b+0x1>
    1e12:	10 92 88 01 	sts	0x0188, r1	; 0x800188 <offsetHumidity_b+0x2>
    1e16:	10 92 89 01 	sts	0x0189, r1	; 0x800189 <offsetHumidity_b+0x3>
    1e1a:	80 e0       	ldi	r24, 0x00	; 0
    1e1c:	90 e0       	ldi	r25, 0x00	; 0
    1e1e:	a0 e8       	ldi	r26, 0x80	; 128
    1e20:	bf e3       	ldi	r27, 0x3F	; 63
    1e22:	80 93 82 01 	sts	0x0182, r24	; 0x800182 <offsetHumidity_K>
    1e26:	90 93 83 01 	sts	0x0183, r25	; 0x800183 <offsetHumidity_K+0x1>
    1e2a:	a0 93 84 01 	sts	0x0184, r26	; 0x800184 <offsetHumidity_K+0x2>
    1e2e:	b0 93 85 01 	sts	0x0185, r27	; 0x800185 <offsetHumidity_K+0x3>
    1e32:	e9 85       	ldd	r30, Y+9	; 0x09
    1e34:	fa 85       	ldd	r31, Y+10	; 0x0a
    1e36:	ee 0f       	add	r30, r30
    1e38:	ff 1f       	adc	r31, r31
    1e3a:	ee 0d       	add	r30, r14
    1e3c:	ff 1d       	adc	r31, r15
    1e3e:	a1 e0       	ldi	r26, 0x01	; 1
    1e40:	b0 e0       	ldi	r27, 0x00	; 0
    1e42:	b1 83       	std	Z+1, r27	; 0x01
    1e44:	a0 83       	st	Z, r26
    1e46:	e9 85       	ldd	r30, Y+9	; 0x09
    1e48:	fa 85       	ldd	r31, Y+10	; 0x0a
    1e4a:	ee 0f       	add	r30, r30
    1e4c:	ff 1f       	adc	r31, r31
    1e4e:	ee 0d       	add	r30, r14
    1e50:	ff 1d       	adc	r31, r15
    1e52:	11 82       	std	Z+1, r1	; 0x01
    1e54:	10 82       	st	Z, r1
    1e56:	aa c2       	rjmp	.+1364   	; 0x23ac <_Z13modbusProceedPiiii+0x19fc>
    1e58:	bb 20       	and	r11, r11
    1e5a:	49 f1       	breq	.+82     	; 0x1eae <_Z13modbusProceedPiiii+0x14fe>
    1e5c:	80 91 d4 01 	lds	r24, 0x01D4	; 0x8001d4 <pinCode>
    1e60:	88 23       	and	r24, r24
    1e62:	29 f1       	breq	.+74     	; 0x1eae <_Z13modbusProceedPiiii+0x14fe>
    1e64:	c0 92 81 01 	sts	0x0181, r12	; 0x800181 <tian_Pmin>
    1e68:	80 91 80 01 	lds	r24, 0x0180	; 0x800180 <tian_Pmax>
    1e6c:	b4 01       	movw	r22, r8
    1e6e:	68 0f       	add	r22, r24
    1e70:	71 1d       	adc	r23, r1
    1e72:	07 2e       	mov	r0, r23
    1e74:	00 0c       	add	r0, r0
    1e76:	88 0b       	sbc	r24, r24
    1e78:	99 0b       	sbc	r25, r25
    1e7a:	0e 94 6f 27 	call	0x4ede	; 0x4ede <__floatsisf>
    1e7e:	2b 01       	movw	r4, r22
    1e80:	3c 01       	movw	r6, r24
    1e82:	60 91 7e 01 	lds	r22, 0x017E	; 0x80017e <tian_K>
    1e86:	70 91 7f 01 	lds	r23, 0x017F	; 0x80017f <tian_K+0x1>
    1e8a:	80 e0       	ldi	r24, 0x00	; 0
    1e8c:	90 e0       	ldi	r25, 0x00	; 0
    1e8e:	0e 94 6d 27 	call	0x4eda	; 0x4eda <__floatunsisf>
    1e92:	9b 01       	movw	r18, r22
    1e94:	ac 01       	movw	r20, r24
    1e96:	c3 01       	movw	r24, r6
    1e98:	b2 01       	movw	r22, r4
    1e9a:	0e 94 d4 26 	call	0x4da8	; 0x4da8 <__divsf3>
    1e9e:	60 93 78 01 	sts	0x0178, r22	; 0x800178 <tianTerm1>
    1ea2:	70 93 79 01 	sts	0x0179, r23	; 0x800179 <tianTerm1+0x1>
    1ea6:	80 93 7a 01 	sts	0x017A, r24	; 0x80017a <tianTerm1+0x2>
    1eaa:	90 93 7b 01 	sts	0x017B, r25	; 0x80017b <tianTerm1+0x3>
    1eae:	29 85       	ldd	r18, Y+9	; 0x09
    1eb0:	3a 85       	ldd	r19, Y+10	; 0x0a
    1eb2:	22 0f       	add	r18, r18
    1eb4:	33 1f       	adc	r19, r19
    1eb6:	2e 0d       	add	r18, r14
    1eb8:	3f 1d       	adc	r19, r15
    1eba:	80 91 81 01 	lds	r24, 0x0181	; 0x800181 <tian_Pmin>
    1ebe:	90 e0       	ldi	r25, 0x00	; 0
    1ec0:	d9 01       	movw	r26, r18
    1ec2:	8d 93       	st	X+, r24
    1ec4:	9c 93       	st	X, r25
    1ec6:	72 c2       	rjmp	.+1252   	; 0x23ac <_Z13modbusProceedPiiii+0x19fc>
    1ec8:	bb 20       	and	r11, r11
    1eca:	49 f1       	breq	.+82     	; 0x1f1e <_Z13modbusProceedPiiii+0x156e>
    1ecc:	80 91 d4 01 	lds	r24, 0x01D4	; 0x8001d4 <pinCode>
    1ed0:	88 23       	and	r24, r24
    1ed2:	29 f1       	breq	.+74     	; 0x1f1e <_Z13modbusProceedPiiii+0x156e>
    1ed4:	c0 92 80 01 	sts	0x0180, r12	; 0x800180 <tian_Pmax>
    1ed8:	80 91 81 01 	lds	r24, 0x0181	; 0x800181 <tian_Pmin>
    1edc:	b4 01       	movw	r22, r8
    1ede:	68 0f       	add	r22, r24
    1ee0:	71 1d       	adc	r23, r1
    1ee2:	07 2e       	mov	r0, r23
    1ee4:	00 0c       	add	r0, r0
    1ee6:	88 0b       	sbc	r24, r24
    1ee8:	99 0b       	sbc	r25, r25
    1eea:	0e 94 6f 27 	call	0x4ede	; 0x4ede <__floatsisf>
    1eee:	2b 01       	movw	r4, r22
    1ef0:	3c 01       	movw	r6, r24
    1ef2:	60 91 7e 01 	lds	r22, 0x017E	; 0x80017e <tian_K>
    1ef6:	70 91 7f 01 	lds	r23, 0x017F	; 0x80017f <tian_K+0x1>
    1efa:	80 e0       	ldi	r24, 0x00	; 0
    1efc:	90 e0       	ldi	r25, 0x00	; 0
    1efe:	0e 94 6d 27 	call	0x4eda	; 0x4eda <__floatunsisf>
    1f02:	9b 01       	movw	r18, r22
    1f04:	ac 01       	movw	r20, r24
    1f06:	c3 01       	movw	r24, r6
    1f08:	b2 01       	movw	r22, r4
    1f0a:	0e 94 d4 26 	call	0x4da8	; 0x4da8 <__divsf3>
    1f0e:	60 93 78 01 	sts	0x0178, r22	; 0x800178 <tianTerm1>
    1f12:	70 93 79 01 	sts	0x0179, r23	; 0x800179 <tianTerm1+0x1>
    1f16:	80 93 7a 01 	sts	0x017A, r24	; 0x80017a <tianTerm1+0x2>
    1f1a:	90 93 7b 01 	sts	0x017B, r25	; 0x80017b <tianTerm1+0x3>
    1f1e:	e9 85       	ldd	r30, Y+9	; 0x09
    1f20:	fa 85       	ldd	r31, Y+10	; 0x0a
    1f22:	ee 0f       	add	r30, r30
    1f24:	ff 1f       	adc	r31, r31
    1f26:	ee 0d       	add	r30, r14
    1f28:	ff 1d       	adc	r31, r15
    1f2a:	80 91 80 01 	lds	r24, 0x0180	; 0x800180 <tian_Pmax>
    1f2e:	90 e0       	ldi	r25, 0x00	; 0
    1f30:	91 83       	std	Z+1, r25	; 0x01
    1f32:	80 83       	st	Z, r24
    1f34:	3b c2       	rjmp	.+1142   	; 0x23ac <_Z13modbusProceedPiiii+0x19fc>
    1f36:	bb 20       	and	r11, r11
    1f38:	59 f1       	breq	.+86     	; 0x1f90 <_Z13modbusProceedPiiii+0x15e0>
    1f3a:	80 91 d4 01 	lds	r24, 0x01D4	; 0x8001d4 <pinCode>
    1f3e:	88 23       	and	r24, r24
    1f40:	39 f1       	breq	.+78     	; 0x1f90 <_Z13modbusProceedPiiii+0x15e0>
    1f42:	d0 92 7f 01 	sts	0x017F, r13	; 0x80017f <tian_K+0x1>
    1f46:	c0 92 7e 01 	sts	0x017E, r12	; 0x80017e <tian_K>
    1f4a:	80 91 80 01 	lds	r24, 0x0180	; 0x800180 <tian_Pmax>
    1f4e:	60 91 81 01 	lds	r22, 0x0181	; 0x800181 <tian_Pmin>
    1f52:	70 e0       	ldi	r23, 0x00	; 0
    1f54:	68 0f       	add	r22, r24
    1f56:	71 1d       	adc	r23, r1
    1f58:	07 2e       	mov	r0, r23
    1f5a:	00 0c       	add	r0, r0
    1f5c:	88 0b       	sbc	r24, r24
    1f5e:	99 0b       	sbc	r25, r25
    1f60:	0e 94 6f 27 	call	0x4ede	; 0x4ede <__floatsisf>
    1f64:	2b 01       	movw	r4, r22
    1f66:	3c 01       	movw	r6, r24
    1f68:	6d 81       	ldd	r22, Y+5	; 0x05
    1f6a:	7e 81       	ldd	r23, Y+6	; 0x06
    1f6c:	8f 81       	ldd	r24, Y+7	; 0x07
    1f6e:	98 85       	ldd	r25, Y+8	; 0x08
    1f70:	0e 94 6d 27 	call	0x4eda	; 0x4eda <__floatunsisf>
    1f74:	9b 01       	movw	r18, r22
    1f76:	ac 01       	movw	r20, r24
    1f78:	c3 01       	movw	r24, r6
    1f7a:	b2 01       	movw	r22, r4
    1f7c:	0e 94 d4 26 	call	0x4da8	; 0x4da8 <__divsf3>
    1f80:	60 93 78 01 	sts	0x0178, r22	; 0x800178 <tianTerm1>
    1f84:	70 93 79 01 	sts	0x0179, r23	; 0x800179 <tianTerm1+0x1>
    1f88:	80 93 7a 01 	sts	0x017A, r24	; 0x80017a <tianTerm1+0x2>
    1f8c:	90 93 7b 01 	sts	0x017B, r25	; 0x80017b <tianTerm1+0x3>
    1f90:	29 85       	ldd	r18, Y+9	; 0x09
    1f92:	3a 85       	ldd	r19, Y+10	; 0x0a
    1f94:	22 0f       	add	r18, r18
    1f96:	33 1f       	adc	r19, r19
    1f98:	2e 0d       	add	r18, r14
    1f9a:	3f 1d       	adc	r19, r15
    1f9c:	80 91 7e 01 	lds	r24, 0x017E	; 0x80017e <tian_K>
    1fa0:	90 91 7f 01 	lds	r25, 0x017F	; 0x80017f <tian_K+0x1>
    1fa4:	d9 01       	movw	r26, r18
    1fa6:	8d 93       	st	X+, r24
    1fa8:	9c 93       	st	X, r25
    1faa:	00 c2       	rjmp	.+1024   	; 0x23ac <_Z13modbusProceedPiiii+0x19fc>
    1fac:	bb 20       	and	r11, r11
    1fae:	41 f0       	breq	.+16     	; 0x1fc0 <_Z13modbusProceedPiiii+0x1610>
    1fb0:	80 91 d4 01 	lds	r24, 0x01D4	; 0x8001d4 <pinCode>
    1fb4:	88 23       	and	r24, r24
    1fb6:	21 f0       	breq	.+8      	; 0x1fc0 <_Z13modbusProceedPiiii+0x1610>
    1fb8:	d0 92 7d 01 	sts	0x017D, r13	; 0x80017d <tian_Offset+0x1>
    1fbc:	c0 92 7c 01 	sts	0x017C, r12	; 0x80017c <tian_Offset>
    1fc0:	e9 85       	ldd	r30, Y+9	; 0x09
    1fc2:	fa 85       	ldd	r31, Y+10	; 0x0a
    1fc4:	ee 0f       	add	r30, r30
    1fc6:	ff 1f       	adc	r31, r31
    1fc8:	ee 0d       	add	r30, r14
    1fca:	ff 1d       	adc	r31, r15
    1fcc:	80 91 7c 01 	lds	r24, 0x017C	; 0x80017c <tian_Offset>
    1fd0:	90 91 7d 01 	lds	r25, 0x017D	; 0x80017d <tian_Offset+0x1>
    1fd4:	91 83       	std	Z+1, r25	; 0x01
    1fd6:	80 83       	st	Z, r24
    1fd8:	e9 c1       	rjmp	.+978    	; 0x23ac <_Z13modbusProceedPiiii+0x19fc>
    1fda:	29 85       	ldd	r18, Y+9	; 0x09
    1fdc:	3a 85       	ldd	r19, Y+10	; 0x0a
    1fde:	22 0f       	add	r18, r18
    1fe0:	33 1f       	adc	r19, r19
    1fe2:	2e 0d       	add	r18, r14
    1fe4:	3f 1d       	adc	r19, r15
    1fe6:	3a 87       	std	Y+10, r19	; 0x0a
    1fe8:	29 87       	std	Y+9, r18	; 0x09
    1fea:	60 91 74 01 	lds	r22, 0x0174	; 0x800174 <tempSetPoint>
    1fee:	70 91 75 01 	lds	r23, 0x0175	; 0x800175 <tempSetPoint+0x1>
    1ff2:	80 91 76 01 	lds	r24, 0x0176	; 0x800176 <tempSetPoint+0x2>
    1ff6:	90 91 77 01 	lds	r25, 0x0177	; 0x800177 <tempSetPoint+0x3>
    1ffa:	40 e0       	ldi	r20, 0x00	; 0
    1ffc:	0e 94 b8 04 	call	0x970	; 0x970 <_Z12convertFloatfh>
    2000:	a9 85       	ldd	r26, Y+9	; 0x09
    2002:	ba 85       	ldd	r27, Y+10	; 0x0a
    2004:	8d 93       	st	X+, r24
    2006:	9c 93       	st	X, r25
    2008:	d1 c1       	rjmp	.+930    	; 0x23ac <_Z13modbusProceedPiiii+0x19fc>
    200a:	bb 20       	and	r11, r11
    200c:	61 f0       	breq	.+24     	; 0x2026 <_Z13modbusProceedPiiii+0x1676>
    200e:	80 91 d4 01 	lds	r24, 0x01D4	; 0x8001d4 <pinCode>
    2012:	88 23       	and	r24, r24
    2014:	41 f0       	breq	.+16     	; 0x2026 <_Z13modbusProceedPiiii+0x1676>
    2016:	10 92 74 01 	sts	0x0174, r1	; 0x800174 <tempSetPoint>
    201a:	10 92 75 01 	sts	0x0175, r1	; 0x800175 <tempSetPoint+0x1>
    201e:	10 92 76 01 	sts	0x0176, r1	; 0x800176 <tempSetPoint+0x2>
    2022:	10 92 77 01 	sts	0x0177, r1	; 0x800177 <tempSetPoint+0x3>
    2026:	e9 85       	ldd	r30, Y+9	; 0x09
    2028:	fa 85       	ldd	r31, Y+10	; 0x0a
    202a:	ee 0f       	add	r30, r30
    202c:	ff 1f       	adc	r31, r31
    202e:	ee 0d       	add	r30, r14
    2030:	ff 1d       	adc	r31, r15
    2032:	fa 87       	std	Y+10, r31	; 0x0a
    2034:	e9 87       	std	Y+9, r30	; 0x09
    2036:	60 91 74 01 	lds	r22, 0x0174	; 0x800174 <tempSetPoint>
    203a:	70 91 75 01 	lds	r23, 0x0175	; 0x800175 <tempSetPoint+0x1>
    203e:	80 91 76 01 	lds	r24, 0x0176	; 0x800176 <tempSetPoint+0x2>
    2042:	90 91 77 01 	lds	r25, 0x0177	; 0x800177 <tempSetPoint+0x3>
    2046:	41 e0       	ldi	r20, 0x01	; 1
    2048:	0e 94 b8 04 	call	0x970	; 0x970 <_Z12convertFloatfh>
    204c:	a9 85       	ldd	r26, Y+9	; 0x09
    204e:	ba 85       	ldd	r27, Y+10	; 0x0a
    2050:	8d 93       	st	X+, r24
    2052:	9c 93       	st	X, r25
    2054:	ab c1       	rjmp	.+854    	; 0x23ac <_Z13modbusProceedPiiii+0x19fc>
    2056:	e9 85       	ldd	r30, Y+9	; 0x09
    2058:	fa 85       	ldd	r31, Y+10	; 0x0a
    205a:	ee 0f       	add	r30, r30
    205c:	ff 1f       	adc	r31, r31
    205e:	ee 0d       	add	r30, r14
    2060:	ff 1d       	adc	r31, r15
    2062:	fa 87       	std	Y+10, r31	; 0x0a
    2064:	e9 87       	std	Y+9, r30	; 0x09
    2066:	60 91 70 01 	lds	r22, 0x0170	; 0x800170 <DS18B20_Temp>
    206a:	70 91 71 01 	lds	r23, 0x0171	; 0x800171 <DS18B20_Temp+0x1>
    206e:	80 91 72 01 	lds	r24, 0x0172	; 0x800172 <DS18B20_Temp+0x2>
    2072:	90 91 73 01 	lds	r25, 0x0173	; 0x800173 <DS18B20_Temp+0x3>
    2076:	40 e0       	ldi	r20, 0x00	; 0
    2078:	0e 94 b8 04 	call	0x970	; 0x970 <_Z12convertFloatfh>
    207c:	a9 85       	ldd	r26, Y+9	; 0x09
    207e:	ba 85       	ldd	r27, Y+10	; 0x0a
    2080:	8d 93       	st	X+, r24
    2082:	9c 93       	st	X, r25
    2084:	93 c1       	rjmp	.+806    	; 0x23ac <_Z13modbusProceedPiiii+0x19fc>
    2086:	e9 85       	ldd	r30, Y+9	; 0x09
    2088:	fa 85       	ldd	r31, Y+10	; 0x0a
    208a:	ee 0f       	add	r30, r30
    208c:	ff 1f       	adc	r31, r31
    208e:	ee 0d       	add	r30, r14
    2090:	ff 1d       	adc	r31, r15
    2092:	80 91 62 01 	lds	r24, 0x0162	; 0x800162 <PWM_SP>
    2096:	90 e0       	ldi	r25, 0x00	; 0
    2098:	91 83       	std	Z+1, r25	; 0x01
    209a:	80 83       	st	Z, r24
    209c:	87 c1       	rjmp	.+782    	; 0x23ac <_Z13modbusProceedPiiii+0x19fc>
    209e:	80 91 8b 03 	lds	r24, 0x038B	; 0x80038b <Heat_CPU_Current>
    20a2:	90 91 8c 03 	lds	r25, 0x038C	; 0x80038c <Heat_CPU_Current+0x1>
    20a6:	29 85       	ldd	r18, Y+9	; 0x09
    20a8:	3a 85       	ldd	r19, Y+10	; 0x0a
    20aa:	22 0f       	add	r18, r18
    20ac:	33 1f       	adc	r19, r19
    20ae:	2e 0d       	add	r18, r14
    20b0:	3f 1d       	adc	r19, r15
    20b2:	d9 01       	movw	r26, r18
    20b4:	8d 93       	st	X+, r24
    20b6:	9c 93       	st	X, r25
    20b8:	79 c1       	rjmp	.+754    	; 0x23ac <_Z13modbusProceedPiiii+0x19fc>
    20ba:	bb 20       	and	r11, r11
    20bc:	59 f0       	breq	.+22     	; 0x20d4 <_Z13modbusProceedPiiii+0x1724>
    20be:	80 91 d4 01 	lds	r24, 0x01D4	; 0x8001d4 <pinCode>
    20c2:	88 23       	and	r24, r24
    20c4:	39 f0       	breq	.+14     	; 0x20d4 <_Z13modbusProceedPiiii+0x1724>
    20c6:	c0 92 8a 03 	sts	0x038A, r12	; 0x80038a <enableCPUheat>
    20ca:	60 e0       	ldi	r22, 0x00	; 0
    20cc:	70 e0       	ldi	r23, 0x00	; 0
    20ce:	83 e0       	ldi	r24, 0x03	; 3
    20d0:	0e 94 ef 1f 	call	0x3fde	; 0x3fde <analogWrite>
    20d4:	e9 85       	ldd	r30, Y+9	; 0x09
    20d6:	fa 85       	ldd	r31, Y+10	; 0x0a
    20d8:	ee 0f       	add	r30, r30
    20da:	ff 1f       	adc	r31, r31
    20dc:	ee 0d       	add	r30, r14
    20de:	ff 1d       	adc	r31, r15
    20e0:	80 91 8a 03 	lds	r24, 0x038A	; 0x80038a <enableCPUheat>
    20e4:	90 e0       	ldi	r25, 0x00	; 0
    20e6:	91 83       	std	Z+1, r25	; 0x01
    20e8:	80 83       	st	Z, r24
    20ea:	60 c1       	rjmp	.+704    	; 0x23ac <_Z13modbusProceedPiiii+0x19fc>
    20ec:	bb 20       	and	r11, r11
    20ee:	41 f0       	breq	.+16     	; 0x2100 <_Z13modbusProceedPiiii+0x1750>
    20f0:	80 91 d4 01 	lds	r24, 0x01D4	; 0x8001d4 <pinCode>
    20f4:	88 23       	and	r24, r24
    20f6:	21 f0       	breq	.+8      	; 0x2100 <_Z13modbusProceedPiiii+0x1750>
    20f8:	d0 92 02 01 	sts	0x0102, r13	; 0x800102 <incomingTimeOut+0x1>
    20fc:	c0 92 01 01 	sts	0x0101, r12	; 0x800101 <incomingTimeOut>
    2100:	29 85       	ldd	r18, Y+9	; 0x09
    2102:	3a 85       	ldd	r19, Y+10	; 0x0a
    2104:	22 0f       	add	r18, r18
    2106:	33 1f       	adc	r19, r19
    2108:	2e 0d       	add	r18, r14
    210a:	3f 1d       	adc	r19, r15
    210c:	80 91 01 01 	lds	r24, 0x0101	; 0x800101 <incomingTimeOut>
    2110:	90 91 02 01 	lds	r25, 0x0102	; 0x800102 <incomingTimeOut+0x1>
    2114:	d9 01       	movw	r26, r18
    2116:	8d 93       	st	X+, r24
    2118:	9c 93       	st	X, r25
    211a:	48 c1       	rjmp	.+656    	; 0x23ac <_Z13modbusProceedPiiii+0x19fc>
    211c:	e9 85       	ldd	r30, Y+9	; 0x09
    211e:	fa 85       	ldd	r31, Y+10	; 0x0a
    2120:	ee 0f       	add	r30, r30
    2122:	ff 1f       	adc	r31, r31
    2124:	ee 0d       	add	r30, r14
    2126:	ff 1d       	adc	r31, r15
    2128:	fa 87       	std	Y+10, r31	; 0x0a
    212a:	e9 87       	std	Y+9, r30	; 0x09
    212c:	f8 01       	movw	r30, r16
    212e:	e6 56       	subi	r30, 0x66	; 102
    2130:	ff 4f       	sbci	r31, 0xFF	; 255
    2132:	80 81       	ld	r24, Z
    2134:	90 e0       	ldi	r25, 0x00	; 0
    2136:	a9 85       	ldd	r26, Y+9	; 0x09
    2138:	ba 85       	ldd	r27, Y+10	; 0x0a
    213a:	8d 93       	st	X+, r24
    213c:	9c 93       	st	X, r25
    213e:	36 c1       	rjmp	.+620    	; 0x23ac <_Z13modbusProceedPiiii+0x19fc>
    2140:	29 85       	ldd	r18, Y+9	; 0x09
    2142:	3a 85       	ldd	r19, Y+10	; 0x0a
    2144:	22 0f       	add	r18, r18
    2146:	33 1f       	adc	r19, r19
    2148:	2e 0d       	add	r18, r14
    214a:	3f 1d       	adc	r19, r15
    214c:	80 91 01 03 	lds	r24, 0x0301	; 0x800301 <_rawTemperature>
    2150:	90 91 02 03 	lds	r25, 0x0302	; 0x800302 <_rawTemperature+0x1>
    2154:	d9 01       	movw	r26, r18
    2156:	8d 93       	st	X+, r24
    2158:	9c 93       	st	X, r25
    215a:	28 c1       	rjmp	.+592    	; 0x23ac <_Z13modbusProceedPiiii+0x19fc>
    215c:	e9 85       	ldd	r30, Y+9	; 0x09
    215e:	fa 85       	ldd	r31, Y+10	; 0x0a
    2160:	ee 0f       	add	r30, r30
    2162:	ff 1f       	adc	r31, r31
    2164:	ee 0d       	add	r30, r14
    2166:	ff 1d       	adc	r31, r15
    2168:	80 91 ff 02 	lds	r24, 0x02FF	; 0x8002ff <RAW_pressureTian>
    216c:	90 91 00 03 	lds	r25, 0x0300	; 0x800300 <RAW_pressureTian+0x1>
    2170:	91 83       	std	Z+1, r25	; 0x01
    2172:	80 83       	st	Z, r24
    2174:	1b c1       	rjmp	.+566    	; 0x23ac <_Z13modbusProceedPiiii+0x19fc>
    2176:	29 85       	ldd	r18, Y+9	; 0x09
    2178:	3a 85       	ldd	r19, Y+10	; 0x0a
    217a:	22 0f       	add	r18, r18
    217c:	33 1f       	adc	r19, r19
    217e:	2e 0d       	add	r18, r14
    2180:	3f 1d       	adc	r19, r15
    2182:	80 91 fd 02 	lds	r24, 0x02FD	; 0x8002fd <RAW_temperatureTian>
    2186:	90 91 fe 02 	lds	r25, 0x02FE	; 0x8002fe <RAW_temperatureTian+0x1>
    218a:	d9 01       	movw	r26, r18
    218c:	8d 93       	st	X+, r24
    218e:	9c 93       	st	X, r25
    2190:	0d c1       	rjmp	.+538    	; 0x23ac <_Z13modbusProceedPiiii+0x19fc>
    2192:	e9 85       	ldd	r30, Y+9	; 0x09
    2194:	fa 85       	ldd	r31, Y+10	; 0x0a
    2196:	ee 0f       	add	r30, r30
    2198:	ff 1f       	adc	r31, r31
    219a:	ee 0d       	add	r30, r14
    219c:	ff 1d       	adc	r31, r15
    219e:	fa 87       	std	Y+10, r31	; 0x0a
    21a0:	e9 87       	std	Y+9, r30	; 0x09
    21a2:	42 5c       	subi	r20, 0xC2	; 194
    21a4:	60 91 f4 01 	lds	r22, 0x01F4	; 0x8001f4 <pressureTian>
    21a8:	70 91 f5 01 	lds	r23, 0x01F5	; 0x8001f5 <pressureTian+0x1>
    21ac:	80 91 f6 01 	lds	r24, 0x01F6	; 0x8001f6 <pressureTian+0x2>
    21b0:	90 91 f7 01 	lds	r25, 0x01F7	; 0x8001f7 <pressureTian+0x3>
    21b4:	0e 94 b8 04 	call	0x970	; 0x970 <_Z12convertFloatfh>
    21b8:	a9 85       	ldd	r26, Y+9	; 0x09
    21ba:	ba 85       	ldd	r27, Y+10	; 0x0a
    21bc:	8d 93       	st	X+, r24
    21be:	9c 93       	st	X, r25
    21c0:	f5 c0       	rjmp	.+490    	; 0x23ac <_Z13modbusProceedPiiii+0x19fc>
    21c2:	e9 85       	ldd	r30, Y+9	; 0x09
    21c4:	fa 85       	ldd	r31, Y+10	; 0x0a
    21c6:	ee 0f       	add	r30, r30
    21c8:	ff 1f       	adc	r31, r31
    21ca:	ee 0d       	add	r30, r14
    21cc:	ff 1d       	adc	r31, r15
    21ce:	fa 87       	std	Y+10, r31	; 0x0a
    21d0:	e9 87       	std	Y+9, r30	; 0x09
    21d2:	44 5c       	subi	r20, 0xC4	; 196
    21d4:	60 91 f0 01 	lds	r22, 0x01F0	; 0x8001f0 <temperatureTian>
    21d8:	70 91 f1 01 	lds	r23, 0x01F1	; 0x8001f1 <temperatureTian+0x1>
    21dc:	80 91 f2 01 	lds	r24, 0x01F2	; 0x8001f2 <temperatureTian+0x2>
    21e0:	90 91 f3 01 	lds	r25, 0x01F3	; 0x8001f3 <temperatureTian+0x3>
    21e4:	0e 94 b8 04 	call	0x970	; 0x970 <_Z12convertFloatfh>
    21e8:	a9 85       	ldd	r26, Y+9	; 0x09
    21ea:	ba 85       	ldd	r27, Y+10	; 0x0a
    21ec:	8d 93       	st	X+, r24
    21ee:	9c 93       	st	X, r25
    21f0:	dd c0       	rjmp	.+442    	; 0x23ac <_Z13modbusProceedPiiii+0x19fc>
    21f2:	bb 20       	and	r11, r11
    21f4:	09 f4       	brne	.+2      	; 0x21f8 <_Z13modbusProceedPiiii+0x1848>
    21f6:	da c0       	rjmp	.+436    	; 0x23ac <_Z13modbusProceedPiiii+0x19fc>
    21f8:	f1 e0       	ldi	r31, 0x01	; 1
    21fa:	cf 16       	cp	r12, r31
    21fc:	d1 04       	cpc	r13, r1
    21fe:	09 f0       	breq	.+2      	; 0x2202 <_Z13modbusProceedPiiii+0x1852>
    2200:	d5 c0       	rjmp	.+426    	; 0x23ac <_Z13modbusProceedPiiii+0x19fc>
    2202:	10 92 89 03 	sts	0x0389, r1	; 0x800389 <errorInt+0x1>
    2206:	10 92 88 03 	sts	0x0388, r1	; 0x800388 <errorInt>
    220a:	d0 c0       	rjmp	.+416    	; 0x23ac <_Z13modbusProceedPiiii+0x19fc>
    220c:	bb 20       	and	r11, r11
    220e:	49 f0       	breq	.+18     	; 0x2222 <_Z13modbusProceedPiiii+0x1872>
    2210:	21 e0       	ldi	r18, 0x01	; 1
    2212:	c2 16       	cp	r12, r18
    2214:	d1 04       	cpc	r13, r1
    2216:	29 f4       	brne	.+10     	; 0x2222 <_Z13modbusProceedPiiii+0x1872>
    2218:	81 e0       	ldi	r24, 0x01	; 1
    221a:	80 93 e2 01 	sts	0x01E2, r24	; 0x8001e2 <reboot>
    221e:	80 93 e1 01 	sts	0x01E1, r24	; 0x8001e1 <apply>
    2222:	89 85       	ldd	r24, Y+9	; 0x09
    2224:	9a 85       	ldd	r25, Y+10	; 0x0a
    2226:	88 0f       	add	r24, r24
    2228:	99 1f       	adc	r25, r25
    222a:	8e 0d       	add	r24, r14
    222c:	9f 1d       	adc	r25, r15
    222e:	dc 01       	movw	r26, r24
    2230:	1d 92       	st	X+, r1
    2232:	1c 92       	st	X, r1
    2234:	bb c0       	rjmp	.+374    	; 0x23ac <_Z13modbusProceedPiiii+0x19fc>
    2236:	29 85       	ldd	r18, Y+9	; 0x09
    2238:	3a 85       	ldd	r19, Y+10	; 0x0a
    223a:	22 0f       	add	r18, r18
    223c:	33 1f       	adc	r19, r19
    223e:	2e 0d       	add	r18, r14
    2240:	3f 1d       	adc	r19, r15
    2242:	f8 01       	movw	r30, r16
    2244:	e4 5e       	subi	r30, 0xE4	; 228
    2246:	ff 4f       	sbci	r31, 0xFF	; 255
    2248:	80 81       	ld	r24, Z
    224a:	90 e0       	ldi	r25, 0x00	; 0
    224c:	d9 01       	movw	r26, r18
    224e:	8d 93       	st	X+, r24
    2250:	9c 93       	st	X, r25
    2252:	ac c0       	rjmp	.+344    	; 0x23ac <_Z13modbusProceedPiiii+0x19fc>
    2254:	e9 85       	ldd	r30, Y+9	; 0x09
    2256:	fa 85       	ldd	r31, Y+10	; 0x0a
    2258:	ee 0f       	add	r30, r30
    225a:	ff 1f       	adc	r31, r31
    225c:	ee 0d       	add	r30, r14
    225e:	ff 1d       	adc	r31, r15
    2260:	fa 87       	std	Y+10, r31	; 0x0a
    2262:	e9 87       	std	Y+9, r30	; 0x09
    2264:	f8 01       	movw	r30, r16
    2266:	ee 52       	subi	r30, 0x2E	; 46
    2268:	f0 40       	sbci	r31, 0x00	; 0
    226a:	80 81       	ld	r24, Z
    226c:	90 e0       	ldi	r25, 0x00	; 0
    226e:	a9 85       	ldd	r26, Y+9	; 0x09
    2270:	ba 85       	ldd	r27, Y+10	; 0x0a
    2272:	8d 93       	st	X+, r24
    2274:	9c 93       	st	X, r25
    2276:	9a c0       	rjmp	.+308    	; 0x23ac <_Z13modbusProceedPiiii+0x19fc>
    2278:	e9 85       	ldd	r30, Y+9	; 0x09
    227a:	fa 85       	ldd	r31, Y+10	; 0x0a
    227c:	ee 0f       	add	r30, r30
    227e:	ff 1f       	adc	r31, r31
    2280:	ee 0d       	add	r30, r14
    2282:	ff 1d       	adc	r31, r15
    2284:	fa 87       	std	Y+10, r31	; 0x0a
    2286:	e9 87       	std	Y+9, r30	; 0x09
    2288:	60 91 06 03 	lds	r22, 0x0306	; 0x800306 <SHT_Temp_FL>
    228c:	70 91 07 03 	lds	r23, 0x0307	; 0x800307 <SHT_Temp_FL+0x1>
    2290:	80 91 08 03 	lds	r24, 0x0308	; 0x800308 <SHT_Temp_FL+0x2>
    2294:	90 91 09 03 	lds	r25, 0x0309	; 0x800309 <SHT_Temp_FL+0x3>
    2298:	41 e0       	ldi	r20, 0x01	; 1
    229a:	0e 94 b8 04 	call	0x970	; 0x970 <_Z12convertFloatfh>
    229e:	a9 85       	ldd	r26, Y+9	; 0x09
    22a0:	ba 85       	ldd	r27, Y+10	; 0x0a
    22a2:	8d 93       	st	X+, r24
    22a4:	9c 93       	st	X, r25
    22a6:	82 c0       	rjmp	.+260    	; 0x23ac <_Z13modbusProceedPiiii+0x19fc>
    22a8:	e9 85       	ldd	r30, Y+9	; 0x09
    22aa:	fa 85       	ldd	r31, Y+10	; 0x0a
    22ac:	ee 0f       	add	r30, r30
    22ae:	ff 1f       	adc	r31, r31
    22b0:	ee 0d       	add	r30, r14
    22b2:	ff 1d       	adc	r31, r15
    22b4:	fa 87       	std	Y+10, r31	; 0x0a
    22b6:	e9 87       	std	Y+9, r30	; 0x09
    22b8:	60 91 0e 03 	lds	r22, 0x030E	; 0x80030e <SHT_RH_FL>
    22bc:	70 91 0f 03 	lds	r23, 0x030F	; 0x80030f <SHT_RH_FL+0x1>
    22c0:	80 91 10 03 	lds	r24, 0x0310	; 0x800310 <SHT_RH_FL+0x2>
    22c4:	90 91 11 03 	lds	r25, 0x0311	; 0x800311 <SHT_RH_FL+0x3>
    22c8:	40 e0       	ldi	r20, 0x00	; 0
    22ca:	0e 94 b8 04 	call	0x970	; 0x970 <_Z12convertFloatfh>
    22ce:	a9 85       	ldd	r26, Y+9	; 0x09
    22d0:	ba 85       	ldd	r27, Y+10	; 0x0a
    22d2:	8d 93       	st	X+, r24
    22d4:	9c 93       	st	X, r25
    22d6:	6a c0       	rjmp	.+212    	; 0x23ac <_Z13modbusProceedPiiii+0x19fc>
    22d8:	e9 85       	ldd	r30, Y+9	; 0x09
    22da:	fa 85       	ldd	r31, Y+10	; 0x0a
    22dc:	ee 0f       	add	r30, r30
    22de:	ff 1f       	adc	r31, r31
    22e0:	ee 0d       	add	r30, r14
    22e2:	ff 1d       	adc	r31, r15
    22e4:	fa 87       	std	Y+10, r31	; 0x0a
    22e6:	e9 87       	std	Y+9, r30	; 0x09
    22e8:	60 91 0e 03 	lds	r22, 0x030E	; 0x80030e <SHT_RH_FL>
    22ec:	70 91 0f 03 	lds	r23, 0x030F	; 0x80030f <SHT_RH_FL+0x1>
    22f0:	80 91 10 03 	lds	r24, 0x0310	; 0x800310 <SHT_RH_FL+0x2>
    22f4:	90 91 11 03 	lds	r25, 0x0311	; 0x800311 <SHT_RH_FL+0x3>
    22f8:	41 e0       	ldi	r20, 0x01	; 1
    22fa:	0e 94 b8 04 	call	0x970	; 0x970 <_Z12convertFloatfh>
    22fe:	a9 85       	ldd	r26, Y+9	; 0x09
    2300:	ba 85       	ldd	r27, Y+10	; 0x0a
    2302:	8d 93       	st	X+, r24
    2304:	9c 93       	st	X, r25
    2306:	52 c0       	rjmp	.+164    	; 0x23ac <_Z13modbusProceedPiiii+0x19fc>
    2308:	bb 20       	and	r11, r11
    230a:	39 f0       	breq	.+14     	; 0x231a <_Z13modbusProceedPiiii+0x196a>
    230c:	b1 e0       	ldi	r27, 0x01	; 1
    230e:	cb 16       	cp	r12, r27
    2310:	d1 04       	cpc	r13, r1
    2312:	19 f4       	brne	.+6      	; 0x231a <_Z13modbusProceedPiiii+0x196a>
    2314:	81 e0       	ldi	r24, 0x01	; 1
    2316:	80 93 e2 01 	sts	0x01E2, r24	; 0x8001e2 <reboot>
    231a:	e9 85       	ldd	r30, Y+9	; 0x09
    231c:	fa 85       	ldd	r31, Y+10	; 0x0a
    231e:	ee 0f       	add	r30, r30
    2320:	ff 1f       	adc	r31, r31
    2322:	ee 0d       	add	r30, r14
    2324:	ff 1d       	adc	r31, r15
    2326:	11 82       	std	Z+1, r1	; 0x01
    2328:	10 82       	st	Z, r1
    232a:	40 c0       	rjmp	.+128    	; 0x23ac <_Z13modbusProceedPiiii+0x19fc>
    232c:	bb 20       	and	r11, r11
    232e:	39 f0       	breq	.+14     	; 0x233e <_Z13modbusProceedPiiii+0x198e>
    2330:	f1 e0       	ldi	r31, 0x01	; 1
    2332:	cf 16       	cp	r12, r31
    2334:	d1 04       	cpc	r13, r1
    2336:	19 f4       	brne	.+6      	; 0x233e <_Z13modbusProceedPiiii+0x198e>
    2338:	81 e0       	ldi	r24, 0x01	; 1
    233a:	80 93 8e 01 	sts	0x018E, r24	; 0x80018e <bridgeMode>
    233e:	80 91 8e 01 	lds	r24, 0x018E	; 0x80018e <bridgeMode>
    2342:	29 85       	ldd	r18, Y+9	; 0x09
    2344:	3a 85       	ldd	r19, Y+10	; 0x0a
    2346:	22 0f       	add	r18, r18
    2348:	33 1f       	adc	r19, r19
    234a:	2e 0d       	add	r18, r14
    234c:	3f 1d       	adc	r19, r15
    234e:	90 e0       	ldi	r25, 0x00	; 0
    2350:	88 0f       	add	r24, r24
    2352:	99 1f       	adc	r25, r25
    2354:	d9 01       	movw	r26, r18
    2356:	8d 93       	st	X+, r24
    2358:	9c 93       	st	X, r25
    235a:	28 c0       	rjmp	.+80     	; 0x23ac <_Z13modbusProceedPiiii+0x19fc>
    235c:	bb 20       	and	r11, r11
    235e:	59 f0       	breq	.+22     	; 0x2376 <_Z13modbusProceedPiiii+0x19c6>
    2360:	f2 ea       	ldi	r31, 0xA2	; 162
    2362:	cf 16       	cp	r12, r31
    2364:	f8 e0       	ldi	r31, 0x08	; 8
    2366:	df 06       	cpc	r13, r31
    2368:	21 f4       	brne	.+8      	; 0x2372 <_Z13modbusProceedPiiii+0x19c2>
    236a:	81 e0       	ldi	r24, 0x01	; 1
    236c:	80 93 d4 01 	sts	0x01D4, r24	; 0x8001d4 <pinCode>
    2370:	02 c0       	rjmp	.+4      	; 0x2376 <_Z13modbusProceedPiiii+0x19c6>
    2372:	10 92 d4 01 	sts	0x01D4, r1	; 0x8001d4 <pinCode>
    2376:	29 85       	ldd	r18, Y+9	; 0x09
    2378:	3a 85       	ldd	r19, Y+10	; 0x0a
    237a:	22 0f       	add	r18, r18
    237c:	33 1f       	adc	r19, r19
    237e:	2e 0d       	add	r18, r14
    2380:	3f 1d       	adc	r19, r15
    2382:	80 91 d4 01 	lds	r24, 0x01D4	; 0x8001d4 <pinCode>
    2386:	90 e0       	ldi	r25, 0x00	; 0
    2388:	d9 01       	movw	r26, r18
    238a:	8d 93       	st	X+, r24
    238c:	9c 93       	st	X, r25
    238e:	0e c0       	rjmp	.+28     	; 0x23ac <_Z13modbusProceedPiiii+0x19fc>
    2390:	f8 94       	cli
    2392:	0c 94 00 3e 	jmp	0x7c00	; 0x7c00 <__data_load_end+0x273a>
    2396:	0a c0       	rjmp	.+20     	; 0x23ac <_Z13modbusProceedPiiii+0x19fc>
    2398:	e9 85       	ldd	r30, Y+9	; 0x09
    239a:	fa 85       	ldd	r31, Y+10	; 0x0a
    239c:	ee 0f       	add	r30, r30
    239e:	ff 1f       	adc	r31, r31
    23a0:	ee 0d       	add	r30, r14
    23a2:	ff 1d       	adc	r31, r15
    23a4:	2f ef       	ldi	r18, 0xFF	; 255
    23a6:	3f ef       	ldi	r19, 0xFF	; 255
    23a8:	31 83       	std	Z+1, r19	; 0x01
    23aa:	20 83       	st	Z, r18
    23ac:	0f 5f       	subi	r16, 0xFF	; 255
    23ae:	1f 4f       	sbci	r17, 0xFF	; 255
    23b0:	0c 94 23 05 	jmp	0xa46	; 0xa46 <_Z13modbusProceedPiiii+0x96>
    23b4:	2a 96       	adiw	r28, 0x0a	; 10
    23b6:	0f b6       	in	r0, 0x3f	; 63
    23b8:	f8 94       	cli
    23ba:	de bf       	out	0x3e, r29	; 62
    23bc:	0f be       	out	0x3f, r0	; 63
    23be:	cd bf       	out	0x3d, r28	; 61
    23c0:	df 91       	pop	r29
    23c2:	cf 91       	pop	r28
    23c4:	1f 91       	pop	r17
    23c6:	0f 91       	pop	r16
    23c8:	ff 90       	pop	r15
    23ca:	ef 90       	pop	r14
    23cc:	df 90       	pop	r13
    23ce:	cf 90       	pop	r12
    23d0:	bf 90       	pop	r11
    23d2:	af 90       	pop	r10
    23d4:	9f 90       	pop	r9
    23d6:	8f 90       	pop	r8
    23d8:	7f 90       	pop	r7
    23da:	6f 90       	pop	r6
    23dc:	5f 90       	pop	r5
    23de:	4f 90       	pop	r4
    23e0:	3f 90       	pop	r3
    23e2:	2f 90       	pop	r2
    23e4:	08 95       	ret

000023e6 <_Z8settingsv>:
    23e6:	83 e0       	ldi	r24, 0x03	; 3
    23e8:	80 93 eb 01 	sts	0x01EB, r24	; 0x8001eb <baudRate>
    23ec:	10 92 ea 01 	sts	0x01EA, r1	; 0x8001ea <parity>
    23f0:	89 e6       	ldi	r24, 0x69	; 105
    23f2:	92 e0       	ldi	r25, 0x02	; 2
    23f4:	90 93 e8 01 	sts	0x01E8, r25	; 0x8001e8 <densitySet+0x1>
    23f8:	80 93 e7 01 	sts	0x01E7, r24	; 0x8001e7 <densitySet>
    23fc:	10 92 e9 01 	sts	0x01E9, r1	; 0x8001e9 <gasPartner>
    2400:	8a ea       	ldi	r24, 0xAA	; 170
    2402:	9a ea       	ldi	r25, 0xAA	; 170
    2404:	90 93 ef 01 	sts	0x01EF, r25	; 0x8001ef <serialLow+0x1>
    2408:	80 93 ee 01 	sts	0x01EE, r24	; 0x8001ee <serialLow>
    240c:	90 93 ed 01 	sts	0x01ED, r25	; 0x8001ed <serialHigh+0x1>
    2410:	80 93 ec 01 	sts	0x01EC, r24	; 0x8001ec <serialHigh>
    2414:	10 92 03 01 	sts	0x0103, r1	; 0x800103 <modelDN>
    2418:	10 92 8f 01 	sts	0x018F, r1	; 0x80018f <getTempFromSHT>
    241c:	8b ec       	ldi	r24, 0xCB	; 203
    241e:	91 ea       	ldi	r25, 0xA1	; 161
    2420:	a5 ec       	ldi	r26, 0xC5	; 197
    2422:	b0 e4       	ldi	r27, 0x40	; 64
    2424:	80 93 e3 01 	sts	0x01E3, r24	; 0x8001e3 <densitySetFlt>
    2428:	90 93 e4 01 	sts	0x01E4, r25	; 0x8001e4 <densitySetFlt+0x1>
    242c:	a0 93 e5 01 	sts	0x01E5, r26	; 0x8001e5 <densitySetFlt+0x2>
    2430:	b0 93 e6 01 	sts	0x01E6, r27	; 0x8001e6 <densitySetFlt+0x3>
    2434:	85 e8       	ldi	r24, 0x85	; 133
    2436:	80 93 52 03 	sts	0x0352, r24	; 0x800352 <liquefaction>
    243a:	80 e5       	ldi	r24, 0x50	; 80
    243c:	80 93 51 03 	sts	0x0351, r24	; 0x800351 <overdensity>
    2440:	8c e3       	ldi	r24, 0x3C	; 60
    2442:	80 93 4b 03 	sts	0x034B, r24	; 0x80034b <warningLevel>
    2446:	82 e3       	ldi	r24, 0x32	; 50
    2448:	80 93 4c 03 	sts	0x034C, r24	; 0x80034c <alarmLevel>
    244c:	10 92 8a 01 	sts	0x018A, r1	; 0x80018a <offsetTemp>
    2450:	10 92 8b 01 	sts	0x018B, r1	; 0x80018b <offsetTemp+0x1>
    2454:	10 92 8c 01 	sts	0x018C, r1	; 0x80018c <offsetTemp+0x2>
    2458:	10 92 8d 01 	sts	0x018D, r1	; 0x80018d <offsetTemp+0x3>
    245c:	10 92 86 01 	sts	0x0186, r1	; 0x800186 <offsetHumidity_b>
    2460:	10 92 87 01 	sts	0x0187, r1	; 0x800187 <offsetHumidity_b+0x1>
    2464:	10 92 88 01 	sts	0x0188, r1	; 0x800188 <offsetHumidity_b+0x2>
    2468:	10 92 89 01 	sts	0x0189, r1	; 0x800189 <offsetHumidity_b+0x3>
    246c:	80 e0       	ldi	r24, 0x00	; 0
    246e:	90 e0       	ldi	r25, 0x00	; 0
    2470:	a0 e8       	ldi	r26, 0x80	; 128
    2472:	bf e3       	ldi	r27, 0x3F	; 63
    2474:	80 93 82 01 	sts	0x0182, r24	; 0x800182 <offsetHumidity_K>
    2478:	90 93 83 01 	sts	0x0183, r25	; 0x800183 <offsetHumidity_K+0x1>
    247c:	a0 93 84 01 	sts	0x0184, r26	; 0x800184 <offsetHumidity_K+0x2>
    2480:	b0 93 85 01 	sts	0x0185, r27	; 0x800185 <offsetHumidity_K+0x3>
    2484:	81 e0       	ldi	r24, 0x01	; 1
    2486:	80 93 81 01 	sts	0x0181, r24	; 0x800181 <tian_Pmin>
    248a:	84 e1       	ldi	r24, 0x14	; 20
    248c:	80 93 80 01 	sts	0x0180, r24	; 0x800180 <tian_Pmax>
    2490:	86 e3       	ldi	r24, 0x36	; 54
    2492:	93 e3       	ldi	r25, 0x33	; 51
    2494:	90 93 7f 01 	sts	0x017F, r25	; 0x80017f <tian_K+0x1>
    2498:	80 93 7e 01 	sts	0x017E, r24	; 0x80017e <tian_K>
    249c:	86 e6       	ldi	r24, 0x66	; 102
    249e:	96 e0       	ldi	r25, 0x06	; 6
    24a0:	90 93 7d 01 	sts	0x017D, r25	; 0x80017d <tian_Offset+0x1>
    24a4:	80 93 7c 01 	sts	0x017C, r24	; 0x80017c <tian_Offset>
    24a8:	83 e3       	ldi	r24, 0x33	; 51
    24aa:	9a ef       	ldi	r25, 0xFA	; 250
    24ac:	a1 ed       	ldi	r26, 0xD1	; 209
    24ae:	ba e3       	ldi	r27, 0x3A	; 58
    24b0:	80 93 78 01 	sts	0x0178, r24	; 0x800178 <tianTerm1>
    24b4:	90 93 79 01 	sts	0x0179, r25	; 0x800179 <tianTerm1+0x1>
    24b8:	a0 93 7a 01 	sts	0x017A, r26	; 0x80017a <tianTerm1+0x2>
    24bc:	b0 93 7b 01 	sts	0x017B, r27	; 0x80017b <tianTerm1+0x3>
    24c0:	80 e0       	ldi	r24, 0x00	; 0
    24c2:	90 e0       	ldi	r25, 0x00	; 0
    24c4:	a0 ea       	ldi	r26, 0xA0	; 160
    24c6:	b1 ec       	ldi	r27, 0xC1	; 193
    24c8:	80 93 74 01 	sts	0x0174, r24	; 0x800174 <tempSetPoint>
    24cc:	90 93 75 01 	sts	0x0175, r25	; 0x800175 <tempSetPoint+0x1>
    24d0:	a0 93 76 01 	sts	0x0176, r26	; 0x800176 <tempSetPoint+0x2>
    24d4:	b0 93 77 01 	sts	0x0177, r27	; 0x800177 <tempSetPoint+0x3>
    24d8:	10 92 8a 03 	sts	0x038A, r1	; 0x80038a <enableCPUheat>
    24dc:	80 e4       	ldi	r24, 0x40	; 64
    24de:	9f e1       	ldi	r25, 0x1F	; 31
    24e0:	90 93 02 01 	sts	0x0102, r25	; 0x800102 <incomingTimeOut+0x1>
    24e4:	80 93 01 01 	sts	0x0101, r24	; 0x800101 <incomingTimeOut>
    24e8:	08 95       	ret

000024ea <_Z11getDewPointv>:
    24ea:	4f 92       	push	r4
    24ec:	5f 92       	push	r5
    24ee:	6f 92       	push	r6
    24f0:	7f 92       	push	r7
    24f2:	8f 92       	push	r8
    24f4:	9f 92       	push	r9
    24f6:	af 92       	push	r10
    24f8:	bf 92       	push	r11
    24fa:	cf 92       	push	r12
    24fc:	df 92       	push	r13
    24fe:	ef 92       	push	r14
    2500:	ff 92       	push	r15
    2502:	cf 93       	push	r28
    2504:	df 93       	push	r29
    2506:	00 d0       	rcall	.+0      	; 0x2508 <_Z11getDewPointv+0x1e>
    2508:	00 d0       	rcall	.+0      	; 0x250a <_Z11getDewPointv+0x20>
    250a:	cd b7       	in	r28, 0x3d	; 61
    250c:	de b7       	in	r29, 0x3e	; 62
    250e:	20 91 63 03 	lds	r18, 0x0363	; 0x800363 <RH_RH>
    2512:	30 91 64 03 	lds	r19, 0x0364	; 0x800364 <RH_RH+0x1>
    2516:	40 91 65 03 	lds	r20, 0x0365	; 0x800365 <RH_RH+0x2>
    251a:	50 91 66 03 	lds	r21, 0x0366	; 0x800366 <RH_RH+0x3>
    251e:	60 91 82 01 	lds	r22, 0x0182	; 0x800182 <offsetHumidity_K>
    2522:	70 91 83 01 	lds	r23, 0x0183	; 0x800183 <offsetHumidity_K+0x1>
    2526:	80 91 84 01 	lds	r24, 0x0184	; 0x800184 <offsetHumidity_K+0x2>
    252a:	90 91 85 01 	lds	r25, 0x0185	; 0x800185 <offsetHumidity_K+0x3>
    252e:	0e 94 6e 28 	call	0x50dc	; 0x50dc <__mulsf3>
    2532:	20 91 86 01 	lds	r18, 0x0186	; 0x800186 <offsetHumidity_b>
    2536:	30 91 87 01 	lds	r19, 0x0187	; 0x800187 <offsetHumidity_b+0x1>
    253a:	40 91 88 01 	lds	r20, 0x0188	; 0x800188 <offsetHumidity_b+0x2>
    253e:	50 91 89 01 	lds	r21, 0x0189	; 0x800189 <offsetHumidity_b+0x3>
    2542:	0e 94 6c 26 	call	0x4cd8	; 0x4cd8 <__addsf3>
    2546:	60 93 0a 03 	sts	0x030A, r22	; 0x80030a <RH_Tuned>
    254a:	70 93 0b 03 	sts	0x030B, r23	; 0x80030b <RH_Tuned+0x1>
    254e:	80 93 0c 03 	sts	0x030C, r24	; 0x80030c <RH_Tuned+0x2>
    2552:	90 93 0d 03 	sts	0x030D, r25	; 0x80030d <RH_Tuned+0x3>
    2556:	2a e0       	ldi	r18, 0x0A	; 10
    2558:	37 ed       	ldi	r19, 0xD7	; 215
    255a:	43 e2       	ldi	r20, 0x23	; 35
    255c:	5c e3       	ldi	r21, 0x3C	; 60
    255e:	0e 94 d0 26 	call	0x4da0	; 0x4da0 <__cmpsf2>
    2562:	87 ff       	sbrs	r24, 7
    2564:	10 c0       	rjmp	.+32     	; 0x2586 <_Z11getDewPointv+0x9c>
    2566:	8a e0       	ldi	r24, 0x0A	; 10
    2568:	97 ed       	ldi	r25, 0xD7	; 215
    256a:	a3 e2       	ldi	r26, 0x23	; 35
    256c:	bc e3       	ldi	r27, 0x3C	; 60
    256e:	80 93 0a 03 	sts	0x030A, r24	; 0x80030a <RH_Tuned>
    2572:	90 93 0b 03 	sts	0x030B, r25	; 0x80030b <RH_Tuned+0x1>
    2576:	a0 93 0c 03 	sts	0x030C, r26	; 0x80030c <RH_Tuned+0x2>
    257a:	b0 93 0d 03 	sts	0x030D, r27	; 0x80030d <RH_Tuned+0x3>
    257e:	81 e0       	ldi	r24, 0x01	; 1
    2580:	80 93 05 03 	sts	0x0305, r24	; 0x800305 <negativeRHflag>
    2584:	02 c0       	rjmp	.+4      	; 0x258a <_Z11getDewPointv+0xa0>
    2586:	10 92 05 03 	sts	0x0305, r1	; 0x800305 <negativeRHflag>
    258a:	c0 90 5f 03 	lds	r12, 0x035F	; 0x80035f <temperatureC>
    258e:	d0 90 60 03 	lds	r13, 0x0360	; 0x800360 <temperatureC+0x1>
    2592:	e0 90 61 03 	lds	r14, 0x0361	; 0x800361 <temperatureC+0x2>
    2596:	f0 90 62 03 	lds	r15, 0x0362	; 0x800362 <temperatureC+0x3>
    259a:	22 ea       	ldi	r18, 0xA2	; 162
    259c:	3c ee       	ldi	r19, 0xEC	; 236
    259e:	42 ef       	ldi	r20, 0xF2	; 242
    25a0:	50 e4       	ldi	r21, 0x40	; 64
    25a2:	c7 01       	movw	r24, r14
    25a4:	b6 01       	movw	r22, r12
    25a6:	0e 94 6e 28 	call	0x50dc	; 0x50dc <__mulsf3>
    25aa:	4b 01       	movw	r8, r22
    25ac:	5c 01       	movw	r10, r24
    25ae:	2f ee       	ldi	r18, 0xEF	; 239
    25b0:	39 eb       	ldi	r19, 0xB9	; 185
    25b2:	40 e7       	ldi	r20, 0x70	; 112
    25b4:	53 e4       	ldi	r21, 0x43	; 67
    25b6:	c7 01       	movw	r24, r14
    25b8:	b6 01       	movw	r22, r12
    25ba:	0e 94 6c 26 	call	0x4cd8	; 0x4cd8 <__addsf3>
    25be:	9b 01       	movw	r18, r22
    25c0:	ac 01       	movw	r20, r24
    25c2:	c5 01       	movw	r24, r10
    25c4:	b4 01       	movw	r22, r8
    25c6:	0e 94 d4 26 	call	0x4da8	; 0x4da8 <__divsf3>
    25ca:	9b 01       	movw	r18, r22
    25cc:	ac 01       	movw	r20, r24
    25ce:	60 e0       	ldi	r22, 0x00	; 0
    25d0:	70 e0       	ldi	r23, 0x00	; 0
    25d2:	80 e2       	ldi	r24, 0x20	; 32
    25d4:	91 e4       	ldi	r25, 0x41	; 65
    25d6:	0e 94 d1 28 	call	0x51a2	; 0x51a2 <pow>
    25da:	22 ee       	ldi	r18, 0xE2	; 226
    25dc:	39 eb       	ldi	r19, 0xB9	; 185
    25de:	43 ec       	ldi	r20, 0xC3	; 195
    25e0:	50 e4       	ldi	r21, 0x40	; 64
    25e2:	0e 94 6e 28 	call	0x50dc	; 0x50dc <__mulsf3>
    25e6:	4b 01       	movw	r8, r22
    25e8:	5c 01       	movw	r10, r24
    25ea:	60 93 3b 03 	sts	0x033B, r22	; 0x80033b <Pws>
    25ee:	70 93 3c 03 	sts	0x033C, r23	; 0x80033c <Pws+0x1>
    25f2:	80 93 3d 03 	sts	0x033D, r24	; 0x80033d <Pws+0x2>
    25f6:	90 93 3e 03 	sts	0x033E, r25	; 0x80033e <Pws+0x3>
    25fa:	80 91 0a 03 	lds	r24, 0x030A	; 0x80030a <RH_Tuned>
    25fe:	90 91 0b 03 	lds	r25, 0x030B	; 0x80030b <RH_Tuned+0x1>
    2602:	a0 91 0c 03 	lds	r26, 0x030C	; 0x80030c <RH_Tuned+0x2>
    2606:	b0 91 0d 03 	lds	r27, 0x030D	; 0x80030d <RH_Tuned+0x3>
    260a:	89 83       	std	Y+1, r24	; 0x01
    260c:	9a 83       	std	Y+2, r25	; 0x02
    260e:	ab 83       	std	Y+3, r26	; 0x03
    2610:	bc 83       	std	Y+4, r27	; 0x04
    2612:	9c 01       	movw	r18, r24
    2614:	ad 01       	movw	r20, r26
    2616:	c5 01       	movw	r24, r10
    2618:	b4 01       	movw	r22, r8
    261a:	0e 94 6e 28 	call	0x50dc	; 0x50dc <__mulsf3>
    261e:	2a e0       	ldi	r18, 0x0A	; 10
    2620:	37 ed       	ldi	r19, 0xD7	; 215
    2622:	43 e2       	ldi	r20, 0x23	; 35
    2624:	5c e3       	ldi	r21, 0x3C	; 60
    2626:	0e 94 6e 28 	call	0x50dc	; 0x50dc <__mulsf3>
    262a:	6b 01       	movw	r12, r22
    262c:	7c 01       	movw	r14, r24
    262e:	60 93 37 03 	sts	0x0337, r22	; 0x800337 <Pw>
    2632:	70 93 38 03 	sts	0x0338, r23	; 0x800338 <Pw+0x1>
    2636:	80 93 39 03 	sts	0x0339, r24	; 0x800339 <Pw+0x2>
    263a:	90 93 3a 03 	sts	0x033A, r25	; 0x80033a <Pw+0x3>
    263e:	22 ee       	ldi	r18, 0xE2	; 226
    2640:	39 eb       	ldi	r19, 0xB9	; 185
    2642:	43 ec       	ldi	r20, 0xC3	; 195
    2644:	50 e4       	ldi	r21, 0x40	; 64
    2646:	0e 94 d4 26 	call	0x4da8	; 0x4da8 <__divsf3>
    264a:	0e 94 23 28 	call	0x5046	; 0x5046 <log10>
    264e:	9b 01       	movw	r18, r22
    2650:	ac 01       	movw	r20, r24
    2652:	62 ea       	ldi	r22, 0xA2	; 162
    2654:	7c ee       	ldi	r23, 0xEC	; 236
    2656:	82 ef       	ldi	r24, 0xF2	; 242
    2658:	90 e4       	ldi	r25, 0x40	; 64
    265a:	0e 94 d4 26 	call	0x4da8	; 0x4da8 <__divsf3>
    265e:	20 e0       	ldi	r18, 0x00	; 0
    2660:	30 e0       	ldi	r19, 0x00	; 0
    2662:	40 e8       	ldi	r20, 0x80	; 128
    2664:	5f e3       	ldi	r21, 0x3F	; 63
    2666:	0e 94 6b 26 	call	0x4cd6	; 0x4cd6 <__subsf3>
    266a:	9b 01       	movw	r18, r22
    266c:	ac 01       	movw	r20, r24
    266e:	6f ee       	ldi	r22, 0xEF	; 239
    2670:	79 eb       	ldi	r23, 0xB9	; 185
    2672:	80 e7       	ldi	r24, 0x70	; 112
    2674:	93 e4       	ldi	r25, 0x43	; 67
    2676:	0e 94 d4 26 	call	0x4da8	; 0x4da8 <__divsf3>
    267a:	2b 01       	movw	r4, r22
    267c:	3c 01       	movw	r6, r24
    267e:	20 e0       	ldi	r18, 0x00	; 0
    2680:	30 e0       	ldi	r19, 0x00	; 0
    2682:	42 e8       	ldi	r20, 0x82	; 130
    2684:	52 ec       	ldi	r21, 0xC2	; 194
    2686:	0e 94 d0 26 	call	0x4da0	; 0x4da0 <__cmpsf2>
    268a:	87 fd       	sbrc	r24, 7
    268c:	09 c0       	rjmp	.+18     	; 0x26a0 <_Z11getDewPointv+0x1b6>
    268e:	40 92 33 03 	sts	0x0333, r4	; 0x800333 <dewPoint>
    2692:	50 92 34 03 	sts	0x0334, r5	; 0x800334 <dewPoint+0x1>
    2696:	60 92 35 03 	sts	0x0335, r6	; 0x800335 <dewPoint+0x2>
    269a:	70 92 36 03 	sts	0x0336, r7	; 0x800336 <dewPoint+0x3>
    269e:	0c c0       	rjmp	.+24     	; 0x26b8 <_Z11getDewPointv+0x1ce>
    26a0:	80 e0       	ldi	r24, 0x00	; 0
    26a2:	90 e0       	ldi	r25, 0x00	; 0
    26a4:	a2 e8       	ldi	r26, 0x82	; 130
    26a6:	b2 ec       	ldi	r27, 0xC2	; 194
    26a8:	80 93 33 03 	sts	0x0333, r24	; 0x800333 <dewPoint>
    26ac:	90 93 34 03 	sts	0x0334, r25	; 0x800334 <dewPoint+0x1>
    26b0:	a0 93 35 03 	sts	0x0335, r26	; 0x800335 <dewPoint+0x2>
    26b4:	b0 93 36 03 	sts	0x0336, r27	; 0x800336 <dewPoint+0x3>
    26b8:	20 91 33 03 	lds	r18, 0x0333	; 0x800333 <dewPoint>
    26bc:	30 91 34 03 	lds	r19, 0x0334	; 0x800334 <dewPoint+0x1>
    26c0:	40 91 35 03 	lds	r20, 0x0335	; 0x800335 <dewPoint+0x2>
    26c4:	50 91 36 03 	lds	r21, 0x0336	; 0x800336 <dewPoint+0x3>
    26c8:	6a ee       	ldi	r22, 0xEA	; 234
    26ca:	7d e3       	ldi	r23, 0x3D	; 61
    26cc:	85 e1       	ldi	r24, 0x15	; 21
    26ce:	9c e3       	ldi	r25, 0x3C	; 60
    26d0:	0e 94 6b 26 	call	0x4cd6	; 0x4cd6 <__subsf3>
    26d4:	20 e8       	ldi	r18, 0x80	; 128
    26d6:	3d e0       	ldi	r19, 0x0D	; 13
    26d8:	48 e8       	ldi	r20, 0x88	; 136
    26da:	5b e3       	ldi	r21, 0x3B	; 59
    26dc:	0e 94 6e 28 	call	0x50dc	; 0x50dc <__mulsf3>
    26e0:	9b 01       	movw	r18, r22
    26e2:	ac 01       	movw	r20, r24
    26e4:	6d e4       	ldi	r22, 0x4D	; 77
    26e6:	7e e9       	ldi	r23, 0x9E	; 158
    26e8:	84 ea       	ldi	r24, 0xA4	; 164
    26ea:	9f e3       	ldi	r25, 0x3F	; 63
    26ec:	0e 94 6b 26 	call	0x4cd6	; 0x4cd6 <__subsf3>
    26f0:	0e 94 21 29 	call	0x5242	; 0x5242 <sqrt>
    26f4:	27 eb       	ldi	r18, 0xB7	; 183
    26f6:	38 e2       	ldi	r19, 0x28	; 40
    26f8:	41 e9       	ldi	r20, 0x91	; 145
    26fa:	5f e3       	ldi	r21, 0x3F	; 63
    26fc:	0e 94 6b 26 	call	0x4cd6	; 0x4cd6 <__subsf3>
    2700:	20 e8       	ldi	r18, 0x80	; 128
    2702:	3d e0       	ldi	r19, 0x0D	; 13
    2704:	48 e0       	ldi	r20, 0x08	; 8
    2706:	5b e3       	ldi	r21, 0x3B	; 59
    2708:	0e 94 d4 26 	call	0x4da8	; 0x4da8 <__divsf3>
    270c:	2b 01       	movw	r4, r22
    270e:	3c 01       	movw	r6, r24
    2710:	20 e0       	ldi	r18, 0x00	; 0
    2712:	30 e0       	ldi	r19, 0x00	; 0
    2714:	a9 01       	movw	r20, r18
    2716:	0e 94 1f 28 	call	0x503e	; 0x503e <__gesf2>
    271a:	18 16       	cp	r1, r24
    271c:	4c f0       	brlt	.+18     	; 0x2730 <_Z11getDewPointv+0x246>
    271e:	40 92 1b 03 	sts	0x031B, r4	; 0x80031b <frostPoint>
    2722:	50 92 1c 03 	sts	0x031C, r5	; 0x80031c <frostPoint+0x1>
    2726:	60 92 1d 03 	sts	0x031D, r6	; 0x80031d <frostPoint+0x2>
    272a:	70 92 1e 03 	sts	0x031E, r7	; 0x80031e <frostPoint+0x3>
    272e:	08 c0       	rjmp	.+16     	; 0x2740 <_Z11getDewPointv+0x256>
    2730:	10 92 1b 03 	sts	0x031B, r1	; 0x80031b <frostPoint>
    2734:	10 92 1c 03 	sts	0x031C, r1	; 0x80031c <frostPoint+0x1>
    2738:	10 92 1d 03 	sts	0x031D, r1	; 0x80031d <frostPoint+0x2>
    273c:	10 92 1e 03 	sts	0x031E, r1	; 0x80031e <frostPoint+0x3>
    2740:	40 90 6b 03 	lds	r4, 0x036B	; 0x80036b <pressure>
    2744:	50 90 6c 03 	lds	r5, 0x036C	; 0x80036c <pressure+0x1>
    2748:	60 90 6d 03 	lds	r6, 0x036D	; 0x80036d <pressure+0x2>
    274c:	70 90 6e 03 	lds	r7, 0x036E	; 0x80036e <pressure+0x3>
    2750:	20 e0       	ldi	r18, 0x00	; 0
    2752:	30 e0       	ldi	r19, 0x00	; 0
    2754:	48 ec       	ldi	r20, 0xC8	; 200
    2756:	52 e4       	ldi	r21, 0x42	; 66
    2758:	69 81       	ldd	r22, Y+1	; 0x01
    275a:	7a 81       	ldd	r23, Y+2	; 0x02
    275c:	8b 81       	ldd	r24, Y+3	; 0x03
    275e:	9c 81       	ldd	r25, Y+4	; 0x04
    2760:	0e 94 6e 28 	call	0x50dc	; 0x50dc <__mulsf3>
    2764:	a3 01       	movw	r20, r6
    2766:	92 01       	movw	r18, r4
    2768:	0e 94 d4 26 	call	0x4da8	; 0x4da8 <__divsf3>
    276c:	9b 01       	movw	r18, r22
    276e:	ac 01       	movw	r20, r24
    2770:	60 93 1f 03 	sts	0x031F, r22	; 0x80031f <RH_RH_Atm>
    2774:	70 93 20 03 	sts	0x0320, r23	; 0x800320 <RH_RH_Atm+0x1>
    2778:	80 93 21 03 	sts	0x0321, r24	; 0x800321 <RH_RH_Atm+0x2>
    277c:	90 93 22 03 	sts	0x0322, r25	; 0x800322 <RH_RH_Atm+0x3>
    2780:	c5 01       	movw	r24, r10
    2782:	b4 01       	movw	r22, r8
    2784:	0e 94 6e 28 	call	0x50dc	; 0x50dc <__mulsf3>
    2788:	2a e0       	ldi	r18, 0x0A	; 10
    278a:	37 ed       	ldi	r19, 0xD7	; 215
    278c:	43 e2       	ldi	r20, 0x23	; 35
    278e:	5c e3       	ldi	r21, 0x3C	; 60
    2790:	0e 94 6e 28 	call	0x50dc	; 0x50dc <__mulsf3>
    2794:	22 ee       	ldi	r18, 0xE2	; 226
    2796:	39 eb       	ldi	r19, 0xB9	; 185
    2798:	43 ec       	ldi	r20, 0xC3	; 195
    279a:	50 e4       	ldi	r21, 0x40	; 64
    279c:	0e 94 d4 26 	call	0x4da8	; 0x4da8 <__divsf3>
    27a0:	0e 94 23 28 	call	0x5046	; 0x5046 <log10>
    27a4:	9b 01       	movw	r18, r22
    27a6:	ac 01       	movw	r20, r24
    27a8:	62 ea       	ldi	r22, 0xA2	; 162
    27aa:	7c ee       	ldi	r23, 0xEC	; 236
    27ac:	82 ef       	ldi	r24, 0xF2	; 242
    27ae:	90 e4       	ldi	r25, 0x40	; 64
    27b0:	0e 94 d4 26 	call	0x4da8	; 0x4da8 <__divsf3>
    27b4:	20 e0       	ldi	r18, 0x00	; 0
    27b6:	30 e0       	ldi	r19, 0x00	; 0
    27b8:	40 e8       	ldi	r20, 0x80	; 128
    27ba:	5f e3       	ldi	r21, 0x3F	; 63
    27bc:	0e 94 6b 26 	call	0x4cd6	; 0x4cd6 <__subsf3>
    27c0:	9b 01       	movw	r18, r22
    27c2:	ac 01       	movw	r20, r24
    27c4:	6f ee       	ldi	r22, 0xEF	; 239
    27c6:	79 eb       	ldi	r23, 0xB9	; 185
    27c8:	80 e7       	ldi	r24, 0x70	; 112
    27ca:	93 e4       	ldi	r25, 0x43	; 67
    27cc:	0e 94 d4 26 	call	0x4da8	; 0x4da8 <__divsf3>
    27d0:	9b 01       	movw	r18, r22
    27d2:	ac 01       	movw	r20, r24
    27d4:	60 93 2f 03 	sts	0x032F, r22	; 0x80032f <dewPointAtm>
    27d8:	70 93 30 03 	sts	0x0330, r23	; 0x800330 <dewPointAtm+0x1>
    27dc:	80 93 31 03 	sts	0x0331, r24	; 0x800331 <dewPointAtm+0x2>
    27e0:	90 93 32 03 	sts	0x0332, r25	; 0x800332 <dewPointAtm+0x3>
    27e4:	6a ee       	ldi	r22, 0xEA	; 234
    27e6:	7d e3       	ldi	r23, 0x3D	; 61
    27e8:	85 e1       	ldi	r24, 0x15	; 21
    27ea:	9c e3       	ldi	r25, 0x3C	; 60
    27ec:	0e 94 6b 26 	call	0x4cd6	; 0x4cd6 <__subsf3>
    27f0:	20 e8       	ldi	r18, 0x80	; 128
    27f2:	3d e0       	ldi	r19, 0x0D	; 13
    27f4:	48 e8       	ldi	r20, 0x88	; 136
    27f6:	5b e3       	ldi	r21, 0x3B	; 59
    27f8:	0e 94 6e 28 	call	0x50dc	; 0x50dc <__mulsf3>
    27fc:	9b 01       	movw	r18, r22
    27fe:	ac 01       	movw	r20, r24
    2800:	6d e4       	ldi	r22, 0x4D	; 77
    2802:	7e e9       	ldi	r23, 0x9E	; 158
    2804:	84 ea       	ldi	r24, 0xA4	; 164
    2806:	9f e3       	ldi	r25, 0x3F	; 63
    2808:	0e 94 6b 26 	call	0x4cd6	; 0x4cd6 <__subsf3>
    280c:	0e 94 21 29 	call	0x5242	; 0x5242 <sqrt>
    2810:	27 eb       	ldi	r18, 0xB7	; 183
    2812:	38 e2       	ldi	r19, 0x28	; 40
    2814:	41 e9       	ldi	r20, 0x91	; 145
    2816:	5f e3       	ldi	r21, 0x3F	; 63
    2818:	0e 94 6b 26 	call	0x4cd6	; 0x4cd6 <__subsf3>
    281c:	20 e8       	ldi	r18, 0x80	; 128
    281e:	3d e0       	ldi	r19, 0x0D	; 13
    2820:	48 e0       	ldi	r20, 0x08	; 8
    2822:	5b e3       	ldi	r21, 0x3B	; 59
    2824:	0e 94 d4 26 	call	0x4da8	; 0x4da8 <__divsf3>
    2828:	4b 01       	movw	r8, r22
    282a:	5c 01       	movw	r10, r24
    282c:	20 e0       	ldi	r18, 0x00	; 0
    282e:	30 e0       	ldi	r19, 0x00	; 0
    2830:	a9 01       	movw	r20, r18
    2832:	0e 94 1f 28 	call	0x503e	; 0x503e <__gesf2>
    2836:	18 16       	cp	r1, r24
    2838:	4c f0       	brlt	.+18     	; 0x284c <_Z11getDewPointv+0x362>
    283a:	80 92 2b 03 	sts	0x032B, r8	; 0x80032b <frostPointAtm>
    283e:	90 92 2c 03 	sts	0x032C, r9	; 0x80032c <frostPointAtm+0x1>
    2842:	a0 92 2d 03 	sts	0x032D, r10	; 0x80032d <frostPointAtm+0x2>
    2846:	b0 92 2e 03 	sts	0x032E, r11	; 0x80032e <frostPointAtm+0x3>
    284a:	08 c0       	rjmp	.+16     	; 0x285c <_Z11getDewPointv+0x372>
    284c:	10 92 2b 03 	sts	0x032B, r1	; 0x80032b <frostPointAtm>
    2850:	10 92 2c 03 	sts	0x032C, r1	; 0x80032c <frostPointAtm+0x1>
    2854:	10 92 2d 03 	sts	0x032D, r1	; 0x80032d <frostPointAtm+0x2>
    2858:	10 92 2e 03 	sts	0x032E, r1	; 0x80032e <frostPointAtm+0x3>
    285c:	20 e0       	ldi	r18, 0x00	; 0
    285e:	34 e2       	ldi	r19, 0x24	; 36
    2860:	44 e7       	ldi	r20, 0x74	; 116
    2862:	59 e4       	ldi	r21, 0x49	; 73
    2864:	c7 01       	movw	r24, r14
    2866:	b6 01       	movw	r22, r12
    2868:	0e 94 6e 28 	call	0x50dc	; 0x50dc <__mulsf3>
    286c:	4b 01       	movw	r8, r22
    286e:	5c 01       	movw	r10, r24
    2870:	20 e0       	ldi	r18, 0x00	; 0
    2872:	30 e0       	ldi	r19, 0x00	; 0
    2874:	40 e2       	ldi	r20, 0x20	; 32
    2876:	51 e4       	ldi	r21, 0x41	; 65
    2878:	c3 01       	movw	r24, r6
    287a:	b2 01       	movw	r22, r4
    287c:	0e 94 6e 28 	call	0x50dc	; 0x50dc <__mulsf3>
    2880:	a7 01       	movw	r20, r14
    2882:	96 01       	movw	r18, r12
    2884:	0e 94 6b 26 	call	0x4cd6	; 0x4cd6 <__subsf3>
    2888:	9b 01       	movw	r18, r22
    288a:	ac 01       	movw	r20, r24
    288c:	c5 01       	movw	r24, r10
    288e:	b4 01       	movw	r22, r8
    2890:	0e 94 d4 26 	call	0x4da8	; 0x4da8 <__divsf3>
    2894:	60 93 27 03 	sts	0x0327, r22	; 0x800327 <PPMv>
    2898:	70 93 28 03 	sts	0x0328, r23	; 0x800328 <PPMv+0x1>
    289c:	80 93 29 03 	sts	0x0329, r24	; 0x800329 <PPMv+0x2>
    28a0:	90 93 2a 03 	sts	0x032A, r25	; 0x80032a <PPMv+0x3>
    28a4:	2b e4       	ldi	r18, 0x4B	; 75
    28a6:	3f e1       	ldi	r19, 0x1F	; 31
    28a8:	40 e9       	ldi	r20, 0x90	; 144
    28aa:	51 e4       	ldi	r21, 0x41	; 65
    28ac:	0e 94 6e 28 	call	0x50dc	; 0x50dc <__mulsf3>
    28b0:	2c e5       	ldi	r18, 0x5C	; 92
    28b2:	3f e0       	ldi	r19, 0x0F	; 15
    28b4:	42 e1       	ldi	r20, 0x12	; 18
    28b6:	53 e4       	ldi	r21, 0x43	; 67
    28b8:	0e 94 d4 26 	call	0x4da8	; 0x4da8 <__divsf3>
    28bc:	60 93 23 03 	sts	0x0323, r22	; 0x800323 <PPMm>
    28c0:	70 93 24 03 	sts	0x0324, r23	; 0x800324 <PPMm+0x1>
    28c4:	80 93 25 03 	sts	0x0325, r24	; 0x800325 <PPMm+0x2>
    28c8:	90 93 26 03 	sts	0x0326, r25	; 0x800326 <PPMm+0x3>
    28cc:	0f 90       	pop	r0
    28ce:	0f 90       	pop	r0
    28d0:	0f 90       	pop	r0
    28d2:	0f 90       	pop	r0
    28d4:	df 91       	pop	r29
    28d6:	cf 91       	pop	r28
    28d8:	ff 90       	pop	r15
    28da:	ef 90       	pop	r14
    28dc:	df 90       	pop	r13
    28de:	cf 90       	pop	r12
    28e0:	bf 90       	pop	r11
    28e2:	af 90       	pop	r10
    28e4:	9f 90       	pop	r9
    28e6:	8f 90       	pop	r8
    28e8:	7f 90       	pop	r7
    28ea:	6f 90       	pop	r6
    28ec:	5f 90       	pop	r5
    28ee:	4f 90       	pop	r4
    28f0:	08 95       	ret

000028f2 <_Z24get_modbus_slave_addressv>:
    28f2:	e0 e0       	ldi	r30, 0x00	; 0
    28f4:	f7 e7       	ldi	r31, 0x77	; 119
    28f6:	84 91       	lpm	r24, Z
    28f8:	9f ef       	ldi	r25, 0xFF	; 255
    28fa:	98 0f       	add	r25, r24
    28fc:	9e 3f       	cpi	r25, 0xFE	; 254
    28fe:	08 f0       	brcs	.+2      	; 0x2902 <_Z24get_modbus_slave_addressv+0x10>
    2900:	81 e0       	ldi	r24, 0x01	; 1
    2902:	08 95       	ret

00002904 <setup>:
    2904:	cf 93       	push	r28
    2906:	a8 95       	wdr
    2908:	9f e0       	ldi	r25, 0x0F	; 15
    290a:	88 e1       	ldi	r24, 0x18	; 24
    290c:	0f b6       	in	r0, 0x3f	; 63
    290e:	f8 94       	cli
    2910:	a8 95       	wdr
    2912:	80 93 60 00 	sts	0x0060, r24	; 0x800060 <__TEXT_REGION_LENGTH__+0x7f8060>
    2916:	0f be       	out	0x3f, r0	; 63
    2918:	90 93 60 00 	sts	0x0060, r25	; 0x800060 <__TEXT_REGION_LENGTH__+0x7f8060>
    291c:	62 e3       	ldi	r22, 0x32	; 50
    291e:	70 e0       	ldi	r23, 0x00	; 0
    2920:	80 e0       	ldi	r24, 0x00	; 0
    2922:	90 e0       	ldi	r25, 0x00	; 0
    2924:	0e 94 a5 1f 	call	0x3f4a	; 0x3f4a <delay>
    2928:	5e dd       	rcall	.-1348   	; 0x23e6 <_Z8settingsv>
    292a:	61 e0       	ldi	r22, 0x01	; 1
    292c:	82 e0       	ldi	r24, 0x02	; 2
    292e:	0e 94 75 20 	call	0x40ea	; 0x40ea <pinMode>
    2932:	60 e0       	ldi	r22, 0x00	; 0
    2934:	82 e0       	ldi	r24, 0x02	; 2
    2936:	0e 94 b1 20 	call	0x4162	; 0x4162 <digitalWrite>
    293a:	61 e0       	ldi	r22, 0x01	; 1
    293c:	83 e0       	ldi	r24, 0x03	; 3
    293e:	0e 94 75 20 	call	0x40ea	; 0x40ea <pinMode>
    2942:	61 e0       	ldi	r22, 0x01	; 1
    2944:	85 e0       	ldi	r24, 0x05	; 5
    2946:	0e 94 75 20 	call	0x40ea	; 0x40ea <pinMode>
    294a:	61 e0       	ldi	r22, 0x01	; 1
    294c:	86 e0       	ldi	r24, 0x06	; 6
    294e:	0e 94 75 20 	call	0x40ea	; 0x40ea <pinMode>
    2952:	60 e0       	ldi	r22, 0x00	; 0
    2954:	86 e0       	ldi	r24, 0x06	; 6
    2956:	0e 94 b1 20 	call	0x4162	; 0x4162 <digitalWrite>
    295a:	0e 94 88 04 	call	0x910	; 0x910 <_Z17initCommunicationv>
    295e:	e0 ec       	ldi	r30, 0xC0	; 192
    2960:	f0 e0       	ldi	r31, 0x00	; 0
    2962:	80 81       	ld	r24, Z
    2964:	80 64       	ori	r24, 0x40	; 64
    2966:	80 83       	st	Z, r24
    2968:	cf b7       	in	r28, 0x3f	; 63
    296a:	f8 94       	cli
    296c:	c2 df       	rcall	.-124    	; 0x28f2 <_Z24get_modbus_slave_addressv>
    296e:	80 93 8d 03 	sts	0x038D, r24	; 0x80038d <slaveAddr>
    2972:	5a 9a       	sbi	0x0b, 2	; 11
    2974:	cf bf       	out	0x3f, r28	; 63
    2976:	0e 94 88 04 	call	0x910	; 0x910 <_Z17initCommunicationv>
    297a:	62 e3       	ldi	r22, 0x32	; 50
    297c:	70 e0       	ldi	r23, 0x00	; 0
    297e:	80 e0       	ldi	r24, 0x00	; 0
    2980:	90 e0       	ldi	r25, 0x00	; 0
    2982:	0e 94 a5 1f 	call	0x3f4a	; 0x3f4a <delay>
    2986:	60 91 8d 03 	lds	r22, 0x038D	; 0x80038d <slaveAddr>
    298a:	8f e9       	ldi	r24, 0x9F	; 159
    298c:	93 e0       	ldi	r25, 0x03	; 3
    298e:	0f d4       	rcall	.+2078   	; 0x31ae <_ZN14HardwareSerial5writeEh>
    2990:	60 91 8d 03 	lds	r22, 0x038D	; 0x80038d <slaveAddr>
    2994:	8f e9       	ldi	r24, 0x9F	; 159
    2996:	93 e0       	ldi	r25, 0x03	; 3
    2998:	0a d4       	rcall	.+2068   	; 0x31ae <_ZN14HardwareSerial5writeEh>
    299a:	62 e3       	ldi	r22, 0x32	; 50
    299c:	70 e0       	ldi	r23, 0x00	; 0
    299e:	80 e0       	ldi	r24, 0x00	; 0
    29a0:	90 e0       	ldi	r25, 0x00	; 0
    29a2:	0e 94 a5 1f 	call	0x3f4a	; 0x3f4a <delay>
    29a6:	82 ec       	ldi	r24, 0xC2	; 194
    29a8:	94 e0       	ldi	r25, 0x04	; 4
    29aa:	0e 94 94 1e 	call	0x3d28	; 0x3d28 <_ZN7TwoWire5beginEv>
    29ae:	40 ea       	ldi	r20, 0xA0	; 160
    29b0:	56 e8       	ldi	r21, 0x86	; 134
    29b2:	61 e0       	ldi	r22, 0x01	; 1
    29b4:	70 e0       	ldi	r23, 0x00	; 0
    29b6:	82 ec       	ldi	r24, 0xC2	; 194
    29b8:	94 e0       	ldi	r25, 0x04	; 4
    29ba:	0e 94 a3 1e 	call	0x3d46	; 0x3d46 <_ZN7TwoWire8setClockEm>
    29be:	4a e0       	ldi	r20, 0x0A	; 10
    29c0:	50 e0       	ldi	r21, 0x00	; 0
    29c2:	60 e0       	ldi	r22, 0x00	; 0
    29c4:	70 e0       	ldi	r23, 0x00	; 0
    29c6:	82 ec       	ldi	r24, 0xC2	; 194
    29c8:	94 e0       	ldi	r25, 0x04	; 4
    29ca:	ba d5       	rcall	.+2932   	; 0x3540 <_ZN6Stream10setTimeoutEm>
    29cc:	0e 94 74 1f 	call	0x3ee8	; 0x3ee8 <millis>
    29d0:	60 93 91 03 	sts	0x0391, r22	; 0x800391 <IGAS_mb_X+0x3>
    29d4:	70 93 92 03 	sts	0x0392, r23	; 0x800392 <IGAS_mb_X+0x4>
    29d8:	80 93 93 03 	sts	0x0393, r24	; 0x800393 <IGAS_mb_X+0x5>
    29dc:	90 93 94 03 	sts	0x0394, r25	; 0x800394 <IGAS_mb_X+0x6>
    29e0:	a8 95       	wdr
    29e2:	cf 91       	pop	r28
    29e4:	08 95       	ret

000029e6 <_Z6getSHTv>:
    29e6:	0f 93       	push	r16
    29e8:	1f 93       	push	r17
    29ea:	cf 93       	push	r28
    29ec:	df 93       	push	r29
    29ee:	64 e4       	ldi	r22, 0x44	; 68
    29f0:	70 e0       	ldi	r23, 0x00	; 0
    29f2:	82 ec       	ldi	r24, 0xC2	; 194
    29f4:	94 e0       	ldi	r25, 0x04	; 4
    29f6:	0e 94 b0 1e 	call	0x3d60	; 0x3d60 <_ZN7TwoWire17beginTransmissionEi>
    29fa:	64 e2       	ldi	r22, 0x24	; 36
    29fc:	82 ec       	ldi	r24, 0xC2	; 194
    29fe:	94 e0       	ldi	r25, 0x04	; 4
    2a00:	0e 94 56 1e 	call	0x3cac	; 0x3cac <_ZN7TwoWire5writeEh>
    2a04:	60 e0       	ldi	r22, 0x00	; 0
    2a06:	82 ec       	ldi	r24, 0xC2	; 194
    2a08:	94 e0       	ldi	r25, 0x04	; 4
    2a0a:	0e 94 56 1e 	call	0x3cac	; 0x3cac <_ZN7TwoWire5writeEh>
    2a0e:	82 ec       	ldi	r24, 0xC2	; 194
    2a10:	94 e0       	ldi	r25, 0x04	; 4
    2a12:	0e 94 25 1f 	call	0x3e4a	; 0x3e4a <_ZN7TwoWire15endTransmissionEv>
    2a16:	80 93 87 03 	sts	0x0387, r24	; 0x800387 <shtSensorLost>
    2a1a:	86 e9       	ldi	r24, 0x96	; 150
    2a1c:	90 e0       	ldi	r25, 0x00	; 0
    2a1e:	0e 94 c9 1f 	call	0x3f92	; 0x3f92 <delayMicroseconds>
    2a22:	80 91 87 03 	lds	r24, 0x0387	; 0x800387 <shtSensorLost>
    2a26:	81 11       	cpse	r24, r1
    2a28:	7a c0       	rjmp	.+244    	; 0x2b1e <_Z6getSHTv+0x138>
    2a2a:	46 e0       	ldi	r20, 0x06	; 6
    2a2c:	64 e4       	ldi	r22, 0x44	; 68
    2a2e:	82 ec       	ldi	r24, 0xC2	; 194
    2a30:	94 e0       	ldi	r25, 0x04	; 4
    2a32:	0e 94 23 1f 	call	0x3e46	; 0x3e46 <_ZN7TwoWire11requestFromEhh>
    2a36:	ce e4       	ldi	r28, 0x4E	; 78
    2a38:	d1 e0       	ldi	r29, 0x01	; 1
    2a3a:	04 e5       	ldi	r16, 0x54	; 84
    2a3c:	11 e0       	ldi	r17, 0x01	; 1
    2a3e:	82 ec       	ldi	r24, 0xC2	; 194
    2a40:	94 e0       	ldi	r25, 0x04	; 4
    2a42:	0e 94 d0 1d 	call	0x3ba0	; 0x3ba0 <_ZN7TwoWire4readEv>
    2a46:	89 93       	st	Y+, r24
    2a48:	0c 17       	cp	r16, r28
    2a4a:	1d 07       	cpc	r17, r29
    2a4c:	c1 f7       	brne	.-16     	; 0x2a3e <_Z6getSHTv+0x58>
    2a4e:	c0 91 50 01 	lds	r28, 0x0150	; 0x800150 <__data_end+0x2>
    2a52:	62 e0       	ldi	r22, 0x02	; 2
    2a54:	8e e4       	ldi	r24, 0x4E	; 78
    2a56:	91 e0       	ldi	r25, 0x01	; 1
    2a58:	0e 94 c7 03 	call	0x78e	; 0x78e <_Z4crc8PKhh>
    2a5c:	c8 17       	cp	r28, r24
    2a5e:	21 f0       	breq	.+8      	; 0x2a68 <_Z6getSHTv+0x82>
    2a60:	88 e5       	ldi	r24, 0x58	; 88
    2a62:	80 93 87 03 	sts	0x0387, r24	; 0x800387 <shtSensorLost>
    2a66:	5b c0       	rjmp	.+182    	; 0x2b1e <_Z6getSHTv+0x138>
    2a68:	c0 91 53 01 	lds	r28, 0x0153	; 0x800153 <__data_end+0x5>
    2a6c:	62 e0       	ldi	r22, 0x02	; 2
    2a6e:	81 e5       	ldi	r24, 0x51	; 81
    2a70:	91 e0       	ldi	r25, 0x01	; 1
    2a72:	0e 94 c7 03 	call	0x78e	; 0x78e <_Z4crc8PKhh>
    2a76:	c8 13       	cpse	r28, r24
    2a78:	f3 cf       	rjmp	.-26     	; 0x2a60 <_Z6getSHTv+0x7a>
    2a7a:	60 91 4e 01 	lds	r22, 0x014E	; 0x80014e <__data_end>
    2a7e:	70 e0       	ldi	r23, 0x00	; 0
    2a80:	76 2f       	mov	r23, r22
    2a82:	66 27       	eor	r22, r22
    2a84:	80 91 4f 01 	lds	r24, 0x014F	; 0x80014f <__data_end+0x1>
    2a88:	68 0f       	add	r22, r24
    2a8a:	71 1d       	adc	r23, r1
    2a8c:	70 93 02 03 	sts	0x0302, r23	; 0x800302 <_rawTemperature+0x1>
    2a90:	60 93 01 03 	sts	0x0301, r22	; 0x800301 <_rawTemperature>
    2a94:	80 91 51 01 	lds	r24, 0x0151	; 0x800151 <__data_end+0x3>
    2a98:	90 e0       	ldi	r25, 0x00	; 0
    2a9a:	98 2f       	mov	r25, r24
    2a9c:	88 27       	eor	r24, r24
    2a9e:	20 91 52 01 	lds	r18, 0x0152	; 0x800152 <__data_end+0x4>
    2aa2:	ec 01       	movw	r28, r24
    2aa4:	c2 0f       	add	r28, r18
    2aa6:	d1 1d       	adc	r29, r1
    2aa8:	d0 93 04 03 	sts	0x0304, r29	; 0x800304 <_rawHumidity+0x1>
    2aac:	c0 93 03 03 	sts	0x0303, r28	; 0x800303 <_rawHumidity>
    2ab0:	80 e0       	ldi	r24, 0x00	; 0
    2ab2:	90 e0       	ldi	r25, 0x00	; 0
    2ab4:	0e 94 6d 27 	call	0x4eda	; 0x4eda <__floatunsisf>
    2ab8:	20 e0       	ldi	r18, 0x00	; 0
    2aba:	30 e0       	ldi	r19, 0x00	; 0
    2abc:	4f e2       	ldi	r20, 0x2F	; 47
    2abe:	53 e4       	ldi	r21, 0x43	; 67
    2ac0:	0e 94 6e 28 	call	0x50dc	; 0x50dc <__mulsf3>
    2ac4:	20 e0       	ldi	r18, 0x00	; 0
    2ac6:	3f ef       	ldi	r19, 0xFF	; 255
    2ac8:	4f e7       	ldi	r20, 0x7F	; 127
    2aca:	57 e4       	ldi	r21, 0x47	; 71
    2acc:	0e 94 d4 26 	call	0x4da8	; 0x4da8 <__divsf3>
    2ad0:	20 e0       	ldi	r18, 0x00	; 0
    2ad2:	30 e0       	ldi	r19, 0x00	; 0
    2ad4:	44 e3       	ldi	r20, 0x34	; 52
    2ad6:	52 e4       	ldi	r21, 0x42	; 66
    2ad8:	0e 94 6b 26 	call	0x4cd6	; 0x4cd6 <__subsf3>
    2adc:	60 93 06 03 	sts	0x0306, r22	; 0x800306 <SHT_Temp_FL>
    2ae0:	70 93 07 03 	sts	0x0307, r23	; 0x800307 <SHT_Temp_FL+0x1>
    2ae4:	80 93 08 03 	sts	0x0308, r24	; 0x800308 <SHT_Temp_FL+0x2>
    2ae8:	90 93 09 03 	sts	0x0309, r25	; 0x800309 <SHT_Temp_FL+0x3>
    2aec:	be 01       	movw	r22, r28
    2aee:	80 e0       	ldi	r24, 0x00	; 0
    2af0:	90 e0       	ldi	r25, 0x00	; 0
    2af2:	0e 94 6d 27 	call	0x4eda	; 0x4eda <__floatunsisf>
    2af6:	20 e0       	ldi	r18, 0x00	; 0
    2af8:	30 e0       	ldi	r19, 0x00	; 0
    2afa:	48 ec       	ldi	r20, 0xC8	; 200
    2afc:	52 e4       	ldi	r21, 0x42	; 66
    2afe:	0e 94 6e 28 	call	0x50dc	; 0x50dc <__mulsf3>
    2b02:	20 e0       	ldi	r18, 0x00	; 0
    2b04:	3f ef       	ldi	r19, 0xFF	; 255
    2b06:	4f e7       	ldi	r20, 0x7F	; 127
    2b08:	57 e4       	ldi	r21, 0x47	; 71
    2b0a:	0e 94 d4 26 	call	0x4da8	; 0x4da8 <__divsf3>
    2b0e:	60 93 0e 03 	sts	0x030E, r22	; 0x80030e <SHT_RH_FL>
    2b12:	70 93 0f 03 	sts	0x030F, r23	; 0x80030f <SHT_RH_FL+0x1>
    2b16:	80 93 10 03 	sts	0x0310, r24	; 0x800310 <SHT_RH_FL+0x2>
    2b1a:	90 93 11 03 	sts	0x0311, r25	; 0x800311 <SHT_RH_FL+0x3>
    2b1e:	df 91       	pop	r29
    2b20:	cf 91       	pop	r28
    2b22:	1f 91       	pop	r17
    2b24:	0f 91       	pop	r16
    2b26:	08 95       	ret

00002b28 <_Z7getTianv>:
    2b28:	cf 93       	push	r28
    2b2a:	df 93       	push	r29
    2b2c:	60 91 00 01 	lds	r22, 0x0100	; 0x800100 <__DATA_REGION_ORIGIN__>
    2b30:	82 ec       	ldi	r24, 0xC2	; 194
    2b32:	94 e0       	ldi	r25, 0x04	; 4
    2b34:	0e 94 a6 1e 	call	0x3d4c	; 0x3d4c <_ZN7TwoWire17beginTransmissionEh>
    2b38:	60 e5       	ldi	r22, 0x50	; 80
    2b3a:	82 ec       	ldi	r24, 0xC2	; 194
    2b3c:	94 e0       	ldi	r25, 0x04	; 4
    2b3e:	0e 94 56 1e 	call	0x3cac	; 0x3cac <_ZN7TwoWire5writeEh>
    2b42:	82 ec       	ldi	r24, 0xC2	; 194
    2b44:	94 e0       	ldi	r25, 0x04	; 4
    2b46:	0e 94 25 1f 	call	0x3e4a	; 0x3e4a <_ZN7TwoWire15endTransmissionEv>
    2b4a:	80 93 6a 01 	sts	0x016A, r24	; 0x80016a <pressGaugeLost>
    2b4e:	81 11       	cpse	r24, r1
    2b50:	73 c0       	rjmp	.+230    	; 0x2c38 <_Z7getTianv+0x110>
    2b52:	44 e0       	ldi	r20, 0x04	; 4
    2b54:	60 91 00 01 	lds	r22, 0x0100	; 0x800100 <__DATA_REGION_ORIGIN__>
    2b58:	82 ec       	ldi	r24, 0xC2	; 194
    2b5a:	94 e0       	ldi	r25, 0x04	; 4
    2b5c:	0e 94 23 1f 	call	0x3e46	; 0x3e46 <_ZN7TwoWire11requestFromEhh>
    2b60:	c8 e5       	ldi	r28, 0x58	; 88
    2b62:	d1 e0       	ldi	r29, 0x01	; 1
    2b64:	82 ec       	ldi	r24, 0xC2	; 194
    2b66:	94 e0       	ldi	r25, 0x04	; 4
    2b68:	0e 94 d0 1d 	call	0x3ba0	; 0x3ba0 <_ZN7TwoWire4readEv>
    2b6c:	89 93       	st	Y+, r24
    2b6e:	81 e0       	ldi	r24, 0x01	; 1
    2b70:	cc 35       	cpi	r28, 0x5C	; 92
    2b72:	d8 07       	cpc	r29, r24
    2b74:	b9 f7       	brne	.-18     	; 0x2b64 <_Z7getTianv+0x3c>
    2b76:	60 91 58 01 	lds	r22, 0x0158	; 0x800158 <BufWT>
    2b7a:	6f 73       	andi	r22, 0x3F	; 63
    2b7c:	70 e0       	ldi	r23, 0x00	; 0
    2b7e:	76 2f       	mov	r23, r22
    2b80:	66 27       	eor	r22, r22
    2b82:	80 91 59 01 	lds	r24, 0x0159	; 0x800159 <BufWT+0x1>
    2b86:	68 2b       	or	r22, r24
    2b88:	70 93 00 03 	sts	0x0300, r23	; 0x800300 <RAW_pressureTian+0x1>
    2b8c:	60 93 ff 02 	sts	0x02FF, r22	; 0x8002ff <RAW_pressureTian>
    2b90:	66 56       	subi	r22, 0x66	; 102
    2b92:	76 40       	sbci	r23, 0x06	; 6
    2b94:	80 e0       	ldi	r24, 0x00	; 0
    2b96:	90 e0       	ldi	r25, 0x00	; 0
    2b98:	0e 94 6d 27 	call	0x4eda	; 0x4eda <__floatunsisf>
    2b9c:	23 e3       	ldi	r18, 0x33	; 51
    2b9e:	3a ef       	ldi	r19, 0xFA	; 250
    2ba0:	41 ed       	ldi	r20, 0xD1	; 209
    2ba2:	5a e3       	ldi	r21, 0x3A	; 58
    2ba4:	0e 94 6e 28 	call	0x50dc	; 0x50dc <__mulsf3>
    2ba8:	20 e0       	ldi	r18, 0x00	; 0
    2baa:	30 e0       	ldi	r19, 0x00	; 0
    2bac:	40 e8       	ldi	r20, 0x80	; 128
    2bae:	5f e3       	ldi	r21, 0x3F	; 63
    2bb0:	0e 94 6b 26 	call	0x4cd6	; 0x4cd6 <__subsf3>
    2bb4:	20 e0       	ldi	r18, 0x00	; 0
    2bb6:	30 e0       	ldi	r19, 0x00	; 0
    2bb8:	48 ec       	ldi	r20, 0xC8	; 200
    2bba:	52 e4       	ldi	r21, 0x42	; 66
    2bbc:	0e 94 6e 28 	call	0x50dc	; 0x50dc <__mulsf3>
    2bc0:	20 e0       	ldi	r18, 0x00	; 0
    2bc2:	30 e0       	ldi	r19, 0x00	; 0
    2bc4:	48 ec       	ldi	r20, 0xC8	; 200
    2bc6:	52 e4       	ldi	r21, 0x42	; 66
    2bc8:	0e 94 6c 26 	call	0x4cd8	; 0x4cd8 <__addsf3>
    2bcc:	60 93 f4 01 	sts	0x01F4, r22	; 0x8001f4 <pressureTian>
    2bd0:	70 93 f5 01 	sts	0x01F5, r23	; 0x8001f5 <pressureTian+0x1>
    2bd4:	80 93 f6 01 	sts	0x01F6, r24	; 0x8001f6 <pressureTian+0x2>
    2bd8:	90 93 f7 01 	sts	0x01F7, r25	; 0x8001f7 <pressureTian+0x3>
    2bdc:	60 91 5a 01 	lds	r22, 0x015A	; 0x80015a <BufWT+0x2>
    2be0:	88 e0       	ldi	r24, 0x08	; 8
    2be2:	68 9f       	mul	r22, r24
    2be4:	b0 01       	movw	r22, r0
    2be6:	11 24       	eor	r1, r1
    2be8:	80 91 5b 01 	lds	r24, 0x015B	; 0x80015b <BufWT+0x3>
    2bec:	82 95       	swap	r24
    2bee:	86 95       	lsr	r24
    2bf0:	87 70       	andi	r24, 0x07	; 7
    2bf2:	68 2b       	or	r22, r24
    2bf4:	70 93 fe 02 	sts	0x02FE, r23	; 0x8002fe <RAW_temperatureTian+0x1>
    2bf8:	60 93 fd 02 	sts	0x02FD, r22	; 0x8002fd <RAW_temperatureTian>
    2bfc:	80 e0       	ldi	r24, 0x00	; 0
    2bfe:	90 e0       	ldi	r25, 0x00	; 0
    2c00:	0e 94 6d 27 	call	0x4eda	; 0x4eda <__floatunsisf>
    2c04:	20 e0       	ldi	r18, 0x00	; 0
    2c06:	30 e0       	ldi	r19, 0x00	; 0
    2c08:	48 e4       	ldi	r20, 0x48	; 72
    2c0a:	53 e4       	ldi	r21, 0x43	; 67
    2c0c:	0e 94 6e 28 	call	0x50dc	; 0x50dc <__mulsf3>
    2c10:	20 e0       	ldi	r18, 0x00	; 0
    2c12:	30 ee       	ldi	r19, 0xE0	; 224
    2c14:	4f ef       	ldi	r20, 0xFF	; 255
    2c16:	54 e4       	ldi	r21, 0x44	; 68
    2c18:	0e 94 d4 26 	call	0x4da8	; 0x4da8 <__divsf3>
    2c1c:	20 e0       	ldi	r18, 0x00	; 0
    2c1e:	30 e0       	ldi	r19, 0x00	; 0
    2c20:	48 e4       	ldi	r20, 0x48	; 72
    2c22:	52 e4       	ldi	r21, 0x42	; 66
    2c24:	0e 94 6b 26 	call	0x4cd6	; 0x4cd6 <__subsf3>
    2c28:	60 93 f0 01 	sts	0x01F0, r22	; 0x8001f0 <temperatureTian>
    2c2c:	70 93 f1 01 	sts	0x01F1, r23	; 0x8001f1 <temperatureTian+0x1>
    2c30:	80 93 f2 01 	sts	0x01F2, r24	; 0x8001f2 <temperatureTian+0x2>
    2c34:	90 93 f3 01 	sts	0x01F3, r25	; 0x8001f3 <temperatureTian+0x3>
    2c38:	86 e9       	ldi	r24, 0x96	; 150
    2c3a:	90 e0       	ldi	r25, 0x00	; 0
    2c3c:	df 91       	pop	r29
    2c3e:	cf 91       	pop	r28
    2c40:	0c 94 c9 1f 	jmp	0x3f92	; 0x3f92 <delayMicroseconds>

00002c44 <_Z6mainDMv>:
    2c44:	4f 92       	push	r4
    2c46:	5f 92       	push	r5
    2c48:	6f 92       	push	r6
    2c4a:	7f 92       	push	r7
    2c4c:	8f 92       	push	r8
    2c4e:	9f 92       	push	r9
    2c50:	af 92       	push	r10
    2c52:	bf 92       	push	r11
    2c54:	cf 92       	push	r12
    2c56:	df 92       	push	r13
    2c58:	ef 92       	push	r14
    2c5a:	ff 92       	push	r15
    2c5c:	0f 93       	push	r16
    2c5e:	1f 93       	push	r17
    2c60:	e0 91 6b 01 	lds	r30, 0x016B	; 0x80016b <sensorStep>
    2c64:	8e 2f       	mov	r24, r30
    2c66:	90 e0       	ldi	r25, 0x00	; 0
    2c68:	fc 01       	movw	r30, r24
    2c6a:	31 97       	sbiw	r30, 0x01	; 1
    2c6c:	ee 30       	cpi	r30, 0x0E	; 14
    2c6e:	f1 05       	cpc	r31, r1
    2c70:	08 f0       	brcs	.+2      	; 0x2c74 <_Z6mainDMv+0x30>
    2c72:	e2 c1       	rjmp	.+964    	; 0x3038 <_Z6mainDMv+0x3f4>
    2c74:	ec 5c       	subi	r30, 0xCC	; 204
    2c76:	ff 4f       	sbci	r31, 0xFF	; 255
    2c78:	0c 94 51 26 	jmp	0x4ca2	; 0x4ca2 <__tablejump2__>
    2c7c:	61 e0       	ldi	r22, 0x01	; 1
    2c7e:	86 e0       	ldi	r24, 0x06	; 6
    2c80:	0e 94 b1 20 	call	0x4162	; 0x4162 <digitalWrite>
    2c84:	82 e0       	ldi	r24, 0x02	; 2
    2c86:	e0 c0       	rjmp	.+448    	; 0x2e48 <_Z6mainDMv+0x204>
    2c88:	83 e0       	ldi	r24, 0x03	; 3
    2c8a:	de c0       	rjmp	.+444    	; 0x2e48 <_Z6mainDMv+0x204>
    2c8c:	4d df       	rcall	.-358    	; 0x2b28 <_Z7getTianv>
    2c8e:	84 e0       	ldi	r24, 0x04	; 4
    2c90:	db c0       	rjmp	.+438    	; 0x2e48 <_Z6mainDMv+0x204>
    2c92:	85 e0       	ldi	r24, 0x05	; 5
    2c94:	80 93 6b 01 	sts	0x016B, r24	; 0x80016b <sensorStep>
    2c98:	80 91 dd 01 	lds	r24, 0x01DD	; 0x8001dd <currentTime>
    2c9c:	90 91 de 01 	lds	r25, 0x01DE	; 0x8001de <currentTime+0x1>
    2ca0:	a0 91 df 01 	lds	r26, 0x01DF	; 0x8001df <currentTime+0x2>
    2ca4:	b0 91 e0 01 	lds	r27, 0x01E0	; 0x8001e0 <currentTime+0x3>
    2ca8:	80 93 90 01 	sts	0x0190, r24	; 0x800190 <readDelay>
    2cac:	90 93 91 01 	sts	0x0191, r25	; 0x800191 <readDelay+0x1>
    2cb0:	a0 93 92 01 	sts	0x0192, r26	; 0x800192 <readDelay+0x2>
    2cb4:	b0 93 93 01 	sts	0x0193, r27	; 0x800193 <readDelay+0x3>
    2cb8:	bf c1       	rjmp	.+894    	; 0x3038 <_Z6mainDMv+0x3f4>
    2cba:	80 91 dd 01 	lds	r24, 0x01DD	; 0x8001dd <currentTime>
    2cbe:	90 91 de 01 	lds	r25, 0x01DE	; 0x8001de <currentTime+0x1>
    2cc2:	a0 91 df 01 	lds	r26, 0x01DF	; 0x8001df <currentTime+0x2>
    2cc6:	b0 91 e0 01 	lds	r27, 0x01E0	; 0x8001e0 <currentTime+0x3>
    2cca:	40 91 90 01 	lds	r20, 0x0190	; 0x800190 <readDelay>
    2cce:	50 91 91 01 	lds	r21, 0x0191	; 0x800191 <readDelay+0x1>
    2cd2:	60 91 92 01 	lds	r22, 0x0192	; 0x800192 <readDelay+0x2>
    2cd6:	70 91 93 01 	lds	r23, 0x0193	; 0x800193 <readDelay+0x3>
    2cda:	8c 01       	movw	r16, r24
    2cdc:	9d 01       	movw	r18, r26
    2cde:	04 1b       	sub	r16, r20
    2ce0:	15 0b       	sbc	r17, r21
    2ce2:	26 0b       	sbc	r18, r22
    2ce4:	37 0b       	sbc	r19, r23
    2ce6:	05 36       	cpi	r16, 0x65	; 101
    2ce8:	11 05       	cpc	r17, r1
    2cea:	21 05       	cpc	r18, r1
    2cec:	31 05       	cpc	r19, r1
    2cee:	08 f4       	brcc	.+2      	; 0x2cf2 <_Z6mainDMv+0xae>
    2cf0:	a3 c1       	rjmp	.+838    	; 0x3038 <_Z6mainDMv+0x3f4>
    2cf2:	20 91 03 01 	lds	r18, 0x0103	; 0x800103 <modelDN>
    2cf6:	21 30       	cpi	r18, 0x01	; 1
    2cf8:	11 f4       	brne	.+4      	; 0x2cfe <_Z6mainDMv+0xba>
    2cfa:	87 e0       	ldi	r24, 0x07	; 7
    2cfc:	a5 c0       	rjmp	.+330    	; 0x2e48 <_Z6mainDMv+0x204>
    2cfe:	80 93 90 01 	sts	0x0190, r24	; 0x800190 <readDelay>
    2d02:	90 93 91 01 	sts	0x0191, r25	; 0x800191 <readDelay+0x1>
    2d06:	a0 93 92 01 	sts	0x0192, r26	; 0x800192 <readDelay+0x2>
    2d0a:	b0 93 93 01 	sts	0x0193, r27	; 0x800193 <readDelay+0x3>
    2d0e:	1b c0       	rjmp	.+54     	; 0x2d46 <_Z6mainDMv+0x102>
    2d10:	6a de       	rcall	.-812    	; 0x29e6 <_Z6getSHTv>
    2d12:	19 c0       	rjmp	.+50     	; 0x2d46 <_Z6mainDMv+0x102>
    2d14:	80 91 dd 01 	lds	r24, 0x01DD	; 0x8001dd <currentTime>
    2d18:	90 91 de 01 	lds	r25, 0x01DE	; 0x8001de <currentTime+0x1>
    2d1c:	a0 91 df 01 	lds	r26, 0x01DF	; 0x8001df <currentTime+0x2>
    2d20:	b0 91 e0 01 	lds	r27, 0x01E0	; 0x8001e0 <currentTime+0x3>
    2d24:	40 91 90 01 	lds	r20, 0x0190	; 0x800190 <readDelay>
    2d28:	50 91 91 01 	lds	r21, 0x0191	; 0x800191 <readDelay+0x1>
    2d2c:	60 91 92 01 	lds	r22, 0x0192	; 0x800192 <readDelay+0x2>
    2d30:	70 91 93 01 	lds	r23, 0x0193	; 0x800193 <readDelay+0x3>
    2d34:	84 1b       	sub	r24, r20
    2d36:	95 0b       	sbc	r25, r21
    2d38:	a6 0b       	sbc	r26, r22
    2d3a:	b7 0b       	sbc	r27, r23
    2d3c:	c3 97       	sbiw	r24, 0x33	; 51
    2d3e:	a1 05       	cpc	r26, r1
    2d40:	b1 05       	cpc	r27, r1
    2d42:	08 f4       	brcc	.+2      	; 0x2d46 <_Z6mainDMv+0x102>
    2d44:	79 c1       	rjmp	.+754    	; 0x3038 <_Z6mainDMv+0x3f4>
    2d46:	8a e0       	ldi	r24, 0x0A	; 10
    2d48:	7f c0       	rjmp	.+254    	; 0x2e48 <_Z6mainDMv+0x204>
    2d4a:	60 e0       	ldi	r22, 0x00	; 0
    2d4c:	86 e0       	ldi	r24, 0x06	; 6
    2d4e:	0e 94 b1 20 	call	0x4162	; 0x4162 <digitalWrite>
    2d52:	80 91 6a 01 	lds	r24, 0x016A	; 0x80016a <pressGaugeLost>
    2d56:	81 11       	cpse	r24, r1
    2d58:	22 c0       	rjmp	.+68     	; 0x2d9e <_Z6mainDMv+0x15a>
    2d5a:	80 91 69 01 	lds	r24, 0x0169	; 0x800169 <lostCntPressure>
    2d5e:	81 11       	cpse	r24, r1
    2d60:	1e c0       	rjmp	.+60     	; 0x2d9e <_Z6mainDMv+0x15a>
    2d62:	80 91 6f 01 	lds	r24, 0x016F	; 0x80016f <VIP_firstRead>
    2d66:	81 11       	cpse	r24, r1
    2d68:	1a c0       	rjmp	.+52     	; 0x2d9e <_Z6mainDMv+0x15a>
    2d6a:	e0 90 0e 03 	lds	r14, 0x030E	; 0x80030e <SHT_RH_FL>
    2d6e:	f0 90 0f 03 	lds	r15, 0x030F	; 0x80030f <SHT_RH_FL+0x1>
    2d72:	00 91 10 03 	lds	r16, 0x0310	; 0x800310 <SHT_RH_FL+0x2>
    2d76:	10 91 11 03 	lds	r17, 0x0311	; 0x800311 <SHT_RH_FL+0x3>
    2d7a:	20 91 f0 01 	lds	r18, 0x01F0	; 0x8001f0 <temperatureTian>
    2d7e:	30 91 f1 01 	lds	r19, 0x01F1	; 0x8001f1 <temperatureTian+0x1>
    2d82:	40 91 f2 01 	lds	r20, 0x01F2	; 0x8001f2 <temperatureTian+0x2>
    2d86:	50 91 f3 01 	lds	r21, 0x01F3	; 0x8001f3 <temperatureTian+0x3>
    2d8a:	60 91 f4 01 	lds	r22, 0x01F4	; 0x8001f4 <pressureTian>
    2d8e:	70 91 f5 01 	lds	r23, 0x01F5	; 0x8001f5 <pressureTian+0x1>
    2d92:	80 91 f6 01 	lds	r24, 0x01F6	; 0x8001f6 <pressureTian+0x2>
    2d96:	90 91 f7 01 	lds	r25, 0x01F7	; 0x8001f7 <pressureTian+0x3>
    2d9a:	0e 94 d7 00 	call	0x1ae	; 0x1ae <_Z10initArraysfff>
    2d9e:	0e 94 64 01 	call	0x2c8	; 0x2c8 <_Z10checkErrorv>
    2da2:	e0 90 0e 03 	lds	r14, 0x030E	; 0x80030e <SHT_RH_FL>
    2da6:	f0 90 0f 03 	lds	r15, 0x030F	; 0x80030f <SHT_RH_FL+0x1>
    2daa:	00 91 10 03 	lds	r16, 0x0310	; 0x800310 <SHT_RH_FL+0x2>
    2dae:	10 91 11 03 	lds	r17, 0x0311	; 0x800311 <SHT_RH_FL+0x3>
    2db2:	20 91 f0 01 	lds	r18, 0x01F0	; 0x8001f0 <temperatureTian>
    2db6:	30 91 f1 01 	lds	r19, 0x01F1	; 0x8001f1 <temperatureTian+0x1>
    2dba:	40 91 f2 01 	lds	r20, 0x01F2	; 0x8001f2 <temperatureTian+0x2>
    2dbe:	50 91 f3 01 	lds	r21, 0x01F3	; 0x8001f3 <temperatureTian+0x3>
    2dc2:	60 91 f4 01 	lds	r22, 0x01F4	; 0x8001f4 <pressureTian>
    2dc6:	70 91 f5 01 	lds	r23, 0x01F5	; 0x8001f5 <pressureTian+0x1>
    2dca:	80 91 f6 01 	lds	r24, 0x01F6	; 0x8001f6 <pressureTian+0x2>
    2dce:	90 91 f7 01 	lds	r25, 0x01F7	; 0x8001f7 <pressureTian+0x3>
    2dd2:	0e 94 da 03 	call	0x7b4	; 0x7b4 <_Z9avarageItfff>
    2dd6:	8b e0       	ldi	r24, 0x0B	; 11
    2dd8:	37 c0       	rjmp	.+110    	; 0x2e48 <_Z6mainDMv+0x204>
    2dda:	0e 94 3e 01 	call	0x27c	; 0x27c <_Z11trendBufferv>
    2dde:	8c e0       	ldi	r24, 0x0C	; 12
    2de0:	33 c0       	rjmp	.+102    	; 0x2e48 <_Z6mainDMv+0x204>
    2de2:	0e 94 74 02 	call	0x4e8	; 0x4e8 <_Z9PIDfilterv>
    2de6:	80 91 4d 02 	lds	r24, 0x024D	; 0x80024d <PIDFILTER>
    2dea:	90 91 4e 02 	lds	r25, 0x024E	; 0x80024e <PIDFILTER+0x1>
    2dee:	a0 91 4f 02 	lds	r26, 0x024F	; 0x80024f <PIDFILTER+0x2>
    2df2:	b0 91 50 02 	lds	r27, 0x0250	; 0x800250 <PIDFILTER+0x3>
    2df6:	80 93 6b 03 	sts	0x036B, r24	; 0x80036b <pressure>
    2dfa:	90 93 6c 03 	sts	0x036C, r25	; 0x80036c <pressure+0x1>
    2dfe:	a0 93 6d 03 	sts	0x036D, r26	; 0x80036d <pressure+0x2>
    2e02:	b0 93 6e 03 	sts	0x036E, r27	; 0x80036e <pressure+0x3>
    2e06:	80 91 51 02 	lds	r24, 0x0251	; 0x800251 <PIDFILTER+0x4>
    2e0a:	90 91 52 02 	lds	r25, 0x0252	; 0x800252 <PIDFILTER+0x5>
    2e0e:	a0 91 53 02 	lds	r26, 0x0253	; 0x800253 <PIDFILTER+0x6>
    2e12:	b0 91 54 02 	lds	r27, 0x0254	; 0x800254 <PIDFILTER+0x7>
    2e16:	80 93 67 03 	sts	0x0367, r24	; 0x800367 <temperature>
    2e1a:	90 93 68 03 	sts	0x0368, r25	; 0x800368 <temperature+0x1>
    2e1e:	a0 93 69 03 	sts	0x0369, r26	; 0x800369 <temperature+0x2>
    2e22:	b0 93 6a 03 	sts	0x036A, r27	; 0x80036a <temperature+0x3>
    2e26:	80 91 55 02 	lds	r24, 0x0255	; 0x800255 <PIDFILTER+0x8>
    2e2a:	90 91 56 02 	lds	r25, 0x0256	; 0x800256 <PIDFILTER+0x9>
    2e2e:	a0 91 57 02 	lds	r26, 0x0257	; 0x800257 <PIDFILTER+0xa>
    2e32:	b0 91 58 02 	lds	r27, 0x0258	; 0x800258 <PIDFILTER+0xb>
    2e36:	80 93 63 03 	sts	0x0363, r24	; 0x800363 <RH_RH>
    2e3a:	90 93 64 03 	sts	0x0364, r25	; 0x800364 <RH_RH+0x1>
    2e3e:	a0 93 65 03 	sts	0x0365, r26	; 0x800365 <RH_RH+0x2>
    2e42:	b0 93 66 03 	sts	0x0366, r27	; 0x800366 <RH_RH+0x3>
    2e46:	8e e0       	ldi	r24, 0x0E	; 14
    2e48:	80 93 6b 01 	sts	0x016B, r24	; 0x80016b <sensorStep>
    2e4c:	f5 c0       	rjmp	.+490    	; 0x3038 <_Z6mainDMv+0x3f4>
    2e4e:	c0 90 6b 03 	lds	r12, 0x036B	; 0x80036b <pressure>
    2e52:	d0 90 6c 03 	lds	r13, 0x036C	; 0x80036c <pressure+0x1>
    2e56:	e0 90 6d 03 	lds	r14, 0x036D	; 0x80036d <pressure+0x2>
    2e5a:	f0 90 6e 03 	lds	r15, 0x036E	; 0x80036e <pressure+0x3>
    2e5e:	2a e0       	ldi	r18, 0x0A	; 10
    2e60:	37 ed       	ldi	r19, 0xD7	; 215
    2e62:	43 e2       	ldi	r20, 0x23	; 35
    2e64:	5c e3       	ldi	r21, 0x3C	; 60
    2e66:	c7 01       	movw	r24, r14
    2e68:	b6 01       	movw	r22, r12
    2e6a:	0e 94 6e 28 	call	0x50dc	; 0x50dc <__mulsf3>
    2e6e:	4b 01       	movw	r8, r22
    2e70:	5c 01       	movw	r10, r24
    2e72:	60 93 7f 03 	sts	0x037F, r22	; 0x80037f <pressure_Bar>
    2e76:	70 93 80 03 	sts	0x0380, r23	; 0x800380 <pressure_Bar+0x1>
    2e7a:	80 93 81 03 	sts	0x0381, r24	; 0x800381 <pressure_Bar+0x2>
    2e7e:	90 93 82 03 	sts	0x0382, r25	; 0x800382 <pressure_Bar+0x3>
    2e82:	2d ec       	ldi	r18, 0xCD	; 205
    2e84:	3c ec       	ldi	r19, 0xCC	; 204
    2e86:	4c ec       	ldi	r20, 0xCC	; 204
    2e88:	5d e3       	ldi	r21, 0x3D	; 61
    2e8a:	0e 94 6e 28 	call	0x50dc	; 0x50dc <__mulsf3>
    2e8e:	60 93 7b 03 	sts	0x037B, r22	; 0x80037b <pressure_MPa>
    2e92:	70 93 7c 03 	sts	0x037C, r23	; 0x80037c <pressure_MPa+0x1>
    2e96:	80 93 7d 03 	sts	0x037D, r24	; 0x80037d <pressure_MPa+0x2>
    2e9a:	90 93 7e 03 	sts	0x037E, r25	; 0x80037e <pressure_MPa+0x3>
    2e9e:	20 e0       	ldi	r18, 0x00	; 0
    2ea0:	30 e0       	ldi	r19, 0x00	; 0
    2ea2:	4a e7       	ldi	r20, 0x7A	; 122
    2ea4:	54 e4       	ldi	r21, 0x44	; 68
    2ea6:	c7 01       	movw	r24, r14
    2ea8:	b6 01       	movw	r22, r12
    2eaa:	0e 94 6e 28 	call	0x50dc	; 0x50dc <__mulsf3>
    2eae:	60 93 77 03 	sts	0x0377, r22	; 0x800377 <pressure_Pa>
    2eb2:	70 93 78 03 	sts	0x0378, r23	; 0x800378 <pressure_Pa+0x1>
    2eb6:	80 93 79 03 	sts	0x0379, r24	; 0x800379 <pressure_Pa+0x2>
    2eba:	90 93 7a 03 	sts	0x037A, r25	; 0x80037a <pressure_Pa+0x3>
    2ebe:	c0 92 83 03 	sts	0x0383, r12	; 0x800383 <pressure_kPa>
    2ec2:	d0 92 84 03 	sts	0x0384, r13	; 0x800384 <pressure_kPa+0x1>
    2ec6:	e0 92 85 03 	sts	0x0385, r14	; 0x800385 <pressure_kPa+0x2>
    2eca:	f0 92 86 03 	sts	0x0386, r15	; 0x800386 <pressure_kPa+0x3>
    2ece:	27 ed       	ldi	r18, 0xD7	; 215
    2ed0:	34 e8       	ldi	r19, 0x84	; 132
    2ed2:	44 e1       	ldi	r20, 0x14	; 20
    2ed4:	5e e3       	ldi	r21, 0x3E	; 62
    2ed6:	c7 01       	movw	r24, r14
    2ed8:	b6 01       	movw	r22, r12
    2eda:	0e 94 6e 28 	call	0x50dc	; 0x50dc <__mulsf3>
    2ede:	60 93 73 03 	sts	0x0373, r22	; 0x800373 <pressure_Psi>
    2ee2:	70 93 74 03 	sts	0x0374, r23	; 0x800374 <pressure_Psi+0x1>
    2ee6:	80 93 75 03 	sts	0x0375, r24	; 0x800375 <pressure_Psi+0x2>
    2eea:	90 93 76 03 	sts	0x0376, r25	; 0x800376 <pressure_Psi+0x3>
    2eee:	2d ec       	ldi	r18, 0xCD	; 205
    2ef0:	3c ec       	ldi	r19, 0xCC	; 204
    2ef2:	4c ec       	ldi	r20, 0xCC	; 204
    2ef4:	5d e3       	ldi	r21, 0x3D	; 61
    2ef6:	c7 01       	movw	r24, r14
    2ef8:	b6 01       	movw	r22, r12
    2efa:	0e 94 6e 28 	call	0x50dc	; 0x50dc <__mulsf3>
    2efe:	60 93 6f 03 	sts	0x036F, r22	; 0x80036f <pressure_Ncm2>
    2f02:	70 93 70 03 	sts	0x0370, r23	; 0x800370 <pressure_Ncm2+0x1>
    2f06:	80 93 71 03 	sts	0x0371, r24	; 0x800371 <pressure_Ncm2+0x2>
    2f0a:	90 93 72 03 	sts	0x0372, r25	; 0x800372 <pressure_Ncm2+0x3>
    2f0e:	c0 90 67 03 	lds	r12, 0x0367	; 0x800367 <temperature>
    2f12:	d0 90 68 03 	lds	r13, 0x0368	; 0x800368 <temperature+0x1>
    2f16:	e0 90 69 03 	lds	r14, 0x0369	; 0x800369 <temperature+0x2>
    2f1a:	f0 90 6a 03 	lds	r15, 0x036A	; 0x80036a <temperature+0x3>
    2f1e:	c0 92 5f 03 	sts	0x035F, r12	; 0x80035f <temperatureC>
    2f22:	d0 92 60 03 	sts	0x0360, r13	; 0x800360 <temperatureC+0x1>
    2f26:	e0 92 61 03 	sts	0x0361, r14	; 0x800361 <temperatureC+0x2>
    2f2a:	f0 92 62 03 	sts	0x0362, r15	; 0x800362 <temperatureC+0x3>
    2f2e:	23 e3       	ldi	r18, 0x33	; 51
    2f30:	33 e9       	ldi	r19, 0x93	; 147
    2f32:	48 e8       	ldi	r20, 0x88	; 136
    2f34:	53 e4       	ldi	r21, 0x43	; 67
    2f36:	c7 01       	movw	r24, r14
    2f38:	b6 01       	movw	r22, r12
    2f3a:	0e 94 6c 26 	call	0x4cd8	; 0x4cd8 <__addsf3>
    2f3e:	2b 01       	movw	r4, r22
    2f40:	3c 01       	movw	r6, r24
    2f42:	60 93 5b 03 	sts	0x035B, r22	; 0x80035b <temperatureK>
    2f46:	70 93 5c 03 	sts	0x035C, r23	; 0x80035c <temperatureK+0x1>
    2f4a:	80 93 5d 03 	sts	0x035D, r24	; 0x80035d <temperatureK+0x2>
    2f4e:	90 93 5e 03 	sts	0x035E, r25	; 0x80035e <temperatureK+0x3>
    2f52:	26 e6       	ldi	r18, 0x66	; 102
    2f54:	36 e6       	ldi	r19, 0x66	; 102
    2f56:	46 ee       	ldi	r20, 0xE6	; 230
    2f58:	5f e3       	ldi	r21, 0x3F	; 63
    2f5a:	c7 01       	movw	r24, r14
    2f5c:	b6 01       	movw	r22, r12
    2f5e:	0e 94 6e 28 	call	0x50dc	; 0x50dc <__mulsf3>
    2f62:	20 e0       	ldi	r18, 0x00	; 0
    2f64:	30 e0       	ldi	r19, 0x00	; 0
    2f66:	40 e0       	ldi	r20, 0x00	; 0
    2f68:	52 e4       	ldi	r21, 0x42	; 66
    2f6a:	0e 94 6c 26 	call	0x4cd8	; 0x4cd8 <__addsf3>
    2f6e:	60 93 57 03 	sts	0x0357, r22	; 0x800357 <temperatureF>
    2f72:	70 93 58 03 	sts	0x0358, r23	; 0x800358 <temperatureF+0x1>
    2f76:	80 93 59 03 	sts	0x0359, r24	; 0x800359 <temperatureF+0x2>
    2f7a:	90 93 5a 03 	sts	0x035A, r25	; 0x80035a <temperatureF+0x3>
    2f7e:	a3 01       	movw	r20, r6
    2f80:	92 01       	movw	r18, r4
    2f82:	63 e3       	ldi	r22, 0x33	; 51
    2f84:	73 e9       	ldi	r23, 0x93	; 147
    2f86:	82 e9       	ldi	r24, 0x92	; 146
    2f88:	93 e4       	ldi	r25, 0x43	; 67
    2f8a:	0e 94 d4 26 	call	0x4da8	; 0x4da8 <__divsf3>
    2f8e:	a5 01       	movw	r20, r10
    2f90:	94 01       	movw	r18, r8
    2f92:	0e 94 6e 28 	call	0x50dc	; 0x50dc <__mulsf3>
    2f96:	6b 01       	movw	r12, r22
    2f98:	7c 01       	movw	r14, r24
    2f9a:	60 93 4d 03 	sts	0x034D, r22	; 0x80034d <pressure_Bar20>
    2f9e:	70 93 4e 03 	sts	0x034E, r23	; 0x80034e <pressure_Bar20+0x1>
    2fa2:	80 93 4f 03 	sts	0x034F, r24	; 0x80034f <pressure_Bar20+0x2>
    2fa6:	90 93 50 03 	sts	0x0350, r25	; 0x800350 <pressure_Bar20+0x3>
    2faa:	20 e0       	ldi	r18, 0x00	; 0
    2fac:	30 e0       	ldi	r19, 0x00	; 0
    2fae:	40 e8       	ldi	r20, 0x80	; 128
    2fb0:	5f e3       	ldi	r21, 0x3F	; 63
    2fb2:	0e 94 6b 26 	call	0x4cd6	; 0x4cd6 <__subsf3>
    2fb6:	60 93 47 03 	sts	0x0347, r22	; 0x800347 <pressure_Bar20Rel>
    2fba:	70 93 48 03 	sts	0x0348, r23	; 0x800348 <pressure_Bar20Rel+0x1>
    2fbe:	80 93 49 03 	sts	0x0349, r24	; 0x800349 <pressure_Bar20Rel+0x2>
    2fc2:	90 93 4a 03 	sts	0x034A, r25	; 0x80034a <pressure_Bar20Rel+0x3>
    2fc6:	2d ec       	ldi	r18, 0xCD	; 205
    2fc8:	3c ec       	ldi	r19, 0xCC	; 204
    2fca:	4c ec       	ldi	r20, 0xCC	; 204
    2fcc:	5d e3       	ldi	r21, 0x3D	; 61
    2fce:	c7 01       	movw	r24, r14
    2fd0:	b6 01       	movw	r22, r12
    2fd2:	0e 94 6e 28 	call	0x50dc	; 0x50dc <__mulsf3>
    2fd6:	60 93 43 03 	sts	0x0343, r22	; 0x800343 <pressure_MPa20>
    2fda:	70 93 44 03 	sts	0x0344, r23	; 0x800344 <pressure_MPa20+0x1>
    2fde:	80 93 45 03 	sts	0x0345, r24	; 0x800345 <pressure_MPa20+0x2>
    2fe2:	90 93 46 03 	sts	0x0346, r25	; 0x800346 <pressure_MPa20+0x3>
    2fe6:	2d ec       	ldi	r18, 0xCD	; 205
    2fe8:	3c ec       	ldi	r19, 0xCC	; 204
    2fea:	4c ec       	ldi	r20, 0xCC	; 204
    2fec:	5d e3       	ldi	r21, 0x3D	; 61
    2fee:	0e 94 6b 26 	call	0x4cd6	; 0x4cd6 <__subsf3>
    2ff2:	60 93 3f 03 	sts	0x033F, r22	; 0x80033f <pressure_MPa20Rel>
    2ff6:	70 93 40 03 	sts	0x0340, r23	; 0x800340 <pressure_MPa20Rel+0x1>
    2ffa:	80 93 41 03 	sts	0x0341, r24	; 0x800341 <pressure_MPa20Rel+0x2>
    2ffe:	90 93 42 03 	sts	0x0342, r25	; 0x800342 <pressure_MPa20Rel+0x3>
    3002:	a7 01       	movw	r20, r14
    3004:	96 01       	movw	r18, r12
    3006:	60 91 e3 01 	lds	r22, 0x01E3	; 0x8001e3 <densitySetFlt>
    300a:	70 91 e4 01 	lds	r23, 0x01E4	; 0x8001e4 <densitySetFlt+0x1>
    300e:	80 91 e5 01 	lds	r24, 0x01E5	; 0x8001e5 <densitySetFlt+0x2>
    3012:	90 91 e6 01 	lds	r25, 0x01E6	; 0x8001e6 <densitySetFlt+0x3>
    3016:	0e 94 6e 28 	call	0x50dc	; 0x50dc <__mulsf3>
    301a:	60 93 53 03 	sts	0x0353, r22	; 0x800353 <gasDensityG>
    301e:	70 93 54 03 	sts	0x0354, r23	; 0x800354 <gasDensityG+0x1>
    3022:	80 93 55 03 	sts	0x0355, r24	; 0x800355 <gasDensityG+0x2>
    3026:	90 93 56 03 	sts	0x0356, r25	; 0x800356 <gasDensityG+0x3>
    302a:	80 91 03 01 	lds	r24, 0x0103	; 0x800103 <modelDN>
    302e:	81 30       	cpi	r24, 0x01	; 1
    3030:	09 f4       	brne	.+2      	; 0x3034 <_Z6mainDMv+0x3f0>
    3032:	5b da       	rcall	.-2890   	; 0x24ea <_Z11getDewPointv>
    3034:	10 92 6b 01 	sts	0x016B, r1	; 0x80016b <sensorStep>
    3038:	1f 91       	pop	r17
    303a:	0f 91       	pop	r16
    303c:	ff 90       	pop	r15
    303e:	ef 90       	pop	r14
    3040:	df 90       	pop	r13
    3042:	cf 90       	pop	r12
    3044:	bf 90       	pop	r11
    3046:	af 90       	pop	r10
    3048:	9f 90       	pop	r9
    304a:	8f 90       	pop	r8
    304c:	7f 90       	pop	r7
    304e:	6f 90       	pop	r6
    3050:	5f 90       	pop	r5
    3052:	4f 90       	pop	r4
    3054:	08 95       	ret

00003056 <_Z7loop_50v>:
    3056:	0f 93       	push	r16
    3058:	1f 93       	push	r17
    305a:	80 91 dd 01 	lds	r24, 0x01DD	; 0x8001dd <currentTime>
    305e:	90 91 de 01 	lds	r25, 0x01DE	; 0x8001de <currentTime+0x1>
    3062:	a0 91 df 01 	lds	r26, 0x01DF	; 0x8001df <currentTime+0x2>
    3066:	b0 91 e0 01 	lds	r27, 0x01E0	; 0x8001e0 <currentTime+0x3>
    306a:	40 91 d9 01 	lds	r20, 0x01D9	; 0x8001d9 <loop_50_start>
    306e:	50 91 da 01 	lds	r21, 0x01DA	; 0x8001da <loop_50_start+0x1>
    3072:	60 91 db 01 	lds	r22, 0x01DB	; 0x8001db <loop_50_start+0x2>
    3076:	70 91 dc 01 	lds	r23, 0x01DC	; 0x8001dc <loop_50_start+0x3>
    307a:	8c 01       	movw	r16, r24
    307c:	9d 01       	movw	r18, r26
    307e:	04 1b       	sub	r16, r20
    3080:	15 0b       	sbc	r17, r21
    3082:	26 0b       	sbc	r18, r22
    3084:	37 0b       	sbc	r19, r23
    3086:	09 37       	cpi	r16, 0x79	; 121
    3088:	11 05       	cpc	r17, r1
    308a:	21 05       	cpc	r18, r1
    308c:	31 05       	cpc	r19, r1
    308e:	70 f0       	brcs	.+28     	; 0x30ac <_Z7loop_50v+0x56>
    3090:	80 93 d9 01 	sts	0x01D9, r24	; 0x8001d9 <loop_50_start>
    3094:	90 93 da 01 	sts	0x01DA, r25	; 0x8001da <loop_50_start+0x1>
    3098:	a0 93 db 01 	sts	0x01DB, r26	; 0x8001db <loop_50_start+0x2>
    309c:	b0 93 dc 01 	sts	0x01DC, r27	; 0x8001dc <loop_50_start+0x3>
    30a0:	d1 dd       	rcall	.-1118   	; 0x2c44 <_Z6mainDMv>
    30a2:	80 91 e2 01 	lds	r24, 0x01E2	; 0x8001e2 <reboot>
    30a6:	81 11       	cpse	r24, r1
    30a8:	0e 94 4c 03 	call	0x698	; 0x698 <_Z8rebootDMv>
    30ac:	1f 91       	pop	r17
    30ae:	0f 91       	pop	r16
    30b0:	08 95       	ret

000030b2 <loop>:
    30b2:	1a d7       	rcall	.+3636   	; 0x3ee8 <millis>
    30b4:	60 93 dd 01 	sts	0x01DD, r22	; 0x8001dd <currentTime>
    30b8:	70 93 de 01 	sts	0x01DE, r23	; 0x8001de <currentTime+0x1>
    30bc:	80 93 df 01 	sts	0x01DF, r24	; 0x8001df <currentTime+0x2>
    30c0:	90 93 e0 01 	sts	0x01E0, r25	; 0x8001e0 <currentTime+0x3>
    30c4:	69 3b       	cpi	r22, 0xB9	; 185
    30c6:	7b 40       	sbci	r23, 0x0B	; 11
    30c8:	81 05       	cpc	r24, r1
    30ca:	91 05       	cpc	r25, r1
    30cc:	38 f0       	brcs	.+14     	; 0x30dc <loop+0x2a>
    30ce:	80 91 6e 01 	lds	r24, 0x016E	; 0x80016e <startMB>
    30d2:	81 11       	cpse	r24, r1
    30d4:	03 c0       	rjmp	.+6      	; 0x30dc <loop+0x2a>
    30d6:	81 e0       	ldi	r24, 0x01	; 1
    30d8:	80 93 6e 01 	sts	0x016E, r24	; 0x80016e <startMB>
    30dc:	80 91 6e 01 	lds	r24, 0x016E	; 0x80016e <startMB>
    30e0:	88 23       	and	r24, r24
    30e2:	49 f0       	breq	.+18     	; 0x30f6 <loop+0x44>
    30e4:	0e 94 62 03 	call	0x6c4	; 0x6c4 <_Z9loop_5000v>
    30e8:	0e 94 8d 03 	call	0x71a	; 0x71a <_Z8loop_500v>
    30ec:	b4 df       	rcall	.-152    	; 0x3056 <_Z7loop_50v>
    30ee:	8e e8       	ldi	r24, 0x8E	; 142
    30f0:	93 e0       	ldi	r25, 0x03	; 3
    30f2:	0e 94 36 25 	call	0x4a6c	; 0x4a6c <_ZN12IGAS_X2X_4856updateEv>
    30f6:	a8 95       	wdr
    30f8:	08 95       	ret

000030fa <_ZN14HardwareSerial9availableEv>:
    30fa:	fc 01       	movw	r30, r24
    30fc:	24 85       	ldd	r18, Z+12	; 0x0c
    30fe:	35 85       	ldd	r19, Z+13	; 0x0d
    3100:	f9 01       	movw	r30, r18
    3102:	e0 5c       	subi	r30, 0xC0	; 192
    3104:	ff 4f       	sbci	r31, 0xFF	; 255
    3106:	80 81       	ld	r24, Z
    3108:	91 81       	ldd	r25, Z+1	; 0x01
    310a:	32 96       	adiw	r30, 0x02	; 2
    310c:	20 81       	ld	r18, Z
    310e:	31 81       	ldd	r19, Z+1	; 0x01
    3110:	80 5c       	subi	r24, 0xC0	; 192
    3112:	9f 4f       	sbci	r25, 0xFF	; 255
    3114:	82 1b       	sub	r24, r18
    3116:	93 0b       	sbc	r25, r19
    3118:	60 e4       	ldi	r22, 0x40	; 64
    311a:	70 e0       	ldi	r23, 0x00	; 0
    311c:	0c 94 1c 26 	jmp	0x4c38	; 0x4c38 <__divmodhi4>

00003120 <_ZN14HardwareSerial4peekEv>:
    3120:	dc 01       	movw	r26, r24
    3122:	1c 96       	adiw	r26, 0x0c	; 12
    3124:	ed 91       	ld	r30, X+
    3126:	fc 91       	ld	r31, X
    3128:	1d 97       	sbiw	r26, 0x0d	; 13
    312a:	df 01       	movw	r26, r30
    312c:	a0 5c       	subi	r26, 0xC0	; 192
    312e:	bf 4f       	sbci	r27, 0xFF	; 255
    3130:	2d 91       	ld	r18, X+
    3132:	3c 91       	ld	r19, X
    3134:	11 97       	sbiw	r26, 0x01	; 1
    3136:	12 96       	adiw	r26, 0x02	; 2
    3138:	8d 91       	ld	r24, X+
    313a:	9c 91       	ld	r25, X
    313c:	11 97       	sbiw	r26, 0x01	; 1
    313e:	28 17       	cp	r18, r24
    3140:	39 07       	cpc	r19, r25
    3142:	39 f0       	breq	.+14     	; 0x3152 <_ZN14HardwareSerial4peekEv+0x32>
    3144:	8d 91       	ld	r24, X+
    3146:	9c 91       	ld	r25, X
    3148:	e8 0f       	add	r30, r24
    314a:	f9 1f       	adc	r31, r25
    314c:	80 81       	ld	r24, Z
    314e:	90 e0       	ldi	r25, 0x00	; 0
    3150:	08 95       	ret
    3152:	8f ef       	ldi	r24, 0xFF	; 255
    3154:	9f ef       	ldi	r25, 0xFF	; 255
    3156:	08 95       	ret

00003158 <_ZN14HardwareSerial4readEv>:
    3158:	fc 01       	movw	r30, r24
    315a:	a4 85       	ldd	r26, Z+12	; 0x0c
    315c:	b5 85       	ldd	r27, Z+13	; 0x0d
    315e:	fd 01       	movw	r30, r26
    3160:	e0 5c       	subi	r30, 0xC0	; 192
    3162:	ff 4f       	sbci	r31, 0xFF	; 255
    3164:	20 81       	ld	r18, Z
    3166:	31 81       	ldd	r19, Z+1	; 0x01
    3168:	32 96       	adiw	r30, 0x02	; 2
    316a:	80 81       	ld	r24, Z
    316c:	91 81       	ldd	r25, Z+1	; 0x01
    316e:	28 17       	cp	r18, r24
    3170:	39 07       	cpc	r19, r25
    3172:	79 f0       	breq	.+30     	; 0x3192 <_ZN14HardwareSerial4readEv+0x3a>
    3174:	80 81       	ld	r24, Z
    3176:	91 81       	ldd	r25, Z+1	; 0x01
    3178:	a8 0f       	add	r26, r24
    317a:	b9 1f       	adc	r27, r25
    317c:	8c 91       	ld	r24, X
    317e:	20 81       	ld	r18, Z
    3180:	31 81       	ldd	r19, Z+1	; 0x01
    3182:	2f 5f       	subi	r18, 0xFF	; 255
    3184:	3f 4f       	sbci	r19, 0xFF	; 255
    3186:	2f 73       	andi	r18, 0x3F	; 63
    3188:	33 27       	eor	r19, r19
    318a:	31 83       	std	Z+1, r19	; 0x01
    318c:	20 83       	st	Z, r18
    318e:	90 e0       	ldi	r25, 0x00	; 0
    3190:	08 95       	ret
    3192:	8f ef       	ldi	r24, 0xFF	; 255
    3194:	9f ef       	ldi	r25, 0xFF	; 255
    3196:	08 95       	ret

00003198 <_ZN14HardwareSerial5flushEv>:
    3198:	fc 01       	movw	r30, r24
    319a:	81 a1       	ldd	r24, Z+33	; 0x21
    319c:	88 23       	and	r24, r24
    319e:	29 f0       	breq	.+10     	; 0x31aa <_ZN14HardwareSerial5flushEv+0x12>
    31a0:	a4 89       	ldd	r26, Z+20	; 0x14
    31a2:	b5 89       	ldd	r27, Z+21	; 0x15
    31a4:	8c 91       	ld	r24, X
    31a6:	86 ff       	sbrs	r24, 6
    31a8:	fb cf       	rjmp	.-10     	; 0x31a0 <_ZN14HardwareSerial5flushEv+0x8>
    31aa:	11 a2       	std	Z+33, r1	; 0x21
    31ac:	08 95       	ret

000031ae <_ZN14HardwareSerial5writeEh>:
    31ae:	0f 93       	push	r16
    31b0:	1f 93       	push	r17
    31b2:	cf 93       	push	r28
    31b4:	df 93       	push	r29
    31b6:	fc 01       	movw	r30, r24
    31b8:	a6 85       	ldd	r26, Z+14	; 0x0e
    31ba:	b7 85       	ldd	r27, Z+15	; 0x0f
    31bc:	8d 01       	movw	r16, r26
    31be:	00 5c       	subi	r16, 0xC0	; 192
    31c0:	1f 4f       	sbci	r17, 0xFF	; 255
    31c2:	e8 01       	movw	r28, r16
    31c4:	88 81       	ld	r24, Y
    31c6:	99 81       	ldd	r25, Y+1	; 0x01
    31c8:	01 96       	adiw	r24, 0x01	; 1
    31ca:	8f 73       	andi	r24, 0x3F	; 63
    31cc:	99 27       	eor	r25, r25
    31ce:	ad 01       	movw	r20, r26
    31d0:	4e 5b       	subi	r20, 0xBE	; 190
    31d2:	5f 4f       	sbci	r21, 0xFF	; 255
    31d4:	ea 01       	movw	r28, r20
    31d6:	28 81       	ld	r18, Y
    31d8:	39 81       	ldd	r19, Y+1	; 0x01
    31da:	82 17       	cp	r24, r18
    31dc:	93 07       	cpc	r25, r19
    31de:	d1 f3       	breq	.-12     	; 0x31d4 <_ZN14HardwareSerial5writeEh+0x26>
    31e0:	e8 01       	movw	r28, r16
    31e2:	28 81       	ld	r18, Y
    31e4:	39 81       	ldd	r19, Y+1	; 0x01
    31e6:	a2 0f       	add	r26, r18
    31e8:	b3 1f       	adc	r27, r19
    31ea:	6c 93       	st	X, r22
    31ec:	a6 85       	ldd	r26, Z+14	; 0x0e
    31ee:	b7 85       	ldd	r27, Z+15	; 0x0f
    31f0:	a0 5c       	subi	r26, 0xC0	; 192
    31f2:	bf 4f       	sbci	r27, 0xFF	; 255
    31f4:	11 96       	adiw	r26, 0x01	; 1
    31f6:	9c 93       	st	X, r25
    31f8:	8e 93       	st	-X, r24
    31fa:	a6 89       	ldd	r26, Z+22	; 0x16
    31fc:	b7 89       	ldd	r27, Z+23	; 0x17
    31fe:	2c 91       	ld	r18, X
    3200:	81 e0       	ldi	r24, 0x01	; 1
    3202:	90 e0       	ldi	r25, 0x00	; 0
    3204:	07 8c       	ldd	r0, Z+31	; 0x1f
    3206:	02 c0       	rjmp	.+4      	; 0x320c <_ZN14HardwareSerial5writeEh+0x5e>
    3208:	88 0f       	add	r24, r24
    320a:	99 1f       	adc	r25, r25
    320c:	0a 94       	dec	r0
    320e:	e2 f7       	brpl	.-8      	; 0x3208 <_ZN14HardwareSerial5writeEh+0x5a>
    3210:	82 2b       	or	r24, r18
    3212:	8c 93       	st	X, r24
    3214:	81 e0       	ldi	r24, 0x01	; 1
    3216:	81 a3       	std	Z+33, r24	; 0x21
    3218:	04 88       	ldd	r0, Z+20	; 0x14
    321a:	f5 89       	ldd	r31, Z+21	; 0x15
    321c:	e0 2d       	mov	r30, r0
    321e:	80 81       	ld	r24, Z
    3220:	80 64       	ori	r24, 0x40	; 64
    3222:	80 83       	st	Z, r24
    3224:	81 e0       	ldi	r24, 0x01	; 1
    3226:	90 e0       	ldi	r25, 0x00	; 0
    3228:	df 91       	pop	r29
    322a:	cf 91       	pop	r28
    322c:	1f 91       	pop	r17
    322e:	0f 91       	pop	r16
    3230:	08 95       	ret

00003232 <_Z11serialEventv>:
    3232:	08 95       	ret

00003234 <__vector_18>:
    3234:	1f 92       	push	r1
    3236:	0f 92       	push	r0
    3238:	0f b6       	in	r0, 0x3f	; 63
    323a:	0f 92       	push	r0
    323c:	11 24       	eor	r1, r1
    323e:	2f 93       	push	r18
    3240:	4f 93       	push	r20
    3242:	5f 93       	push	r21
    3244:	8f 93       	push	r24
    3246:	9f 93       	push	r25
    3248:	ef 93       	push	r30
    324a:	ff 93       	push	r31
    324c:	80 91 c0 00 	lds	r24, 0x00C0	; 0x8000c0 <__TEXT_REGION_LENGTH__+0x7f80c0>
    3250:	82 fd       	sbrc	r24, 2
    3252:	1c c0       	rjmp	.+56     	; 0x328c <__vector_18+0x58>
    3254:	20 91 c6 00 	lds	r18, 0x00C6	; 0x8000c6 <__TEXT_REGION_LENGTH__+0x7f80c6>
    3258:	80 91 45 04 	lds	r24, 0x0445	; 0x800445 <rx_buffer+0x40>
    325c:	90 91 46 04 	lds	r25, 0x0446	; 0x800446 <rx_buffer+0x41>
    3260:	01 96       	adiw	r24, 0x01	; 1
    3262:	8f 73       	andi	r24, 0x3F	; 63
    3264:	99 27       	eor	r25, r25
    3266:	40 91 47 04 	lds	r20, 0x0447	; 0x800447 <rx_buffer+0x42>
    326a:	50 91 48 04 	lds	r21, 0x0448	; 0x800448 <rx_buffer+0x43>
    326e:	84 17       	cp	r24, r20
    3270:	95 07       	cpc	r25, r21
    3272:	71 f0       	breq	.+28     	; 0x3290 <__vector_18+0x5c>
    3274:	e0 91 45 04 	lds	r30, 0x0445	; 0x800445 <rx_buffer+0x40>
    3278:	f0 91 46 04 	lds	r31, 0x0446	; 0x800446 <rx_buffer+0x41>
    327c:	eb 5f       	subi	r30, 0xFB	; 251
    327e:	fb 4f       	sbci	r31, 0xFB	; 251
    3280:	20 83       	st	Z, r18
    3282:	90 93 46 04 	sts	0x0446, r25	; 0x800446 <rx_buffer+0x41>
    3286:	80 93 45 04 	sts	0x0445, r24	; 0x800445 <rx_buffer+0x40>
    328a:	02 c0       	rjmp	.+4      	; 0x3290 <__vector_18+0x5c>
    328c:	80 91 c6 00 	lds	r24, 0x00C6	; 0x8000c6 <__TEXT_REGION_LENGTH__+0x7f80c6>
    3290:	ff 91       	pop	r31
    3292:	ef 91       	pop	r30
    3294:	9f 91       	pop	r25
    3296:	8f 91       	pop	r24
    3298:	5f 91       	pop	r21
    329a:	4f 91       	pop	r20
    329c:	2f 91       	pop	r18
    329e:	0f 90       	pop	r0
    32a0:	0f be       	out	0x3f, r0	; 63
    32a2:	0f 90       	pop	r0
    32a4:	1f 90       	pop	r1
    32a6:	18 95       	reti

000032a8 <_Z14serialEventRunv>:
    32a8:	8f e9       	ldi	r24, 0x9F	; 159
    32aa:	93 e0       	ldi	r25, 0x03	; 3
    32ac:	26 df       	rcall	.-436    	; 0x30fa <_ZN14HardwareSerial9availableEv>
    32ae:	89 2b       	or	r24, r25
    32b0:	09 f0       	breq	.+2      	; 0x32b4 <_Z14serialEventRunv+0xc>
    32b2:	bf cf       	rjmp	.-130    	; 0x3232 <_Z11serialEventv>
    32b4:	08 95       	ret

000032b6 <__vector_19>:
    32b6:	1f 92       	push	r1
    32b8:	0f 92       	push	r0
    32ba:	0f b6       	in	r0, 0x3f	; 63
    32bc:	0f 92       	push	r0
    32be:	11 24       	eor	r1, r1
    32c0:	2f 93       	push	r18
    32c2:	3f 93       	push	r19
    32c4:	8f 93       	push	r24
    32c6:	9f 93       	push	r25
    32c8:	ef 93       	push	r30
    32ca:	ff 93       	push	r31
    32cc:	20 91 01 04 	lds	r18, 0x0401	; 0x800401 <tx_buffer+0x40>
    32d0:	30 91 02 04 	lds	r19, 0x0402	; 0x800402 <tx_buffer+0x41>
    32d4:	80 91 03 04 	lds	r24, 0x0403	; 0x800403 <tx_buffer+0x42>
    32d8:	90 91 04 04 	lds	r25, 0x0404	; 0x800404 <tx_buffer+0x43>
    32dc:	28 17       	cp	r18, r24
    32de:	39 07       	cpc	r19, r25
    32e0:	31 f4       	brne	.+12     	; 0x32ee <__vector_19+0x38>
    32e2:	80 91 c1 00 	lds	r24, 0x00C1	; 0x8000c1 <__TEXT_REGION_LENGTH__+0x7f80c1>
    32e6:	8f 7d       	andi	r24, 0xDF	; 223
    32e8:	80 93 c1 00 	sts	0x00C1, r24	; 0x8000c1 <__TEXT_REGION_LENGTH__+0x7f80c1>
    32ec:	14 c0       	rjmp	.+40     	; 0x3316 <__vector_19+0x60>
    32ee:	e0 91 03 04 	lds	r30, 0x0403	; 0x800403 <tx_buffer+0x42>
    32f2:	f0 91 04 04 	lds	r31, 0x0404	; 0x800404 <tx_buffer+0x43>
    32f6:	ef 53       	subi	r30, 0x3F	; 63
    32f8:	fc 4f       	sbci	r31, 0xFC	; 252
    32fa:	20 81       	ld	r18, Z
    32fc:	80 91 03 04 	lds	r24, 0x0403	; 0x800403 <tx_buffer+0x42>
    3300:	90 91 04 04 	lds	r25, 0x0404	; 0x800404 <tx_buffer+0x43>
    3304:	01 96       	adiw	r24, 0x01	; 1
    3306:	8f 73       	andi	r24, 0x3F	; 63
    3308:	99 27       	eor	r25, r25
    330a:	90 93 04 04 	sts	0x0404, r25	; 0x800404 <tx_buffer+0x43>
    330e:	80 93 03 04 	sts	0x0403, r24	; 0x800403 <tx_buffer+0x42>
    3312:	20 93 c6 00 	sts	0x00C6, r18	; 0x8000c6 <__TEXT_REGION_LENGTH__+0x7f80c6>
    3316:	ff 91       	pop	r31
    3318:	ef 91       	pop	r30
    331a:	9f 91       	pop	r25
    331c:	8f 91       	pop	r24
    331e:	3f 91       	pop	r19
    3320:	2f 91       	pop	r18
    3322:	0f 90       	pop	r0
    3324:	0f be       	out	0x3f, r0	; 63
    3326:	0f 90       	pop	r0
    3328:	1f 90       	pop	r1
    332a:	18 95       	reti

0000332c <_ZN14HardwareSerial5beginEmh>:
    332c:	cf 92       	push	r12
    332e:	df 92       	push	r13
    3330:	ef 92       	push	r14
    3332:	ff 92       	push	r15
    3334:	1f 93       	push	r17
    3336:	cf 93       	push	r28
    3338:	df 93       	push	r29
    333a:	ec 01       	movw	r28, r24
    333c:	6a 01       	movw	r12, r20
    333e:	7b 01       	movw	r14, r22
    3340:	12 2f       	mov	r17, r18
    3342:	41 15       	cp	r20, r1
    3344:	51 4e       	sbci	r21, 0xE1	; 225
    3346:	61 05       	cpc	r22, r1
    3348:	71 05       	cpc	r23, r1
    334a:	09 f1       	breq	.+66     	; 0x338e <_ZN14HardwareSerial5beginEmh+0x62>
    334c:	ec 89       	ldd	r30, Y+20	; 0x14
    334e:	fd 89       	ldd	r31, Y+21	; 0x15
    3350:	81 e0       	ldi	r24, 0x01	; 1
    3352:	90 e0       	ldi	r25, 0x00	; 0
    3354:	08 a0       	ldd	r0, Y+32	; 0x20
    3356:	02 c0       	rjmp	.+4      	; 0x335c <_ZN14HardwareSerial5beginEmh+0x30>
    3358:	88 0f       	add	r24, r24
    335a:	99 1f       	adc	r25, r25
    335c:	0a 94       	dec	r0
    335e:	e2 f7       	brpl	.-8      	; 0x3358 <_ZN14HardwareSerial5beginEmh+0x2c>
    3360:	80 83       	st	Z, r24
    3362:	60 e0       	ldi	r22, 0x00	; 0
    3364:	79 e0       	ldi	r23, 0x09	; 9
    3366:	8d e3       	ldi	r24, 0x3D	; 61
    3368:	90 e0       	ldi	r25, 0x00	; 0
    336a:	a7 01       	movw	r20, r14
    336c:	96 01       	movw	r18, r12
    336e:	0e 94 2f 26 	call	0x4c5e	; 0x4c5e <__udivmodsi4>
    3372:	da 01       	movw	r26, r20
    3374:	c9 01       	movw	r24, r18
    3376:	01 97       	sbiw	r24, 0x01	; 1
    3378:	a1 09       	sbc	r26, r1
    337a:	b1 09       	sbc	r27, r1
    337c:	b6 95       	lsr	r27
    337e:	a7 95       	ror	r26
    3380:	97 95       	ror	r25
    3382:	87 95       	ror	r24
    3384:	9c 01       	movw	r18, r24
    3386:	21 15       	cp	r18, r1
    3388:	80 e1       	ldi	r24, 0x10	; 16
    338a:	38 07       	cpc	r19, r24
    338c:	a8 f0       	brcs	.+42     	; 0x33b8 <_ZN14HardwareSerial5beginEmh+0x8c>
    338e:	ec 89       	ldd	r30, Y+20	; 0x14
    3390:	fd 89       	ldd	r31, Y+21	; 0x15
    3392:	10 82       	st	Z, r1
    3394:	60 e8       	ldi	r22, 0x80	; 128
    3396:	74 e8       	ldi	r23, 0x84	; 132
    3398:	8e e1       	ldi	r24, 0x1E	; 30
    339a:	90 e0       	ldi	r25, 0x00	; 0
    339c:	a7 01       	movw	r20, r14
    339e:	96 01       	movw	r18, r12
    33a0:	0e 94 2f 26 	call	0x4c5e	; 0x4c5e <__udivmodsi4>
    33a4:	da 01       	movw	r26, r20
    33a6:	c9 01       	movw	r24, r18
    33a8:	01 97       	sbiw	r24, 0x01	; 1
    33aa:	a1 09       	sbc	r26, r1
    33ac:	b1 09       	sbc	r27, r1
    33ae:	b6 95       	lsr	r27
    33b0:	a7 95       	ror	r26
    33b2:	97 95       	ror	r25
    33b4:	87 95       	ror	r24
    33b6:	9c 01       	movw	r18, r24
    33b8:	e8 89       	ldd	r30, Y+16	; 0x10
    33ba:	f9 89       	ldd	r31, Y+17	; 0x11
    33bc:	30 83       	st	Z, r19
    33be:	ea 89       	ldd	r30, Y+18	; 0x12
    33c0:	fb 89       	ldd	r31, Y+19	; 0x13
    33c2:	20 83       	st	Z, r18
    33c4:	e8 8d       	ldd	r30, Y+24	; 0x18
    33c6:	f9 8d       	ldd	r31, Y+25	; 0x19
    33c8:	10 83       	st	Z, r17
    33ca:	ee 89       	ldd	r30, Y+22	; 0x16
    33cc:	ff 89       	ldd	r31, Y+23	; 0x17
    33ce:	40 81       	ld	r20, Z
    33d0:	81 e0       	ldi	r24, 0x01	; 1
    33d2:	90 e0       	ldi	r25, 0x00	; 0
    33d4:	9c 01       	movw	r18, r24
    33d6:	0c 8c       	ldd	r0, Y+28	; 0x1c
    33d8:	02 c0       	rjmp	.+4      	; 0x33de <_ZN14HardwareSerial5beginEmh+0xb2>
    33da:	22 0f       	add	r18, r18
    33dc:	33 1f       	adc	r19, r19
    33de:	0a 94       	dec	r0
    33e0:	e2 f7       	brpl	.-8      	; 0x33da <_ZN14HardwareSerial5beginEmh+0xae>
    33e2:	24 2b       	or	r18, r20
    33e4:	20 83       	st	Z, r18
    33e6:	ee 89       	ldd	r30, Y+22	; 0x16
    33e8:	ff 89       	ldd	r31, Y+23	; 0x17
    33ea:	40 81       	ld	r20, Z
    33ec:	9c 01       	movw	r18, r24
    33ee:	0d 8c       	ldd	r0, Y+29	; 0x1d
    33f0:	02 c0       	rjmp	.+4      	; 0x33f6 <_ZN14HardwareSerial5beginEmh+0xca>
    33f2:	22 0f       	add	r18, r18
    33f4:	33 1f       	adc	r19, r19
    33f6:	0a 94       	dec	r0
    33f8:	e2 f7       	brpl	.-8      	; 0x33f2 <_ZN14HardwareSerial5beginEmh+0xc6>
    33fa:	24 2b       	or	r18, r20
    33fc:	20 83       	st	Z, r18
    33fe:	ee 89       	ldd	r30, Y+22	; 0x16
    3400:	ff 89       	ldd	r31, Y+23	; 0x17
    3402:	40 81       	ld	r20, Z
    3404:	9c 01       	movw	r18, r24
    3406:	0e 8c       	ldd	r0, Y+30	; 0x1e
    3408:	02 c0       	rjmp	.+4      	; 0x340e <_ZN14HardwareSerial5beginEmh+0xe2>
    340a:	22 0f       	add	r18, r18
    340c:	33 1f       	adc	r19, r19
    340e:	0a 94       	dec	r0
    3410:	e2 f7       	brpl	.-8      	; 0x340a <_ZN14HardwareSerial5beginEmh+0xde>
    3412:	24 2b       	or	r18, r20
    3414:	20 83       	st	Z, r18
    3416:	ee 89       	ldd	r30, Y+22	; 0x16
    3418:	ff 89       	ldd	r31, Y+23	; 0x17
    341a:	20 81       	ld	r18, Z
    341c:	0f 8c       	ldd	r0, Y+31	; 0x1f
    341e:	02 c0       	rjmp	.+4      	; 0x3424 <_ZN14HardwareSerial5beginEmh+0xf8>
    3420:	88 0f       	add	r24, r24
    3422:	99 1f       	adc	r25, r25
    3424:	0a 94       	dec	r0
    3426:	e2 f7       	brpl	.-8      	; 0x3420 <_ZN14HardwareSerial5beginEmh+0xf4>
    3428:	80 95       	com	r24
    342a:	82 23       	and	r24, r18
    342c:	80 83       	st	Z, r24
    342e:	df 91       	pop	r29
    3430:	cf 91       	pop	r28
    3432:	1f 91       	pop	r17
    3434:	ff 90       	pop	r15
    3436:	ef 90       	pop	r14
    3438:	df 90       	pop	r13
    343a:	cf 90       	pop	r12
    343c:	08 95       	ret

0000343e <_GLOBAL__sub_I_rx_buffer>:
    343e:	ef e9       	ldi	r30, 0x9F	; 159
    3440:	f3 e0       	ldi	r31, 0x03	; 3
    3442:	13 82       	std	Z+3, r1	; 0x03
    3444:	12 82       	std	Z+2, r1	; 0x02
    3446:	88 ee       	ldi	r24, 0xE8	; 232
    3448:	93 e0       	ldi	r25, 0x03	; 3
    344a:	a0 e0       	ldi	r26, 0x00	; 0
    344c:	b0 e0       	ldi	r27, 0x00	; 0
    344e:	84 83       	std	Z+4, r24	; 0x04
    3450:	95 83       	std	Z+5, r25	; 0x05
    3452:	a6 83       	std	Z+6, r26	; 0x06
    3454:	b7 83       	std	Z+7, r27	; 0x07
    3456:	81 e3       	ldi	r24, 0x31	; 49
    3458:	91 e0       	ldi	r25, 0x01	; 1
    345a:	91 83       	std	Z+1, r25	; 0x01
    345c:	80 83       	st	Z, r24
    345e:	85 e0       	ldi	r24, 0x05	; 5
    3460:	94 e0       	ldi	r25, 0x04	; 4
    3462:	95 87       	std	Z+13, r25	; 0x0d
    3464:	84 87       	std	Z+12, r24	; 0x0c
    3466:	81 ec       	ldi	r24, 0xC1	; 193
    3468:	93 e0       	ldi	r25, 0x03	; 3
    346a:	97 87       	std	Z+15, r25	; 0x0f
    346c:	86 87       	std	Z+14, r24	; 0x0e
    346e:	85 ec       	ldi	r24, 0xC5	; 197
    3470:	90 e0       	ldi	r25, 0x00	; 0
    3472:	91 8b       	std	Z+17, r25	; 0x11
    3474:	80 8b       	std	Z+16, r24	; 0x10
    3476:	84 ec       	ldi	r24, 0xC4	; 196
    3478:	90 e0       	ldi	r25, 0x00	; 0
    347a:	93 8b       	std	Z+19, r25	; 0x13
    347c:	82 8b       	std	Z+18, r24	; 0x12
    347e:	80 ec       	ldi	r24, 0xC0	; 192
    3480:	90 e0       	ldi	r25, 0x00	; 0
    3482:	95 8b       	std	Z+21, r25	; 0x15
    3484:	84 8b       	std	Z+20, r24	; 0x14
    3486:	81 ec       	ldi	r24, 0xC1	; 193
    3488:	90 e0       	ldi	r25, 0x00	; 0
    348a:	97 8b       	std	Z+23, r25	; 0x17
    348c:	86 8b       	std	Z+22, r24	; 0x16
    348e:	82 ec       	ldi	r24, 0xC2	; 194
    3490:	90 e0       	ldi	r25, 0x00	; 0
    3492:	91 8f       	std	Z+25, r25	; 0x19
    3494:	80 8f       	std	Z+24, r24	; 0x18
    3496:	86 ec       	ldi	r24, 0xC6	; 198
    3498:	90 e0       	ldi	r25, 0x00	; 0
    349a:	93 8f       	std	Z+27, r25	; 0x1b
    349c:	82 8f       	std	Z+26, r24	; 0x1a
    349e:	84 e0       	ldi	r24, 0x04	; 4
    34a0:	84 8f       	std	Z+28, r24	; 0x1c
    34a2:	83 e0       	ldi	r24, 0x03	; 3
    34a4:	85 8f       	std	Z+29, r24	; 0x1d
    34a6:	87 e0       	ldi	r24, 0x07	; 7
    34a8:	86 8f       	std	Z+30, r24	; 0x1e
    34aa:	85 e0       	ldi	r24, 0x05	; 5
    34ac:	87 8f       	std	Z+31, r24	; 0x1f
    34ae:	81 e0       	ldi	r24, 0x01	; 1
    34b0:	80 a3       	std	Z+32, r24	; 0x20
    34b2:	08 95       	ret

000034b4 <initVariant>:
    34b4:	08 95       	ret

000034b6 <main>:
    34b6:	a8 95       	wdr
    34b8:	9f e0       	ldi	r25, 0x0F	; 15
    34ba:	88 e1       	ldi	r24, 0x18	; 24
    34bc:	0f b6       	in	r0, 0x3f	; 63
    34be:	f8 94       	cli
    34c0:	a8 95       	wdr
    34c2:	80 93 60 00 	sts	0x0060, r24	; 0x800060 <__TEXT_REGION_LENGTH__+0x7f8060>
    34c6:	0f be       	out	0x3f, r0	; 63
    34c8:	90 93 60 00 	sts	0x0060, r25	; 0x800060 <__TEXT_REGION_LENGTH__+0x7f8060>
    34cc:	10 92 bc 00 	sts	0x00BC, r1	; 0x8000bc <__TEXT_REGION_LENGTH__+0x7f80bc>
    34d0:	10 92 c0 00 	sts	0x00C0, r1	; 0x8000c0 <__TEXT_REGION_LENGTH__+0x7f80c0>
    34d4:	10 92 c1 00 	sts	0x00C1, r1	; 0x8000c1 <__TEXT_REGION_LENGTH__+0x7f80c1>
    34d8:	10 92 c2 00 	sts	0x00C2, r1	; 0x8000c2 <__TEXT_REGION_LENGTH__+0x7f80c2>
    34dc:	64 d5       	rcall	.+2760   	; 0x3fa6 <init>
    34de:	ea df       	rcall	.-44     	; 0x34b4 <initVariant>
    34e0:	11 da       	rcall	.-3038   	; 0x2904 <setup>
    34e2:	c4 e5       	ldi	r28, 0x54	; 84
    34e4:	d9 e1       	ldi	r29, 0x19	; 25
    34e6:	e5 dd       	rcall	.-1078   	; 0x30b2 <loop>
    34e8:	20 97       	sbiw	r28, 0x00	; 0
    34ea:	e9 f3       	breq	.-6      	; 0x34e6 <main+0x30>
    34ec:	dd de       	rcall	.-582    	; 0x32a8 <_Z14serialEventRunv>
    34ee:	fb cf       	rjmp	.-10     	; 0x34e6 <main+0x30>

000034f0 <_ZN5Print5writeEPKhj>:
    34f0:	cf 92       	push	r12
    34f2:	df 92       	push	r13
    34f4:	ef 92       	push	r14
    34f6:	ff 92       	push	r15
    34f8:	0f 93       	push	r16
    34fa:	1f 93       	push	r17
    34fc:	cf 93       	push	r28
    34fe:	df 93       	push	r29
    3500:	6c 01       	movw	r12, r24
    3502:	eb 01       	movw	r28, r22
    3504:	7b 01       	movw	r14, r22
    3506:	e4 0e       	add	r14, r20
    3508:	f5 1e       	adc	r15, r21
    350a:	00 e0       	ldi	r16, 0x00	; 0
    350c:	10 e0       	ldi	r17, 0x00	; 0
    350e:	ce 15       	cp	r28, r14
    3510:	df 05       	cpc	r29, r15
    3512:	61 f0       	breq	.+24     	; 0x352c <_ZN5Print5writeEPKhj+0x3c>
    3514:	69 91       	ld	r22, Y+
    3516:	d6 01       	movw	r26, r12
    3518:	ed 91       	ld	r30, X+
    351a:	fc 91       	ld	r31, X
    351c:	01 90       	ld	r0, Z+
    351e:	f0 81       	ld	r31, Z
    3520:	e0 2d       	mov	r30, r0
    3522:	c6 01       	movw	r24, r12
    3524:	09 95       	icall
    3526:	08 0f       	add	r16, r24
    3528:	19 1f       	adc	r17, r25
    352a:	f1 cf       	rjmp	.-30     	; 0x350e <_ZN5Print5writeEPKhj+0x1e>
    352c:	c8 01       	movw	r24, r16
    352e:	df 91       	pop	r29
    3530:	cf 91       	pop	r28
    3532:	1f 91       	pop	r17
    3534:	0f 91       	pop	r16
    3536:	ff 90       	pop	r15
    3538:	ef 90       	pop	r14
    353a:	df 90       	pop	r13
    353c:	cf 90       	pop	r12
    353e:	08 95       	ret

00003540 <_ZN6Stream10setTimeoutEm>:
    3540:	fc 01       	movw	r30, r24
    3542:	44 83       	std	Z+4, r20	; 0x04
    3544:	55 83       	std	Z+5, r21	; 0x05
    3546:	66 83       	std	Z+6, r22	; 0x06
    3548:	77 83       	std	Z+7, r23	; 0x07
    354a:	08 95       	ret

0000354c <_Z12disableTimerh>:
    354c:	81 30       	cpi	r24, 0x01	; 1
    354e:	39 f0       	breq	.+14     	; 0x355e <_Z12disableTimerh+0x12>
    3550:	18 f0       	brcs	.+6      	; 0x3558 <_Z12disableTimerh+0xc>
    3552:	82 30       	cpi	r24, 0x02	; 2
    3554:	51 f0       	breq	.+20     	; 0x356a <_Z12disableTimerh+0x1e>
    3556:	08 95       	ret
    3558:	10 92 6e 00 	sts	0x006E, r1	; 0x80006e <__TEXT_REGION_LENGTH__+0x7f806e>
    355c:	08 95       	ret
    355e:	80 91 6f 00 	lds	r24, 0x006F	; 0x80006f <__TEXT_REGION_LENGTH__+0x7f806f>
    3562:	8d 7f       	andi	r24, 0xFD	; 253
    3564:	80 93 6f 00 	sts	0x006F, r24	; 0x80006f <__TEXT_REGION_LENGTH__+0x7f806f>
    3568:	08 95       	ret
    356a:	80 91 70 00 	lds	r24, 0x0070	; 0x800070 <__TEXT_REGION_LENGTH__+0x7f8070>
    356e:	8d 7f       	andi	r24, 0xFD	; 253
    3570:	80 93 70 00 	sts	0x0070, r24	; 0x800070 <__TEXT_REGION_LENGTH__+0x7f8070>
    3574:	81 e0       	ldi	r24, 0x01	; 1
    3576:	80 93 b0 00 	sts	0x00B0, r24	; 0x8000b0 <__TEXT_REGION_LENGTH__+0x7f80b0>
    357a:	80 91 b1 00 	lds	r24, 0x00B1	; 0x8000b1 <__TEXT_REGION_LENGTH__+0x7f80b1>
    357e:	88 7f       	andi	r24, 0xF8	; 248
    3580:	84 60       	ori	r24, 0x04	; 4
    3582:	80 93 b1 00 	sts	0x00B1, r24	; 0x8000b1 <__TEXT_REGION_LENGTH__+0x7f80b1>
    3586:	10 92 b3 00 	sts	0x00B3, r1	; 0x8000b3 <__TEXT_REGION_LENGTH__+0x7f80b3>
    358a:	08 95       	ret

0000358c <_Z6noToneh>:
    358c:	cf 93       	push	r28
    358e:	c8 2f       	mov	r28, r24
    3590:	80 91 04 01 	lds	r24, 0x0104	; 0x800104 <_ZL9tone_pins>
    3594:	c8 13       	cpse	r28, r24
    3596:	07 c0       	rjmp	.+14     	; 0x35a6 <_Z6noToneh+0x1a>
    3598:	e6 e0       	ldi	r30, 0x06	; 6
    359a:	f1 e0       	ldi	r31, 0x01	; 1
    359c:	84 91       	lpm	r24, Z
    359e:	9f ef       	ldi	r25, 0xFF	; 255
    35a0:	90 93 04 01 	sts	0x0104, r25	; 0x800104 <_ZL9tone_pins>
    35a4:	01 c0       	rjmp	.+2      	; 0x35a8 <_Z6noToneh+0x1c>
    35a6:	8f ef       	ldi	r24, 0xFF	; 255
    35a8:	d1 df       	rcall	.-94     	; 0x354c <_Z12disableTimerh>
    35aa:	60 e0       	ldi	r22, 0x00	; 0
    35ac:	8c 2f       	mov	r24, r28
    35ae:	cf 91       	pop	r28
    35b0:	d8 c5       	rjmp	.+2992   	; 0x4162 <digitalWrite>

000035b2 <__vector_7>:
    35b2:	1f 92       	push	r1
    35b4:	0f 92       	push	r0
    35b6:	0f b6       	in	r0, 0x3f	; 63
    35b8:	0f 92       	push	r0
    35ba:	11 24       	eor	r1, r1
    35bc:	2f 93       	push	r18
    35be:	3f 93       	push	r19
    35c0:	4f 93       	push	r20
    35c2:	5f 93       	push	r21
    35c4:	6f 93       	push	r22
    35c6:	7f 93       	push	r23
    35c8:	8f 93       	push	r24
    35ca:	9f 93       	push	r25
    35cc:	af 93       	push	r26
    35ce:	bf 93       	push	r27
    35d0:	ef 93       	push	r30
    35d2:	ff 93       	push	r31
    35d4:	80 91 4c 04 	lds	r24, 0x044C	; 0x80044c <timer2_toggle_count>
    35d8:	90 91 4d 04 	lds	r25, 0x044D	; 0x80044d <timer2_toggle_count+0x1>
    35dc:	a0 91 4e 04 	lds	r26, 0x044E	; 0x80044e <timer2_toggle_count+0x2>
    35e0:	b0 91 4f 04 	lds	r27, 0x044F	; 0x80044f <timer2_toggle_count+0x3>
    35e4:	89 2b       	or	r24, r25
    35e6:	8a 2b       	or	r24, r26
    35e8:	8b 2b       	or	r24, r27
    35ea:	51 f1       	breq	.+84     	; 0x3640 <__vector_7+0x8e>
    35ec:	90 91 49 04 	lds	r25, 0x0449	; 0x800449 <timer2_pin_mask>
    35f0:	e0 91 4a 04 	lds	r30, 0x044A	; 0x80044a <timer2_pin_port>
    35f4:	f0 91 4b 04 	lds	r31, 0x044B	; 0x80044b <timer2_pin_port+0x1>
    35f8:	80 81       	ld	r24, Z
    35fa:	89 27       	eor	r24, r25
    35fc:	80 83       	st	Z, r24
    35fe:	80 91 4c 04 	lds	r24, 0x044C	; 0x80044c <timer2_toggle_count>
    3602:	90 91 4d 04 	lds	r25, 0x044D	; 0x80044d <timer2_toggle_count+0x1>
    3606:	a0 91 4e 04 	lds	r26, 0x044E	; 0x80044e <timer2_toggle_count+0x2>
    360a:	b0 91 4f 04 	lds	r27, 0x044F	; 0x80044f <timer2_toggle_count+0x3>
    360e:	18 16       	cp	r1, r24
    3610:	19 06       	cpc	r1, r25
    3612:	1a 06       	cpc	r1, r26
    3614:	1b 06       	cpc	r1, r27
    3616:	bc f4       	brge	.+46     	; 0x3646 <__vector_7+0x94>
    3618:	80 91 4c 04 	lds	r24, 0x044C	; 0x80044c <timer2_toggle_count>
    361c:	90 91 4d 04 	lds	r25, 0x044D	; 0x80044d <timer2_toggle_count+0x1>
    3620:	a0 91 4e 04 	lds	r26, 0x044E	; 0x80044e <timer2_toggle_count+0x2>
    3624:	b0 91 4f 04 	lds	r27, 0x044F	; 0x80044f <timer2_toggle_count+0x3>
    3628:	01 97       	sbiw	r24, 0x01	; 1
    362a:	a1 09       	sbc	r26, r1
    362c:	b1 09       	sbc	r27, r1
    362e:	80 93 4c 04 	sts	0x044C, r24	; 0x80044c <timer2_toggle_count>
    3632:	90 93 4d 04 	sts	0x044D, r25	; 0x80044d <timer2_toggle_count+0x1>
    3636:	a0 93 4e 04 	sts	0x044E, r26	; 0x80044e <timer2_toggle_count+0x2>
    363a:	b0 93 4f 04 	sts	0x044F, r27	; 0x80044f <timer2_toggle_count+0x3>
    363e:	03 c0       	rjmp	.+6      	; 0x3646 <__vector_7+0x94>
    3640:	80 91 04 01 	lds	r24, 0x0104	; 0x800104 <_ZL9tone_pins>
    3644:	a3 df       	rcall	.-186    	; 0x358c <_Z6noToneh>
    3646:	ff 91       	pop	r31
    3648:	ef 91       	pop	r30
    364a:	bf 91       	pop	r27
    364c:	af 91       	pop	r26
    364e:	9f 91       	pop	r25
    3650:	8f 91       	pop	r24
    3652:	7f 91       	pop	r23
    3654:	6f 91       	pop	r22
    3656:	5f 91       	pop	r21
    3658:	4f 91       	pop	r20
    365a:	3f 91       	pop	r19
    365c:	2f 91       	pop	r18
    365e:	0f 90       	pop	r0
    3660:	0f be       	out	0x3f, r0	; 63
    3662:	0f 90       	pop	r0
    3664:	1f 90       	pop	r1
    3666:	18 95       	reti

00003668 <twi_init>:
    3668:	10 92 bd 04 	sts	0x04BD, r1	; 0x8004bd <twi_state>
    366c:	81 e0       	ldi	r24, 0x01	; 1
    366e:	80 93 bb 04 	sts	0x04BB, r24	; 0x8004bb <twi_sendStop>
    3672:	10 92 ba 04 	sts	0x04BA, r1	; 0x8004ba <twi_inRepStart>
    3676:	61 e0       	ldi	r22, 0x01	; 1
    3678:	82 e1       	ldi	r24, 0x12	; 18
    367a:	73 d5       	rcall	.+2790   	; 0x4162 <digitalWrite>
    367c:	61 e0       	ldi	r22, 0x01	; 1
    367e:	83 e1       	ldi	r24, 0x13	; 19
    3680:	70 d5       	rcall	.+2784   	; 0x4162 <digitalWrite>
    3682:	e9 eb       	ldi	r30, 0xB9	; 185
    3684:	f0 e0       	ldi	r31, 0x00	; 0
    3686:	80 81       	ld	r24, Z
    3688:	8e 7f       	andi	r24, 0xFE	; 254
    368a:	80 83       	st	Z, r24
    368c:	80 81       	ld	r24, Z
    368e:	8d 7f       	andi	r24, 0xFD	; 253
    3690:	80 83       	st	Z, r24
    3692:	88 e4       	ldi	r24, 0x48	; 72
    3694:	80 93 b8 00 	sts	0x00B8, r24	; 0x8000b8 <__TEXT_REGION_LENGTH__+0x7f80b8>
    3698:	85 e4       	ldi	r24, 0x45	; 69
    369a:	80 93 bc 00 	sts	0x00BC, r24	; 0x8000bc <__TEXT_REGION_LENGTH__+0x7f80bc>
    369e:	08 95       	ret

000036a0 <twi_setFrequency>:
    36a0:	9b 01       	movw	r18, r22
    36a2:	ac 01       	movw	r20, r24
    36a4:	60 e0       	ldi	r22, 0x00	; 0
    36a6:	74 e2       	ldi	r23, 0x24	; 36
    36a8:	84 ef       	ldi	r24, 0xF4	; 244
    36aa:	90 e0       	ldi	r25, 0x00	; 0
    36ac:	0e 94 2f 26 	call	0x4c5e	; 0x4c5e <__udivmodsi4>
    36b0:	da 01       	movw	r26, r20
    36b2:	c9 01       	movw	r24, r18
    36b4:	40 97       	sbiw	r24, 0x10	; 16
    36b6:	a1 09       	sbc	r26, r1
    36b8:	b1 09       	sbc	r27, r1
    36ba:	b6 95       	lsr	r27
    36bc:	a7 95       	ror	r26
    36be:	97 95       	ror	r25
    36c0:	87 95       	ror	r24
    36c2:	80 93 b8 00 	sts	0x00B8, r24	; 0x8000b8 <__TEXT_REGION_LENGTH__+0x7f80b8>
    36c6:	08 95       	ret

000036c8 <twi_readFrom>:
    36c8:	41 32       	cpi	r20, 0x21	; 33
    36ca:	08 f0       	brcs	.+2      	; 0x36ce <twi_readFrom+0x6>
    36cc:	43 c0       	rjmp	.+134    	; 0x3754 <twi_readFrom+0x8c>
    36ce:	90 91 bd 04 	lds	r25, 0x04BD	; 0x8004bd <twi_state>
    36d2:	91 11       	cpse	r25, r1
    36d4:	fc cf       	rjmp	.-8      	; 0x36ce <twi_readFrom+0x6>
    36d6:	91 e0       	ldi	r25, 0x01	; 1
    36d8:	90 93 bd 04 	sts	0x04BD, r25	; 0x8004bd <twi_state>
    36dc:	20 93 bb 04 	sts	0x04BB, r18	; 0x8004bb <twi_sendStop>
    36e0:	2f ef       	ldi	r18, 0xFF	; 255
    36e2:	20 93 50 04 	sts	0x0450, r18	; 0x800450 <twi_error>
    36e6:	10 92 95 04 	sts	0x0495, r1	; 0x800495 <twi_masterBufferIndex>
    36ea:	24 0f       	add	r18, r20
    36ec:	20 93 94 04 	sts	0x0494, r18	; 0x800494 <twi_masterBufferLength>
    36f0:	90 93 bc 04 	sts	0x04BC, r25	; 0x8004bc <twi_slarw>
    36f4:	90 91 bc 04 	lds	r25, 0x04BC	; 0x8004bc <twi_slarw>
    36f8:	88 0f       	add	r24, r24
    36fa:	89 2b       	or	r24, r25
    36fc:	80 93 bc 04 	sts	0x04BC, r24	; 0x8004bc <twi_slarw>
    3700:	80 91 ba 04 	lds	r24, 0x04BA	; 0x8004ba <twi_inRepStart>
    3704:	81 30       	cpi	r24, 0x01	; 1
    3706:	61 f4       	brne	.+24     	; 0x3720 <twi_readFrom+0x58>
    3708:	10 92 ba 04 	sts	0x04BA, r1	; 0x8004ba <twi_inRepStart>
    370c:	80 91 bc 04 	lds	r24, 0x04BC	; 0x8004bc <twi_slarw>
    3710:	80 93 bb 00 	sts	0x00BB, r24	; 0x8000bb <__TEXT_REGION_LENGTH__+0x7f80bb>
    3714:	80 91 bc 00 	lds	r24, 0x00BC	; 0x8000bc <__TEXT_REGION_LENGTH__+0x7f80bc>
    3718:	83 fd       	sbrc	r24, 3
    371a:	f8 cf       	rjmp	.-16     	; 0x370c <twi_readFrom+0x44>
    371c:	85 ec       	ldi	r24, 0xC5	; 197
    371e:	01 c0       	rjmp	.+2      	; 0x3722 <twi_readFrom+0x5a>
    3720:	85 ee       	ldi	r24, 0xE5	; 229
    3722:	80 93 bc 00 	sts	0x00BC, r24	; 0x8000bc <__TEXT_REGION_LENGTH__+0x7f80bc>
    3726:	80 91 bd 04 	lds	r24, 0x04BD	; 0x8004bd <twi_state>
    372a:	81 30       	cpi	r24, 0x01	; 1
    372c:	e1 f3       	breq	.-8      	; 0x3726 <twi_readFrom+0x5e>
    372e:	80 91 95 04 	lds	r24, 0x0495	; 0x800495 <twi_masterBufferIndex>
    3732:	84 17       	cp	r24, r20
    3734:	10 f4       	brcc	.+4      	; 0x373a <twi_readFrom+0x72>
    3736:	40 91 95 04 	lds	r20, 0x0495	; 0x800495 <twi_masterBufferIndex>
    373a:	a6 e9       	ldi	r26, 0x96	; 150
    373c:	b4 e0       	ldi	r27, 0x04	; 4
    373e:	96 2f       	mov	r25, r22
    3740:	fb 01       	movw	r30, r22
    3742:	8e 2f       	mov	r24, r30
    3744:	89 1b       	sub	r24, r25
    3746:	84 17       	cp	r24, r20
    3748:	18 f4       	brcc	.+6      	; 0x3750 <twi_readFrom+0x88>
    374a:	8d 91       	ld	r24, X+
    374c:	81 93       	st	Z+, r24
    374e:	f9 cf       	rjmp	.-14     	; 0x3742 <twi_readFrom+0x7a>
    3750:	84 2f       	mov	r24, r20
    3752:	08 95       	ret
    3754:	80 e0       	ldi	r24, 0x00	; 0
    3756:	08 95       	ret

00003758 <twi_writeTo>:
    3758:	0f 93       	push	r16
    375a:	41 32       	cpi	r20, 0x21	; 33
    375c:	08 f0       	brcs	.+2      	; 0x3760 <twi_writeTo+0x8>
    375e:	4a c0       	rjmp	.+148    	; 0x37f4 <twi_writeTo+0x9c>
    3760:	90 91 bd 04 	lds	r25, 0x04BD	; 0x8004bd <twi_state>
    3764:	91 11       	cpse	r25, r1
    3766:	fc cf       	rjmp	.-8      	; 0x3760 <twi_writeTo+0x8>
    3768:	32 e0       	ldi	r19, 0x02	; 2
    376a:	30 93 bd 04 	sts	0x04BD, r19	; 0x8004bd <twi_state>
    376e:	00 93 bb 04 	sts	0x04BB, r16	; 0x8004bb <twi_sendStop>
    3772:	3f ef       	ldi	r19, 0xFF	; 255
    3774:	30 93 50 04 	sts	0x0450, r19	; 0x800450 <twi_error>
    3778:	10 92 95 04 	sts	0x0495, r1	; 0x800495 <twi_masterBufferIndex>
    377c:	40 93 94 04 	sts	0x0494, r20	; 0x800494 <twi_masterBufferLength>
    3780:	56 2f       	mov	r21, r22
    3782:	a6 e9       	ldi	r26, 0x96	; 150
    3784:	b4 e0       	ldi	r27, 0x04	; 4
    3786:	fb 01       	movw	r30, r22
    3788:	3e 2f       	mov	r19, r30
    378a:	35 1b       	sub	r19, r21
    378c:	34 17       	cp	r19, r20
    378e:	18 f4       	brcc	.+6      	; 0x3796 <twi_writeTo+0x3e>
    3790:	31 91       	ld	r19, Z+
    3792:	3d 93       	st	X+, r19
    3794:	f9 cf       	rjmp	.-14     	; 0x3788 <twi_writeTo+0x30>
    3796:	10 92 bc 04 	sts	0x04BC, r1	; 0x8004bc <twi_slarw>
    379a:	30 91 bc 04 	lds	r19, 0x04BC	; 0x8004bc <twi_slarw>
    379e:	88 0f       	add	r24, r24
    37a0:	83 2b       	or	r24, r19
    37a2:	80 93 bc 04 	sts	0x04BC, r24	; 0x8004bc <twi_slarw>
    37a6:	80 91 ba 04 	lds	r24, 0x04BA	; 0x8004ba <twi_inRepStart>
    37aa:	81 30       	cpi	r24, 0x01	; 1
    37ac:	61 f4       	brne	.+24     	; 0x37c6 <twi_writeTo+0x6e>
    37ae:	10 92 ba 04 	sts	0x04BA, r1	; 0x8004ba <twi_inRepStart>
    37b2:	80 91 bc 04 	lds	r24, 0x04BC	; 0x8004bc <twi_slarw>
    37b6:	80 93 bb 00 	sts	0x00BB, r24	; 0x8000bb <__TEXT_REGION_LENGTH__+0x7f80bb>
    37ba:	80 91 bc 00 	lds	r24, 0x00BC	; 0x8000bc <__TEXT_REGION_LENGTH__+0x7f80bc>
    37be:	83 fd       	sbrc	r24, 3
    37c0:	f8 cf       	rjmp	.-16     	; 0x37b2 <twi_writeTo+0x5a>
    37c2:	85 ec       	ldi	r24, 0xC5	; 197
    37c4:	01 c0       	rjmp	.+2      	; 0x37c8 <twi_writeTo+0x70>
    37c6:	85 ee       	ldi	r24, 0xE5	; 229
    37c8:	80 93 bc 00 	sts	0x00BC, r24	; 0x8000bc <__TEXT_REGION_LENGTH__+0x7f80bc>
    37cc:	22 23       	and	r18, r18
    37ce:	21 f0       	breq	.+8      	; 0x37d8 <twi_writeTo+0x80>
    37d0:	80 91 bd 04 	lds	r24, 0x04BD	; 0x8004bd <twi_state>
    37d4:	82 30       	cpi	r24, 0x02	; 2
    37d6:	d1 f3       	breq	.-12     	; 0x37cc <twi_writeTo+0x74>
    37d8:	80 91 50 04 	lds	r24, 0x0450	; 0x800450 <twi_error>
    37dc:	8f 3f       	cpi	r24, 0xFF	; 255
    37de:	79 f0       	breq	.+30     	; 0x37fe <twi_writeTo+0xa6>
    37e0:	80 91 50 04 	lds	r24, 0x0450	; 0x800450 <twi_error>
    37e4:	80 32       	cpi	r24, 0x20	; 32
    37e6:	41 f0       	breq	.+16     	; 0x37f8 <twi_writeTo+0xa0>
    37e8:	80 91 50 04 	lds	r24, 0x0450	; 0x800450 <twi_error>
    37ec:	80 33       	cpi	r24, 0x30	; 48
    37ee:	31 f0       	breq	.+12     	; 0x37fc <twi_writeTo+0xa4>
    37f0:	94 e0       	ldi	r25, 0x04	; 4
    37f2:	05 c0       	rjmp	.+10     	; 0x37fe <twi_writeTo+0xa6>
    37f4:	91 e0       	ldi	r25, 0x01	; 1
    37f6:	03 c0       	rjmp	.+6      	; 0x37fe <twi_writeTo+0xa6>
    37f8:	92 e0       	ldi	r25, 0x02	; 2
    37fa:	01 c0       	rjmp	.+2      	; 0x37fe <twi_writeTo+0xa6>
    37fc:	93 e0       	ldi	r25, 0x03	; 3
    37fe:	89 2f       	mov	r24, r25
    3800:	0f 91       	pop	r16
    3802:	08 95       	ret

00003804 <twi_transmit>:
    3804:	40 91 72 04 	lds	r20, 0x0472	; 0x800472 <twi_txBufferLength>
    3808:	26 2f       	mov	r18, r22
    380a:	30 e0       	ldi	r19, 0x00	; 0
    380c:	24 0f       	add	r18, r20
    380e:	31 1d       	adc	r19, r1
    3810:	21 32       	cpi	r18, 0x21	; 33
    3812:	31 05       	cpc	r19, r1
    3814:	dc f4       	brge	.+54     	; 0x384c <twi_transmit+0x48>
    3816:	20 91 bd 04 	lds	r18, 0x04BD	; 0x8004bd <twi_state>
    381a:	24 30       	cpi	r18, 0x04	; 4
    381c:	c9 f4       	brne	.+50     	; 0x3850 <twi_transmit+0x4c>
    381e:	fc 01       	movw	r30, r24
    3820:	80 e0       	ldi	r24, 0x00	; 0
    3822:	90 e0       	ldi	r25, 0x00	; 0
    3824:	86 17       	cp	r24, r22
    3826:	58 f4       	brcc	.+22     	; 0x383e <twi_transmit+0x3a>
    3828:	30 91 72 04 	lds	r19, 0x0472	; 0x800472 <twi_txBufferLength>
    382c:	21 91       	ld	r18, Z+
    382e:	dc 01       	movw	r26, r24
    3830:	ac 58       	subi	r26, 0x8C	; 140
    3832:	bb 4f       	sbci	r27, 0xFB	; 251
    3834:	a3 0f       	add	r26, r19
    3836:	b1 1d       	adc	r27, r1
    3838:	2c 93       	st	X, r18
    383a:	01 96       	adiw	r24, 0x01	; 1
    383c:	f3 cf       	rjmp	.-26     	; 0x3824 <twi_transmit+0x20>
    383e:	80 91 72 04 	lds	r24, 0x0472	; 0x800472 <twi_txBufferLength>
    3842:	68 0f       	add	r22, r24
    3844:	60 93 72 04 	sts	0x0472, r22	; 0x800472 <twi_txBufferLength>
    3848:	80 e0       	ldi	r24, 0x00	; 0
    384a:	08 95       	ret
    384c:	81 e0       	ldi	r24, 0x01	; 1
    384e:	08 95       	ret
    3850:	82 e0       	ldi	r24, 0x02	; 2
    3852:	08 95       	ret

00003854 <twi_attachSlaveRxEvent>:
    3854:	90 93 b7 04 	sts	0x04B7, r25	; 0x8004b7 <twi_onSlaveReceive+0x1>
    3858:	80 93 b6 04 	sts	0x04B6, r24	; 0x8004b6 <twi_onSlaveReceive>
    385c:	08 95       	ret

0000385e <twi_attachSlaveTxEvent>:
    385e:	90 93 b9 04 	sts	0x04B9, r25	; 0x8004b9 <twi_onSlaveTransmit+0x1>
    3862:	80 93 b8 04 	sts	0x04B8, r24	; 0x8004b8 <twi_onSlaveTransmit>
    3866:	08 95       	ret

00003868 <twi_stop>:
    3868:	85 ed       	ldi	r24, 0xD5	; 213
    386a:	80 93 bc 00 	sts	0x00BC, r24	; 0x8000bc <__TEXT_REGION_LENGTH__+0x7f80bc>
    386e:	80 91 bc 00 	lds	r24, 0x00BC	; 0x8000bc <__TEXT_REGION_LENGTH__+0x7f80bc>
    3872:	84 fd       	sbrc	r24, 4
    3874:	fc cf       	rjmp	.-8      	; 0x386e <twi_stop+0x6>
    3876:	10 92 bd 04 	sts	0x04BD, r1	; 0x8004bd <twi_state>
    387a:	08 95       	ret

0000387c <twi_releaseBus>:
    387c:	85 ec       	ldi	r24, 0xC5	; 197
    387e:	80 93 bc 00 	sts	0x00BC, r24	; 0x8000bc <__TEXT_REGION_LENGTH__+0x7f80bc>
    3882:	10 92 bd 04 	sts	0x04BD, r1	; 0x8004bd <twi_state>
    3886:	08 95       	ret

00003888 <__vector_24>:
    3888:	1f 92       	push	r1
    388a:	0f 92       	push	r0
    388c:	0f b6       	in	r0, 0x3f	; 63
    388e:	0f 92       	push	r0
    3890:	11 24       	eor	r1, r1
    3892:	2f 93       	push	r18
    3894:	3f 93       	push	r19
    3896:	4f 93       	push	r20
    3898:	5f 93       	push	r21
    389a:	6f 93       	push	r22
    389c:	7f 93       	push	r23
    389e:	8f 93       	push	r24
    38a0:	9f 93       	push	r25
    38a2:	af 93       	push	r26
    38a4:	bf 93       	push	r27
    38a6:	ef 93       	push	r30
    38a8:	ff 93       	push	r31
    38aa:	80 91 b9 00 	lds	r24, 0x00B9	; 0x8000b9 <__TEXT_REGION_LENGTH__+0x7f80b9>
    38ae:	88 7f       	andi	r24, 0xF8	; 248
    38b0:	80 36       	cpi	r24, 0x60	; 96
    38b2:	09 f4       	brne	.+2      	; 0x38b6 <__vector_24+0x2e>
    38b4:	9d c0       	rjmp	.+314    	; 0x39f0 <__vector_24+0x168>
    38b6:	70 f5       	brcc	.+92     	; 0x3914 <__vector_24+0x8c>
    38b8:	88 32       	cpi	r24, 0x28	; 40
    38ba:	09 f4       	brne	.+2      	; 0x38be <__vector_24+0x36>
    38bc:	5c c0       	rjmp	.+184    	; 0x3976 <__vector_24+0xee>
    38be:	90 f4       	brcc	.+36     	; 0x38e4 <__vector_24+0x5c>
    38c0:	80 31       	cpi	r24, 0x10	; 16
    38c2:	09 f4       	brne	.+2      	; 0x38c6 <__vector_24+0x3e>
    38c4:	55 c0       	rjmp	.+170    	; 0x3970 <__vector_24+0xe8>
    38c6:	38 f4       	brcc	.+14     	; 0x38d6 <__vector_24+0x4e>
    38c8:	88 23       	and	r24, r24
    38ca:	09 f4       	brne	.+2      	; 0x38ce <__vector_24+0x46>
    38cc:	f3 c0       	rjmp	.+486    	; 0x3ab4 <__vector_24+0x22c>
    38ce:	88 30       	cpi	r24, 0x08	; 8
    38d0:	09 f4       	brne	.+2      	; 0x38d4 <__vector_24+0x4c>
    38d2:	4e c0       	rjmp	.+156    	; 0x3970 <__vector_24+0xe8>
    38d4:	f2 c0       	rjmp	.+484    	; 0x3aba <__vector_24+0x232>
    38d6:	88 31       	cpi	r24, 0x18	; 24
    38d8:	09 f4       	brne	.+2      	; 0x38dc <__vector_24+0x54>
    38da:	4d c0       	rjmp	.+154    	; 0x3976 <__vector_24+0xee>
    38dc:	80 32       	cpi	r24, 0x20	; 32
    38de:	09 f4       	brne	.+2      	; 0x38e2 <__vector_24+0x5a>
    38e0:	5e c0       	rjmp	.+188    	; 0x399e <__vector_24+0x116>
    38e2:	eb c0       	rjmp	.+470    	; 0x3aba <__vector_24+0x232>
    38e4:	80 34       	cpi	r24, 0x40	; 64
    38e6:	09 f4       	brne	.+2      	; 0x38ea <__vector_24+0x62>
    38e8:	69 c0       	rjmp	.+210    	; 0x39bc <__vector_24+0x134>
    38ea:	50 f4       	brcc	.+20     	; 0x3900 <__vector_24+0x78>
    38ec:	80 33       	cpi	r24, 0x30	; 48
    38ee:	09 f4       	brne	.+2      	; 0x38f2 <__vector_24+0x6a>
    38f0:	56 c0       	rjmp	.+172    	; 0x399e <__vector_24+0x116>
    38f2:	88 33       	cpi	r24, 0x38	; 56
    38f4:	09 f0       	breq	.+2      	; 0x38f8 <__vector_24+0x70>
    38f6:	e1 c0       	rjmp	.+450    	; 0x3aba <__vector_24+0x232>
    38f8:	80 93 50 04 	sts	0x0450, r24	; 0x800450 <twi_error>
    38fc:	bf df       	rcall	.-130    	; 0x387c <twi_releaseBus>
    38fe:	dd c0       	rjmp	.+442    	; 0x3aba <__vector_24+0x232>
    3900:	80 35       	cpi	r24, 0x50	; 80
    3902:	09 f4       	brne	.+2      	; 0x3906 <__vector_24+0x7e>
    3904:	4f c0       	rjmp	.+158    	; 0x39a4 <__vector_24+0x11c>
    3906:	88 35       	cpi	r24, 0x58	; 88
    3908:	09 f4       	brne	.+2      	; 0x390c <__vector_24+0x84>
    390a:	5d c0       	rjmp	.+186    	; 0x39c6 <__vector_24+0x13e>
    390c:	88 34       	cpi	r24, 0x48	; 72
    390e:	09 f0       	breq	.+2      	; 0x3912 <__vector_24+0x8a>
    3910:	d4 c0       	rjmp	.+424    	; 0x3aba <__vector_24+0x232>
    3912:	d2 c0       	rjmp	.+420    	; 0x3ab8 <__vector_24+0x230>
    3914:	88 39       	cpi	r24, 0x98	; 152
    3916:	09 f4       	brne	.+2      	; 0x391a <__vector_24+0x92>
    3918:	c3 c0       	rjmp	.+390    	; 0x3aa0 <__vector_24+0x218>
    391a:	a8 f4       	brcc	.+42     	; 0x3946 <__vector_24+0xbe>
    391c:	88 37       	cpi	r24, 0x78	; 120
    391e:	09 f4       	brne	.+2      	; 0x3922 <__vector_24+0x9a>
    3920:	67 c0       	rjmp	.+206    	; 0x39f0 <__vector_24+0x168>
    3922:	38 f4       	brcc	.+14     	; 0x3932 <__vector_24+0xaa>
    3924:	88 36       	cpi	r24, 0x68	; 104
    3926:	09 f4       	brne	.+2      	; 0x392a <__vector_24+0xa2>
    3928:	63 c0       	rjmp	.+198    	; 0x39f0 <__vector_24+0x168>
    392a:	80 37       	cpi	r24, 0x70	; 112
    392c:	09 f4       	brne	.+2      	; 0x3930 <__vector_24+0xa8>
    392e:	60 c0       	rjmp	.+192    	; 0x39f0 <__vector_24+0x168>
    3930:	c4 c0       	rjmp	.+392    	; 0x3aba <__vector_24+0x232>
    3932:	88 38       	cpi	r24, 0x88	; 136
    3934:	09 f4       	brne	.+2      	; 0x3938 <__vector_24+0xb0>
    3936:	b4 c0       	rjmp	.+360    	; 0x3aa0 <__vector_24+0x218>
    3938:	80 39       	cpi	r24, 0x90	; 144
    393a:	09 f4       	brne	.+2      	; 0x393e <__vector_24+0xb6>
    393c:	5f c0       	rjmp	.+190    	; 0x39fc <__vector_24+0x174>
    393e:	80 38       	cpi	r24, 0x80	; 128
    3940:	09 f0       	breq	.+2      	; 0x3944 <__vector_24+0xbc>
    3942:	bb c0       	rjmp	.+374    	; 0x3aba <__vector_24+0x232>
    3944:	5b c0       	rjmp	.+182    	; 0x39fc <__vector_24+0x174>
    3946:	80 3b       	cpi	r24, 0xB0	; 176
    3948:	09 f4       	brne	.+2      	; 0x394c <__vector_24+0xc4>
    394a:	82 c0       	rjmp	.+260    	; 0x3a50 <__vector_24+0x1c8>
    394c:	38 f4       	brcc	.+14     	; 0x395c <__vector_24+0xd4>
    394e:	80 3a       	cpi	r24, 0xA0	; 160
    3950:	09 f4       	brne	.+2      	; 0x3954 <__vector_24+0xcc>
    3952:	66 c0       	rjmp	.+204    	; 0x3a20 <__vector_24+0x198>
    3954:	88 3a       	cpi	r24, 0xA8	; 168
    3956:	09 f4       	brne	.+2      	; 0x395a <__vector_24+0xd2>
    3958:	7b c0       	rjmp	.+246    	; 0x3a50 <__vector_24+0x1c8>
    395a:	af c0       	rjmp	.+350    	; 0x3aba <__vector_24+0x232>
    395c:	80 3c       	cpi	r24, 0xC0	; 192
    395e:	09 f4       	brne	.+2      	; 0x3962 <__vector_24+0xda>
    3960:	a3 c0       	rjmp	.+326    	; 0x3aa8 <__vector_24+0x220>
    3962:	88 3c       	cpi	r24, 0xC8	; 200
    3964:	09 f4       	brne	.+2      	; 0x3968 <__vector_24+0xe0>
    3966:	a0 c0       	rjmp	.+320    	; 0x3aa8 <__vector_24+0x220>
    3968:	88 3b       	cpi	r24, 0xB8	; 184
    396a:	09 f4       	brne	.+2      	; 0x396e <__vector_24+0xe6>
    396c:	86 c0       	rjmp	.+268    	; 0x3a7a <__vector_24+0x1f2>
    396e:	a5 c0       	rjmp	.+330    	; 0x3aba <__vector_24+0x232>
    3970:	80 91 bc 04 	lds	r24, 0x04BC	; 0x8004bc <twi_slarw>
    3974:	10 c0       	rjmp	.+32     	; 0x3996 <__vector_24+0x10e>
    3976:	90 91 95 04 	lds	r25, 0x0495	; 0x800495 <twi_masterBufferIndex>
    397a:	80 91 94 04 	lds	r24, 0x0494	; 0x800494 <twi_masterBufferLength>
    397e:	98 17       	cp	r25, r24
    3980:	70 f5       	brcc	.+92     	; 0x39de <__vector_24+0x156>
    3982:	e0 91 95 04 	lds	r30, 0x0495	; 0x800495 <twi_masterBufferIndex>
    3986:	81 e0       	ldi	r24, 0x01	; 1
    3988:	8e 0f       	add	r24, r30
    398a:	80 93 95 04 	sts	0x0495, r24	; 0x800495 <twi_masterBufferIndex>
    398e:	f0 e0       	ldi	r31, 0x00	; 0
    3990:	ea 56       	subi	r30, 0x6A	; 106
    3992:	fb 4f       	sbci	r31, 0xFB	; 251
    3994:	80 81       	ld	r24, Z
    3996:	80 93 bb 00 	sts	0x00BB, r24	; 0x8000bb <__TEXT_REGION_LENGTH__+0x7f80bb>
    399a:	85 ec       	ldi	r24, 0xC5	; 197
    399c:	82 c0       	rjmp	.+260    	; 0x3aa2 <__vector_24+0x21a>
    399e:	80 93 50 04 	sts	0x0450, r24	; 0x800450 <twi_error>
    39a2:	8a c0       	rjmp	.+276    	; 0x3ab8 <__vector_24+0x230>
    39a4:	e0 91 95 04 	lds	r30, 0x0495	; 0x800495 <twi_masterBufferIndex>
    39a8:	81 e0       	ldi	r24, 0x01	; 1
    39aa:	8e 0f       	add	r24, r30
    39ac:	80 93 95 04 	sts	0x0495, r24	; 0x800495 <twi_masterBufferIndex>
    39b0:	80 91 bb 00 	lds	r24, 0x00BB	; 0x8000bb <__TEXT_REGION_LENGTH__+0x7f80bb>
    39b4:	f0 e0       	ldi	r31, 0x00	; 0
    39b6:	ea 56       	subi	r30, 0x6A	; 106
    39b8:	fb 4f       	sbci	r31, 0xFB	; 251
    39ba:	80 83       	st	Z, r24
    39bc:	90 91 95 04 	lds	r25, 0x0495	; 0x800495 <twi_masterBufferIndex>
    39c0:	80 91 94 04 	lds	r24, 0x0494	; 0x800494 <twi_masterBufferLength>
    39c4:	6a c0       	rjmp	.+212    	; 0x3a9a <__vector_24+0x212>
    39c6:	e0 91 95 04 	lds	r30, 0x0495	; 0x800495 <twi_masterBufferIndex>
    39ca:	81 e0       	ldi	r24, 0x01	; 1
    39cc:	8e 0f       	add	r24, r30
    39ce:	80 93 95 04 	sts	0x0495, r24	; 0x800495 <twi_masterBufferIndex>
    39d2:	80 91 bb 00 	lds	r24, 0x00BB	; 0x8000bb <__TEXT_REGION_LENGTH__+0x7f80bb>
    39d6:	f0 e0       	ldi	r31, 0x00	; 0
    39d8:	ea 56       	subi	r30, 0x6A	; 106
    39da:	fb 4f       	sbci	r31, 0xFB	; 251
    39dc:	80 83       	st	Z, r24
    39de:	80 91 bb 04 	lds	r24, 0x04BB	; 0x8004bb <twi_sendStop>
    39e2:	81 11       	cpse	r24, r1
    39e4:	69 c0       	rjmp	.+210    	; 0x3ab8 <__vector_24+0x230>
    39e6:	81 e0       	ldi	r24, 0x01	; 1
    39e8:	80 93 ba 04 	sts	0x04BA, r24	; 0x8004ba <twi_inRepStart>
    39ec:	84 ea       	ldi	r24, 0xA4	; 164
    39ee:	5d c0       	rjmp	.+186    	; 0x3aaa <__vector_24+0x222>
    39f0:	83 e0       	ldi	r24, 0x03	; 3
    39f2:	80 93 bd 04 	sts	0x04BD, r24	; 0x8004bd <twi_state>
    39f6:	10 92 51 04 	sts	0x0451, r1	; 0x800451 <twi_rxBufferIndex>
    39fa:	cf cf       	rjmp	.-98     	; 0x399a <__vector_24+0x112>
    39fc:	80 91 51 04 	lds	r24, 0x0451	; 0x800451 <twi_rxBufferIndex>
    3a00:	80 32       	cpi	r24, 0x20	; 32
    3a02:	08 f0       	brcs	.+2      	; 0x3a06 <__vector_24+0x17e>
    3a04:	4d c0       	rjmp	.+154    	; 0x3aa0 <__vector_24+0x218>
    3a06:	e0 91 51 04 	lds	r30, 0x0451	; 0x800451 <twi_rxBufferIndex>
    3a0a:	81 e0       	ldi	r24, 0x01	; 1
    3a0c:	8e 0f       	add	r24, r30
    3a0e:	80 93 51 04 	sts	0x0451, r24	; 0x800451 <twi_rxBufferIndex>
    3a12:	80 91 bb 00 	lds	r24, 0x00BB	; 0x8000bb <__TEXT_REGION_LENGTH__+0x7f80bb>
    3a16:	f0 e0       	ldi	r31, 0x00	; 0
    3a18:	ee 5a       	subi	r30, 0xAE	; 174
    3a1a:	fb 4f       	sbci	r31, 0xFB	; 251
    3a1c:	80 83       	st	Z, r24
    3a1e:	bd cf       	rjmp	.-134    	; 0x399a <__vector_24+0x112>
    3a20:	2d df       	rcall	.-422    	; 0x387c <twi_releaseBus>
    3a22:	80 91 51 04 	lds	r24, 0x0451	; 0x800451 <twi_rxBufferIndex>
    3a26:	80 32       	cpi	r24, 0x20	; 32
    3a28:	30 f4       	brcc	.+12     	; 0x3a36 <__vector_24+0x1ae>
    3a2a:	e0 91 51 04 	lds	r30, 0x0451	; 0x800451 <twi_rxBufferIndex>
    3a2e:	f0 e0       	ldi	r31, 0x00	; 0
    3a30:	ee 5a       	subi	r30, 0xAE	; 174
    3a32:	fb 4f       	sbci	r31, 0xFB	; 251
    3a34:	10 82       	st	Z, r1
    3a36:	60 91 51 04 	lds	r22, 0x0451	; 0x800451 <twi_rxBufferIndex>
    3a3a:	70 e0       	ldi	r23, 0x00	; 0
    3a3c:	e0 91 b6 04 	lds	r30, 0x04B6	; 0x8004b6 <twi_onSlaveReceive>
    3a40:	f0 91 b7 04 	lds	r31, 0x04B7	; 0x8004b7 <twi_onSlaveReceive+0x1>
    3a44:	82 e5       	ldi	r24, 0x52	; 82
    3a46:	94 e0       	ldi	r25, 0x04	; 4
    3a48:	09 95       	icall
    3a4a:	10 92 51 04 	sts	0x0451, r1	; 0x800451 <twi_rxBufferIndex>
    3a4e:	35 c0       	rjmp	.+106    	; 0x3aba <__vector_24+0x232>
    3a50:	84 e0       	ldi	r24, 0x04	; 4
    3a52:	80 93 bd 04 	sts	0x04BD, r24	; 0x8004bd <twi_state>
    3a56:	10 92 73 04 	sts	0x0473, r1	; 0x800473 <twi_txBufferIndex>
    3a5a:	10 92 72 04 	sts	0x0472, r1	; 0x800472 <twi_txBufferLength>
    3a5e:	e0 91 b8 04 	lds	r30, 0x04B8	; 0x8004b8 <twi_onSlaveTransmit>
    3a62:	f0 91 b9 04 	lds	r31, 0x04B9	; 0x8004b9 <twi_onSlaveTransmit+0x1>
    3a66:	09 95       	icall
    3a68:	80 91 72 04 	lds	r24, 0x0472	; 0x800472 <twi_txBufferLength>
    3a6c:	81 11       	cpse	r24, r1
    3a6e:	05 c0       	rjmp	.+10     	; 0x3a7a <__vector_24+0x1f2>
    3a70:	81 e0       	ldi	r24, 0x01	; 1
    3a72:	80 93 72 04 	sts	0x0472, r24	; 0x800472 <twi_txBufferLength>
    3a76:	10 92 74 04 	sts	0x0474, r1	; 0x800474 <twi_txBuffer>
    3a7a:	e0 91 73 04 	lds	r30, 0x0473	; 0x800473 <twi_txBufferIndex>
    3a7e:	81 e0       	ldi	r24, 0x01	; 1
    3a80:	8e 0f       	add	r24, r30
    3a82:	80 93 73 04 	sts	0x0473, r24	; 0x800473 <twi_txBufferIndex>
    3a86:	f0 e0       	ldi	r31, 0x00	; 0
    3a88:	ec 58       	subi	r30, 0x8C	; 140
    3a8a:	fb 4f       	sbci	r31, 0xFB	; 251
    3a8c:	80 81       	ld	r24, Z
    3a8e:	80 93 bb 00 	sts	0x00BB, r24	; 0x8000bb <__TEXT_REGION_LENGTH__+0x7f80bb>
    3a92:	90 91 73 04 	lds	r25, 0x0473	; 0x800473 <twi_txBufferIndex>
    3a96:	80 91 72 04 	lds	r24, 0x0472	; 0x800472 <twi_txBufferLength>
    3a9a:	98 17       	cp	r25, r24
    3a9c:	08 f4       	brcc	.+2      	; 0x3aa0 <__vector_24+0x218>
    3a9e:	7d cf       	rjmp	.-262    	; 0x399a <__vector_24+0x112>
    3aa0:	85 e8       	ldi	r24, 0x85	; 133
    3aa2:	80 93 bc 00 	sts	0x00BC, r24	; 0x8000bc <__TEXT_REGION_LENGTH__+0x7f80bc>
    3aa6:	09 c0       	rjmp	.+18     	; 0x3aba <__vector_24+0x232>
    3aa8:	85 ec       	ldi	r24, 0xC5	; 197
    3aaa:	80 93 bc 00 	sts	0x00BC, r24	; 0x8000bc <__TEXT_REGION_LENGTH__+0x7f80bc>
    3aae:	10 92 bd 04 	sts	0x04BD, r1	; 0x8004bd <twi_state>
    3ab2:	03 c0       	rjmp	.+6      	; 0x3aba <__vector_24+0x232>
    3ab4:	10 92 50 04 	sts	0x0450, r1	; 0x800450 <twi_error>
    3ab8:	d7 de       	rcall	.-594    	; 0x3868 <twi_stop>
    3aba:	ff 91       	pop	r31
    3abc:	ef 91       	pop	r30
    3abe:	bf 91       	pop	r27
    3ac0:	af 91       	pop	r26
    3ac2:	9f 91       	pop	r25
    3ac4:	8f 91       	pop	r24
    3ac6:	7f 91       	pop	r23
    3ac8:	6f 91       	pop	r22
    3aca:	5f 91       	pop	r21
    3acc:	4f 91       	pop	r20
    3ace:	3f 91       	pop	r19
    3ad0:	2f 91       	pop	r18
    3ad2:	0f 90       	pop	r0
    3ad4:	0f be       	out	0x3f, r0	; 63
    3ad6:	0f 90       	pop	r0
    3ad8:	1f 90       	pop	r1
    3ada:	18 95       	reti

00003adc <__vector_1>:
    3adc:	1f 92       	push	r1
    3ade:	0f 92       	push	r0
    3ae0:	0f b6       	in	r0, 0x3f	; 63
    3ae2:	0f 92       	push	r0
    3ae4:	11 24       	eor	r1, r1
    3ae6:	2f 93       	push	r18
    3ae8:	3f 93       	push	r19
    3aea:	4f 93       	push	r20
    3aec:	5f 93       	push	r21
    3aee:	6f 93       	push	r22
    3af0:	7f 93       	push	r23
    3af2:	8f 93       	push	r24
    3af4:	9f 93       	push	r25
    3af6:	af 93       	push	r26
    3af8:	bf 93       	push	r27
    3afa:	ef 93       	push	r30
    3afc:	ff 93       	push	r31
    3afe:	80 91 be 04 	lds	r24, 0x04BE	; 0x8004be <intFunc>
    3b02:	90 91 bf 04 	lds	r25, 0x04BF	; 0x8004bf <intFunc+0x1>
    3b06:	89 2b       	or	r24, r25
    3b08:	29 f0       	breq	.+10     	; 0x3b14 <__vector_1+0x38>
    3b0a:	e0 91 be 04 	lds	r30, 0x04BE	; 0x8004be <intFunc>
    3b0e:	f0 91 bf 04 	lds	r31, 0x04BF	; 0x8004bf <intFunc+0x1>
    3b12:	09 95       	icall
    3b14:	ff 91       	pop	r31
    3b16:	ef 91       	pop	r30
    3b18:	bf 91       	pop	r27
    3b1a:	af 91       	pop	r26
    3b1c:	9f 91       	pop	r25
    3b1e:	8f 91       	pop	r24
    3b20:	7f 91       	pop	r23
    3b22:	6f 91       	pop	r22
    3b24:	5f 91       	pop	r21
    3b26:	4f 91       	pop	r20
    3b28:	3f 91       	pop	r19
    3b2a:	2f 91       	pop	r18
    3b2c:	0f 90       	pop	r0
    3b2e:	0f be       	out	0x3f, r0	; 63
    3b30:	0f 90       	pop	r0
    3b32:	1f 90       	pop	r1
    3b34:	18 95       	reti

00003b36 <__vector_2>:
    3b36:	1f 92       	push	r1
    3b38:	0f 92       	push	r0
    3b3a:	0f b6       	in	r0, 0x3f	; 63
    3b3c:	0f 92       	push	r0
    3b3e:	11 24       	eor	r1, r1
    3b40:	2f 93       	push	r18
    3b42:	3f 93       	push	r19
    3b44:	4f 93       	push	r20
    3b46:	5f 93       	push	r21
    3b48:	6f 93       	push	r22
    3b4a:	7f 93       	push	r23
    3b4c:	8f 93       	push	r24
    3b4e:	9f 93       	push	r25
    3b50:	af 93       	push	r26
    3b52:	bf 93       	push	r27
    3b54:	ef 93       	push	r30
    3b56:	ff 93       	push	r31
    3b58:	80 91 c0 04 	lds	r24, 0x04C0	; 0x8004c0 <intFunc+0x2>
    3b5c:	90 91 c1 04 	lds	r25, 0x04C1	; 0x8004c1 <intFunc+0x3>
    3b60:	89 2b       	or	r24, r25
    3b62:	29 f0       	breq	.+10     	; 0x3b6e <__vector_2+0x38>
    3b64:	e0 91 c0 04 	lds	r30, 0x04C0	; 0x8004c0 <intFunc+0x2>
    3b68:	f0 91 c1 04 	lds	r31, 0x04C1	; 0x8004c1 <intFunc+0x3>
    3b6c:	09 95       	icall
    3b6e:	ff 91       	pop	r31
    3b70:	ef 91       	pop	r30
    3b72:	bf 91       	pop	r27
    3b74:	af 91       	pop	r26
    3b76:	9f 91       	pop	r25
    3b78:	8f 91       	pop	r24
    3b7a:	7f 91       	pop	r23
    3b7c:	6f 91       	pop	r22
    3b7e:	5f 91       	pop	r21
    3b80:	4f 91       	pop	r20
    3b82:	3f 91       	pop	r19
    3b84:	2f 91       	pop	r18
    3b86:	0f 90       	pop	r0
    3b88:	0f be       	out	0x3f, r0	; 63
    3b8a:	0f 90       	pop	r0
    3b8c:	1f 90       	pop	r1
    3b8e:	18 95       	reti

00003b90 <_ZN7TwoWire9availableEv>:
    3b90:	80 91 f6 04 	lds	r24, 0x04F6	; 0x8004f6 <_ZN7TwoWire14rxBufferLengthE>
    3b94:	90 e0       	ldi	r25, 0x00	; 0
    3b96:	20 91 f7 04 	lds	r18, 0x04F7	; 0x8004f7 <_ZN7TwoWire13rxBufferIndexE>
    3b9a:	82 1b       	sub	r24, r18
    3b9c:	91 09       	sbc	r25, r1
    3b9e:	08 95       	ret

00003ba0 <_ZN7TwoWire4readEv>:
    3ba0:	90 91 f7 04 	lds	r25, 0x04F7	; 0x8004f7 <_ZN7TwoWire13rxBufferIndexE>
    3ba4:	80 91 f6 04 	lds	r24, 0x04F6	; 0x8004f6 <_ZN7TwoWire14rxBufferLengthE>
    3ba8:	98 17       	cp	r25, r24
    3baa:	50 f4       	brcc	.+20     	; 0x3bc0 <_ZN7TwoWire4readEv+0x20>
    3bac:	e9 2f       	mov	r30, r25
    3bae:	f0 e0       	ldi	r31, 0x00	; 0
    3bb0:	e8 50       	subi	r30, 0x08	; 8
    3bb2:	fb 4f       	sbci	r31, 0xFB	; 251
    3bb4:	20 81       	ld	r18, Z
    3bb6:	30 e0       	ldi	r19, 0x00	; 0
    3bb8:	9f 5f       	subi	r25, 0xFF	; 255
    3bba:	90 93 f7 04 	sts	0x04F7, r25	; 0x8004f7 <_ZN7TwoWire13rxBufferIndexE>
    3bbe:	02 c0       	rjmp	.+4      	; 0x3bc4 <_ZN7TwoWire4readEv+0x24>
    3bc0:	2f ef       	ldi	r18, 0xFF	; 255
    3bc2:	3f ef       	ldi	r19, 0xFF	; 255
    3bc4:	c9 01       	movw	r24, r18
    3bc6:	08 95       	ret

00003bc8 <_ZN7TwoWire4peekEv>:
    3bc8:	e0 91 f7 04 	lds	r30, 0x04F7	; 0x8004f7 <_ZN7TwoWire13rxBufferIndexE>
    3bcc:	80 91 f6 04 	lds	r24, 0x04F6	; 0x8004f6 <_ZN7TwoWire14rxBufferLengthE>
    3bd0:	e8 17       	cp	r30, r24
    3bd2:	30 f4       	brcc	.+12     	; 0x3be0 <_ZN7TwoWire4peekEv+0x18>
    3bd4:	f0 e0       	ldi	r31, 0x00	; 0
    3bd6:	e8 50       	subi	r30, 0x08	; 8
    3bd8:	fb 4f       	sbci	r31, 0xFB	; 251
    3bda:	80 81       	ld	r24, Z
    3bdc:	90 e0       	ldi	r25, 0x00	; 0
    3bde:	08 95       	ret
    3be0:	8f ef       	ldi	r24, 0xFF	; 255
    3be2:	9f ef       	ldi	r25, 0xFF	; 255
    3be4:	08 95       	ret

00003be6 <_ZN7TwoWire5flushEv>:
    3be6:	08 95       	ret

00003be8 <_ZN7TwoWire16onReceiveServiceEPhi>:
    3be8:	cf 93       	push	r28
    3bea:	df 93       	push	r29
    3bec:	ec 01       	movw	r28, r24
    3bee:	e0 91 ce 04 	lds	r30, 0x04CE	; 0x8004ce <_ZN7TwoWire14user_onReceiveE>
    3bf2:	f0 91 cf 04 	lds	r31, 0x04CF	; 0x8004cf <_ZN7TwoWire14user_onReceiveE+0x1>
    3bf6:	30 97       	sbiw	r30, 0x00	; 0
    3bf8:	f1 f0       	breq	.+60     	; 0x3c36 <_ZN7TwoWire16onReceiveServiceEPhi+0x4e>
    3bfa:	90 91 f7 04 	lds	r25, 0x04F7	; 0x8004f7 <_ZN7TwoWire13rxBufferIndexE>
    3bfe:	80 91 f6 04 	lds	r24, 0x04F6	; 0x8004f6 <_ZN7TwoWire14rxBufferLengthE>
    3c02:	98 17       	cp	r25, r24
    3c04:	c0 f0       	brcs	.+48     	; 0x3c36 <_ZN7TwoWire16onReceiveServiceEPhi+0x4e>
    3c06:	90 e0       	ldi	r25, 0x00	; 0
    3c08:	29 2f       	mov	r18, r25
    3c0a:	30 e0       	ldi	r19, 0x00	; 0
    3c0c:	26 17       	cp	r18, r22
    3c0e:	37 07       	cpc	r19, r23
    3c10:	54 f4       	brge	.+20     	; 0x3c26 <_ZN7TwoWire16onReceiveServiceEPhi+0x3e>
    3c12:	de 01       	movw	r26, r28
    3c14:	a2 0f       	add	r26, r18
    3c16:	b3 1f       	adc	r27, r19
    3c18:	4c 91       	ld	r20, X
    3c1a:	d9 01       	movw	r26, r18
    3c1c:	a8 50       	subi	r26, 0x08	; 8
    3c1e:	bb 4f       	sbci	r27, 0xFB	; 251
    3c20:	4c 93       	st	X, r20
    3c22:	9f 5f       	subi	r25, 0xFF	; 255
    3c24:	f1 cf       	rjmp	.-30     	; 0x3c08 <_ZN7TwoWire16onReceiveServiceEPhi+0x20>
    3c26:	10 92 f7 04 	sts	0x04F7, r1	; 0x8004f7 <_ZN7TwoWire13rxBufferIndexE>
    3c2a:	60 93 f6 04 	sts	0x04F6, r22	; 0x8004f6 <_ZN7TwoWire14rxBufferLengthE>
    3c2e:	cb 01       	movw	r24, r22
    3c30:	df 91       	pop	r29
    3c32:	cf 91       	pop	r28
    3c34:	09 94       	ijmp
    3c36:	df 91       	pop	r29
    3c38:	cf 91       	pop	r28
    3c3a:	08 95       	ret

00003c3c <_ZN7TwoWire16onRequestServiceEv>:
    3c3c:	e0 91 d0 04 	lds	r30, 0x04D0	; 0x8004d0 <_ZN7TwoWire14user_onRequestE>
    3c40:	f0 91 d1 04 	lds	r31, 0x04D1	; 0x8004d1 <_ZN7TwoWire14user_onRequestE+0x1>
    3c44:	30 97       	sbiw	r30, 0x00	; 0
    3c46:	29 f0       	breq	.+10     	; 0x3c52 <_ZN7TwoWire16onRequestServiceEv+0x16>
    3c48:	10 92 d4 04 	sts	0x04D4, r1	; 0x8004d4 <_ZN7TwoWire13txBufferIndexE>
    3c4c:	10 92 d3 04 	sts	0x04D3, r1	; 0x8004d3 <_ZN7TwoWire14txBufferLengthE>
    3c50:	09 94       	ijmp
    3c52:	08 95       	ret

00003c54 <_ZN7TwoWire5writeEPKhj>:
    3c54:	cf 92       	push	r12
    3c56:	df 92       	push	r13
    3c58:	ef 92       	push	r14
    3c5a:	ff 92       	push	r15
    3c5c:	0f 93       	push	r16
    3c5e:	1f 93       	push	r17
    3c60:	cf 93       	push	r28
    3c62:	df 93       	push	r29
    3c64:	7c 01       	movw	r14, r24
    3c66:	cb 01       	movw	r24, r22
    3c68:	8a 01       	movw	r16, r20
    3c6a:	20 91 d2 04 	lds	r18, 0x04D2	; 0x8004d2 <_ZN7TwoWire12transmittingE>
    3c6e:	22 23       	and	r18, r18
    3c70:	89 f0       	breq	.+34     	; 0x3c94 <_ZN7TwoWire5writeEPKhj+0x40>
    3c72:	eb 01       	movw	r28, r22
    3c74:	6b 01       	movw	r12, r22
    3c76:	c4 0e       	add	r12, r20
    3c78:	d5 1e       	adc	r13, r21
    3c7a:	cc 15       	cp	r28, r12
    3c7c:	dd 05       	cpc	r29, r13
    3c7e:	61 f0       	breq	.+24     	; 0x3c98 <_ZN7TwoWire5writeEPKhj+0x44>
    3c80:	69 91       	ld	r22, Y+
    3c82:	d7 01       	movw	r26, r14
    3c84:	ed 91       	ld	r30, X+
    3c86:	fc 91       	ld	r31, X
    3c88:	01 90       	ld	r0, Z+
    3c8a:	f0 81       	ld	r31, Z
    3c8c:	e0 2d       	mov	r30, r0
    3c8e:	c7 01       	movw	r24, r14
    3c90:	09 95       	icall
    3c92:	f3 cf       	rjmp	.-26     	; 0x3c7a <_ZN7TwoWire5writeEPKhj+0x26>
    3c94:	64 2f       	mov	r22, r20
    3c96:	b6 dd       	rcall	.-1172   	; 0x3804 <twi_transmit>
    3c98:	c8 01       	movw	r24, r16
    3c9a:	df 91       	pop	r29
    3c9c:	cf 91       	pop	r28
    3c9e:	1f 91       	pop	r17
    3ca0:	0f 91       	pop	r16
    3ca2:	ff 90       	pop	r15
    3ca4:	ef 90       	pop	r14
    3ca6:	df 90       	pop	r13
    3ca8:	cf 90       	pop	r12
    3caa:	08 95       	ret

00003cac <_ZN7TwoWire5writeEh>:
    3cac:	cf 93       	push	r28
    3cae:	df 93       	push	r29
    3cb0:	1f 92       	push	r1
    3cb2:	cd b7       	in	r28, 0x3d	; 61
    3cb4:	de b7       	in	r29, 0x3e	; 62
    3cb6:	69 83       	std	Y+1, r22	; 0x01
    3cb8:	20 91 d2 04 	lds	r18, 0x04D2	; 0x8004d2 <_ZN7TwoWire12transmittingE>
    3cbc:	22 23       	and	r18, r18
    3cbe:	d1 f0       	breq	.+52     	; 0x3cf4 <_ZN7TwoWire5writeEh+0x48>
    3cc0:	20 91 d3 04 	lds	r18, 0x04D3	; 0x8004d3 <_ZN7TwoWire14txBufferLengthE>
    3cc4:	20 32       	cpi	r18, 0x20	; 32
    3cc6:	40 f0       	brcs	.+16     	; 0x3cd8 <_ZN7TwoWire5writeEh+0x2c>
    3cc8:	21 e0       	ldi	r18, 0x01	; 1
    3cca:	30 e0       	ldi	r19, 0x00	; 0
    3ccc:	fc 01       	movw	r30, r24
    3cce:	33 83       	std	Z+3, r19	; 0x03
    3cd0:	22 83       	std	Z+2, r18	; 0x02
    3cd2:	80 e0       	ldi	r24, 0x00	; 0
    3cd4:	90 e0       	ldi	r25, 0x00	; 0
    3cd6:	14 c0       	rjmp	.+40     	; 0x3d00 <_ZN7TwoWire5writeEh+0x54>
    3cd8:	80 91 d4 04 	lds	r24, 0x04D4	; 0x8004d4 <_ZN7TwoWire13txBufferIndexE>
    3cdc:	e8 2f       	mov	r30, r24
    3cde:	f0 e0       	ldi	r31, 0x00	; 0
    3ce0:	eb 52       	subi	r30, 0x2B	; 43
    3ce2:	fb 4f       	sbci	r31, 0xFB	; 251
    3ce4:	99 81       	ldd	r25, Y+1	; 0x01
    3ce6:	90 83       	st	Z, r25
    3ce8:	8f 5f       	subi	r24, 0xFF	; 255
    3cea:	80 93 d4 04 	sts	0x04D4, r24	; 0x8004d4 <_ZN7TwoWire13txBufferIndexE>
    3cee:	80 93 d3 04 	sts	0x04D3, r24	; 0x8004d3 <_ZN7TwoWire14txBufferLengthE>
    3cf2:	04 c0       	rjmp	.+8      	; 0x3cfc <_ZN7TwoWire5writeEh+0x50>
    3cf4:	61 e0       	ldi	r22, 0x01	; 1
    3cf6:	ce 01       	movw	r24, r28
    3cf8:	01 96       	adiw	r24, 0x01	; 1
    3cfa:	84 dd       	rcall	.-1272   	; 0x3804 <twi_transmit>
    3cfc:	81 e0       	ldi	r24, 0x01	; 1
    3cfe:	90 e0       	ldi	r25, 0x00	; 0
    3d00:	0f 90       	pop	r0
    3d02:	df 91       	pop	r29
    3d04:	cf 91       	pop	r28
    3d06:	08 95       	ret

00003d08 <_ZN7TwoWireC1Ev>:
    3d08:	fc 01       	movw	r30, r24
    3d0a:	13 82       	std	Z+3, r1	; 0x03
    3d0c:	12 82       	std	Z+2, r1	; 0x02
    3d0e:	88 ee       	ldi	r24, 0xE8	; 232
    3d10:	93 e0       	ldi	r25, 0x03	; 3
    3d12:	a0 e0       	ldi	r26, 0x00	; 0
    3d14:	b0 e0       	ldi	r27, 0x00	; 0
    3d16:	84 83       	std	Z+4, r24	; 0x04
    3d18:	95 83       	std	Z+5, r25	; 0x05
    3d1a:	a6 83       	std	Z+6, r26	; 0x06
    3d1c:	b7 83       	std	Z+7, r27	; 0x07
    3d1e:	81 e4       	ldi	r24, 0x41	; 65
    3d20:	91 e0       	ldi	r25, 0x01	; 1
    3d22:	91 83       	std	Z+1, r25	; 0x01
    3d24:	80 83       	st	Z, r24
    3d26:	08 95       	ret

00003d28 <_ZN7TwoWire5beginEv>:
    3d28:	10 92 f7 04 	sts	0x04F7, r1	; 0x8004f7 <_ZN7TwoWire13rxBufferIndexE>
    3d2c:	10 92 f6 04 	sts	0x04F6, r1	; 0x8004f6 <_ZN7TwoWire14rxBufferLengthE>
    3d30:	10 92 d4 04 	sts	0x04D4, r1	; 0x8004d4 <_ZN7TwoWire13txBufferIndexE>
    3d34:	10 92 d3 04 	sts	0x04D3, r1	; 0x8004d3 <_ZN7TwoWire14txBufferLengthE>
    3d38:	97 dc       	rcall	.-1746   	; 0x3668 <twi_init>
    3d3a:	8e e1       	ldi	r24, 0x1E	; 30
    3d3c:	9e e1       	ldi	r25, 0x1E	; 30
    3d3e:	8f dd       	rcall	.-1250   	; 0x385e <twi_attachSlaveTxEvent>
    3d40:	84 ef       	ldi	r24, 0xF4	; 244
    3d42:	9d e1       	ldi	r25, 0x1D	; 29
    3d44:	87 cd       	rjmp	.-1266   	; 0x3854 <twi_attachSlaveRxEvent>

00003d46 <_ZN7TwoWire8setClockEm>:
    3d46:	cb 01       	movw	r24, r22
    3d48:	ba 01       	movw	r22, r20
    3d4a:	aa cc       	rjmp	.-1708   	; 0x36a0 <twi_setFrequency>

00003d4c <_ZN7TwoWire17beginTransmissionEh>:
    3d4c:	81 e0       	ldi	r24, 0x01	; 1
    3d4e:	80 93 d2 04 	sts	0x04D2, r24	; 0x8004d2 <_ZN7TwoWire12transmittingE>
    3d52:	60 93 f5 04 	sts	0x04F5, r22	; 0x8004f5 <_ZN7TwoWire9txAddressE>
    3d56:	10 92 d4 04 	sts	0x04D4, r1	; 0x8004d4 <_ZN7TwoWire13txBufferIndexE>
    3d5a:	10 92 d3 04 	sts	0x04D3, r1	; 0x8004d3 <_ZN7TwoWire14txBufferLengthE>
    3d5e:	08 95       	ret

00003d60 <_ZN7TwoWire17beginTransmissionEi>:
    3d60:	f5 cf       	rjmp	.-22     	; 0x3d4c <_ZN7TwoWire17beginTransmissionEh>

00003d62 <_ZN7TwoWire15endTransmissionEh>:
    3d62:	0f 93       	push	r16
    3d64:	06 2f       	mov	r16, r22
    3d66:	21 e0       	ldi	r18, 0x01	; 1
    3d68:	40 91 d3 04 	lds	r20, 0x04D3	; 0x8004d3 <_ZN7TwoWire14txBufferLengthE>
    3d6c:	65 ed       	ldi	r22, 0xD5	; 213
    3d6e:	74 e0       	ldi	r23, 0x04	; 4
    3d70:	80 91 f5 04 	lds	r24, 0x04F5	; 0x8004f5 <_ZN7TwoWire9txAddressE>
    3d74:	f1 dc       	rcall	.-1566   	; 0x3758 <twi_writeTo>
    3d76:	10 92 d4 04 	sts	0x04D4, r1	; 0x8004d4 <_ZN7TwoWire13txBufferIndexE>
    3d7a:	10 92 d3 04 	sts	0x04D3, r1	; 0x8004d3 <_ZN7TwoWire14txBufferLengthE>
    3d7e:	10 92 d2 04 	sts	0x04D2, r1	; 0x8004d2 <_ZN7TwoWire12transmittingE>
    3d82:	0f 91       	pop	r16
    3d84:	08 95       	ret

00003d86 <_ZN7TwoWire11requestFromEhhmhh>:
    3d86:	4f 92       	push	r4
    3d88:	5f 92       	push	r5
    3d8a:	6f 92       	push	r6
    3d8c:	7f 92       	push	r7
    3d8e:	af 92       	push	r10
    3d90:	bf 92       	push	r11
    3d92:	cf 92       	push	r12
    3d94:	ef 92       	push	r14
    3d96:	ff 92       	push	r15
    3d98:	0f 93       	push	r16
    3d9a:	1f 93       	push	r17
    3d9c:	cf 93       	push	r28
    3d9e:	df 93       	push	r29
    3da0:	5c 01       	movw	r10, r24
    3da2:	f6 2e       	mov	r15, r22
    3da4:	d4 2f       	mov	r29, r20
    3da6:	28 01       	movw	r4, r16
    3da8:	39 01       	movw	r6, r18
    3daa:	ee 20       	and	r14, r14
    3dac:	11 f1       	breq	.+68     	; 0x3df2 <_ZN7TwoWire11requestFromEhhmhh+0x6c>
    3dae:	ce df       	rcall	.-100    	; 0x3d4c <_ZN7TwoWire17beginTransmissionEh>
    3db0:	ce 2d       	mov	r28, r14
    3db2:	c4 30       	cpi	r28, 0x04	; 4
    3db4:	08 f0       	brcs	.+2      	; 0x3db8 <_ZN7TwoWire11requestFromEhhmhh+0x32>
    3db6:	c3 e0       	ldi	r28, 0x03	; 3
    3db8:	c1 50       	subi	r28, 0x01	; 1
    3dba:	c0 f0       	brcs	.+48     	; 0x3dec <_ZN7TwoWire11requestFromEhhmhh+0x66>
    3dbc:	28 e0       	ldi	r18, 0x08	; 8
    3dbe:	c2 9f       	mul	r28, r18
    3dc0:	c0 01       	movw	r24, r0
    3dc2:	11 24       	eor	r1, r1
    3dc4:	a3 01       	movw	r20, r6
    3dc6:	92 01       	movw	r18, r4
    3dc8:	04 c0       	rjmp	.+8      	; 0x3dd2 <_ZN7TwoWire11requestFromEhhmhh+0x4c>
    3dca:	56 95       	lsr	r21
    3dcc:	47 95       	ror	r20
    3dce:	37 95       	ror	r19
    3dd0:	27 95       	ror	r18
    3dd2:	8a 95       	dec	r24
    3dd4:	d2 f7       	brpl	.-12     	; 0x3dca <_ZN7TwoWire11requestFromEhhmhh+0x44>
    3dd6:	ca 01       	movw	r24, r20
    3dd8:	b9 01       	movw	r22, r18
    3dda:	d5 01       	movw	r26, r10
    3ddc:	ed 91       	ld	r30, X+
    3dde:	fc 91       	ld	r31, X
    3de0:	01 90       	ld	r0, Z+
    3de2:	f0 81       	ld	r31, Z
    3de4:	e0 2d       	mov	r30, r0
    3de6:	c5 01       	movw	r24, r10
    3de8:	09 95       	icall
    3dea:	e6 cf       	rjmp	.-52     	; 0x3db8 <_ZN7TwoWire11requestFromEhhmhh+0x32>
    3dec:	60 e0       	ldi	r22, 0x00	; 0
    3dee:	c5 01       	movw	r24, r10
    3df0:	b8 df       	rcall	.-144    	; 0x3d62 <_ZN7TwoWire15endTransmissionEh>
    3df2:	4d 2f       	mov	r20, r29
    3df4:	d1 32       	cpi	r29, 0x21	; 33
    3df6:	08 f0       	brcs	.+2      	; 0x3dfa <_ZN7TwoWire11requestFromEhhmhh+0x74>
    3df8:	40 e2       	ldi	r20, 0x20	; 32
    3dfa:	2c 2d       	mov	r18, r12
    3dfc:	68 ef       	ldi	r22, 0xF8	; 248
    3dfe:	74 e0       	ldi	r23, 0x04	; 4
    3e00:	8f 2d       	mov	r24, r15
    3e02:	62 dc       	rcall	.-1852   	; 0x36c8 <twi_readFrom>
    3e04:	10 92 f7 04 	sts	0x04F7, r1	; 0x8004f7 <_ZN7TwoWire13rxBufferIndexE>
    3e08:	80 93 f6 04 	sts	0x04F6, r24	; 0x8004f6 <_ZN7TwoWire14rxBufferLengthE>
    3e0c:	df 91       	pop	r29
    3e0e:	cf 91       	pop	r28
    3e10:	1f 91       	pop	r17
    3e12:	0f 91       	pop	r16
    3e14:	ff 90       	pop	r15
    3e16:	ef 90       	pop	r14
    3e18:	cf 90       	pop	r12
    3e1a:	bf 90       	pop	r11
    3e1c:	af 90       	pop	r10
    3e1e:	7f 90       	pop	r7
    3e20:	6f 90       	pop	r6
    3e22:	5f 90       	pop	r5
    3e24:	4f 90       	pop	r4
    3e26:	08 95       	ret

00003e28 <_ZN7TwoWire11requestFromEhhh>:
    3e28:	cf 92       	push	r12
    3e2a:	ef 92       	push	r14
    3e2c:	0f 93       	push	r16
    3e2e:	1f 93       	push	r17
    3e30:	c2 2e       	mov	r12, r18
    3e32:	e1 2c       	mov	r14, r1
    3e34:	00 e0       	ldi	r16, 0x00	; 0
    3e36:	10 e0       	ldi	r17, 0x00	; 0
    3e38:	98 01       	movw	r18, r16
    3e3a:	a5 df       	rcall	.-182    	; 0x3d86 <_ZN7TwoWire11requestFromEhhmhh>
    3e3c:	1f 91       	pop	r17
    3e3e:	0f 91       	pop	r16
    3e40:	ef 90       	pop	r14
    3e42:	cf 90       	pop	r12
    3e44:	08 95       	ret

00003e46 <_ZN7TwoWire11requestFromEhh>:
    3e46:	21 e0       	ldi	r18, 0x01	; 1
    3e48:	ef cf       	rjmp	.-34     	; 0x3e28 <_ZN7TwoWire11requestFromEhhh>

00003e4a <_ZN7TwoWire15endTransmissionEv>:
    3e4a:	61 e0       	ldi	r22, 0x01	; 1
    3e4c:	8a cf       	rjmp	.-236    	; 0x3d62 <_ZN7TwoWire15endTransmissionEh>

00003e4e <_GLOBAL__sub_I__ZN7TwoWire8rxBufferE>:
    3e4e:	82 ec       	ldi	r24, 0xC2	; 194
    3e50:	94 e0       	ldi	r25, 0x04	; 4
    3e52:	5a cf       	rjmp	.-332    	; 0x3d08 <_ZN7TwoWireC1Ev>

00003e54 <__vector_16>:
    3e54:	1f 92       	push	r1
    3e56:	0f 92       	push	r0
    3e58:	0f b6       	in	r0, 0x3f	; 63
    3e5a:	0f 92       	push	r0
    3e5c:	11 24       	eor	r1, r1
    3e5e:	2f 93       	push	r18
    3e60:	3f 93       	push	r19
    3e62:	8f 93       	push	r24
    3e64:	9f 93       	push	r25
    3e66:	af 93       	push	r26
    3e68:	bf 93       	push	r27
    3e6a:	80 91 19 05 	lds	r24, 0x0519	; 0x800519 <timer0_millis>
    3e6e:	90 91 1a 05 	lds	r25, 0x051A	; 0x80051a <timer0_millis+0x1>
    3e72:	a0 91 1b 05 	lds	r26, 0x051B	; 0x80051b <timer0_millis+0x2>
    3e76:	b0 91 1c 05 	lds	r27, 0x051C	; 0x80051c <timer0_millis+0x3>
    3e7a:	30 91 18 05 	lds	r19, 0x0518	; 0x800518 <timer0_fract>
    3e7e:	23 e0       	ldi	r18, 0x03	; 3
    3e80:	23 0f       	add	r18, r19
    3e82:	2d 37       	cpi	r18, 0x7D	; 125
    3e84:	20 f4       	brcc	.+8      	; 0x3e8e <__vector_16+0x3a>
    3e86:	01 96       	adiw	r24, 0x01	; 1
    3e88:	a1 1d       	adc	r26, r1
    3e8a:	b1 1d       	adc	r27, r1
    3e8c:	05 c0       	rjmp	.+10     	; 0x3e98 <__vector_16+0x44>
    3e8e:	26 e8       	ldi	r18, 0x86	; 134
    3e90:	23 0f       	add	r18, r19
    3e92:	02 96       	adiw	r24, 0x02	; 2
    3e94:	a1 1d       	adc	r26, r1
    3e96:	b1 1d       	adc	r27, r1
    3e98:	20 93 18 05 	sts	0x0518, r18	; 0x800518 <timer0_fract>
    3e9c:	80 93 19 05 	sts	0x0519, r24	; 0x800519 <timer0_millis>
    3ea0:	90 93 1a 05 	sts	0x051A, r25	; 0x80051a <timer0_millis+0x1>
    3ea4:	a0 93 1b 05 	sts	0x051B, r26	; 0x80051b <timer0_millis+0x2>
    3ea8:	b0 93 1c 05 	sts	0x051C, r27	; 0x80051c <timer0_millis+0x3>
    3eac:	80 91 1d 05 	lds	r24, 0x051D	; 0x80051d <timer0_overflow_count>
    3eb0:	90 91 1e 05 	lds	r25, 0x051E	; 0x80051e <timer0_overflow_count+0x1>
    3eb4:	a0 91 1f 05 	lds	r26, 0x051F	; 0x80051f <timer0_overflow_count+0x2>
    3eb8:	b0 91 20 05 	lds	r27, 0x0520	; 0x800520 <timer0_overflow_count+0x3>
    3ebc:	01 96       	adiw	r24, 0x01	; 1
    3ebe:	a1 1d       	adc	r26, r1
    3ec0:	b1 1d       	adc	r27, r1
    3ec2:	80 93 1d 05 	sts	0x051D, r24	; 0x80051d <timer0_overflow_count>
    3ec6:	90 93 1e 05 	sts	0x051E, r25	; 0x80051e <timer0_overflow_count+0x1>
    3eca:	a0 93 1f 05 	sts	0x051F, r26	; 0x80051f <timer0_overflow_count+0x2>
    3ece:	b0 93 20 05 	sts	0x0520, r27	; 0x800520 <timer0_overflow_count+0x3>
    3ed2:	bf 91       	pop	r27
    3ed4:	af 91       	pop	r26
    3ed6:	9f 91       	pop	r25
    3ed8:	8f 91       	pop	r24
    3eda:	3f 91       	pop	r19
    3edc:	2f 91       	pop	r18
    3ede:	0f 90       	pop	r0
    3ee0:	0f be       	out	0x3f, r0	; 63
    3ee2:	0f 90       	pop	r0
    3ee4:	1f 90       	pop	r1
    3ee6:	18 95       	reti

00003ee8 <millis>:
    3ee8:	2f b7       	in	r18, 0x3f	; 63
    3eea:	f8 94       	cli
    3eec:	60 91 19 05 	lds	r22, 0x0519	; 0x800519 <timer0_millis>
    3ef0:	70 91 1a 05 	lds	r23, 0x051A	; 0x80051a <timer0_millis+0x1>
    3ef4:	80 91 1b 05 	lds	r24, 0x051B	; 0x80051b <timer0_millis+0x2>
    3ef8:	90 91 1c 05 	lds	r25, 0x051C	; 0x80051c <timer0_millis+0x3>
    3efc:	2f bf       	out	0x3f, r18	; 63
    3efe:	08 95       	ret

00003f00 <micros>:
    3f00:	3f b7       	in	r19, 0x3f	; 63
    3f02:	f8 94       	cli
    3f04:	80 91 1d 05 	lds	r24, 0x051D	; 0x80051d <timer0_overflow_count>
    3f08:	90 91 1e 05 	lds	r25, 0x051E	; 0x80051e <timer0_overflow_count+0x1>
    3f0c:	a0 91 1f 05 	lds	r26, 0x051F	; 0x80051f <timer0_overflow_count+0x2>
    3f10:	b0 91 20 05 	lds	r27, 0x0520	; 0x800520 <timer0_overflow_count+0x3>
    3f14:	26 b5       	in	r18, 0x26	; 38
    3f16:	a8 9b       	sbis	0x15, 0	; 21
    3f18:	05 c0       	rjmp	.+10     	; 0x3f24 <micros+0x24>
    3f1a:	2f 3f       	cpi	r18, 0xFF	; 255
    3f1c:	19 f0       	breq	.+6      	; 0x3f24 <micros+0x24>
    3f1e:	01 96       	adiw	r24, 0x01	; 1
    3f20:	a1 1d       	adc	r26, r1
    3f22:	b1 1d       	adc	r27, r1
    3f24:	3f bf       	out	0x3f, r19	; 63
    3f26:	ba 2f       	mov	r27, r26
    3f28:	a9 2f       	mov	r26, r25
    3f2a:	98 2f       	mov	r25, r24
    3f2c:	88 27       	eor	r24, r24
    3f2e:	82 0f       	add	r24, r18
    3f30:	91 1d       	adc	r25, r1
    3f32:	a1 1d       	adc	r26, r1
    3f34:	b1 1d       	adc	r27, r1
    3f36:	bc 01       	movw	r22, r24
    3f38:	cd 01       	movw	r24, r26
    3f3a:	42 e0       	ldi	r20, 0x02	; 2
    3f3c:	66 0f       	add	r22, r22
    3f3e:	77 1f       	adc	r23, r23
    3f40:	88 1f       	adc	r24, r24
    3f42:	99 1f       	adc	r25, r25
    3f44:	4a 95       	dec	r20
    3f46:	d1 f7       	brne	.-12     	; 0x3f3c <micros+0x3c>
    3f48:	08 95       	ret

00003f4a <delay>:
    3f4a:	cf 92       	push	r12
    3f4c:	df 92       	push	r13
    3f4e:	ef 92       	push	r14
    3f50:	ff 92       	push	r15
    3f52:	cf 93       	push	r28
    3f54:	df 93       	push	r29
    3f56:	6b 01       	movw	r12, r22
    3f58:	7c 01       	movw	r14, r24
    3f5a:	d2 df       	rcall	.-92     	; 0x3f00 <micros>
    3f5c:	eb 01       	movw	r28, r22
    3f5e:	c1 14       	cp	r12, r1
    3f60:	d1 04       	cpc	r13, r1
    3f62:	e1 04       	cpc	r14, r1
    3f64:	f1 04       	cpc	r15, r1
    3f66:	71 f0       	breq	.+28     	; 0x3f84 <delay+0x3a>
    3f68:	cb df       	rcall	.-106    	; 0x3f00 <micros>
    3f6a:	6c 1b       	sub	r22, r28
    3f6c:	7d 0b       	sbc	r23, r29
    3f6e:	68 3e       	cpi	r22, 0xE8	; 232
    3f70:	73 40       	sbci	r23, 0x03	; 3
    3f72:	a8 f3       	brcs	.-22     	; 0x3f5e <delay+0x14>
    3f74:	81 e0       	ldi	r24, 0x01	; 1
    3f76:	c8 1a       	sub	r12, r24
    3f78:	d1 08       	sbc	r13, r1
    3f7a:	e1 08       	sbc	r14, r1
    3f7c:	f1 08       	sbc	r15, r1
    3f7e:	c8 51       	subi	r28, 0x18	; 24
    3f80:	dc 4f       	sbci	r29, 0xFC	; 252
    3f82:	ed cf       	rjmp	.-38     	; 0x3f5e <delay+0x14>
    3f84:	df 91       	pop	r29
    3f86:	cf 91       	pop	r28
    3f88:	ff 90       	pop	r15
    3f8a:	ef 90       	pop	r14
    3f8c:	df 90       	pop	r13
    3f8e:	cf 90       	pop	r12
    3f90:	08 95       	ret

00003f92 <delayMicroseconds>:
    3f92:	01 97       	sbiw	r24, 0x01	; 1
    3f94:	39 f0       	breq	.+14     	; 0x3fa4 <delayMicroseconds+0x12>
    3f96:	88 0f       	add	r24, r24
    3f98:	99 1f       	adc	r25, r25
    3f9a:	88 0f       	add	r24, r24
    3f9c:	99 1f       	adc	r25, r25
    3f9e:	02 97       	sbiw	r24, 0x02	; 2
    3fa0:	01 97       	sbiw	r24, 0x01	; 1
    3fa2:	f1 f7       	brne	.-4      	; 0x3fa0 <delayMicroseconds+0xe>
    3fa4:	08 95       	ret

00003fa6 <init>:
    3fa6:	78 94       	sei
    3fa8:	84 b5       	in	r24, 0x24	; 36
    3faa:	82 60       	ori	r24, 0x02	; 2
    3fac:	84 bd       	out	0x24, r24	; 36
    3fae:	84 b5       	in	r24, 0x24	; 36
    3fb0:	81 60       	ori	r24, 0x01	; 1
    3fb2:	84 bd       	out	0x24, r24	; 36
    3fb4:	85 b5       	in	r24, 0x25	; 37
    3fb6:	82 60       	ori	r24, 0x02	; 2
    3fb8:	85 bd       	out	0x25, r24	; 37
    3fba:	85 b5       	in	r24, 0x25	; 37
    3fbc:	81 60       	ori	r24, 0x01	; 1
    3fbe:	85 bd       	out	0x25, r24	; 37
    3fc0:	ee e6       	ldi	r30, 0x6E	; 110
    3fc2:	f0 e0       	ldi	r31, 0x00	; 0
    3fc4:	80 81       	ld	r24, Z
    3fc6:	81 60       	ori	r24, 0x01	; 1
    3fc8:	80 83       	st	Z, r24
    3fca:	10 92 7a 00 	sts	0x007A, r1	; 0x80007a <__TEXT_REGION_LENGTH__+0x7f807a>
    3fce:	10 92 7b 00 	sts	0x007B, r1	; 0x80007b <__TEXT_REGION_LENGTH__+0x7f807b>
    3fd2:	8f ef       	ldi	r24, 0xFF	; 255
    3fd4:	80 93 7e 00 	sts	0x007E, r24	; 0x80007e <__TEXT_REGION_LENGTH__+0x7f807e>
    3fd8:	10 92 c1 00 	sts	0x00C1, r1	; 0x8000c1 <__TEXT_REGION_LENGTH__+0x7f80c1>
    3fdc:	08 95       	ret

00003fde <analogWrite>:
    3fde:	1f 93       	push	r17
    3fe0:	cf 93       	push	r28
    3fe2:	df 93       	push	r29
    3fe4:	18 2f       	mov	r17, r24
    3fe6:	eb 01       	movw	r28, r22
    3fe8:	61 e0       	ldi	r22, 0x01	; 1
    3fea:	7f d0       	rcall	.+254    	; 0x40ea <pinMode>
    3fec:	20 97       	sbiw	r28, 0x00	; 0
    3fee:	11 f4       	brne	.+4      	; 0x3ff4 <analogWrite+0x16>
    3ff0:	60 e0       	ldi	r22, 0x00	; 0
    3ff2:	04 c0       	rjmp	.+8      	; 0x3ffc <analogWrite+0x1e>
    3ff4:	cf 3f       	cpi	r28, 0xFF	; 255
    3ff6:	d1 05       	cpc	r29, r1
    3ff8:	31 f4       	brne	.+12     	; 0x4006 <analogWrite+0x28>
    3ffa:	61 e0       	ldi	r22, 0x01	; 1
    3ffc:	81 2f       	mov	r24, r17
    3ffe:	df 91       	pop	r29
    4000:	cf 91       	pop	r28
    4002:	1f 91       	pop	r17
    4004:	ae c0       	rjmp	.+348    	; 0x4162 <digitalWrite>
    4006:	e1 2f       	mov	r30, r17
    4008:	f0 e0       	ldi	r31, 0x00	; 0
    400a:	e9 5f       	subi	r30, 0xF9	; 249
    400c:	fe 4f       	sbci	r31, 0xFE	; 254
    400e:	e4 91       	lpm	r30, Z
    4010:	e3 30       	cpi	r30, 0x03	; 3
    4012:	f9 f0       	breq	.+62     	; 0x4052 <analogWrite+0x74>
    4014:	48 f4       	brcc	.+18     	; 0x4028 <analogWrite+0x4a>
    4016:	e1 30       	cpi	r30, 0x01	; 1
    4018:	b9 f0       	breq	.+46     	; 0x4048 <analogWrite+0x6a>
    401a:	e2 30       	cpi	r30, 0x02	; 2
    401c:	a1 f5       	brne	.+104    	; 0x4086 <analogWrite+0xa8>
    401e:	84 b5       	in	r24, 0x24	; 36
    4020:	80 62       	ori	r24, 0x20	; 32
    4022:	84 bd       	out	0x24, r24	; 36
    4024:	c8 bd       	out	0x28, r28	; 40
    4026:	34 c0       	rjmp	.+104    	; 0x4090 <analogWrite+0xb2>
    4028:	e6 30       	cpi	r30, 0x06	; 6
    402a:	e9 f0       	breq	.+58     	; 0x4066 <analogWrite+0x88>
    402c:	e7 30       	cpi	r30, 0x07	; 7
    402e:	19 f1       	breq	.+70     	; 0x4076 <analogWrite+0x98>
    4030:	e4 30       	cpi	r30, 0x04	; 4
    4032:	49 f5       	brne	.+82     	; 0x4086 <analogWrite+0xa8>
    4034:	80 91 80 00 	lds	r24, 0x0080	; 0x800080 <__TEXT_REGION_LENGTH__+0x7f8080>
    4038:	80 62       	ori	r24, 0x20	; 32
    403a:	80 93 80 00 	sts	0x0080, r24	; 0x800080 <__TEXT_REGION_LENGTH__+0x7f8080>
    403e:	d0 93 8b 00 	sts	0x008B, r29	; 0x80008b <__TEXT_REGION_LENGTH__+0x7f808b>
    4042:	c0 93 8a 00 	sts	0x008A, r28	; 0x80008a <__TEXT_REGION_LENGTH__+0x7f808a>
    4046:	24 c0       	rjmp	.+72     	; 0x4090 <analogWrite+0xb2>
    4048:	84 b5       	in	r24, 0x24	; 36
    404a:	80 68       	ori	r24, 0x80	; 128
    404c:	84 bd       	out	0x24, r24	; 36
    404e:	c7 bd       	out	0x27, r28	; 39
    4050:	1f c0       	rjmp	.+62     	; 0x4090 <analogWrite+0xb2>
    4052:	80 91 80 00 	lds	r24, 0x0080	; 0x800080 <__TEXT_REGION_LENGTH__+0x7f8080>
    4056:	80 68       	ori	r24, 0x80	; 128
    4058:	80 93 80 00 	sts	0x0080, r24	; 0x800080 <__TEXT_REGION_LENGTH__+0x7f8080>
    405c:	d0 93 89 00 	sts	0x0089, r29	; 0x800089 <__TEXT_REGION_LENGTH__+0x7f8089>
    4060:	c0 93 88 00 	sts	0x0088, r28	; 0x800088 <__TEXT_REGION_LENGTH__+0x7f8088>
    4064:	15 c0       	rjmp	.+42     	; 0x4090 <analogWrite+0xb2>
    4066:	80 91 b0 00 	lds	r24, 0x00B0	; 0x8000b0 <__TEXT_REGION_LENGTH__+0x7f80b0>
    406a:	80 68       	ori	r24, 0x80	; 128
    406c:	80 93 b0 00 	sts	0x00B0, r24	; 0x8000b0 <__TEXT_REGION_LENGTH__+0x7f80b0>
    4070:	c0 93 b3 00 	sts	0x00B3, r28	; 0x8000b3 <__TEXT_REGION_LENGTH__+0x7f80b3>
    4074:	0d c0       	rjmp	.+26     	; 0x4090 <analogWrite+0xb2>
    4076:	80 91 b0 00 	lds	r24, 0x00B0	; 0x8000b0 <__TEXT_REGION_LENGTH__+0x7f80b0>
    407a:	80 62       	ori	r24, 0x20	; 32
    407c:	80 93 b0 00 	sts	0x00B0, r24	; 0x8000b0 <__TEXT_REGION_LENGTH__+0x7f80b0>
    4080:	c0 93 b4 00 	sts	0x00B4, r28	; 0x8000b4 <__TEXT_REGION_LENGTH__+0x7f80b4>
    4084:	05 c0       	rjmp	.+10     	; 0x4090 <analogWrite+0xb2>
    4086:	c0 38       	cpi	r28, 0x80	; 128
    4088:	d1 05       	cpc	r29, r1
    408a:	0c f0       	brlt	.+2      	; 0x408e <analogWrite+0xb0>
    408c:	b6 cf       	rjmp	.-148    	; 0x3ffa <analogWrite+0x1c>
    408e:	b0 cf       	rjmp	.-160    	; 0x3ff0 <analogWrite+0x12>
    4090:	df 91       	pop	r29
    4092:	cf 91       	pop	r28
    4094:	1f 91       	pop	r17
    4096:	08 95       	ret

00004098 <turnOffPWM>:
    4098:	83 30       	cpi	r24, 0x03	; 3
    409a:	81 f0       	breq	.+32     	; 0x40bc <turnOffPWM+0x24>
    409c:	28 f4       	brcc	.+10     	; 0x40a8 <turnOffPWM+0x10>
    409e:	81 30       	cpi	r24, 0x01	; 1
    40a0:	99 f0       	breq	.+38     	; 0x40c8 <turnOffPWM+0x30>
    40a2:	82 30       	cpi	r24, 0x02	; 2
    40a4:	a1 f0       	breq	.+40     	; 0x40ce <turnOffPWM+0x36>
    40a6:	08 95       	ret
    40a8:	86 30       	cpi	r24, 0x06	; 6
    40aa:	a9 f0       	breq	.+42     	; 0x40d6 <turnOffPWM+0x3e>
    40ac:	87 30       	cpi	r24, 0x07	; 7
    40ae:	b9 f0       	breq	.+46     	; 0x40de <turnOffPWM+0x46>
    40b0:	84 30       	cpi	r24, 0x04	; 4
    40b2:	d1 f4       	brne	.+52     	; 0x40e8 <turnOffPWM+0x50>
    40b4:	80 91 80 00 	lds	r24, 0x0080	; 0x800080 <__TEXT_REGION_LENGTH__+0x7f8080>
    40b8:	8f 7d       	andi	r24, 0xDF	; 223
    40ba:	03 c0       	rjmp	.+6      	; 0x40c2 <turnOffPWM+0x2a>
    40bc:	80 91 80 00 	lds	r24, 0x0080	; 0x800080 <__TEXT_REGION_LENGTH__+0x7f8080>
    40c0:	8f 77       	andi	r24, 0x7F	; 127
    40c2:	80 93 80 00 	sts	0x0080, r24	; 0x800080 <__TEXT_REGION_LENGTH__+0x7f8080>
    40c6:	08 95       	ret
    40c8:	84 b5       	in	r24, 0x24	; 36
    40ca:	8f 77       	andi	r24, 0x7F	; 127
    40cc:	02 c0       	rjmp	.+4      	; 0x40d2 <turnOffPWM+0x3a>
    40ce:	84 b5       	in	r24, 0x24	; 36
    40d0:	8f 7d       	andi	r24, 0xDF	; 223
    40d2:	84 bd       	out	0x24, r24	; 36
    40d4:	08 95       	ret
    40d6:	80 91 b0 00 	lds	r24, 0x00B0	; 0x8000b0 <__TEXT_REGION_LENGTH__+0x7f80b0>
    40da:	8f 77       	andi	r24, 0x7F	; 127
    40dc:	03 c0       	rjmp	.+6      	; 0x40e4 <turnOffPWM+0x4c>
    40de:	80 91 b0 00 	lds	r24, 0x00B0	; 0x8000b0 <__TEXT_REGION_LENGTH__+0x7f80b0>
    40e2:	8f 7d       	andi	r24, 0xDF	; 223
    40e4:	80 93 b0 00 	sts	0x00B0, r24	; 0x8000b0 <__TEXT_REGION_LENGTH__+0x7f80b0>
    40e8:	08 95       	ret

000040ea <pinMode>:
    40ea:	cf 93       	push	r28
    40ec:	df 93       	push	r29
    40ee:	90 e0       	ldi	r25, 0x00	; 0
    40f0:	fc 01       	movw	r30, r24
    40f2:	e5 5e       	subi	r30, 0xE5	; 229
    40f4:	fe 4f       	sbci	r31, 0xFE	; 254
    40f6:	24 91       	lpm	r18, Z
    40f8:	fc 01       	movw	r30, r24
    40fa:	e1 5d       	subi	r30, 0xD1	; 209
    40fc:	fe 4f       	sbci	r31, 0xFE	; 254
    40fe:	84 91       	lpm	r24, Z
    4100:	88 23       	and	r24, r24
    4102:	61 f1       	breq	.+88     	; 0x415c <pinMode+0x72>
    4104:	90 e0       	ldi	r25, 0x00	; 0
    4106:	88 0f       	add	r24, r24
    4108:	99 1f       	adc	r25, r25
    410a:	fc 01       	movw	r30, r24
    410c:	e3 5b       	subi	r30, 0xB3	; 179
    410e:	fe 4f       	sbci	r31, 0xFE	; 254
    4110:	c5 91       	lpm	r28, Z+
    4112:	d4 91       	lpm	r29, Z
    4114:	fc 01       	movw	r30, r24
    4116:	ed 5b       	subi	r30, 0xBD	; 189
    4118:	fe 4f       	sbci	r31, 0xFE	; 254
    411a:	a5 91       	lpm	r26, Z+
    411c:	b4 91       	lpm	r27, Z
    411e:	61 11       	cpse	r22, r1
    4120:	09 c0       	rjmp	.+18     	; 0x4134 <pinMode+0x4a>
    4122:	9f b7       	in	r25, 0x3f	; 63
    4124:	f8 94       	cli
    4126:	88 81       	ld	r24, Y
    4128:	20 95       	com	r18
    412a:	82 23       	and	r24, r18
    412c:	88 83       	st	Y, r24
    412e:	ec 91       	ld	r30, X
    4130:	2e 23       	and	r18, r30
    4132:	0b c0       	rjmp	.+22     	; 0x414a <pinMode+0x60>
    4134:	62 30       	cpi	r22, 0x02	; 2
    4136:	61 f4       	brne	.+24     	; 0x4150 <pinMode+0x66>
    4138:	9f b7       	in	r25, 0x3f	; 63
    413a:	f8 94       	cli
    413c:	88 81       	ld	r24, Y
    413e:	32 2f       	mov	r19, r18
    4140:	30 95       	com	r19
    4142:	83 23       	and	r24, r19
    4144:	88 83       	st	Y, r24
    4146:	ec 91       	ld	r30, X
    4148:	2e 2b       	or	r18, r30
    414a:	2c 93       	st	X, r18
    414c:	9f bf       	out	0x3f, r25	; 63
    414e:	06 c0       	rjmp	.+12     	; 0x415c <pinMode+0x72>
    4150:	8f b7       	in	r24, 0x3f	; 63
    4152:	f8 94       	cli
    4154:	e8 81       	ld	r30, Y
    4156:	2e 2b       	or	r18, r30
    4158:	28 83       	st	Y, r18
    415a:	8f bf       	out	0x3f, r24	; 63
    415c:	df 91       	pop	r29
    415e:	cf 91       	pop	r28
    4160:	08 95       	ret

00004162 <digitalWrite>:
    4162:	1f 93       	push	r17
    4164:	cf 93       	push	r28
    4166:	df 93       	push	r29
    4168:	28 2f       	mov	r18, r24
    416a:	30 e0       	ldi	r19, 0x00	; 0
    416c:	f9 01       	movw	r30, r18
    416e:	e9 5f       	subi	r30, 0xF9	; 249
    4170:	fe 4f       	sbci	r31, 0xFE	; 254
    4172:	84 91       	lpm	r24, Z
    4174:	f9 01       	movw	r30, r18
    4176:	e5 5e       	subi	r30, 0xE5	; 229
    4178:	fe 4f       	sbci	r31, 0xFE	; 254
    417a:	d4 91       	lpm	r29, Z
    417c:	f9 01       	movw	r30, r18
    417e:	e1 5d       	subi	r30, 0xD1	; 209
    4180:	fe 4f       	sbci	r31, 0xFE	; 254
    4182:	c4 91       	lpm	r28, Z
    4184:	cc 23       	and	r28, r28
    4186:	b9 f0       	breq	.+46     	; 0x41b6 <digitalWrite+0x54>
    4188:	16 2f       	mov	r17, r22
    418a:	81 11       	cpse	r24, r1
    418c:	85 df       	rcall	.-246    	; 0x4098 <turnOffPWM>
    418e:	ec 2f       	mov	r30, r28
    4190:	f0 e0       	ldi	r31, 0x00	; 0
    4192:	ee 0f       	add	r30, r30
    4194:	ff 1f       	adc	r31, r31
    4196:	ed 5b       	subi	r30, 0xBD	; 189
    4198:	fe 4f       	sbci	r31, 0xFE	; 254
    419a:	a5 91       	lpm	r26, Z+
    419c:	b4 91       	lpm	r27, Z
    419e:	9f b7       	in	r25, 0x3f	; 63
    41a0:	f8 94       	cli
    41a2:	11 11       	cpse	r17, r1
    41a4:	04 c0       	rjmp	.+8      	; 0x41ae <digitalWrite+0x4c>
    41a6:	8c 91       	ld	r24, X
    41a8:	d0 95       	com	r29
    41aa:	d8 23       	and	r29, r24
    41ac:	02 c0       	rjmp	.+4      	; 0x41b2 <digitalWrite+0x50>
    41ae:	ec 91       	ld	r30, X
    41b0:	de 2b       	or	r29, r30
    41b2:	dc 93       	st	X, r29
    41b4:	9f bf       	out	0x3f, r25	; 63
    41b6:	df 91       	pop	r29
    41b8:	cf 91       	pop	r28
    41ba:	1f 91       	pop	r17
    41bc:	08 95       	ret

000041be <__vector_11>:
    41be:	1f 92       	push	r1
    41c0:	0f 92       	push	r0
    41c2:	0f b6       	in	r0, 0x3f	; 63
    41c4:	0f 92       	push	r0
    41c6:	11 24       	eor	r1, r1
    41c8:	2f 93       	push	r18
    41ca:	3f 93       	push	r19
    41cc:	4f 93       	push	r20
    41ce:	5f 93       	push	r21
    41d0:	6f 93       	push	r22
    41d2:	7f 93       	push	r23
    41d4:	8f 93       	push	r24
    41d6:	9f 93       	push	r25
    41d8:	af 93       	push	r26
    41da:	bf 93       	push	r27
    41dc:	cf 93       	push	r28
    41de:	df 93       	push	r29
    41e0:	ef 93       	push	r30
    41e2:	ff 93       	push	r31
    41e4:	90 91 41 05 	lds	r25, 0x0541	; 0x800541 <_ZL8tx_state>
    41e8:	a0 91 40 05 	lds	r26, 0x0540	; 0x800540 <_ZL7tx_byte>
    41ec:	20 91 88 00 	lds	r18, 0x0088	; 0x800088 <__TEXT_REGION_LENGTH__+0x7f8088>
    41f0:	30 91 89 00 	lds	r19, 0x0089	; 0x800089 <__TEXT_REGION_LENGTH__+0x7f8089>
    41f4:	80 91 25 05 	lds	r24, 0x0525	; 0x800525 <_ZL9data_bits>
    41f8:	48 2f       	mov	r20, r24
    41fa:	50 e0       	ldi	r21, 0x00	; 0
    41fc:	c0 91 75 05 	lds	r28, 0x0575	; 0x800575 <_ZL13ticks_per_bit>
    4200:	d0 91 76 05 	lds	r29, 0x0576	; 0x800576 <_ZL13ticks_per_bit+0x1>
    4204:	b0 91 3f 05 	lds	r27, 0x053F	; 0x80053f <_ZL6tx_bit>
    4208:	e9 2f       	mov	r30, r25
    420a:	f0 e0       	ldi	r31, 0x00	; 0
    420c:	4e 17       	cp	r20, r30
    420e:	5f 07       	cpc	r21, r31
    4210:	ec f0       	brlt	.+58     	; 0x424c <__vector_11+0x8e>
    4212:	2c 0f       	add	r18, r28
    4214:	3d 1f       	adc	r19, r29
    4216:	ea 2f       	mov	r30, r26
    4218:	e1 70       	andi	r30, 0x01	; 1
    421a:	a6 95       	lsr	r26
    421c:	9f 5f       	subi	r25, 0xFF	; 255
    421e:	eb 17       	cp	r30, r27
    4220:	99 f3       	breq	.-26     	; 0x4208 <__vector_11+0x4a>
    4222:	80 91 80 00 	lds	r24, 0x0080	; 0x800080 <__TEXT_REGION_LENGTH__+0x7f8080>
    4226:	ee 23       	and	r30, r30
    4228:	11 f0       	breq	.+4      	; 0x422e <__vector_11+0x70>
    422a:	80 6c       	ori	r24, 0xC0	; 192
    422c:	02 c0       	rjmp	.+4      	; 0x4232 <__vector_11+0x74>
    422e:	8f 7b       	andi	r24, 0xBF	; 191
    4230:	80 68       	ori	r24, 0x80	; 128
    4232:	80 93 80 00 	sts	0x0080, r24	; 0x800080 <__TEXT_REGION_LENGTH__+0x7f8080>
    4236:	30 93 89 00 	sts	0x0089, r19	; 0x800089 <__TEXT_REGION_LENGTH__+0x7f8089>
    423a:	20 93 88 00 	sts	0x0088, r18	; 0x800088 <__TEXT_REGION_LENGTH__+0x7f8088>
    423e:	e0 93 3f 05 	sts	0x053F, r30	; 0x80053f <_ZL6tx_bit>
    4242:	a0 93 40 05 	sts	0x0540, r26	; 0x800540 <_ZL7tx_byte>
    4246:	90 93 41 05 	sts	0x0541, r25	; 0x800541 <_ZL8tx_state>
    424a:	8f c0       	rjmp	.+286    	; 0x436a <__vector_11+0x1ac>
    424c:	90 91 23 05 	lds	r25, 0x0523	; 0x800523 <_ZL6parity>
    4250:	91 11       	cpse	r25, r1
    4252:	05 c0       	rjmp	.+10     	; 0x425e <__vector_11+0xa0>
    4254:	ea 01       	movw	r28, r20
    4256:	21 96       	adiw	r28, 0x01	; 1
    4258:	ec 17       	cp	r30, r28
    425a:	fd 07       	cpc	r31, r29
    425c:	29 f0       	breq	.+10     	; 0x4268 <__vector_11+0xaa>
    425e:	ea 01       	movw	r28, r20
    4260:	22 96       	adiw	r28, 0x02	; 2
    4262:	ec 17       	cp	r30, r28
    4264:	fd 07       	cpc	r31, r29
    4266:	a1 f4       	brne	.+40     	; 0x4290 <__vector_11+0xd2>
    4268:	8d 5f       	subi	r24, 0xFD	; 253
    426a:	80 93 41 05 	sts	0x0541, r24	; 0x800541 <_ZL8tx_state>
    426e:	80 91 80 00 	lds	r24, 0x0080	; 0x800080 <__TEXT_REGION_LENGTH__+0x7f8080>
    4272:	80 6c       	ori	r24, 0xC0	; 192
    4274:	80 93 80 00 	sts	0x0080, r24	; 0x800080 <__TEXT_REGION_LENGTH__+0x7f8080>
    4278:	60 91 24 05 	lds	r22, 0x0524	; 0x800524 <_ZL9stop_bits>
    427c:	40 91 75 05 	lds	r20, 0x0575	; 0x800575 <_ZL13ticks_per_bit>
    4280:	50 91 76 05 	lds	r21, 0x0576	; 0x800576 <_ZL13ticks_per_bit+0x1>
    4284:	64 9f       	mul	r22, r20
    4286:	c0 01       	movw	r24, r0
    4288:	65 9f       	mul	r22, r21
    428a:	90 0d       	add	r25, r0
    428c:	11 24       	eor	r1, r1
    428e:	67 c0       	rjmp	.+206    	; 0x435e <__vector_11+0x1a0>
    4290:	4f 5f       	subi	r20, 0xFF	; 255
    4292:	5f 4f       	sbci	r21, 0xFF	; 255
    4294:	e4 17       	cp	r30, r20
    4296:	f5 07       	cpc	r31, r21
    4298:	c9 f4       	brne	.+50     	; 0x42cc <__vector_11+0x10e>
    429a:	8e 5f       	subi	r24, 0xFE	; 254
    429c:	80 93 41 05 	sts	0x0541, r24	; 0x800541 <_ZL8tx_state>
    42a0:	80 91 26 05 	lds	r24, 0x0526	; 0x800526 <_ZL9tx_parity>
    42a4:	b8 17       	cp	r27, r24
    42a6:	09 f4       	brne	.+2      	; 0x42aa <__vector_11+0xec>
    42a8:	56 c0       	rjmp	.+172    	; 0x4356 <__vector_11+0x198>
    42aa:	88 23       	and	r24, r24
    42ac:	21 f0       	breq	.+8      	; 0x42b6 <__vector_11+0xf8>
    42ae:	80 91 80 00 	lds	r24, 0x0080	; 0x800080 <__TEXT_REGION_LENGTH__+0x7f8080>
    42b2:	80 6c       	ori	r24, 0xC0	; 192
    42b4:	04 c0       	rjmp	.+8      	; 0x42be <__vector_11+0x100>
    42b6:	80 91 80 00 	lds	r24, 0x0080	; 0x800080 <__TEXT_REGION_LENGTH__+0x7f8080>
    42ba:	8f 7b       	andi	r24, 0xBF	; 191
    42bc:	80 68       	ori	r24, 0x80	; 128
    42be:	80 93 80 00 	sts	0x0080, r24	; 0x800080 <__TEXT_REGION_LENGTH__+0x7f8080>
    42c2:	80 91 26 05 	lds	r24, 0x0526	; 0x800526 <_ZL9tx_parity>
    42c6:	80 93 3f 05 	sts	0x053F, r24	; 0x80053f <_ZL6tx_bit>
    42ca:	45 c0       	rjmp	.+138    	; 0x4356 <__vector_11+0x198>
    42cc:	80 91 3e 05 	lds	r24, 0x053E	; 0x80053e <_ZL14tx_buffer_head>
    42d0:	e0 91 3d 05 	lds	r30, 0x053D	; 0x80053d <_ZL14tx_buffer_tail>
    42d4:	8e 13       	cpse	r24, r30
    42d6:	0d c0       	rjmp	.+26     	; 0x42f2 <__vector_11+0x134>
    42d8:	10 92 41 05 	sts	0x0541, r1	; 0x800541 <_ZL8tx_state>
    42dc:	80 91 80 00 	lds	r24, 0x0080	; 0x800080 <__TEXT_REGION_LENGTH__+0x7f8080>
    42e0:	8f 73       	andi	r24, 0x3F	; 63
    42e2:	80 93 80 00 	sts	0x0080, r24	; 0x800080 <__TEXT_REGION_LENGTH__+0x7f8080>
    42e6:	80 91 6f 00 	lds	r24, 0x006F	; 0x80006f <__TEXT_REGION_LENGTH__+0x7f806f>
    42ea:	8d 7f       	andi	r24, 0xFD	; 253
    42ec:	80 93 6f 00 	sts	0x006F, r24	; 0x80006f <__TEXT_REGION_LENGTH__+0x7f806f>
    42f0:	3c c0       	rjmp	.+120    	; 0x436a <__vector_11+0x1ac>
    42f2:	81 e0       	ldi	r24, 0x01	; 1
    42f4:	80 93 41 05 	sts	0x0541, r24	; 0x800541 <_ZL8tx_state>
    42f8:	ef 5f       	subi	r30, 0xFF	; 255
    42fa:	e4 31       	cpi	r30, 0x14	; 20
    42fc:	08 f0       	brcs	.+2      	; 0x4300 <__vector_11+0x142>
    42fe:	e0 e0       	ldi	r30, 0x00	; 0
    4300:	e0 93 3d 05 	sts	0x053D, r30	; 0x80053d <_ZL14tx_buffer_tail>
    4304:	f0 e0       	ldi	r31, 0x00	; 0
    4306:	e9 5d       	subi	r30, 0xD9	; 217
    4308:	fa 4f       	sbci	r31, 0xFA	; 250
    430a:	80 81       	ld	r24, Z
    430c:	80 93 40 05 	sts	0x0540, r24	; 0x800540 <_ZL7tx_byte>
    4310:	10 92 3f 05 	sts	0x053F, r1	; 0x80053f <_ZL6tx_bit>
    4314:	99 23       	and	r25, r25
    4316:	c9 f0       	breq	.+50     	; 0x434a <__vector_11+0x18c>
    4318:	08 2e       	mov	r0, r24
    431a:	82 95       	swap	r24
    431c:	80 25       	eor	r24, r0
    431e:	08 2e       	mov	r0, r24
    4320:	86 95       	lsr	r24
    4322:	86 95       	lsr	r24
    4324:	80 25       	eor	r24, r0
    4326:	8f 5f       	subi	r24, 0xFF	; 255
    4328:	81 fb       	bst	r24, 1
    432a:	66 27       	eor	r22, r22
    432c:	60 f9       	bld	r22, 0
    432e:	70 e0       	ldi	r23, 0x00	; 0
    4330:	41 e0       	ldi	r20, 0x01	; 1
    4332:	50 e0       	ldi	r21, 0x00	; 0
    4334:	92 30       	cpi	r25, 0x02	; 2
    4336:	11 f0       	breq	.+4      	; 0x433c <__vector_11+0x17e>
    4338:	40 e0       	ldi	r20, 0x00	; 0
    433a:	50 e0       	ldi	r21, 0x00	; 0
    433c:	81 e0       	ldi	r24, 0x01	; 1
    433e:	64 17       	cp	r22, r20
    4340:	75 07       	cpc	r23, r21
    4342:	09 f0       	breq	.+2      	; 0x4346 <__vector_11+0x188>
    4344:	80 e0       	ldi	r24, 0x00	; 0
    4346:	80 93 26 05 	sts	0x0526, r24	; 0x800526 <_ZL9tx_parity>
    434a:	80 91 80 00 	lds	r24, 0x0080	; 0x800080 <__TEXT_REGION_LENGTH__+0x7f8080>
    434e:	8f 7b       	andi	r24, 0xBF	; 191
    4350:	80 68       	ori	r24, 0x80	; 128
    4352:	80 93 80 00 	sts	0x0080, r24	; 0x800080 <__TEXT_REGION_LENGTH__+0x7f8080>
    4356:	80 91 75 05 	lds	r24, 0x0575	; 0x800575 <_ZL13ticks_per_bit>
    435a:	90 91 76 05 	lds	r25, 0x0576	; 0x800576 <_ZL13ticks_per_bit+0x1>
    435e:	28 0f       	add	r18, r24
    4360:	39 1f       	adc	r19, r25
    4362:	30 93 89 00 	sts	0x0089, r19	; 0x800089 <__TEXT_REGION_LENGTH__+0x7f8089>
    4366:	20 93 88 00 	sts	0x0088, r18	; 0x800088 <__TEXT_REGION_LENGTH__+0x7f8088>
    436a:	ff 91       	pop	r31
    436c:	ef 91       	pop	r30
    436e:	df 91       	pop	r29
    4370:	cf 91       	pop	r28
    4372:	bf 91       	pop	r27
    4374:	af 91       	pop	r26
    4376:	9f 91       	pop	r25
    4378:	8f 91       	pop	r24
    437a:	7f 91       	pop	r23
    437c:	6f 91       	pop	r22
    437e:	5f 91       	pop	r21
    4380:	4f 91       	pop	r20
    4382:	3f 91       	pop	r19
    4384:	2f 91       	pop	r18
    4386:	0f 90       	pop	r0
    4388:	0f be       	out	0x3f, r0	; 63
    438a:	0f 90       	pop	r0
    438c:	1f 90       	pop	r1
    438e:	18 95       	reti

00004390 <__vector_10>:
    4390:	1f 92       	push	r1
    4392:	0f 92       	push	r0
    4394:	0f b6       	in	r0, 0x3f	; 63
    4396:	0f 92       	push	r0
    4398:	11 24       	eor	r1, r1
    439a:	1f 93       	push	r17
    439c:	2f 93       	push	r18
    439e:	3f 93       	push	r19
    43a0:	4f 93       	push	r20
    43a2:	5f 93       	push	r21
    43a4:	6f 93       	push	r22
    43a6:	7f 93       	push	r23
    43a8:	8f 93       	push	r24
    43aa:	9f 93       	push	r25
    43ac:	af 93       	push	r26
    43ae:	bf 93       	push	r27
    43b0:	cf 93       	push	r28
    43b2:	df 93       	push	r29
    43b4:	ef 93       	push	r30
    43b6:	ff 93       	push	r31
    43b8:	20 91 86 00 	lds	r18, 0x0086	; 0x800086 <__TEXT_REGION_LENGTH__+0x7f8086>
    43bc:	30 91 87 00 	lds	r19, 0x0087	; 0x800087 <__TEXT_REGION_LENGTH__+0x7f8087>
    43c0:	90 91 72 05 	lds	r25, 0x0572	; 0x800572 <_ZL6rx_bit>
    43c4:	80 91 81 00 	lds	r24, 0x0081	; 0x800081 <__TEXT_REGION_LENGTH__+0x7f8081>
    43c8:	99 23       	and	r25, r25
    43ca:	31 f0       	breq	.+12     	; 0x43d8 <__vector_10+0x48>
    43cc:	8f 7b       	andi	r24, 0xBF	; 191
    43ce:	80 93 81 00 	sts	0x0081, r24	; 0x800081 <__TEXT_REGION_LENGTH__+0x7f8081>
    43d2:	10 92 72 05 	sts	0x0572, r1	; 0x800572 <_ZL6rx_bit>
    43d6:	06 c0       	rjmp	.+12     	; 0x43e4 <__vector_10+0x54>
    43d8:	80 64       	ori	r24, 0x40	; 64
    43da:	80 93 81 00 	sts	0x0081, r24	; 0x800081 <__TEXT_REGION_LENGTH__+0x7f8081>
    43de:	80 e8       	ldi	r24, 0x80	; 128
    43e0:	80 93 72 05 	sts	0x0572, r24	; 0x800572 <_ZL6rx_bit>
    43e4:	80 91 74 05 	lds	r24, 0x0574	; 0x800574 <_ZL8rx_state>
    43e8:	81 11       	cpse	r24, r1
    43ea:	23 c0       	rjmp	.+70     	; 0x4432 <__vector_10+0xa2>
    43ec:	91 11       	cpse	r25, r1
    43ee:	9a c0       	rjmp	.+308    	; 0x4524 <__vector_10+0x194>
    43f0:	80 91 6e 05 	lds	r24, 0x056E	; 0x80056e <_ZL13rx_stop_ticks>
    43f4:	90 91 6f 05 	lds	r25, 0x056F	; 0x80056f <_ZL13rx_stop_ticks+0x1>
    43f8:	82 0f       	add	r24, r18
    43fa:	93 1f       	adc	r25, r19
    43fc:	90 93 8b 00 	sts	0x008B, r25	; 0x80008b <__TEXT_REGION_LENGTH__+0x7f808b>
    4400:	80 93 8a 00 	sts	0x008A, r24	; 0x80008a <__TEXT_REGION_LENGTH__+0x7f808a>
    4404:	84 e0       	ldi	r24, 0x04	; 4
    4406:	86 bb       	out	0x16, r24	; 22
    4408:	80 91 6f 00 	lds	r24, 0x006F	; 0x80006f <__TEXT_REGION_LENGTH__+0x7f806f>
    440c:	84 60       	ori	r24, 0x04	; 4
    440e:	80 93 6f 00 	sts	0x006F, r24	; 0x80006f <__TEXT_REGION_LENGTH__+0x7f806f>
    4412:	80 91 75 05 	lds	r24, 0x0575	; 0x800575 <_ZL13ticks_per_bit>
    4416:	90 91 76 05 	lds	r25, 0x0576	; 0x800576 <_ZL13ticks_per_bit+0x1>
    441a:	28 0f       	add	r18, r24
    441c:	39 1f       	adc	r19, r25
    441e:	96 95       	lsr	r25
    4420:	87 95       	ror	r24
    4422:	28 0f       	add	r18, r24
    4424:	39 1f       	adc	r19, r25
    4426:	30 93 71 05 	sts	0x0571, r19	; 0x800571 <_ZL9rx_target+0x1>
    442a:	20 93 70 05 	sts	0x0570, r18	; 0x800570 <_ZL9rx_target>
    442e:	81 e0       	ldi	r24, 0x01	; 1
    4430:	74 c0       	rjmp	.+232    	; 0x451a <__vector_10+0x18a>
    4432:	40 91 70 05 	lds	r20, 0x0570	; 0x800570 <_ZL9rx_target>
    4436:	50 91 71 05 	lds	r21, 0x0571	; 0x800571 <_ZL9rx_target+0x1>
    443a:	c0 91 25 05 	lds	r28, 0x0525	; 0x800525 <_ZL9data_bits>
    443e:	70 91 72 05 	lds	r23, 0x0572	; 0x800572 <_ZL6rx_bit>
    4442:	90 91 73 05 	lds	r25, 0x0573	; 0x800573 <_ZL7rx_byte>
    4446:	a0 91 75 05 	lds	r26, 0x0575	; 0x800575 <_ZL13ticks_per_bit>
    444a:	b0 91 76 05 	lds	r27, 0x0576	; 0x800576 <_ZL13ticks_per_bit+0x1>
    444e:	d0 91 22 05 	lds	r29, 0x0522	; 0x800522 <_ZL10total_bits>
    4452:	10 91 21 05 	lds	r17, 0x0521	; 0x800521 <_ZL17almost_total_bits>
    4456:	24 1b       	sub	r18, r20
    4458:	35 0b       	sbc	r19, r21
    445a:	37 fd       	sbrc	r19, 7
    445c:	58 c0       	rjmp	.+176    	; 0x450e <__vector_10+0x17e>
    445e:	88 23       	and	r24, r24
    4460:	21 f0       	breq	.+8      	; 0x446a <__vector_10+0xda>
    4462:	c8 17       	cp	r28, r24
    4464:	10 f0       	brcs	.+4      	; 0x446a <__vector_10+0xda>
    4466:	96 95       	lsr	r25
    4468:	97 2b       	or	r25, r23
    446a:	4a 0f       	add	r20, r26
    446c:	5b 1f       	adc	r21, r27
    446e:	8f 5f       	subi	r24, 0xFF	; 255
    4470:	8d 17       	cp	r24, r29
    4472:	08 f4       	brcc	.+2      	; 0x4476 <__vector_10+0xe6>
    4474:	46 c0       	rjmp	.+140    	; 0x4502 <__vector_10+0x172>
    4476:	90 93 73 05 	sts	0x0573, r25	; 0x800573 <_ZL7rx_byte>
    447a:	80 91 6f 00 	lds	r24, 0x006F	; 0x80006f <__TEXT_REGION_LENGTH__+0x7f806f>
    447e:	8b 7f       	andi	r24, 0xFB	; 251
    4480:	80 93 6f 00 	sts	0x006F, r24	; 0x80006f <__TEXT_REGION_LENGTH__+0x7f806f>
    4484:	90 91 23 05 	lds	r25, 0x0523	; 0x800523 <_ZL6parity>
    4488:	99 23       	and	r25, r25
    448a:	f9 f0       	breq	.+62     	; 0x44ca <__vector_10+0x13a>
    448c:	80 91 73 05 	lds	r24, 0x0573	; 0x800573 <_ZL7rx_byte>
    4490:	08 2e       	mov	r0, r24
    4492:	82 95       	swap	r24
    4494:	80 25       	eor	r24, r0
    4496:	08 2e       	mov	r0, r24
    4498:	86 95       	lsr	r24
    449a:	86 95       	lsr	r24
    449c:	80 25       	eor	r24, r0
    449e:	8f 5f       	subi	r24, 0xFF	; 255
    44a0:	81 fb       	bst	r24, 1
    44a2:	ee 27       	eor	r30, r30
    44a4:	e0 f9       	bld	r30, 0
    44a6:	f0 e0       	ldi	r31, 0x00	; 0
    44a8:	21 e0       	ldi	r18, 0x01	; 1
    44aa:	30 e0       	ldi	r19, 0x00	; 0
    44ac:	92 30       	cpi	r25, 0x02	; 2
    44ae:	11 f0       	breq	.+4      	; 0x44b4 <__vector_10+0x124>
    44b0:	20 e0       	ldi	r18, 0x00	; 0
    44b2:	30 e0       	ldi	r19, 0x00	; 0
    44b4:	81 e0       	ldi	r24, 0x01	; 1
    44b6:	90 e0       	ldi	r25, 0x00	; 0
    44b8:	e2 17       	cp	r30, r18
    44ba:	f3 07       	cpc	r31, r19
    44bc:	11 f0       	breq	.+4      	; 0x44c2 <__vector_10+0x132>
    44be:	80 e0       	ldi	r24, 0x00	; 0
    44c0:	90 e0       	ldi	r25, 0x00	; 0
    44c2:	70 e0       	ldi	r23, 0x00	; 0
    44c4:	86 17       	cp	r24, r22
    44c6:	97 07       	cpc	r25, r23
    44c8:	91 f4       	brne	.+36     	; 0x44ee <__vector_10+0x15e>
    44ca:	80 91 6d 05 	lds	r24, 0x056D	; 0x80056d <_ZL14rx_buffer_head>
    44ce:	8f 5f       	subi	r24, 0xFF	; 255
    44d0:	88 32       	cpi	r24, 0x28	; 40
    44d2:	30 f5       	brcc	.+76     	; 0x4520 <__vector_10+0x190>
    44d4:	90 91 6c 05 	lds	r25, 0x056C	; 0x80056c <_ZL14rx_buffer_tail>
    44d8:	89 17       	cp	r24, r25
    44da:	49 f0       	breq	.+18     	; 0x44ee <__vector_10+0x15e>
    44dc:	e8 2f       	mov	r30, r24
    44de:	f0 e0       	ldi	r31, 0x00	; 0
    44e0:	90 91 73 05 	lds	r25, 0x0573	; 0x800573 <_ZL7rx_byte>
    44e4:	ee 5b       	subi	r30, 0xBE	; 190
    44e6:	fa 4f       	sbci	r31, 0xFA	; 250
    44e8:	90 83       	st	Z, r25
    44ea:	80 93 6d 05 	sts	0x056D, r24	; 0x80056d <_ZL14rx_buffer_head>
    44ee:	80 91 81 00 	lds	r24, 0x0081	; 0x800081 <__TEXT_REGION_LENGTH__+0x7f8081>
    44f2:	8f 7b       	andi	r24, 0xBF	; 191
    44f4:	80 93 81 00 	sts	0x0081, r24	; 0x800081 <__TEXT_REGION_LENGTH__+0x7f8081>
    44f8:	10 92 72 05 	sts	0x0572, r1	; 0x800572 <_ZL6rx_bit>
    44fc:	10 92 74 05 	sts	0x0574, r1	; 0x800574 <_ZL8rx_state>
    4500:	11 c0       	rjmp	.+34     	; 0x4524 <__vector_10+0x194>
    4502:	81 17       	cp	r24, r17
    4504:	08 f4       	brcc	.+2      	; 0x4508 <__vector_10+0x178>
    4506:	67 2f       	mov	r22, r23
    4508:	2a 1b       	sub	r18, r26
    450a:	3b 0b       	sbc	r19, r27
    450c:	a6 cf       	rjmp	.-180    	; 0x445a <__vector_10+0xca>
    450e:	90 93 73 05 	sts	0x0573, r25	; 0x800573 <_ZL7rx_byte>
    4512:	50 93 71 05 	sts	0x0571, r21	; 0x800571 <_ZL9rx_target+0x1>
    4516:	40 93 70 05 	sts	0x0570, r20	; 0x800570 <_ZL9rx_target>
    451a:	80 93 74 05 	sts	0x0574, r24	; 0x800574 <_ZL8rx_state>
    451e:	02 c0       	rjmp	.+4      	; 0x4524 <__vector_10+0x194>
    4520:	80 e0       	ldi	r24, 0x00	; 0
    4522:	d8 cf       	rjmp	.-80     	; 0x44d4 <__vector_10+0x144>
    4524:	ff 91       	pop	r31
    4526:	ef 91       	pop	r30
    4528:	df 91       	pop	r29
    452a:	cf 91       	pop	r28
    452c:	bf 91       	pop	r27
    452e:	af 91       	pop	r26
    4530:	9f 91       	pop	r25
    4532:	8f 91       	pop	r24
    4534:	7f 91       	pop	r23
    4536:	6f 91       	pop	r22
    4538:	5f 91       	pop	r21
    453a:	4f 91       	pop	r20
    453c:	3f 91       	pop	r19
    453e:	2f 91       	pop	r18
    4540:	1f 91       	pop	r17
    4542:	0f 90       	pop	r0
    4544:	0f be       	out	0x3f, r0	; 63
    4546:	0f 90       	pop	r0
    4548:	1f 90       	pop	r1
    454a:	18 95       	reti

0000454c <__vector_12>:
    454c:	1f 92       	push	r1
    454e:	0f 92       	push	r0
    4550:	0f b6       	in	r0, 0x3f	; 63
    4552:	0f 92       	push	r0
    4554:	11 24       	eor	r1, r1
    4556:	2f 93       	push	r18
    4558:	4f 93       	push	r20
    455a:	5f 93       	push	r21
    455c:	6f 93       	push	r22
    455e:	7f 93       	push	r23
    4560:	8f 93       	push	r24
    4562:	9f 93       	push	r25
    4564:	ef 93       	push	r30
    4566:	ff 93       	push	r31
    4568:	80 91 6f 00 	lds	r24, 0x006F	; 0x80006f <__TEXT_REGION_LENGTH__+0x7f806f>
    456c:	8b 7f       	andi	r24, 0xFB	; 251
    456e:	80 93 6f 00 	sts	0x006F, r24	; 0x80006f <__TEXT_REGION_LENGTH__+0x7f806f>
    4572:	80 91 81 00 	lds	r24, 0x0081	; 0x800081 <__TEXT_REGION_LENGTH__+0x7f8081>
    4576:	8f 7b       	andi	r24, 0xBF	; 191
    4578:	80 93 81 00 	sts	0x0081, r24	; 0x800081 <__TEXT_REGION_LENGTH__+0x7f8081>
    457c:	80 91 74 05 	lds	r24, 0x0574	; 0x800574 <_ZL8rx_state>
    4580:	20 91 72 05 	lds	r18, 0x0572	; 0x800572 <_ZL6rx_bit>
    4584:	20 58       	subi	r18, 0x80	; 128
    4586:	40 91 25 05 	lds	r20, 0x0525	; 0x800525 <_ZL9data_bits>
    458a:	50 e0       	ldi	r21, 0x00	; 0
    458c:	90 91 73 05 	lds	r25, 0x0573	; 0x800573 <_ZL7rx_byte>
    4590:	68 2f       	mov	r22, r24
    4592:	70 e0       	ldi	r23, 0x00	; 0
    4594:	46 17       	cp	r20, r22
    4596:	57 07       	cpc	r21, r23
    4598:	24 f0       	brlt	.+8      	; 0x45a2 <__vector_12+0x56>
    459a:	96 95       	lsr	r25
    459c:	92 2b       	or	r25, r18
    459e:	8f 5f       	subi	r24, 0xFF	; 255
    45a0:	f7 cf       	rjmp	.-18     	; 0x4590 <__vector_12+0x44>
    45a2:	90 93 73 05 	sts	0x0573, r25	; 0x800573 <_ZL7rx_byte>
    45a6:	80 91 6d 05 	lds	r24, 0x056D	; 0x80056d <_ZL14rx_buffer_head>
    45aa:	8f 5f       	subi	r24, 0xFF	; 255
    45ac:	88 32       	cpi	r24, 0x28	; 40
    45ae:	08 f0       	brcs	.+2      	; 0x45b2 <__vector_12+0x66>
    45b0:	80 e0       	ldi	r24, 0x00	; 0
    45b2:	20 91 6c 05 	lds	r18, 0x056C	; 0x80056c <_ZL14rx_buffer_tail>
    45b6:	82 17       	cp	r24, r18
    45b8:	39 f0       	breq	.+14     	; 0x45c8 <__vector_12+0x7c>
    45ba:	e8 2f       	mov	r30, r24
    45bc:	f0 e0       	ldi	r31, 0x00	; 0
    45be:	ee 5b       	subi	r30, 0xBE	; 190
    45c0:	fa 4f       	sbci	r31, 0xFA	; 250
    45c2:	90 83       	st	Z, r25
    45c4:	80 93 6d 05 	sts	0x056D, r24	; 0x80056d <_ZL14rx_buffer_head>
    45c8:	10 92 74 05 	sts	0x0574, r1	; 0x800574 <_ZL8rx_state>
    45cc:	80 91 81 00 	lds	r24, 0x0081	; 0x800081 <__TEXT_REGION_LENGTH__+0x7f8081>
    45d0:	8f 7b       	andi	r24, 0xBF	; 191
    45d2:	80 93 81 00 	sts	0x0081, r24	; 0x800081 <__TEXT_REGION_LENGTH__+0x7f8081>
    45d6:	10 92 72 05 	sts	0x0572, r1	; 0x800572 <_ZL6rx_bit>
    45da:	ff 91       	pop	r31
    45dc:	ef 91       	pop	r30
    45de:	9f 91       	pop	r25
    45e0:	8f 91       	pop	r24
    45e2:	7f 91       	pop	r23
    45e4:	6f 91       	pop	r22
    45e6:	5f 91       	pop	r21
    45e8:	4f 91       	pop	r20
    45ea:	2f 91       	pop	r18
    45ec:	0f 90       	pop	r0
    45ee:	0f be       	out	0x3f, r0	; 63
    45f0:	0f 90       	pop	r0
    45f2:	1f 90       	pop	r1
    45f4:	18 95       	reti

000045f6 <_ZN12IGAS_X2X_4856initMBEmii>:
    45f6:	0f 93       	push	r16
    45f8:	1f 93       	push	r17
    45fa:	cf 93       	push	r28
    45fc:	df 93       	push	r29
    45fe:	ec 01       	movw	r28, r24
    4600:	26 e0       	ldi	r18, 0x06	; 6
    4602:	40 e8       	ldi	r20, 0x80	; 128
    4604:	55 e2       	ldi	r21, 0x25	; 37
    4606:	60 e0       	ldi	r22, 0x00	; 0
    4608:	70 e0       	ldi	r23, 0x00	; 0
    460a:	8f e9       	ldi	r24, 0x9F	; 159
    460c:	93 e0       	ldi	r25, 0x03	; 3
    460e:	0e 94 96 19 	call	0x332c	; 0x332c <_ZN14HardwareSerial5beginEmh>
    4612:	e1 ec       	ldi	r30, 0xC1	; 193
    4614:	f0 e0       	ldi	r31, 0x00	; 0
    4616:	80 81       	ld	r24, Z
    4618:	80 64       	ori	r24, 0x40	; 64
    461a:	80 83       	st	Z, r24
    461c:	1a 87       	std	Y+10, r17	; 0x0a
    461e:	09 87       	std	Y+9, r16	; 0x09
    4620:	84 e0       	ldi	r24, 0x04	; 4
    4622:	80 93 77 05 	sts	0x0577, r24	; 0x800577 <interframe_delay>
    4626:	df 91       	pop	r29
    4628:	cf 91       	pop	r28
    462a:	1f 91       	pop	r17
    462c:	0f 91       	pop	r16
    462e:	08 95       	ret

00004630 <_ZN12IGAS_X2X_4853crcEPhhh>:
    4630:	8f ef       	ldi	r24, 0xFF	; 255
    4632:	9f ef       	ldi	r25, 0xFF	; 255
    4634:	42 17       	cp	r20, r18
    4636:	a8 f4       	brcc	.+42     	; 0x4662 <_ZN12IGAS_X2X_4853crcEPhhh+0x32>
    4638:	fb 01       	movw	r30, r22
    463a:	e4 0f       	add	r30, r20
    463c:	f1 1d       	adc	r31, r1
    463e:	30 81       	ld	r19, Z
    4640:	83 27       	eor	r24, r19
    4642:	38 e0       	ldi	r19, 0x08	; 8
    4644:	fc 01       	movw	r30, r24
    4646:	e1 70       	andi	r30, 0x01	; 1
    4648:	ff 27       	eor	r31, r31
    464a:	96 95       	lsr	r25
    464c:	87 95       	ror	r24
    464e:	ef 2b       	or	r30, r31
    4650:	21 f0       	breq	.+8      	; 0x465a <_ZN12IGAS_X2X_4853crcEPhhh+0x2a>
    4652:	51 e0       	ldi	r21, 0x01	; 1
    4654:	85 27       	eor	r24, r21
    4656:	50 ea       	ldi	r21, 0xA0	; 160
    4658:	95 27       	eor	r25, r21
    465a:	31 50       	subi	r19, 0x01	; 1
    465c:	99 f7       	brne	.-26     	; 0x4644 <_ZN12IGAS_X2X_4853crcEPhhh+0x14>
    465e:	4f 5f       	subi	r20, 0xFF	; 255
    4660:	e9 cf       	rjmp	.-46     	; 0x4634 <_ZN12IGAS_X2X_4853crcEPhhh+0x4>
    4662:	98 27       	eor	r25, r24
    4664:	89 27       	eor	r24, r25
    4666:	98 27       	eor	r25, r24
    4668:	08 95       	ret

0000466a <_ZN12IGAS_X2X_48512modbus_replyEPhh>:
    466a:	1f 93       	push	r17
    466c:	cf 93       	push	r28
    466e:	df 93       	push	r29
    4670:	eb 01       	movw	r28, r22
    4672:	14 2f       	mov	r17, r20
    4674:	24 2f       	mov	r18, r20
    4676:	40 e0       	ldi	r20, 0x00	; 0
    4678:	db df       	rcall	.-74     	; 0x4630 <_ZN12IGAS_X2X_4853crcEPhhh>
    467a:	fe 01       	movw	r30, r28
    467c:	e1 0f       	add	r30, r17
    467e:	f1 1d       	adc	r31, r1
    4680:	90 83       	st	Z, r25
    4682:	1f 5f       	subi	r17, 0xFF	; 255
    4684:	c1 0f       	add	r28, r17
    4686:	d1 1d       	adc	r29, r1
    4688:	88 83       	st	Y, r24
    468a:	df 91       	pop	r29
    468c:	cf 91       	pop	r28
    468e:	1f 91       	pop	r17
    4690:	08 95       	ret

00004692 <_ZN12IGAS_X2X_48516validate_requestEPhh>:
    4692:	fb 01       	movw	r30, r22
    4694:	41 81       	ldd	r20, Z+1	; 0x01
    4696:	43 30       	cpi	r20, 0x03	; 3
    4698:	a9 f0       	breq	.+42     	; 0x46c4 <_ZN12IGAS_X2X_48516validate_requestEPhh+0x32>
    469a:	46 30       	cpi	r20, 0x06	; 6
    469c:	29 f0       	breq	.+10     	; 0x46a8 <_ZN12IGAS_X2X_48516validate_requestEPhh+0x16>
    469e:	40 31       	cpi	r20, 0x10	; 16
    46a0:	89 f0       	breq	.+34     	; 0x46c4 <_ZN12IGAS_X2X_48516validate_requestEPhh+0x32>
    46a2:	81 e0       	ldi	r24, 0x01	; 1
    46a4:	90 e0       	ldi	r25, 0x00	; 0
    46a6:	08 95       	ret
    46a8:	22 81       	ldd	r18, Z+2	; 0x02
    46aa:	30 e0       	ldi	r19, 0x00	; 0
    46ac:	32 2f       	mov	r19, r18
    46ae:	22 27       	eor	r18, r18
    46b0:	43 81       	ldd	r20, Z+3	; 0x03
    46b2:	24 0f       	add	r18, r20
    46b4:	31 1d       	adc	r19, r1
    46b6:	fc 01       	movw	r30, r24
    46b8:	81 85       	ldd	r24, Z+9	; 0x09
    46ba:	92 85       	ldd	r25, Z+10	; 0x0a
    46bc:	28 17       	cp	r18, r24
    46be:	39 07       	cpc	r19, r25
    46c0:	18 f5       	brcc	.+70     	; 0x4708 <_ZN12IGAS_X2X_48516validate_requestEPhh+0x76>
    46c2:	28 c0       	rjmp	.+80     	; 0x4714 <_ZN12IGAS_X2X_48516validate_requestEPhh+0x82>
    46c4:	24 81       	ldd	r18, Z+4	; 0x04
    46c6:	30 e0       	ldi	r19, 0x00	; 0
    46c8:	32 2f       	mov	r19, r18
    46ca:	22 27       	eor	r18, r18
    46cc:	55 81       	ldd	r21, Z+5	; 0x05
    46ce:	25 0f       	add	r18, r21
    46d0:	31 1d       	adc	r19, r1
    46d2:	43 30       	cpi	r20, 0x03	; 3
    46d4:	21 f0       	breq	.+8      	; 0x46de <_ZN12IGAS_X2X_48516validate_requestEPhh+0x4c>
    46d6:	40 31       	cpi	r20, 0x10	; 16
    46d8:	11 f0       	breq	.+4      	; 0x46de <_ZN12IGAS_X2X_48516validate_requestEPhh+0x4c>
    46da:	40 e0       	ldi	r20, 0x00	; 0
    46dc:	01 c0       	rjmp	.+2      	; 0x46e0 <_ZN12IGAS_X2X_48516validate_requestEPhh+0x4e>
    46de:	4e e0       	ldi	r20, 0x0E	; 14
    46e0:	21 15       	cp	r18, r1
    46e2:	31 05       	cpc	r19, r1
    46e4:	a1 f0       	breq	.+40     	; 0x470e <_ZN12IGAS_X2X_48516validate_requestEPhh+0x7c>
    46e6:	50 e0       	ldi	r21, 0x00	; 0
    46e8:	42 17       	cp	r20, r18
    46ea:	53 07       	cpc	r21, r19
    46ec:	80 f0       	brcs	.+32     	; 0x470e <_ZN12IGAS_X2X_48516validate_requestEPhh+0x7c>
    46ee:	22 81       	ldd	r18, Z+2	; 0x02
    46f0:	30 e0       	ldi	r19, 0x00	; 0
    46f2:	32 2f       	mov	r19, r18
    46f4:	22 27       	eor	r18, r18
    46f6:	43 81       	ldd	r20, Z+3	; 0x03
    46f8:	24 0f       	add	r18, r20
    46fa:	31 1d       	adc	r19, r1
    46fc:	fc 01       	movw	r30, r24
    46fe:	81 85       	ldd	r24, Z+9	; 0x09
    4700:	92 85       	ldd	r25, Z+10	; 0x0a
    4702:	82 17       	cp	r24, r18
    4704:	93 07       	cpc	r25, r19
    4706:	30 f4       	brcc	.+12     	; 0x4714 <_ZN12IGAS_X2X_48516validate_requestEPhh+0x82>
    4708:	82 e0       	ldi	r24, 0x02	; 2
    470a:	90 e0       	ldi	r25, 0x00	; 0
    470c:	08 95       	ret
    470e:	83 e0       	ldi	r24, 0x03	; 3
    4710:	90 e0       	ldi	r25, 0x00	; 0
    4712:	08 95       	ret
    4714:	80 e0       	ldi	r24, 0x00	; 0
    4716:	90 e0       	ldi	r25, 0x00	; 0
    4718:	08 95       	ret

0000471a <_ZN12IGAS_X2X_48511setDelegateEPFvPiiiiE>:
    471a:	fc 01       	movw	r30, r24
    471c:	70 87       	std	Z+8, r23	; 0x08
    471e:	67 83       	std	Z+7, r22	; 0x07
    4720:	08 95       	ret

00004722 <_ZN12IGAS_X2X_4858doActionEPiiii>:
    4722:	0f 93       	push	r16
    4724:	1f 93       	push	r17
    4726:	cf 93       	push	r28
    4728:	df 93       	push	r29
    472a:	db 01       	movw	r26, r22
    472c:	ba 01       	movw	r22, r20
    472e:	a9 01       	movw	r20, r18
    4730:	98 01       	movw	r18, r16
    4732:	ec 01       	movw	r28, r24
    4734:	ef 81       	ldd	r30, Y+7	; 0x07
    4736:	f8 85       	ldd	r31, Y+8	; 0x08
    4738:	cd 01       	movw	r24, r26
    473a:	df 91       	pop	r29
    473c:	cf 91       	pop	r28
    473e:	1f 91       	pop	r17
    4740:	0f 91       	pop	r16
    4742:	09 94       	ijmp

00004744 <_ZN12IGAS_X2X_48510write_regsEjPhPi>:
    4744:	6f 92       	push	r6
    4746:	7f 92       	push	r7
    4748:	8f 92       	push	r8
    474a:	9f 92       	push	r9
    474c:	af 92       	push	r10
    474e:	bf 92       	push	r11
    4750:	cf 92       	push	r12
    4752:	df 92       	push	r13
    4754:	ef 92       	push	r14
    4756:	ff 92       	push	r15
    4758:	0f 93       	push	r16
    475a:	1f 93       	push	r17
    475c:	cf 93       	push	r28
    475e:	df 93       	push	r29
    4760:	5c 01       	movw	r10, r24
    4762:	4b 01       	movw	r8, r22
    4764:	6a 01       	movw	r12, r20
    4766:	39 01       	movw	r6, r18
    4768:	7a 01       	movw	r14, r20
    476a:	c0 e0       	ldi	r28, 0x00	; 0
    476c:	d0 e0       	ldi	r29, 0x00	; 0
    476e:	82 e0       	ldi	r24, 0x02	; 2
    4770:	e8 0e       	add	r14, r24
    4772:	f1 1c       	adc	r15, r1
    4774:	f6 01       	movw	r30, r12
    4776:	85 81       	ldd	r24, Z+5	; 0x05
    4778:	90 e0       	ldi	r25, 0x00	; 0
    477a:	c8 17       	cp	r28, r24
    477c:	d9 07       	cpc	r29, r25
    477e:	88 f4       	brcc	.+34     	; 0x47a2 <_ZN12IGAS_X2X_48510write_regsEjPhPi+0x5e>
    4780:	f7 01       	movw	r30, r14
    4782:	05 81       	ldd	r16, Z+5	; 0x05
    4784:	10 e0       	ldi	r17, 0x00	; 0
    4786:	10 2f       	mov	r17, r16
    4788:	00 27       	eor	r16, r16
    478a:	86 81       	ldd	r24, Z+6	; 0x06
    478c:	08 2b       	or	r16, r24
    478e:	ae 01       	movw	r20, r28
    4790:	48 0d       	add	r20, r8
    4792:	59 1d       	adc	r21, r9
    4794:	21 e0       	ldi	r18, 0x01	; 1
    4796:	30 e0       	ldi	r19, 0x00	; 0
    4798:	b3 01       	movw	r22, r6
    479a:	c5 01       	movw	r24, r10
    479c:	c2 df       	rcall	.-124    	; 0x4722 <_ZN12IGAS_X2X_4858doActionEPiiii>
    479e:	21 96       	adiw	r28, 0x01	; 1
    47a0:	e6 cf       	rjmp	.-52     	; 0x476e <_ZN12IGAS_X2X_48510write_regsEjPhPi+0x2a>
    47a2:	ce 01       	movw	r24, r28
    47a4:	df 91       	pop	r29
    47a6:	cf 91       	pop	r28
    47a8:	1f 91       	pop	r17
    47aa:	0f 91       	pop	r16
    47ac:	ff 90       	pop	r15
    47ae:	ef 90       	pop	r14
    47b0:	df 90       	pop	r13
    47b2:	cf 90       	pop	r12
    47b4:	bf 90       	pop	r11
    47b6:	af 90       	pop	r10
    47b8:	9f 90       	pop	r9
    47ba:	8f 90       	pop	r8
    47bc:	7f 90       	pop	r7
    47be:	6f 90       	pop	r6
    47c0:	08 95       	ret

000047c2 <__vector_20>:
    47c2:	1f 92       	push	r1
    47c4:	0f 92       	push	r0
    47c6:	0f b6       	in	r0, 0x3f	; 63
    47c8:	0f 92       	push	r0
    47ca:	11 24       	eor	r1, r1
    47cc:	5a 98       	cbi	0x0b, 2	; 11
    47ce:	0f 90       	pop	r0
    47d0:	0f be       	out	0x3f, r0	; 63
    47d2:	0f 90       	pop	r0
    47d4:	1f 90       	pop	r1
    47d6:	18 95       	reti

000047d8 <_ZN12IGAS_X2X_4854sendEPhh>:
    47d8:	ef 92       	push	r14
    47da:	ff 92       	push	r15
    47dc:	0f 93       	push	r16
    47de:	1f 93       	push	r17
    47e0:	cf 93       	push	r28
    47e2:	df 93       	push	r29
    47e4:	80 91 c0 00 	lds	r24, 0x00C0	; 0x8000c0 <__TEXT_REGION_LENGTH__+0x7f80c0>
    47e8:	80 64       	ori	r24, 0x40	; 64
    47ea:	80 93 c0 00 	sts	0x00C0, r24	; 0x8000c0 <__TEXT_REGION_LENGTH__+0x7f80c0>
    47ee:	8f b7       	in	r24, 0x3f	; 63
    47f0:	f8 94       	cli
    47f2:	5a 9a       	sbi	0x0b, 2	; 11
    47f4:	8f bf       	out	0x3f, r24	; 63
    47f6:	eb 01       	movw	r28, r22
    47f8:	04 2f       	mov	r16, r20
    47fa:	10 e0       	ldi	r17, 0x00	; 0
    47fc:	7b 01       	movw	r14, r22
    47fe:	e0 0e       	add	r14, r16
    4800:	f1 1e       	adc	r15, r17
    4802:	ce 15       	cp	r28, r14
    4804:	df 05       	cpc	r29, r15
    4806:	31 f0       	breq	.+12     	; 0x4814 <_ZN12IGAS_X2X_4854sendEPhh+0x3c>
    4808:	69 91       	ld	r22, Y+
    480a:	8f e9       	ldi	r24, 0x9F	; 159
    480c:	93 e0       	ldi	r25, 0x03	; 3
    480e:	0e 94 d7 18 	call	0x31ae	; 0x31ae <_ZN14HardwareSerial5writeEh>
    4812:	f7 cf       	rjmp	.-18     	; 0x4802 <_ZN12IGAS_X2X_4854sendEPhh+0x2a>
    4814:	c8 01       	movw	r24, r16
    4816:	df 91       	pop	r29
    4818:	cf 91       	pop	r28
    481a:	1f 91       	pop	r17
    481c:	0f 91       	pop	r16
    481e:	ff 90       	pop	r15
    4820:	ef 90       	pop	r14
    4822:	08 95       	ret

00004824 <_ZN12IGAS_X2X_48510send_replyEPhh>:
    4824:	ef 92       	push	r14
    4826:	ff 92       	push	r15
    4828:	0f 93       	push	r16
    482a:	1f 93       	push	r17
    482c:	cf 93       	push	r28
    482e:	8c 01       	movw	r16, r24
    4830:	7b 01       	movw	r14, r22
    4832:	c4 2f       	mov	r28, r20
    4834:	1a df       	rcall	.-460    	; 0x466a <_ZN12IGAS_X2X_48512modbus_replyEPhh>
    4836:	42 e0       	ldi	r20, 0x02	; 2
    4838:	4c 0f       	add	r20, r28
    483a:	b7 01       	movw	r22, r14
    483c:	c8 01       	movw	r24, r16
    483e:	cf 91       	pop	r28
    4840:	1f 91       	pop	r17
    4842:	0f 91       	pop	r16
    4844:	ff 90       	pop	r15
    4846:	ef 90       	pop	r14
    4848:	c7 cf       	rjmp	.-114    	; 0x47d8 <_ZN12IGAS_X2X_4854sendEPhh>

0000484a <_ZN12IGAS_X2X_48525preset_multiple_registersEhjhPhPi>:
    484a:	cf 92       	push	r12
    484c:	df 92       	push	r13
    484e:	ef 92       	push	r14
    4850:	ff 92       	push	r15
    4852:	0f 93       	push	r16
    4854:	1f 93       	push	r17
    4856:	cf 93       	push	r28
    4858:	df 93       	push	r29
    485a:	cd b7       	in	r28, 0x3d	; 61
    485c:	de b7       	in	r29, 0x3e	; 62
    485e:	28 97       	sbiw	r28, 0x08	; 8
    4860:	0f b6       	in	r0, 0x3f	; 63
    4862:	f8 94       	cli
    4864:	de bf       	out	0x3e, r29	; 62
    4866:	0f be       	out	0x3f, r0	; 63
    4868:	cd bf       	out	0x3d, r28	; 61
    486a:	6c 01       	movw	r12, r24
    486c:	84 2f       	mov	r24, r20
    486e:	75 2f       	mov	r23, r21
    4870:	a8 01       	movw	r20, r16
    4872:	69 83       	std	Y+1, r22	; 0x01
    4874:	90 e1       	ldi	r25, 0x10	; 16
    4876:	9a 83       	std	Y+2, r25	; 0x02
    4878:	7b 83       	std	Y+3, r23	; 0x03
    487a:	8c 83       	std	Y+4, r24	; 0x04
    487c:	1d 82       	std	Y+5, r1	; 0x05
    487e:	2e 83       	std	Y+6, r18	; 0x06
    4880:	97 01       	movw	r18, r14
    4882:	68 2f       	mov	r22, r24
    4884:	c6 01       	movw	r24, r12
    4886:	5e df       	rcall	.-324    	; 0x4744 <_ZN12IGAS_X2X_48510write_regsEjPhPi>
    4888:	89 2b       	or	r24, r25
    488a:	39 f0       	breq	.+14     	; 0x489a <_ZN12IGAS_X2X_48525preset_multiple_registersEhjhPhPi+0x50>
    488c:	46 e0       	ldi	r20, 0x06	; 6
    488e:	be 01       	movw	r22, r28
    4890:	6f 5f       	subi	r22, 0xFF	; 255
    4892:	7f 4f       	sbci	r23, 0xFF	; 255
    4894:	c6 01       	movw	r24, r12
    4896:	c6 df       	rcall	.-116    	; 0x4824 <_ZN12IGAS_X2X_48510send_replyEPhh>
    4898:	02 c0       	rjmp	.+4      	; 0x489e <_ZN12IGAS_X2X_48525preset_multiple_registersEhjhPhPi+0x54>
    489a:	80 e0       	ldi	r24, 0x00	; 0
    489c:	90 e0       	ldi	r25, 0x00	; 0
    489e:	28 96       	adiw	r28, 0x08	; 8
    48a0:	0f b6       	in	r0, 0x3f	; 63
    48a2:	f8 94       	cli
    48a4:	de bf       	out	0x3e, r29	; 62
    48a6:	0f be       	out	0x3f, r0	; 63
    48a8:	cd bf       	out	0x3d, r28	; 61
    48aa:	df 91       	pop	r29
    48ac:	cf 91       	pop	r28
    48ae:	1f 91       	pop	r17
    48b0:	0f 91       	pop	r16
    48b2:	ff 90       	pop	r15
    48b4:	ef 90       	pop	r14
    48b6:	df 90       	pop	r13
    48b8:	cf 90       	pop	r12
    48ba:	08 95       	ret

000048bc <_ZN12IGAS_X2X_48521write_single_registerEhjPhPi>:
    48bc:	ef 92       	push	r14
    48be:	ff 92       	push	r15
    48c0:	0f 93       	push	r16
    48c2:	1f 93       	push	r17
    48c4:	cf 93       	push	r28
    48c6:	df 93       	push	r29
    48c8:	cd b7       	in	r28, 0x3d	; 61
    48ca:	de b7       	in	r29, 0x3e	; 62
    48cc:	28 97       	sbiw	r28, 0x08	; 8
    48ce:	0f b6       	in	r0, 0x3f	; 63
    48d0:	f8 94       	cli
    48d2:	de bf       	out	0x3e, r29	; 62
    48d4:	0f be       	out	0x3f, r0	; 63
    48d6:	cd bf       	out	0x3d, r28	; 61
    48d8:	7c 01       	movw	r14, r24
    48da:	c8 01       	movw	r24, r16
    48dc:	f9 01       	movw	r30, r18
    48de:	04 81       	ldd	r16, Z+4	; 0x04
    48e0:	15 81       	ldd	r17, Z+5	; 0x05
    48e2:	10 27       	eor	r17, r16
    48e4:	01 27       	eor	r16, r17
    48e6:	10 27       	eor	r17, r16
    48e8:	69 83       	std	Y+1, r22	; 0x01
    48ea:	26 e0       	ldi	r18, 0x06	; 6
    48ec:	2a 83       	std	Y+2, r18	; 0x02
    48ee:	5b 83       	std	Y+3, r21	; 0x03
    48f0:	4c 83       	std	Y+4, r20	; 0x04
    48f2:	1d 83       	std	Y+5, r17	; 0x05
    48f4:	0e 83       	std	Y+6, r16	; 0x06
    48f6:	21 e0       	ldi	r18, 0x01	; 1
    48f8:	30 e0       	ldi	r19, 0x00	; 0
    48fa:	bc 01       	movw	r22, r24
    48fc:	c7 01       	movw	r24, r14
    48fe:	11 df       	rcall	.-478    	; 0x4722 <_ZN12IGAS_X2X_4858doActionEPiiii>
    4900:	46 e0       	ldi	r20, 0x06	; 6
    4902:	be 01       	movw	r22, r28
    4904:	6f 5f       	subi	r22, 0xFF	; 255
    4906:	7f 4f       	sbci	r23, 0xFF	; 255
    4908:	c7 01       	movw	r24, r14
    490a:	8c df       	rcall	.-232    	; 0x4824 <_ZN12IGAS_X2X_48510send_replyEPhh>
    490c:	28 96       	adiw	r28, 0x08	; 8
    490e:	0f b6       	in	r0, 0x3f	; 63
    4910:	f8 94       	cli
    4912:	de bf       	out	0x3e, r29	; 62
    4914:	0f be       	out	0x3f, r0	; 63
    4916:	cd bf       	out	0x3d, r28	; 61
    4918:	df 91       	pop	r29
    491a:	cf 91       	pop	r28
    491c:	1f 91       	pop	r17
    491e:	0f 91       	pop	r16
    4920:	ff 90       	pop	r15
    4922:	ef 90       	pop	r14
    4924:	08 95       	ret

00004926 <_ZN12IGAS_X2X_48522read_holding_registersEhjhPi>:
    4926:	af 92       	push	r10
    4928:	bf 92       	push	r11
    492a:	cf 92       	push	r12
    492c:	df 92       	push	r13
    492e:	ef 92       	push	r14
    4930:	ff 92       	push	r15
    4932:	0f 93       	push	r16
    4934:	1f 93       	push	r17
    4936:	cf 93       	push	r28
    4938:	df 93       	push	r29
    493a:	cd b7       	in	r28, 0x3d	; 61
    493c:	de b7       	in	r29, 0x3e	; 62
    493e:	a8 97       	sbiw	r28, 0x28	; 40
    4940:	0f b6       	in	r0, 0x3f	; 63
    4942:	f8 94       	cli
    4944:	de bf       	out	0x3e, r29	; 62
    4946:	0f be       	out	0x3f, r0	; 63
    4948:	cd bf       	out	0x3d, r28	; 61
    494a:	6c 01       	movw	r12, r24
    494c:	58 01       	movw	r10, r16
    494e:	69 83       	std	Y+1, r22	; 0x01
    4950:	83 e0       	ldi	r24, 0x03	; 3
    4952:	8a 83       	std	Y+2, r24	; 0x02
    4954:	82 2f       	mov	r24, r18
    4956:	88 0f       	add	r24, r24
    4958:	8b 83       	std	Y+3, r24	; 0x03
    495a:	e2 2e       	mov	r14, r18
    495c:	f1 2c       	mov	r15, r1
    495e:	00 e0       	ldi	r16, 0x00	; 0
    4960:	10 e0       	ldi	r17, 0x00	; 0
    4962:	97 01       	movw	r18, r14
    4964:	b5 01       	movw	r22, r10
    4966:	c6 01       	movw	r24, r12
    4968:	dc de       	rcall	.-584    	; 0x4722 <_ZN12IGAS_X2X_4858doActionEPiiii>
    496a:	d5 01       	movw	r26, r10
    496c:	fe 01       	movw	r30, r28
    496e:	31 96       	adiw	r30, 0x01	; 1
    4970:	80 e0       	ldi	r24, 0x00	; 0
    4972:	90 e0       	ldi	r25, 0x00	; 0
    4974:	bf 01       	movw	r22, r30
    4976:	32 96       	adiw	r30, 0x02	; 2
    4978:	8e 15       	cp	r24, r14
    497a:	9f 05       	cpc	r25, r15
    497c:	48 f4       	brcc	.+18     	; 0x4990 <_ZN12IGAS_X2X_48522read_holding_registersEhjhPi+0x6a>
    497e:	2c 91       	ld	r18, X
    4980:	11 96       	adiw	r26, 0x01	; 1
    4982:	3c 91       	ld	r19, X
    4984:	11 97       	sbiw	r26, 0x01	; 1
    4986:	12 96       	adiw	r26, 0x02	; 2
    4988:	31 83       	std	Z+1, r19	; 0x01
    498a:	22 83       	std	Z+2, r18	; 0x02
    498c:	01 96       	adiw	r24, 0x01	; 1
    498e:	f3 cf       	rjmp	.-26     	; 0x4976 <_ZN12IGAS_X2X_48522read_holding_registersEhjhPi+0x50>
    4990:	a7 01       	movw	r20, r14
    4992:	44 0f       	add	r20, r20
    4994:	55 1f       	adc	r21, r21
    4996:	4d 5f       	subi	r20, 0xFD	; 253
    4998:	5f 4f       	sbci	r21, 0xFF	; 255
    499a:	c6 01       	movw	r24, r12
    499c:	43 df       	rcall	.-378    	; 0x4824 <_ZN12IGAS_X2X_48510send_replyEPhh>
    499e:	a8 96       	adiw	r28, 0x28	; 40
    49a0:	0f b6       	in	r0, 0x3f	; 63
    49a2:	f8 94       	cli
    49a4:	de bf       	out	0x3e, r29	; 62
    49a6:	0f be       	out	0x3f, r0	; 63
    49a8:	cd bf       	out	0x3d, r28	; 61
    49aa:	df 91       	pop	r29
    49ac:	cf 91       	pop	r28
    49ae:	1f 91       	pop	r17
    49b0:	0f 91       	pop	r16
    49b2:	ff 90       	pop	r15
    49b4:	ef 90       	pop	r14
    49b6:	df 90       	pop	r13
    49b8:	cf 90       	pop	r12
    49ba:	bf 90       	pop	r11
    49bc:	af 90       	pop	r10
    49be:	08 95       	ret

000049c0 <_ZN12IGAS_X2X_48515receive_requestEPh>:
    49c0:	0f 93       	push	r16
    49c2:	1f 93       	push	r17
    49c4:	cf 93       	push	r28
    49c6:	df 93       	push	r29
    49c8:	8b 01       	movw	r16, r22
    49ca:	c0 e0       	ldi	r28, 0x00	; 0
    49cc:	d0 e0       	ldi	r29, 0x00	; 0
    49ce:	8f e9       	ldi	r24, 0x9F	; 159
    49d0:	93 e0       	ldi	r25, 0x03	; 3
    49d2:	0e 94 7d 18 	call	0x30fa	; 0x30fa <_ZN14HardwareSerial9availableEv>
    49d6:	89 2b       	or	r24, r25
    49d8:	71 f0       	breq	.+28     	; 0x49f6 <_ZN12IGAS_X2X_48515receive_requestEPh+0x36>
    49da:	8f e9       	ldi	r24, 0x9F	; 159
    49dc:	93 e0       	ldi	r25, 0x03	; 3
    49de:	0e 94 ac 18 	call	0x3158	; 0x3158 <_ZN14HardwareSerial4readEv>
    49e2:	f8 01       	movw	r30, r16
    49e4:	81 93       	st	Z+, r24
    49e6:	8f 01       	movw	r16, r30
    49e8:	21 96       	adiw	r28, 0x01	; 1
    49ea:	c6 32       	cpi	r28, 0x26	; 38
    49ec:	d1 05       	cpc	r29, r1
    49ee:	79 f7       	brne	.-34     	; 0x49ce <_ZN12IGAS_X2X_48515receive_requestEPh+0xe>
    49f0:	8f ef       	ldi	r24, 0xFF	; 255
    49f2:	9f ef       	ldi	r25, 0xFF	; 255
    49f4:	01 c0       	rjmp	.+2      	; 0x49f8 <_ZN12IGAS_X2X_48515receive_requestEPh+0x38>
    49f6:	ce 01       	movw	r24, r28
    49f8:	df 91       	pop	r29
    49fa:	cf 91       	pop	r28
    49fc:	1f 91       	pop	r17
    49fe:	0f 91       	pop	r16
    4a00:	08 95       	ret

00004a02 <_ZN12IGAS_X2X_48514modbus_requestEhPh>:
    4a02:	df 92       	push	r13
    4a04:	ef 92       	push	r14
    4a06:	ff 92       	push	r15
    4a08:	0f 93       	push	r16
    4a0a:	1f 93       	push	r17
    4a0c:	cf 93       	push	r28
    4a0e:	df 93       	push	r29
    4a10:	7c 01       	movw	r14, r24
    4a12:	d6 2e       	mov	r13, r22
    4a14:	8a 01       	movw	r16, r20
    4a16:	ba 01       	movw	r22, r20
    4a18:	d3 df       	rcall	.-90     	; 0x49c0 <_ZN12IGAS_X2X_48515receive_requestEPh>
    4a1a:	ec 01       	movw	r28, r24
    4a1c:	18 16       	cp	r1, r24
    4a1e:	19 06       	cpc	r1, r25
    4a20:	cc f4       	brge	.+50     	; 0x4a54 <_ZN12IGAS_X2X_48514modbus_requestEhPh+0x52>
    4a22:	28 2f       	mov	r18, r24
    4a24:	22 50       	subi	r18, 0x02	; 2
    4a26:	40 e0       	ldi	r20, 0x00	; 0
    4a28:	b8 01       	movw	r22, r16
    4a2a:	c7 01       	movw	r24, r14
    4a2c:	01 de       	rcall	.-1022   	; 0x4630 <_ZN12IGAS_X2X_4853crcEPhhh>
    4a2e:	a8 01       	movw	r20, r16
    4a30:	4c 0f       	add	r20, r28
    4a32:	5d 1f       	adc	r21, r29
    4a34:	fa 01       	movw	r30, r20
    4a36:	32 97       	sbiw	r30, 0x02	; 2
    4a38:	20 81       	ld	r18, Z
    4a3a:	30 e0       	ldi	r19, 0x00	; 0
    4a3c:	32 2f       	mov	r19, r18
    4a3e:	22 27       	eor	r18, r18
    4a40:	31 96       	adiw	r30, 0x01	; 1
    4a42:	40 81       	ld	r20, Z
    4a44:	24 2b       	or	r18, r20
    4a46:	82 17       	cp	r24, r18
    4a48:	93 07       	cpc	r25, r19
    4a4a:	31 f4       	brne	.+12     	; 0x4a58 <_ZN12IGAS_X2X_48514modbus_requestEhPh+0x56>
    4a4c:	f8 01       	movw	r30, r16
    4a4e:	80 81       	ld	r24, Z
    4a50:	8d 11       	cpse	r24, r13
    4a52:	02 c0       	rjmp	.+4      	; 0x4a58 <_ZN12IGAS_X2X_48514modbus_requestEhPh+0x56>
    4a54:	ce 01       	movw	r24, r28
    4a56:	02 c0       	rjmp	.+4      	; 0x4a5c <_ZN12IGAS_X2X_48514modbus_requestEhPh+0x5a>
    4a58:	8f ef       	ldi	r24, 0xFF	; 255
    4a5a:	9f ef       	ldi	r25, 0xFF	; 255
    4a5c:	df 91       	pop	r29
    4a5e:	cf 91       	pop	r28
    4a60:	1f 91       	pop	r17
    4a62:	0f 91       	pop	r16
    4a64:	ff 90       	pop	r15
    4a66:	ef 90       	pop	r14
    4a68:	df 90       	pop	r13
    4a6a:	08 95       	ret

00004a6c <_ZN12IGAS_X2X_4856updateEv>:
    4a6c:	8f 92       	push	r8
    4a6e:	9f 92       	push	r9
    4a70:	af 92       	push	r10
    4a72:	bf 92       	push	r11
    4a74:	cf 92       	push	r12
    4a76:	df 92       	push	r13
    4a78:	ef 92       	push	r14
    4a7a:	ff 92       	push	r15
    4a7c:	0f 93       	push	r16
    4a7e:	1f 93       	push	r17
    4a80:	cf 93       	push	r28
    4a82:	df 93       	push	r29
    4a84:	cd b7       	in	r28, 0x3d	; 61
    4a86:	de b7       	in	r29, 0x3e	; 62
    4a88:	cc 57       	subi	r28, 0x7C	; 124
    4a8a:	d1 09       	sbc	r29, r1
    4a8c:	0f b6       	in	r0, 0x3f	; 63
    4a8e:	f8 94       	cli
    4a90:	de bf       	out	0x3e, r29	; 62
    4a92:	0f be       	out	0x3f, r0	; 63
    4a94:	cd bf       	out	0x3d, r28	; 61
    4a96:	6c 01       	movw	r12, r24
    4a98:	8f e9       	ldi	r24, 0x9F	; 159
    4a9a:	93 e0       	ldi	r25, 0x03	; 3
    4a9c:	0e 94 7d 18 	call	0x30fa	; 0x30fa <_ZN14HardwareSerial9availableEv>
    4aa0:	5c 01       	movw	r10, r24
    4aa2:	89 2b       	or	r24, r25
    4aa4:	21 f4       	brne	.+8      	; 0x4aae <_ZN12IGAS_X2X_4856updateEv+0x42>
    4aa6:	f6 01       	movw	r30, r12
    4aa8:	10 8a       	std	Z+16, r1	; 0x10
    4aaa:	17 86       	std	Z+15, r1	; 0x0f
    4aac:	87 c0       	rjmp	.+270    	; 0x4bbc <_ZN12IGAS_X2X_4856updateEv+0x150>
    4aae:	1c da       	rcall	.-3016   	; 0x3ee8 <millis>
    4ab0:	2b b1       	in	r18, 0x0b	; 11
    4ab2:	12 2f       	mov	r17, r18
    4ab4:	14 70       	andi	r17, 0x04	; 4
    4ab6:	22 fd       	sbrc	r18, 2
    4ab8:	81 c0       	rjmp	.+258    	; 0x4bbc <_ZN12IGAS_X2X_4856updateEv+0x150>
    4aba:	f6 01       	movw	r30, r12
    4abc:	27 85       	ldd	r18, Z+15	; 0x0f
    4abe:	30 89       	ldd	r19, Z+16	; 0x10
    4ac0:	a2 16       	cp	r10, r18
    4ac2:	b3 06       	cpc	r11, r19
    4ac4:	39 f0       	breq	.+14     	; 0x4ad4 <_ZN12IGAS_X2X_4856updateEv+0x68>
    4ac6:	b0 8a       	std	Z+16, r11	; 0x10
    4ac8:	a7 86       	std	Z+15, r10	; 0x0f
    4aca:	63 87       	std	Z+11, r22	; 0x0b
    4acc:	74 87       	std	Z+12, r23	; 0x0c
    4ace:	85 87       	std	Z+13, r24	; 0x0d
    4ad0:	96 87       	std	Z+14, r25	; 0x0e
    4ad2:	75 c0       	rjmp	.+234    	; 0x4bbe <_ZN12IGAS_X2X_4856updateEv+0x152>
    4ad4:	f6 01       	movw	r30, r12
    4ad6:	83 84       	ldd	r8, Z+11	; 0x0b
    4ad8:	94 84       	ldd	r9, Z+12	; 0x0c
    4ada:	a5 84       	ldd	r10, Z+13	; 0x0d
    4adc:	b6 84       	ldd	r11, Z+14	; 0x0e
    4ade:	dc 01       	movw	r26, r24
    4ae0:	cb 01       	movw	r24, r22
    4ae2:	88 19       	sub	r24, r8
    4ae4:	99 09       	sbc	r25, r9
    4ae6:	aa 09       	sbc	r26, r10
    4ae8:	bb 09       	sbc	r27, r11
    4aea:	80 90 77 05 	lds	r8, 0x0577	; 0x800577 <interframe_delay>
    4aee:	91 2c       	mov	r9, r1
    4af0:	a1 2c       	mov	r10, r1
    4af2:	b1 2c       	mov	r11, r1
    4af4:	88 15       	cp	r24, r8
    4af6:	99 05       	cpc	r25, r9
    4af8:	aa 05       	cpc	r26, r10
    4afa:	bb 05       	cpc	r27, r11
    4afc:	08 f4       	brcc	.+2      	; 0x4b00 <_ZN12IGAS_X2X_4856updateEv+0x94>
    4afe:	5f c0       	rjmp	.+190    	; 0x4bbe <_ZN12IGAS_X2X_4856updateEv+0x152>
    4b00:	10 8a       	std	Z+16, r1	; 0x10
    4b02:	17 86       	std	Z+15, r1	; 0x0f
    4b04:	ae 01       	movw	r20, r28
    4b06:	4b 5a       	subi	r20, 0xAB	; 171
    4b08:	5f 4f       	sbci	r21, 0xFF	; 255
    4b0a:	60 81       	ld	r22, Z
    4b0c:	c6 01       	movw	r24, r12
    4b0e:	79 df       	rcall	.-270    	; 0x4a02 <_ZN12IGAS_X2X_48514modbus_requestEhPh>
    4b10:	18 16       	cp	r1, r24
    4b12:	19 06       	cpc	r1, r25
    4b14:	0c f0       	brlt	.+2      	; 0x4b18 <_ZN12IGAS_X2X_4856updateEv+0xac>
    4b16:	50 c0       	rjmp	.+160    	; 0x4bb8 <_ZN12IGAS_X2X_4856updateEv+0x14c>
    4b18:	48 2f       	mov	r20, r24
    4b1a:	be 01       	movw	r22, r28
    4b1c:	6b 5a       	subi	r22, 0xAB	; 171
    4b1e:	7f 4f       	sbci	r23, 0xFF	; 255
    4b20:	c6 01       	movw	r24, r12
    4b22:	b7 dd       	rcall	.-1170   	; 0x4692 <_ZN12IGAS_X2X_48516validate_requestEPhh>
    4b24:	9c 01       	movw	r18, r24
    4b26:	67 96       	adiw	r28, 0x17	; 23
    4b28:	9f ad       	ldd	r25, Y+63	; 0x3f
    4b2a:	67 97       	sbiw	r28, 0x17	; 23
    4b2c:	21 15       	cp	r18, r1
    4b2e:	31 05       	cpc	r19, r1
    4b30:	71 f0       	breq	.+28     	; 0x4b4e <_ZN12IGAS_X2X_4856updateEv+0xe2>
    4b32:	12 2f       	mov	r17, r18
    4b34:	f6 01       	movw	r30, r12
    4b36:	80 81       	ld	r24, Z
    4b38:	89 83       	std	Y+1, r24	; 0x01
    4b3a:	90 58       	subi	r25, 0x80	; 128
    4b3c:	9a 83       	std	Y+2, r25	; 0x02
    4b3e:	2b 83       	std	Y+3, r18	; 0x03
    4b40:	43 e0       	ldi	r20, 0x03	; 3
    4b42:	be 01       	movw	r22, r28
    4b44:	6f 5f       	subi	r22, 0xFF	; 255
    4b46:	7f 4f       	sbci	r23, 0xFF	; 255
    4b48:	c6 01       	movw	r24, r12
    4b4a:	6c de       	rcall	.-808    	; 0x4824 <_ZN12IGAS_X2X_48510send_replyEPhh>
    4b4c:	38 c0       	rjmp	.+112    	; 0x4bbe <_ZN12IGAS_X2X_4856updateEv+0x152>
    4b4e:	68 96       	adiw	r28, 0x18	; 24
    4b50:	4f ad       	ldd	r20, Y+63	; 0x3f
    4b52:	68 97       	sbiw	r28, 0x18	; 24
    4b54:	50 e0       	ldi	r21, 0x00	; 0
    4b56:	54 2f       	mov	r21, r20
    4b58:	44 27       	eor	r20, r20
    4b5a:	69 96       	adiw	r28, 0x19	; 25
    4b5c:	8f ad       	ldd	r24, Y+63	; 0x3f
    4b5e:	69 97       	sbiw	r28, 0x19	; 25
    4b60:	48 0f       	add	r20, r24
    4b62:	51 1d       	adc	r21, r1
    4b64:	f6 01       	movw	r30, r12
    4b66:	92 83       	std	Z+2, r25	; 0x02
    4b68:	96 30       	cpi	r25, 0x06	; 6
    4b6a:	e1 f0       	breq	.+56     	; 0x4ba4 <_ZN12IGAS_X2X_4856updateEv+0x138>
    4b6c:	90 31       	cpi	r25, 0x10	; 16
    4b6e:	61 f0       	breq	.+24     	; 0x4b88 <_ZN12IGAS_X2X_4856updateEv+0x11c>
    4b70:	93 30       	cpi	r25, 0x03	; 3
    4b72:	29 f5       	brne	.+74     	; 0x4bbe <_ZN12IGAS_X2X_4856updateEv+0x152>
    4b74:	8e 01       	movw	r16, r28
    4b76:	0f 5f       	subi	r16, 0xFF	; 255
    4b78:	1f 4f       	sbci	r17, 0xFF	; 255
    4b7a:	6b 96       	adiw	r28, 0x1b	; 27
    4b7c:	2f ad       	ldd	r18, Y+63	; 0x3f
    4b7e:	6b 97       	sbiw	r28, 0x1b	; 27
    4b80:	60 81       	ld	r22, Z
    4b82:	c6 01       	movw	r24, r12
    4b84:	d0 de       	rcall	.-608    	; 0x4926 <_ZN12IGAS_X2X_48522read_holding_registersEhjhPi>
    4b86:	18 c0       	rjmp	.+48     	; 0x4bb8 <_ZN12IGAS_X2X_4856updateEv+0x14c>
    4b88:	ce 01       	movw	r24, r28
    4b8a:	01 96       	adiw	r24, 0x01	; 1
    4b8c:	7c 01       	movw	r14, r24
    4b8e:	8e 01       	movw	r16, r28
    4b90:	0b 5a       	subi	r16, 0xAB	; 171
    4b92:	1f 4f       	sbci	r17, 0xFF	; 255
    4b94:	6b 96       	adiw	r28, 0x1b	; 27
    4b96:	2f ad       	ldd	r18, Y+63	; 0x3f
    4b98:	6b 97       	sbiw	r28, 0x1b	; 27
    4b9a:	f6 01       	movw	r30, r12
    4b9c:	60 81       	ld	r22, Z
    4b9e:	c6 01       	movw	r24, r12
    4ba0:	54 de       	rcall	.-856    	; 0x484a <_ZN12IGAS_X2X_48525preset_multiple_registersEhjhPhPi>
    4ba2:	0a c0       	rjmp	.+20     	; 0x4bb8 <_ZN12IGAS_X2X_4856updateEv+0x14c>
    4ba4:	8e 01       	movw	r16, r28
    4ba6:	0f 5f       	subi	r16, 0xFF	; 255
    4ba8:	1f 4f       	sbci	r17, 0xFF	; 255
    4baa:	9e 01       	movw	r18, r28
    4bac:	2b 5a       	subi	r18, 0xAB	; 171
    4bae:	3f 4f       	sbci	r19, 0xFF	; 255
    4bb0:	f6 01       	movw	r30, r12
    4bb2:	60 81       	ld	r22, Z
    4bb4:	c6 01       	movw	r24, r12
    4bb6:	82 de       	rcall	.-764    	; 0x48bc <_ZN12IGAS_X2X_48521write_single_registerEhjPhPi>
    4bb8:	18 2f       	mov	r17, r24
    4bba:	01 c0       	rjmp	.+2      	; 0x4bbe <_ZN12IGAS_X2X_4856updateEv+0x152>
    4bbc:	10 e0       	ldi	r17, 0x00	; 0
    4bbe:	81 2f       	mov	r24, r17
    4bc0:	c4 58       	subi	r28, 0x84	; 132
    4bc2:	df 4f       	sbci	r29, 0xFF	; 255
    4bc4:	0f b6       	in	r0, 0x3f	; 63
    4bc6:	f8 94       	cli
    4bc8:	de bf       	out	0x3e, r29	; 62
    4bca:	0f be       	out	0x3f, r0	; 63
    4bcc:	cd bf       	out	0x3d, r28	; 61
    4bce:	df 91       	pop	r29
    4bd0:	cf 91       	pop	r28
    4bd2:	1f 91       	pop	r17
    4bd4:	0f 91       	pop	r16
    4bd6:	ff 90       	pop	r15
    4bd8:	ef 90       	pop	r14
    4bda:	df 90       	pop	r13
    4bdc:	cf 90       	pop	r12
    4bde:	bf 90       	pop	r11
    4be0:	af 90       	pop	r10
    4be2:	9f 90       	pop	r9
    4be4:	8f 90       	pop	r8
    4be6:	08 95       	ret

00004be8 <_ZN8TimerOne16isrDefaultUnusedEv>:
    4be8:	08 95       	ret

00004bea <__vector_13>:
    4bea:	1f 92       	push	r1
    4bec:	0f 92       	push	r0
    4bee:	0f b6       	in	r0, 0x3f	; 63
    4bf0:	0f 92       	push	r0
    4bf2:	11 24       	eor	r1, r1
    4bf4:	2f 93       	push	r18
    4bf6:	3f 93       	push	r19
    4bf8:	4f 93       	push	r20
    4bfa:	5f 93       	push	r21
    4bfc:	6f 93       	push	r22
    4bfe:	7f 93       	push	r23
    4c00:	8f 93       	push	r24
    4c02:	9f 93       	push	r25
    4c04:	af 93       	push	r26
    4c06:	bf 93       	push	r27
    4c08:	ef 93       	push	r30
    4c0a:	ff 93       	push	r31
    4c0c:	e0 91 05 01 	lds	r30, 0x0105	; 0x800105 <_ZN8TimerOne11isrCallbackE>
    4c10:	f0 91 06 01 	lds	r31, 0x0106	; 0x800106 <_ZN8TimerOne11isrCallbackE+0x1>
    4c14:	09 95       	icall
    4c16:	ff 91       	pop	r31
    4c18:	ef 91       	pop	r30
    4c1a:	bf 91       	pop	r27
    4c1c:	af 91       	pop	r26
    4c1e:	9f 91       	pop	r25
    4c20:	8f 91       	pop	r24
    4c22:	7f 91       	pop	r23
    4c24:	6f 91       	pop	r22
    4c26:	5f 91       	pop	r21
    4c28:	4f 91       	pop	r20
    4c2a:	3f 91       	pop	r19
    4c2c:	2f 91       	pop	r18
    4c2e:	0f 90       	pop	r0
    4c30:	0f be       	out	0x3f, r0	; 63
    4c32:	0f 90       	pop	r0
    4c34:	1f 90       	pop	r1
    4c36:	18 95       	reti

00004c38 <__divmodhi4>:
    4c38:	97 fb       	bst	r25, 7
    4c3a:	07 2e       	mov	r0, r23
    4c3c:	16 f4       	brtc	.+4      	; 0x4c42 <__divmodhi4+0xa>
    4c3e:	00 94       	com	r0
    4c40:	06 d0       	rcall	.+12     	; 0x4c4e <__divmodhi4_neg1>
    4c42:	77 fd       	sbrc	r23, 7
    4c44:	08 d0       	rcall	.+16     	; 0x4c56 <__divmodhi4_neg2>
    4c46:	33 d0       	rcall	.+102    	; 0x4cae <__udivmodhi4>
    4c48:	07 fc       	sbrc	r0, 7
    4c4a:	05 d0       	rcall	.+10     	; 0x4c56 <__divmodhi4_neg2>
    4c4c:	3e f4       	brtc	.+14     	; 0x4c5c <__divmodhi4_exit>

00004c4e <__divmodhi4_neg1>:
    4c4e:	90 95       	com	r25
    4c50:	81 95       	neg	r24
    4c52:	9f 4f       	sbci	r25, 0xFF	; 255
    4c54:	08 95       	ret

00004c56 <__divmodhi4_neg2>:
    4c56:	70 95       	com	r23
    4c58:	61 95       	neg	r22
    4c5a:	7f 4f       	sbci	r23, 0xFF	; 255

00004c5c <__divmodhi4_exit>:
    4c5c:	08 95       	ret

00004c5e <__udivmodsi4>:
    4c5e:	a1 e2       	ldi	r26, 0x21	; 33
    4c60:	1a 2e       	mov	r1, r26
    4c62:	aa 1b       	sub	r26, r26
    4c64:	bb 1b       	sub	r27, r27
    4c66:	fd 01       	movw	r30, r26
    4c68:	0d c0       	rjmp	.+26     	; 0x4c84 <__udivmodsi4_ep>

00004c6a <__udivmodsi4_loop>:
    4c6a:	aa 1f       	adc	r26, r26
    4c6c:	bb 1f       	adc	r27, r27
    4c6e:	ee 1f       	adc	r30, r30
    4c70:	ff 1f       	adc	r31, r31
    4c72:	a2 17       	cp	r26, r18
    4c74:	b3 07       	cpc	r27, r19
    4c76:	e4 07       	cpc	r30, r20
    4c78:	f5 07       	cpc	r31, r21
    4c7a:	20 f0       	brcs	.+8      	; 0x4c84 <__udivmodsi4_ep>
    4c7c:	a2 1b       	sub	r26, r18
    4c7e:	b3 0b       	sbc	r27, r19
    4c80:	e4 0b       	sbc	r30, r20
    4c82:	f5 0b       	sbc	r31, r21

00004c84 <__udivmodsi4_ep>:
    4c84:	66 1f       	adc	r22, r22
    4c86:	77 1f       	adc	r23, r23
    4c88:	88 1f       	adc	r24, r24
    4c8a:	99 1f       	adc	r25, r25
    4c8c:	1a 94       	dec	r1
    4c8e:	69 f7       	brne	.-38     	; 0x4c6a <__udivmodsi4_loop>
    4c90:	60 95       	com	r22
    4c92:	70 95       	com	r23
    4c94:	80 95       	com	r24
    4c96:	90 95       	com	r25
    4c98:	9b 01       	movw	r18, r22
    4c9a:	ac 01       	movw	r20, r24
    4c9c:	bd 01       	movw	r22, r26
    4c9e:	cf 01       	movw	r24, r30
    4ca0:	08 95       	ret

00004ca2 <__tablejump2__>:
    4ca2:	ee 0f       	add	r30, r30
    4ca4:	ff 1f       	adc	r31, r31
    4ca6:	05 90       	lpm	r0, Z+
    4ca8:	f4 91       	lpm	r31, Z
    4caa:	e0 2d       	mov	r30, r0
    4cac:	09 94       	ijmp

00004cae <__udivmodhi4>:
    4cae:	aa 1b       	sub	r26, r26
    4cb0:	bb 1b       	sub	r27, r27
    4cb2:	51 e1       	ldi	r21, 0x11	; 17
    4cb4:	07 c0       	rjmp	.+14     	; 0x4cc4 <__udivmodhi4_ep>

00004cb6 <__udivmodhi4_loop>:
    4cb6:	aa 1f       	adc	r26, r26
    4cb8:	bb 1f       	adc	r27, r27
    4cba:	a6 17       	cp	r26, r22
    4cbc:	b7 07       	cpc	r27, r23
    4cbe:	10 f0       	brcs	.+4      	; 0x4cc4 <__udivmodhi4_ep>
    4cc0:	a6 1b       	sub	r26, r22
    4cc2:	b7 0b       	sbc	r27, r23

00004cc4 <__udivmodhi4_ep>:
    4cc4:	88 1f       	adc	r24, r24
    4cc6:	99 1f       	adc	r25, r25
    4cc8:	5a 95       	dec	r21
    4cca:	a9 f7       	brne	.-22     	; 0x4cb6 <__udivmodhi4_loop>
    4ccc:	80 95       	com	r24
    4cce:	90 95       	com	r25
    4cd0:	bc 01       	movw	r22, r24
    4cd2:	cd 01       	movw	r24, r26
    4cd4:	08 95       	ret

00004cd6 <__subsf3>:
    4cd6:	50 58       	subi	r21, 0x80	; 128

00004cd8 <__addsf3>:
    4cd8:	bb 27       	eor	r27, r27
    4cda:	aa 27       	eor	r26, r26
    4cdc:	0e d0       	rcall	.+28     	; 0x4cfa <__addsf3x>
    4cde:	75 c1       	rjmp	.+746    	; 0x4fca <__fp_round>
    4ce0:	66 d1       	rcall	.+716    	; 0x4fae <__fp_pscA>
    4ce2:	30 f0       	brcs	.+12     	; 0x4cf0 <__addsf3+0x18>
    4ce4:	6b d1       	rcall	.+726    	; 0x4fbc <__fp_pscB>
    4ce6:	20 f0       	brcs	.+8      	; 0x4cf0 <__addsf3+0x18>
    4ce8:	31 f4       	brne	.+12     	; 0x4cf6 <__addsf3+0x1e>
    4cea:	9f 3f       	cpi	r25, 0xFF	; 255
    4cec:	11 f4       	brne	.+4      	; 0x4cf2 <__addsf3+0x1a>
    4cee:	1e f4       	brtc	.+6      	; 0x4cf6 <__addsf3+0x1e>
    4cf0:	5b c1       	rjmp	.+694    	; 0x4fa8 <__fp_nan>
    4cf2:	0e f4       	brtc	.+2      	; 0x4cf6 <__addsf3+0x1e>
    4cf4:	e0 95       	com	r30
    4cf6:	e7 fb       	bst	r30, 7
    4cf8:	51 c1       	rjmp	.+674    	; 0x4f9c <__fp_inf>

00004cfa <__addsf3x>:
    4cfa:	e9 2f       	mov	r30, r25
    4cfc:	77 d1       	rcall	.+750    	; 0x4fec <__fp_split3>
    4cfe:	80 f3       	brcs	.-32     	; 0x4ce0 <__addsf3+0x8>
    4d00:	ba 17       	cp	r27, r26
    4d02:	62 07       	cpc	r22, r18
    4d04:	73 07       	cpc	r23, r19
    4d06:	84 07       	cpc	r24, r20
    4d08:	95 07       	cpc	r25, r21
    4d0a:	18 f0       	brcs	.+6      	; 0x4d12 <__addsf3x+0x18>
    4d0c:	71 f4       	brne	.+28     	; 0x4d2a <__addsf3x+0x30>
    4d0e:	9e f5       	brtc	.+102    	; 0x4d76 <__addsf3x+0x7c>
    4d10:	8f c1       	rjmp	.+798    	; 0x5030 <__fp_zero>
    4d12:	0e f4       	brtc	.+2      	; 0x4d16 <__addsf3x+0x1c>
    4d14:	e0 95       	com	r30
    4d16:	0b 2e       	mov	r0, r27
    4d18:	ba 2f       	mov	r27, r26
    4d1a:	a0 2d       	mov	r26, r0
    4d1c:	0b 01       	movw	r0, r22
    4d1e:	b9 01       	movw	r22, r18
    4d20:	90 01       	movw	r18, r0
    4d22:	0c 01       	movw	r0, r24
    4d24:	ca 01       	movw	r24, r20
    4d26:	a0 01       	movw	r20, r0
    4d28:	11 24       	eor	r1, r1
    4d2a:	ff 27       	eor	r31, r31
    4d2c:	59 1b       	sub	r21, r25
    4d2e:	99 f0       	breq	.+38     	; 0x4d56 <__addsf3x+0x5c>
    4d30:	59 3f       	cpi	r21, 0xF9	; 249
    4d32:	50 f4       	brcc	.+20     	; 0x4d48 <__addsf3x+0x4e>
    4d34:	50 3e       	cpi	r21, 0xE0	; 224
    4d36:	68 f1       	brcs	.+90     	; 0x4d92 <__addsf3x+0x98>
    4d38:	1a 16       	cp	r1, r26
    4d3a:	f0 40       	sbci	r31, 0x00	; 0
    4d3c:	a2 2f       	mov	r26, r18
    4d3e:	23 2f       	mov	r18, r19
    4d40:	34 2f       	mov	r19, r20
    4d42:	44 27       	eor	r20, r20
    4d44:	58 5f       	subi	r21, 0xF8	; 248
    4d46:	f3 cf       	rjmp	.-26     	; 0x4d2e <__addsf3x+0x34>
    4d48:	46 95       	lsr	r20
    4d4a:	37 95       	ror	r19
    4d4c:	27 95       	ror	r18
    4d4e:	a7 95       	ror	r26
    4d50:	f0 40       	sbci	r31, 0x00	; 0
    4d52:	53 95       	inc	r21
    4d54:	c9 f7       	brne	.-14     	; 0x4d48 <__addsf3x+0x4e>
    4d56:	7e f4       	brtc	.+30     	; 0x4d76 <__addsf3x+0x7c>
    4d58:	1f 16       	cp	r1, r31
    4d5a:	ba 0b       	sbc	r27, r26
    4d5c:	62 0b       	sbc	r22, r18
    4d5e:	73 0b       	sbc	r23, r19
    4d60:	84 0b       	sbc	r24, r20
    4d62:	ba f0       	brmi	.+46     	; 0x4d92 <__addsf3x+0x98>
    4d64:	91 50       	subi	r25, 0x01	; 1
    4d66:	a1 f0       	breq	.+40     	; 0x4d90 <__addsf3x+0x96>
    4d68:	ff 0f       	add	r31, r31
    4d6a:	bb 1f       	adc	r27, r27
    4d6c:	66 1f       	adc	r22, r22
    4d6e:	77 1f       	adc	r23, r23
    4d70:	88 1f       	adc	r24, r24
    4d72:	c2 f7       	brpl	.-16     	; 0x4d64 <__addsf3x+0x6a>
    4d74:	0e c0       	rjmp	.+28     	; 0x4d92 <__addsf3x+0x98>
    4d76:	ba 0f       	add	r27, r26
    4d78:	62 1f       	adc	r22, r18
    4d7a:	73 1f       	adc	r23, r19
    4d7c:	84 1f       	adc	r24, r20
    4d7e:	48 f4       	brcc	.+18     	; 0x4d92 <__addsf3x+0x98>
    4d80:	87 95       	ror	r24
    4d82:	77 95       	ror	r23
    4d84:	67 95       	ror	r22
    4d86:	b7 95       	ror	r27
    4d88:	f7 95       	ror	r31
    4d8a:	9e 3f       	cpi	r25, 0xFE	; 254
    4d8c:	08 f0       	brcs	.+2      	; 0x4d90 <__addsf3x+0x96>
    4d8e:	b3 cf       	rjmp	.-154    	; 0x4cf6 <__addsf3+0x1e>
    4d90:	93 95       	inc	r25
    4d92:	88 0f       	add	r24, r24
    4d94:	08 f0       	brcs	.+2      	; 0x4d98 <__addsf3x+0x9e>
    4d96:	99 27       	eor	r25, r25
    4d98:	ee 0f       	add	r30, r30
    4d9a:	97 95       	ror	r25
    4d9c:	87 95       	ror	r24
    4d9e:	08 95       	ret

00004da0 <__cmpsf2>:
    4da0:	d9 d0       	rcall	.+434    	; 0x4f54 <__fp_cmp>
    4da2:	08 f4       	brcc	.+2      	; 0x4da6 <__cmpsf2+0x6>
    4da4:	81 e0       	ldi	r24, 0x01	; 1
    4da6:	08 95       	ret

00004da8 <__divsf3>:
    4da8:	0c d0       	rcall	.+24     	; 0x4dc2 <__divsf3x>
    4daa:	0f c1       	rjmp	.+542    	; 0x4fca <__fp_round>
    4dac:	07 d1       	rcall	.+526    	; 0x4fbc <__fp_pscB>
    4dae:	40 f0       	brcs	.+16     	; 0x4dc0 <__divsf3+0x18>
    4db0:	fe d0       	rcall	.+508    	; 0x4fae <__fp_pscA>
    4db2:	30 f0       	brcs	.+12     	; 0x4dc0 <__divsf3+0x18>
    4db4:	21 f4       	brne	.+8      	; 0x4dbe <__divsf3+0x16>
    4db6:	5f 3f       	cpi	r21, 0xFF	; 255
    4db8:	19 f0       	breq	.+6      	; 0x4dc0 <__divsf3+0x18>
    4dba:	f0 c0       	rjmp	.+480    	; 0x4f9c <__fp_inf>
    4dbc:	51 11       	cpse	r21, r1
    4dbe:	39 c1       	rjmp	.+626    	; 0x5032 <__fp_szero>
    4dc0:	f3 c0       	rjmp	.+486    	; 0x4fa8 <__fp_nan>

00004dc2 <__divsf3x>:
    4dc2:	14 d1       	rcall	.+552    	; 0x4fec <__fp_split3>
    4dc4:	98 f3       	brcs	.-26     	; 0x4dac <__divsf3+0x4>

00004dc6 <__divsf3_pse>:
    4dc6:	99 23       	and	r25, r25
    4dc8:	c9 f3       	breq	.-14     	; 0x4dbc <__divsf3+0x14>
    4dca:	55 23       	and	r21, r21
    4dcc:	b1 f3       	breq	.-20     	; 0x4dba <__divsf3+0x12>
    4dce:	95 1b       	sub	r25, r21
    4dd0:	55 0b       	sbc	r21, r21
    4dd2:	bb 27       	eor	r27, r27
    4dd4:	aa 27       	eor	r26, r26
    4dd6:	62 17       	cp	r22, r18
    4dd8:	73 07       	cpc	r23, r19
    4dda:	84 07       	cpc	r24, r20
    4ddc:	38 f0       	brcs	.+14     	; 0x4dec <__divsf3_pse+0x26>
    4dde:	9f 5f       	subi	r25, 0xFF	; 255
    4de0:	5f 4f       	sbci	r21, 0xFF	; 255
    4de2:	22 0f       	add	r18, r18
    4de4:	33 1f       	adc	r19, r19
    4de6:	44 1f       	adc	r20, r20
    4de8:	aa 1f       	adc	r26, r26
    4dea:	a9 f3       	breq	.-22     	; 0x4dd6 <__divsf3_pse+0x10>
    4dec:	33 d0       	rcall	.+102    	; 0x4e54 <__divsf3_pse+0x8e>
    4dee:	0e 2e       	mov	r0, r30
    4df0:	3a f0       	brmi	.+14     	; 0x4e00 <__divsf3_pse+0x3a>
    4df2:	e0 e8       	ldi	r30, 0x80	; 128
    4df4:	30 d0       	rcall	.+96     	; 0x4e56 <__divsf3_pse+0x90>
    4df6:	91 50       	subi	r25, 0x01	; 1
    4df8:	50 40       	sbci	r21, 0x00	; 0
    4dfa:	e6 95       	lsr	r30
    4dfc:	00 1c       	adc	r0, r0
    4dfe:	ca f7       	brpl	.-14     	; 0x4df2 <__divsf3_pse+0x2c>
    4e00:	29 d0       	rcall	.+82     	; 0x4e54 <__divsf3_pse+0x8e>
    4e02:	fe 2f       	mov	r31, r30
    4e04:	27 d0       	rcall	.+78     	; 0x4e54 <__divsf3_pse+0x8e>
    4e06:	66 0f       	add	r22, r22
    4e08:	77 1f       	adc	r23, r23
    4e0a:	88 1f       	adc	r24, r24
    4e0c:	bb 1f       	adc	r27, r27
    4e0e:	26 17       	cp	r18, r22
    4e10:	37 07       	cpc	r19, r23
    4e12:	48 07       	cpc	r20, r24
    4e14:	ab 07       	cpc	r26, r27
    4e16:	b0 e8       	ldi	r27, 0x80	; 128
    4e18:	09 f0       	breq	.+2      	; 0x4e1c <__divsf3_pse+0x56>
    4e1a:	bb 0b       	sbc	r27, r27
    4e1c:	80 2d       	mov	r24, r0
    4e1e:	bf 01       	movw	r22, r30
    4e20:	ff 27       	eor	r31, r31
    4e22:	93 58       	subi	r25, 0x83	; 131
    4e24:	5f 4f       	sbci	r21, 0xFF	; 255
    4e26:	2a f0       	brmi	.+10     	; 0x4e32 <__divsf3_pse+0x6c>
    4e28:	9e 3f       	cpi	r25, 0xFE	; 254
    4e2a:	51 05       	cpc	r21, r1
    4e2c:	68 f0       	brcs	.+26     	; 0x4e48 <__divsf3_pse+0x82>
    4e2e:	b6 c0       	rjmp	.+364    	; 0x4f9c <__fp_inf>
    4e30:	00 c1       	rjmp	.+512    	; 0x5032 <__fp_szero>
    4e32:	5f 3f       	cpi	r21, 0xFF	; 255
    4e34:	ec f3       	brlt	.-6      	; 0x4e30 <__divsf3_pse+0x6a>
    4e36:	98 3e       	cpi	r25, 0xE8	; 232
    4e38:	dc f3       	brlt	.-10     	; 0x4e30 <__divsf3_pse+0x6a>
    4e3a:	86 95       	lsr	r24
    4e3c:	77 95       	ror	r23
    4e3e:	67 95       	ror	r22
    4e40:	b7 95       	ror	r27
    4e42:	f7 95       	ror	r31
    4e44:	9f 5f       	subi	r25, 0xFF	; 255
    4e46:	c9 f7       	brne	.-14     	; 0x4e3a <__divsf3_pse+0x74>
    4e48:	88 0f       	add	r24, r24
    4e4a:	91 1d       	adc	r25, r1
    4e4c:	96 95       	lsr	r25
    4e4e:	87 95       	ror	r24
    4e50:	97 f9       	bld	r25, 7
    4e52:	08 95       	ret
    4e54:	e1 e0       	ldi	r30, 0x01	; 1
    4e56:	66 0f       	add	r22, r22
    4e58:	77 1f       	adc	r23, r23
    4e5a:	88 1f       	adc	r24, r24
    4e5c:	bb 1f       	adc	r27, r27
    4e5e:	62 17       	cp	r22, r18
    4e60:	73 07       	cpc	r23, r19
    4e62:	84 07       	cpc	r24, r20
    4e64:	ba 07       	cpc	r27, r26
    4e66:	20 f0       	brcs	.+8      	; 0x4e70 <__divsf3_pse+0xaa>
    4e68:	62 1b       	sub	r22, r18
    4e6a:	73 0b       	sbc	r23, r19
    4e6c:	84 0b       	sbc	r24, r20
    4e6e:	ba 0b       	sbc	r27, r26
    4e70:	ee 1f       	adc	r30, r30
    4e72:	88 f7       	brcc	.-30     	; 0x4e56 <__divsf3_pse+0x90>
    4e74:	e0 95       	com	r30
    4e76:	08 95       	ret

00004e78 <__fixsfsi>:
    4e78:	04 d0       	rcall	.+8      	; 0x4e82 <__fixunssfsi>
    4e7a:	68 94       	set
    4e7c:	b1 11       	cpse	r27, r1
    4e7e:	d9 c0       	rjmp	.+434    	; 0x5032 <__fp_szero>
    4e80:	08 95       	ret

00004e82 <__fixunssfsi>:
    4e82:	bc d0       	rcall	.+376    	; 0x4ffc <__fp_splitA>
    4e84:	88 f0       	brcs	.+34     	; 0x4ea8 <__fixunssfsi+0x26>
    4e86:	9f 57       	subi	r25, 0x7F	; 127
    4e88:	90 f0       	brcs	.+36     	; 0x4eae <__fixunssfsi+0x2c>
    4e8a:	b9 2f       	mov	r27, r25
    4e8c:	99 27       	eor	r25, r25
    4e8e:	b7 51       	subi	r27, 0x17	; 23
    4e90:	a0 f0       	brcs	.+40     	; 0x4eba <__fixunssfsi+0x38>
    4e92:	d1 f0       	breq	.+52     	; 0x4ec8 <__fixunssfsi+0x46>
    4e94:	66 0f       	add	r22, r22
    4e96:	77 1f       	adc	r23, r23
    4e98:	88 1f       	adc	r24, r24
    4e9a:	99 1f       	adc	r25, r25
    4e9c:	1a f0       	brmi	.+6      	; 0x4ea4 <__fixunssfsi+0x22>
    4e9e:	ba 95       	dec	r27
    4ea0:	c9 f7       	brne	.-14     	; 0x4e94 <__fixunssfsi+0x12>
    4ea2:	12 c0       	rjmp	.+36     	; 0x4ec8 <__fixunssfsi+0x46>
    4ea4:	b1 30       	cpi	r27, 0x01	; 1
    4ea6:	81 f0       	breq	.+32     	; 0x4ec8 <__fixunssfsi+0x46>
    4ea8:	c3 d0       	rcall	.+390    	; 0x5030 <__fp_zero>
    4eaa:	b1 e0       	ldi	r27, 0x01	; 1
    4eac:	08 95       	ret
    4eae:	c0 c0       	rjmp	.+384    	; 0x5030 <__fp_zero>
    4eb0:	67 2f       	mov	r22, r23
    4eb2:	78 2f       	mov	r23, r24
    4eb4:	88 27       	eor	r24, r24
    4eb6:	b8 5f       	subi	r27, 0xF8	; 248
    4eb8:	39 f0       	breq	.+14     	; 0x4ec8 <__fixunssfsi+0x46>
    4eba:	b9 3f       	cpi	r27, 0xF9	; 249
    4ebc:	cc f3       	brlt	.-14     	; 0x4eb0 <__fixunssfsi+0x2e>
    4ebe:	86 95       	lsr	r24
    4ec0:	77 95       	ror	r23
    4ec2:	67 95       	ror	r22
    4ec4:	b3 95       	inc	r27
    4ec6:	d9 f7       	brne	.-10     	; 0x4ebe <__fixunssfsi+0x3c>
    4ec8:	3e f4       	brtc	.+14     	; 0x4ed8 <__fixunssfsi+0x56>
    4eca:	90 95       	com	r25
    4ecc:	80 95       	com	r24
    4ece:	70 95       	com	r23
    4ed0:	61 95       	neg	r22
    4ed2:	7f 4f       	sbci	r23, 0xFF	; 255
    4ed4:	8f 4f       	sbci	r24, 0xFF	; 255
    4ed6:	9f 4f       	sbci	r25, 0xFF	; 255
    4ed8:	08 95       	ret

00004eda <__floatunsisf>:
    4eda:	e8 94       	clt
    4edc:	09 c0       	rjmp	.+18     	; 0x4ef0 <__floatsisf+0x12>

00004ede <__floatsisf>:
    4ede:	97 fb       	bst	r25, 7
    4ee0:	3e f4       	brtc	.+14     	; 0x4ef0 <__floatsisf+0x12>
    4ee2:	90 95       	com	r25
    4ee4:	80 95       	com	r24
    4ee6:	70 95       	com	r23
    4ee8:	61 95       	neg	r22
    4eea:	7f 4f       	sbci	r23, 0xFF	; 255
    4eec:	8f 4f       	sbci	r24, 0xFF	; 255
    4eee:	9f 4f       	sbci	r25, 0xFF	; 255
    4ef0:	99 23       	and	r25, r25
    4ef2:	a9 f0       	breq	.+42     	; 0x4f1e <__floatsisf+0x40>
    4ef4:	f9 2f       	mov	r31, r25
    4ef6:	96 e9       	ldi	r25, 0x96	; 150
    4ef8:	bb 27       	eor	r27, r27
    4efa:	93 95       	inc	r25
    4efc:	f6 95       	lsr	r31
    4efe:	87 95       	ror	r24
    4f00:	77 95       	ror	r23
    4f02:	67 95       	ror	r22
    4f04:	b7 95       	ror	r27
    4f06:	f1 11       	cpse	r31, r1
    4f08:	f8 cf       	rjmp	.-16     	; 0x4efa <__floatsisf+0x1c>
    4f0a:	fa f4       	brpl	.+62     	; 0x4f4a <__floatsisf+0x6c>
    4f0c:	bb 0f       	add	r27, r27
    4f0e:	11 f4       	brne	.+4      	; 0x4f14 <__floatsisf+0x36>
    4f10:	60 ff       	sbrs	r22, 0
    4f12:	1b c0       	rjmp	.+54     	; 0x4f4a <__floatsisf+0x6c>
    4f14:	6f 5f       	subi	r22, 0xFF	; 255
    4f16:	7f 4f       	sbci	r23, 0xFF	; 255
    4f18:	8f 4f       	sbci	r24, 0xFF	; 255
    4f1a:	9f 4f       	sbci	r25, 0xFF	; 255
    4f1c:	16 c0       	rjmp	.+44     	; 0x4f4a <__floatsisf+0x6c>
    4f1e:	88 23       	and	r24, r24
    4f20:	11 f0       	breq	.+4      	; 0x4f26 <__floatsisf+0x48>
    4f22:	96 e9       	ldi	r25, 0x96	; 150
    4f24:	11 c0       	rjmp	.+34     	; 0x4f48 <__floatsisf+0x6a>
    4f26:	77 23       	and	r23, r23
    4f28:	21 f0       	breq	.+8      	; 0x4f32 <__floatsisf+0x54>
    4f2a:	9e e8       	ldi	r25, 0x8E	; 142
    4f2c:	87 2f       	mov	r24, r23
    4f2e:	76 2f       	mov	r23, r22
    4f30:	05 c0       	rjmp	.+10     	; 0x4f3c <__floatsisf+0x5e>
    4f32:	66 23       	and	r22, r22
    4f34:	71 f0       	breq	.+28     	; 0x4f52 <__floatsisf+0x74>
    4f36:	96 e8       	ldi	r25, 0x86	; 134
    4f38:	86 2f       	mov	r24, r22
    4f3a:	70 e0       	ldi	r23, 0x00	; 0
    4f3c:	60 e0       	ldi	r22, 0x00	; 0
    4f3e:	2a f0       	brmi	.+10     	; 0x4f4a <__floatsisf+0x6c>
    4f40:	9a 95       	dec	r25
    4f42:	66 0f       	add	r22, r22
    4f44:	77 1f       	adc	r23, r23
    4f46:	88 1f       	adc	r24, r24
    4f48:	da f7       	brpl	.-10     	; 0x4f40 <__floatsisf+0x62>
    4f4a:	88 0f       	add	r24, r24
    4f4c:	96 95       	lsr	r25
    4f4e:	87 95       	ror	r24
    4f50:	97 f9       	bld	r25, 7
    4f52:	08 95       	ret

00004f54 <__fp_cmp>:
    4f54:	99 0f       	add	r25, r25
    4f56:	00 08       	sbc	r0, r0
    4f58:	55 0f       	add	r21, r21
    4f5a:	aa 0b       	sbc	r26, r26
    4f5c:	e0 e8       	ldi	r30, 0x80	; 128
    4f5e:	fe ef       	ldi	r31, 0xFE	; 254
    4f60:	16 16       	cp	r1, r22
    4f62:	17 06       	cpc	r1, r23
    4f64:	e8 07       	cpc	r30, r24
    4f66:	f9 07       	cpc	r31, r25
    4f68:	c0 f0       	brcs	.+48     	; 0x4f9a <__fp_cmp+0x46>
    4f6a:	12 16       	cp	r1, r18
    4f6c:	13 06       	cpc	r1, r19
    4f6e:	e4 07       	cpc	r30, r20
    4f70:	f5 07       	cpc	r31, r21
    4f72:	98 f0       	brcs	.+38     	; 0x4f9a <__fp_cmp+0x46>
    4f74:	62 1b       	sub	r22, r18
    4f76:	73 0b       	sbc	r23, r19
    4f78:	84 0b       	sbc	r24, r20
    4f7a:	95 0b       	sbc	r25, r21
    4f7c:	39 f4       	brne	.+14     	; 0x4f8c <__fp_cmp+0x38>
    4f7e:	0a 26       	eor	r0, r26
    4f80:	61 f0       	breq	.+24     	; 0x4f9a <__fp_cmp+0x46>
    4f82:	23 2b       	or	r18, r19
    4f84:	24 2b       	or	r18, r20
    4f86:	25 2b       	or	r18, r21
    4f88:	21 f4       	brne	.+8      	; 0x4f92 <__fp_cmp+0x3e>
    4f8a:	08 95       	ret
    4f8c:	0a 26       	eor	r0, r26
    4f8e:	09 f4       	brne	.+2      	; 0x4f92 <__fp_cmp+0x3e>
    4f90:	a1 40       	sbci	r26, 0x01	; 1
    4f92:	a6 95       	lsr	r26
    4f94:	8f ef       	ldi	r24, 0xFF	; 255
    4f96:	81 1d       	adc	r24, r1
    4f98:	81 1d       	adc	r24, r1
    4f9a:	08 95       	ret

00004f9c <__fp_inf>:
    4f9c:	97 f9       	bld	r25, 7
    4f9e:	9f 67       	ori	r25, 0x7F	; 127
    4fa0:	80 e8       	ldi	r24, 0x80	; 128
    4fa2:	70 e0       	ldi	r23, 0x00	; 0
    4fa4:	60 e0       	ldi	r22, 0x00	; 0
    4fa6:	08 95       	ret

00004fa8 <__fp_nan>:
    4fa8:	9f ef       	ldi	r25, 0xFF	; 255
    4faa:	80 ec       	ldi	r24, 0xC0	; 192
    4fac:	08 95       	ret

00004fae <__fp_pscA>:
    4fae:	00 24       	eor	r0, r0
    4fb0:	0a 94       	dec	r0
    4fb2:	16 16       	cp	r1, r22
    4fb4:	17 06       	cpc	r1, r23
    4fb6:	18 06       	cpc	r1, r24
    4fb8:	09 06       	cpc	r0, r25
    4fba:	08 95       	ret

00004fbc <__fp_pscB>:
    4fbc:	00 24       	eor	r0, r0
    4fbe:	0a 94       	dec	r0
    4fc0:	12 16       	cp	r1, r18
    4fc2:	13 06       	cpc	r1, r19
    4fc4:	14 06       	cpc	r1, r20
    4fc6:	05 06       	cpc	r0, r21
    4fc8:	08 95       	ret

00004fca <__fp_round>:
    4fca:	09 2e       	mov	r0, r25
    4fcc:	03 94       	inc	r0
    4fce:	00 0c       	add	r0, r0
    4fd0:	11 f4       	brne	.+4      	; 0x4fd6 <__fp_round+0xc>
    4fd2:	88 23       	and	r24, r24
    4fd4:	52 f0       	brmi	.+20     	; 0x4fea <__fp_round+0x20>
    4fd6:	bb 0f       	add	r27, r27
    4fd8:	40 f4       	brcc	.+16     	; 0x4fea <__fp_round+0x20>
    4fda:	bf 2b       	or	r27, r31
    4fdc:	11 f4       	brne	.+4      	; 0x4fe2 <__fp_round+0x18>
    4fde:	60 ff       	sbrs	r22, 0
    4fe0:	04 c0       	rjmp	.+8      	; 0x4fea <__fp_round+0x20>
    4fe2:	6f 5f       	subi	r22, 0xFF	; 255
    4fe4:	7f 4f       	sbci	r23, 0xFF	; 255
    4fe6:	8f 4f       	sbci	r24, 0xFF	; 255
    4fe8:	9f 4f       	sbci	r25, 0xFF	; 255
    4fea:	08 95       	ret

00004fec <__fp_split3>:
    4fec:	57 fd       	sbrc	r21, 7
    4fee:	90 58       	subi	r25, 0x80	; 128
    4ff0:	44 0f       	add	r20, r20
    4ff2:	55 1f       	adc	r21, r21
    4ff4:	59 f0       	breq	.+22     	; 0x500c <__fp_splitA+0x10>
    4ff6:	5f 3f       	cpi	r21, 0xFF	; 255
    4ff8:	71 f0       	breq	.+28     	; 0x5016 <__fp_splitA+0x1a>
    4ffa:	47 95       	ror	r20

00004ffc <__fp_splitA>:
    4ffc:	88 0f       	add	r24, r24
    4ffe:	97 fb       	bst	r25, 7
    5000:	99 1f       	adc	r25, r25
    5002:	61 f0       	breq	.+24     	; 0x501c <__fp_splitA+0x20>
    5004:	9f 3f       	cpi	r25, 0xFF	; 255
    5006:	79 f0       	breq	.+30     	; 0x5026 <__fp_splitA+0x2a>
    5008:	87 95       	ror	r24
    500a:	08 95       	ret
    500c:	12 16       	cp	r1, r18
    500e:	13 06       	cpc	r1, r19
    5010:	14 06       	cpc	r1, r20
    5012:	55 1f       	adc	r21, r21
    5014:	f2 cf       	rjmp	.-28     	; 0x4ffa <__fp_split3+0xe>
    5016:	46 95       	lsr	r20
    5018:	f1 df       	rcall	.-30     	; 0x4ffc <__fp_splitA>
    501a:	08 c0       	rjmp	.+16     	; 0x502c <__fp_splitA+0x30>
    501c:	16 16       	cp	r1, r22
    501e:	17 06       	cpc	r1, r23
    5020:	18 06       	cpc	r1, r24
    5022:	99 1f       	adc	r25, r25
    5024:	f1 cf       	rjmp	.-30     	; 0x5008 <__fp_splitA+0xc>
    5026:	86 95       	lsr	r24
    5028:	71 05       	cpc	r23, r1
    502a:	61 05       	cpc	r22, r1
    502c:	08 94       	sec
    502e:	08 95       	ret

00005030 <__fp_zero>:
    5030:	e8 94       	clt

00005032 <__fp_szero>:
    5032:	bb 27       	eor	r27, r27
    5034:	66 27       	eor	r22, r22
    5036:	77 27       	eor	r23, r23
    5038:	cb 01       	movw	r24, r22
    503a:	97 f9       	bld	r25, 7
    503c:	08 95       	ret

0000503e <__gesf2>:
    503e:	8a df       	rcall	.-236    	; 0x4f54 <__fp_cmp>
    5040:	08 f4       	brcc	.+2      	; 0x5044 <__gesf2+0x6>
    5042:	8f ef       	ldi	r24, 0xFF	; 255
    5044:	08 95       	ret

00005046 <log10>:
    5046:	0a d0       	rcall	.+20     	; 0x505c <log>
    5048:	29 ed       	ldi	r18, 0xD9	; 217
    504a:	3b e5       	ldi	r19, 0x5B	; 91
    504c:	4e ed       	ldi	r20, 0xDE	; 222
    504e:	5e e3       	ldi	r21, 0x3E	; 62
    5050:	45 c0       	rjmp	.+138    	; 0x50dc <__mulsf3>
    5052:	0e f0       	brts	.+2      	; 0x5056 <log10+0x10>
    5054:	65 c1       	rjmp	.+714    	; 0x5320 <__fp_mpack>
    5056:	a8 cf       	rjmp	.-176    	; 0x4fa8 <__fp_nan>
    5058:	68 94       	set
    505a:	a0 cf       	rjmp	.-192    	; 0x4f9c <__fp_inf>

0000505c <log>:
    505c:	cf df       	rcall	.-98     	; 0x4ffc <__fp_splitA>
    505e:	c8 f3       	brcs	.-14     	; 0x5052 <log10+0xc>
    5060:	99 23       	and	r25, r25
    5062:	d1 f3       	breq	.-12     	; 0x5058 <log10+0x12>
    5064:	c6 f3       	brts	.-16     	; 0x5056 <log10+0x10>
    5066:	df 93       	push	r29
    5068:	cf 93       	push	r28
    506a:	1f 93       	push	r17
    506c:	0f 93       	push	r16
    506e:	ff 92       	push	r15
    5070:	c9 2f       	mov	r28, r25
    5072:	dd 27       	eor	r29, r29
    5074:	88 23       	and	r24, r24
    5076:	2a f0       	brmi	.+10     	; 0x5082 <log+0x26>
    5078:	21 97       	sbiw	r28, 0x01	; 1
    507a:	66 0f       	add	r22, r22
    507c:	77 1f       	adc	r23, r23
    507e:	88 1f       	adc	r24, r24
    5080:	da f7       	brpl	.-10     	; 0x5078 <log+0x1c>
    5082:	20 e0       	ldi	r18, 0x00	; 0
    5084:	30 e0       	ldi	r19, 0x00	; 0
    5086:	40 e8       	ldi	r20, 0x80	; 128
    5088:	5f eb       	ldi	r21, 0xBF	; 191
    508a:	9f e3       	ldi	r25, 0x3F	; 63
    508c:	88 39       	cpi	r24, 0x98	; 152
    508e:	20 f0       	brcs	.+8      	; 0x5098 <log+0x3c>
    5090:	80 3e       	cpi	r24, 0xE0	; 224
    5092:	30 f0       	brcs	.+12     	; 0x50a0 <log+0x44>
    5094:	21 96       	adiw	r28, 0x01	; 1
    5096:	8f 77       	andi	r24, 0x7F	; 127
    5098:	1f de       	rcall	.-962    	; 0x4cd8 <__addsf3>
    509a:	e4 e8       	ldi	r30, 0x84	; 132
    509c:	f0 e0       	ldi	r31, 0x00	; 0
    509e:	03 c0       	rjmp	.+6      	; 0x50a6 <log+0x4a>
    50a0:	1b de       	rcall	.-970    	; 0x4cd8 <__addsf3>
    50a2:	e1 eb       	ldi	r30, 0xB1	; 177
    50a4:	f0 e0       	ldi	r31, 0x00	; 0
    50a6:	51 d1       	rcall	.+674    	; 0x534a <__fp_powser>
    50a8:	8b 01       	movw	r16, r22
    50aa:	be 01       	movw	r22, r28
    50ac:	ec 01       	movw	r28, r24
    50ae:	fb 2e       	mov	r15, r27
    50b0:	6f 57       	subi	r22, 0x7F	; 127
    50b2:	71 09       	sbc	r23, r1
    50b4:	75 95       	asr	r23
    50b6:	77 1f       	adc	r23, r23
    50b8:	88 0b       	sbc	r24, r24
    50ba:	99 0b       	sbc	r25, r25
    50bc:	10 df       	rcall	.-480    	; 0x4ede <__floatsisf>
    50be:	28 e1       	ldi	r18, 0x18	; 24
    50c0:	32 e7       	ldi	r19, 0x72	; 114
    50c2:	41 e3       	ldi	r20, 0x31	; 49
    50c4:	5f e3       	ldi	r21, 0x3F	; 63
    50c6:	16 d0       	rcall	.+44     	; 0x50f4 <__mulsf3x>
    50c8:	af 2d       	mov	r26, r15
    50ca:	98 01       	movw	r18, r16
    50cc:	ae 01       	movw	r20, r28
    50ce:	ff 90       	pop	r15
    50d0:	0f 91       	pop	r16
    50d2:	1f 91       	pop	r17
    50d4:	cf 91       	pop	r28
    50d6:	df 91       	pop	r29
    50d8:	10 de       	rcall	.-992    	; 0x4cfa <__addsf3x>
    50da:	77 cf       	rjmp	.-274    	; 0x4fca <__fp_round>

000050dc <__mulsf3>:
    50dc:	0b d0       	rcall	.+22     	; 0x50f4 <__mulsf3x>
    50de:	75 cf       	rjmp	.-278    	; 0x4fca <__fp_round>
    50e0:	66 df       	rcall	.-308    	; 0x4fae <__fp_pscA>
    50e2:	28 f0       	brcs	.+10     	; 0x50ee <__mulsf3+0x12>
    50e4:	6b df       	rcall	.-298    	; 0x4fbc <__fp_pscB>
    50e6:	18 f0       	brcs	.+6      	; 0x50ee <__mulsf3+0x12>
    50e8:	95 23       	and	r25, r21
    50ea:	09 f0       	breq	.+2      	; 0x50ee <__mulsf3+0x12>
    50ec:	57 cf       	rjmp	.-338    	; 0x4f9c <__fp_inf>
    50ee:	5c cf       	rjmp	.-328    	; 0x4fa8 <__fp_nan>
    50f0:	11 24       	eor	r1, r1
    50f2:	9f cf       	rjmp	.-194    	; 0x5032 <__fp_szero>

000050f4 <__mulsf3x>:
    50f4:	7b df       	rcall	.-266    	; 0x4fec <__fp_split3>
    50f6:	a0 f3       	brcs	.-24     	; 0x50e0 <__mulsf3+0x4>

000050f8 <__mulsf3_pse>:
    50f8:	95 9f       	mul	r25, r21
    50fa:	d1 f3       	breq	.-12     	; 0x50f0 <__mulsf3+0x14>
    50fc:	95 0f       	add	r25, r21
    50fe:	50 e0       	ldi	r21, 0x00	; 0
    5100:	55 1f       	adc	r21, r21
    5102:	62 9f       	mul	r22, r18
    5104:	f0 01       	movw	r30, r0
    5106:	72 9f       	mul	r23, r18
    5108:	bb 27       	eor	r27, r27
    510a:	f0 0d       	add	r31, r0
    510c:	b1 1d       	adc	r27, r1
    510e:	63 9f       	mul	r22, r19
    5110:	aa 27       	eor	r26, r26
    5112:	f0 0d       	add	r31, r0
    5114:	b1 1d       	adc	r27, r1
    5116:	aa 1f       	adc	r26, r26
    5118:	64 9f       	mul	r22, r20
    511a:	66 27       	eor	r22, r22
    511c:	b0 0d       	add	r27, r0
    511e:	a1 1d       	adc	r26, r1
    5120:	66 1f       	adc	r22, r22
    5122:	82 9f       	mul	r24, r18
    5124:	22 27       	eor	r18, r18
    5126:	b0 0d       	add	r27, r0
    5128:	a1 1d       	adc	r26, r1
    512a:	62 1f       	adc	r22, r18
    512c:	73 9f       	mul	r23, r19
    512e:	b0 0d       	add	r27, r0
    5130:	a1 1d       	adc	r26, r1
    5132:	62 1f       	adc	r22, r18
    5134:	83 9f       	mul	r24, r19
    5136:	a0 0d       	add	r26, r0
    5138:	61 1d       	adc	r22, r1
    513a:	22 1f       	adc	r18, r18
    513c:	74 9f       	mul	r23, r20
    513e:	33 27       	eor	r19, r19
    5140:	a0 0d       	add	r26, r0
    5142:	61 1d       	adc	r22, r1
    5144:	23 1f       	adc	r18, r19
    5146:	84 9f       	mul	r24, r20
    5148:	60 0d       	add	r22, r0
    514a:	21 1d       	adc	r18, r1
    514c:	82 2f       	mov	r24, r18
    514e:	76 2f       	mov	r23, r22
    5150:	6a 2f       	mov	r22, r26
    5152:	11 24       	eor	r1, r1
    5154:	9f 57       	subi	r25, 0x7F	; 127
    5156:	50 40       	sbci	r21, 0x00	; 0
    5158:	8a f0       	brmi	.+34     	; 0x517c <__mulsf3_pse+0x84>
    515a:	e1 f0       	breq	.+56     	; 0x5194 <__mulsf3_pse+0x9c>
    515c:	88 23       	and	r24, r24
    515e:	4a f0       	brmi	.+18     	; 0x5172 <__mulsf3_pse+0x7a>
    5160:	ee 0f       	add	r30, r30
    5162:	ff 1f       	adc	r31, r31
    5164:	bb 1f       	adc	r27, r27
    5166:	66 1f       	adc	r22, r22
    5168:	77 1f       	adc	r23, r23
    516a:	88 1f       	adc	r24, r24
    516c:	91 50       	subi	r25, 0x01	; 1
    516e:	50 40       	sbci	r21, 0x00	; 0
    5170:	a9 f7       	brne	.-22     	; 0x515c <__mulsf3_pse+0x64>
    5172:	9e 3f       	cpi	r25, 0xFE	; 254
    5174:	51 05       	cpc	r21, r1
    5176:	70 f0       	brcs	.+28     	; 0x5194 <__mulsf3_pse+0x9c>
    5178:	11 cf       	rjmp	.-478    	; 0x4f9c <__fp_inf>
    517a:	5b cf       	rjmp	.-330    	; 0x5032 <__fp_szero>
    517c:	5f 3f       	cpi	r21, 0xFF	; 255
    517e:	ec f3       	brlt	.-6      	; 0x517a <__mulsf3_pse+0x82>
    5180:	98 3e       	cpi	r25, 0xE8	; 232
    5182:	dc f3       	brlt	.-10     	; 0x517a <__mulsf3_pse+0x82>
    5184:	86 95       	lsr	r24
    5186:	77 95       	ror	r23
    5188:	67 95       	ror	r22
    518a:	b7 95       	ror	r27
    518c:	f7 95       	ror	r31
    518e:	e7 95       	ror	r30
    5190:	9f 5f       	subi	r25, 0xFF	; 255
    5192:	c1 f7       	brne	.-16     	; 0x5184 <__mulsf3_pse+0x8c>
    5194:	fe 2b       	or	r31, r30
    5196:	88 0f       	add	r24, r24
    5198:	91 1d       	adc	r25, r1
    519a:	96 95       	lsr	r25
    519c:	87 95       	ror	r24
    519e:	97 f9       	bld	r25, 7
    51a0:	08 95       	ret

000051a2 <pow>:
    51a2:	fa 01       	movw	r30, r20
    51a4:	ee 0f       	add	r30, r30
    51a6:	ff 1f       	adc	r31, r31
    51a8:	30 96       	adiw	r30, 0x00	; 0
    51aa:	21 05       	cpc	r18, r1
    51ac:	31 05       	cpc	r19, r1
    51ae:	99 f1       	breq	.+102    	; 0x5216 <pow+0x74>
    51b0:	61 15       	cp	r22, r1
    51b2:	71 05       	cpc	r23, r1
    51b4:	61 f4       	brne	.+24     	; 0x51ce <pow+0x2c>
    51b6:	80 38       	cpi	r24, 0x80	; 128
    51b8:	bf e3       	ldi	r27, 0x3F	; 63
    51ba:	9b 07       	cpc	r25, r27
    51bc:	49 f1       	breq	.+82     	; 0x5210 <pow+0x6e>
    51be:	68 94       	set
    51c0:	90 38       	cpi	r25, 0x80	; 128
    51c2:	81 05       	cpc	r24, r1
    51c4:	61 f0       	breq	.+24     	; 0x51de <pow+0x3c>
    51c6:	80 38       	cpi	r24, 0x80	; 128
    51c8:	bf ef       	ldi	r27, 0xFF	; 255
    51ca:	9b 07       	cpc	r25, r27
    51cc:	41 f0       	breq	.+16     	; 0x51de <pow+0x3c>
    51ce:	99 23       	and	r25, r25
    51d0:	42 f5       	brpl	.+80     	; 0x5222 <pow+0x80>
    51d2:	ff 3f       	cpi	r31, 0xFF	; 255
    51d4:	e1 05       	cpc	r30, r1
    51d6:	31 05       	cpc	r19, r1
    51d8:	21 05       	cpc	r18, r1
    51da:	11 f1       	breq	.+68     	; 0x5220 <pow+0x7e>
    51dc:	e8 94       	clt
    51de:	08 94       	sec
    51e0:	e7 95       	ror	r30
    51e2:	d9 01       	movw	r26, r18
    51e4:	aa 23       	and	r26, r26
    51e6:	29 f4       	brne	.+10     	; 0x51f2 <pow+0x50>
    51e8:	ab 2f       	mov	r26, r27
    51ea:	be 2f       	mov	r27, r30
    51ec:	f8 5f       	subi	r31, 0xF8	; 248
    51ee:	d0 f3       	brcs	.-12     	; 0x51e4 <pow+0x42>
    51f0:	10 c0       	rjmp	.+32     	; 0x5212 <pow+0x70>
    51f2:	ff 5f       	subi	r31, 0xFF	; 255
    51f4:	70 f4       	brcc	.+28     	; 0x5212 <pow+0x70>
    51f6:	a6 95       	lsr	r26
    51f8:	e0 f7       	brcc	.-8      	; 0x51f2 <pow+0x50>
    51fa:	f7 39       	cpi	r31, 0x97	; 151
    51fc:	50 f0       	brcs	.+20     	; 0x5212 <pow+0x70>
    51fe:	19 f0       	breq	.+6      	; 0x5206 <pow+0x64>
    5200:	ff 3a       	cpi	r31, 0xAF	; 175
    5202:	38 f4       	brcc	.+14     	; 0x5212 <pow+0x70>
    5204:	9f 77       	andi	r25, 0x7F	; 127
    5206:	9f 93       	push	r25
    5208:	0c d0       	rcall	.+24     	; 0x5222 <pow+0x80>
    520a:	0f 90       	pop	r0
    520c:	07 fc       	sbrc	r0, 7
    520e:	90 58       	subi	r25, 0x80	; 128
    5210:	08 95       	ret
    5212:	3e f0       	brts	.+14     	; 0x5222 <pow+0x80>
    5214:	c9 ce       	rjmp	.-622    	; 0x4fa8 <__fp_nan>
    5216:	60 e0       	ldi	r22, 0x00	; 0
    5218:	70 e0       	ldi	r23, 0x00	; 0
    521a:	80 e8       	ldi	r24, 0x80	; 128
    521c:	9f e3       	ldi	r25, 0x3F	; 63
    521e:	08 95       	ret
    5220:	4f e7       	ldi	r20, 0x7F	; 127
    5222:	9f 77       	andi	r25, 0x7F	; 127
    5224:	5f 93       	push	r21
    5226:	4f 93       	push	r20
    5228:	3f 93       	push	r19
    522a:	2f 93       	push	r18
    522c:	17 df       	rcall	.-466    	; 0x505c <log>
    522e:	2f 91       	pop	r18
    5230:	3f 91       	pop	r19
    5232:	4f 91       	pop	r20
    5234:	5f 91       	pop	r21
    5236:	52 df       	rcall	.-348    	; 0x50dc <__mulsf3>
    5238:	47 c0       	rjmp	.+142    	; 0x52c8 <exp>
    523a:	11 f4       	brne	.+4      	; 0x5240 <pow+0x9e>
    523c:	0e f4       	brtc	.+2      	; 0x5240 <pow+0x9e>
    523e:	b4 ce       	rjmp	.-664    	; 0x4fa8 <__fp_nan>
    5240:	6f c0       	rjmp	.+222    	; 0x5320 <__fp_mpack>

00005242 <sqrt>:
    5242:	dc de       	rcall	.-584    	; 0x4ffc <__fp_splitA>
    5244:	d0 f3       	brcs	.-12     	; 0x523a <pow+0x98>
    5246:	99 23       	and	r25, r25
    5248:	d9 f3       	breq	.-10     	; 0x5240 <pow+0x9e>
    524a:	ce f3       	brts	.-14     	; 0x523e <pow+0x9c>
    524c:	9f 57       	subi	r25, 0x7F	; 127
    524e:	55 0b       	sbc	r21, r21
    5250:	87 ff       	sbrs	r24, 7
    5252:	74 d0       	rcall	.+232    	; 0x533c <__fp_norm2>
    5254:	00 24       	eor	r0, r0
    5256:	a0 e6       	ldi	r26, 0x60	; 96
    5258:	40 ea       	ldi	r20, 0xA0	; 160
    525a:	90 01       	movw	r18, r0
    525c:	80 58       	subi	r24, 0x80	; 128
    525e:	56 95       	lsr	r21
    5260:	97 95       	ror	r25
    5262:	28 f4       	brcc	.+10     	; 0x526e <sqrt+0x2c>
    5264:	80 5c       	subi	r24, 0xC0	; 192
    5266:	66 0f       	add	r22, r22
    5268:	77 1f       	adc	r23, r23
    526a:	88 1f       	adc	r24, r24
    526c:	20 f0       	brcs	.+8      	; 0x5276 <sqrt+0x34>
    526e:	26 17       	cp	r18, r22
    5270:	37 07       	cpc	r19, r23
    5272:	48 07       	cpc	r20, r24
    5274:	30 f4       	brcc	.+12     	; 0x5282 <sqrt+0x40>
    5276:	62 1b       	sub	r22, r18
    5278:	73 0b       	sbc	r23, r19
    527a:	84 0b       	sbc	r24, r20
    527c:	20 29       	or	r18, r0
    527e:	31 29       	or	r19, r1
    5280:	4a 2b       	or	r20, r26
    5282:	a6 95       	lsr	r26
    5284:	17 94       	ror	r1
    5286:	07 94       	ror	r0
    5288:	20 25       	eor	r18, r0
    528a:	31 25       	eor	r19, r1
    528c:	4a 27       	eor	r20, r26
    528e:	58 f7       	brcc	.-42     	; 0x5266 <sqrt+0x24>
    5290:	66 0f       	add	r22, r22
    5292:	77 1f       	adc	r23, r23
    5294:	88 1f       	adc	r24, r24
    5296:	20 f0       	brcs	.+8      	; 0x52a0 <sqrt+0x5e>
    5298:	26 17       	cp	r18, r22
    529a:	37 07       	cpc	r19, r23
    529c:	48 07       	cpc	r20, r24
    529e:	30 f4       	brcc	.+12     	; 0x52ac <sqrt+0x6a>
    52a0:	62 0b       	sbc	r22, r18
    52a2:	73 0b       	sbc	r23, r19
    52a4:	84 0b       	sbc	r24, r20
    52a6:	20 0d       	add	r18, r0
    52a8:	31 1d       	adc	r19, r1
    52aa:	41 1d       	adc	r20, r1
    52ac:	a0 95       	com	r26
    52ae:	81 f7       	brne	.-32     	; 0x5290 <sqrt+0x4e>
    52b0:	b9 01       	movw	r22, r18
    52b2:	84 2f       	mov	r24, r20
    52b4:	91 58       	subi	r25, 0x81	; 129
    52b6:	88 0f       	add	r24, r24
    52b8:	96 95       	lsr	r25
    52ba:	87 95       	ror	r24
    52bc:	08 95       	ret
    52be:	19 f4       	brne	.+6      	; 0x52c6 <sqrt+0x84>
    52c0:	0e f0       	brts	.+2      	; 0x52c4 <sqrt+0x82>
    52c2:	6c ce       	rjmp	.-808    	; 0x4f9c <__fp_inf>
    52c4:	b5 ce       	rjmp	.-662    	; 0x5030 <__fp_zero>
    52c6:	70 ce       	rjmp	.-800    	; 0x4fa8 <__fp_nan>

000052c8 <exp>:
    52c8:	99 de       	rcall	.-718    	; 0x4ffc <__fp_splitA>
    52ca:	c8 f3       	brcs	.-14     	; 0x52be <sqrt+0x7c>
    52cc:	96 38       	cpi	r25, 0x86	; 134
    52ce:	c0 f7       	brcc	.-16     	; 0x52c0 <sqrt+0x7e>
    52d0:	07 f8       	bld	r0, 7
    52d2:	0f 92       	push	r0
    52d4:	e8 94       	clt
    52d6:	2b e3       	ldi	r18, 0x3B	; 59
    52d8:	3a ea       	ldi	r19, 0xAA	; 170
    52da:	48 eb       	ldi	r20, 0xB8	; 184
    52dc:	5f e7       	ldi	r21, 0x7F	; 127
    52de:	0c df       	rcall	.-488    	; 0x50f8 <__mulsf3_pse>
    52e0:	0f 92       	push	r0
    52e2:	0f 92       	push	r0
    52e4:	0f 92       	push	r0
    52e6:	4d b7       	in	r20, 0x3d	; 61
    52e8:	5e b7       	in	r21, 0x3e	; 62
    52ea:	0f 92       	push	r0
    52ec:	90 d0       	rcall	.+288    	; 0x540e <modf>
    52ee:	ee ed       	ldi	r30, 0xDE	; 222
    52f0:	f0 e0       	ldi	r31, 0x00	; 0
    52f2:	2b d0       	rcall	.+86     	; 0x534a <__fp_powser>
    52f4:	4f 91       	pop	r20
    52f6:	5f 91       	pop	r21
    52f8:	ef 91       	pop	r30
    52fa:	ff 91       	pop	r31
    52fc:	e5 95       	asr	r30
    52fe:	ee 1f       	adc	r30, r30
    5300:	ff 1f       	adc	r31, r31
    5302:	49 f0       	breq	.+18     	; 0x5316 <exp+0x4e>
    5304:	fe 57       	subi	r31, 0x7E	; 126
    5306:	e0 68       	ori	r30, 0x80	; 128
    5308:	44 27       	eor	r20, r20
    530a:	ee 0f       	add	r30, r30
    530c:	44 1f       	adc	r20, r20
    530e:	fa 95       	dec	r31
    5310:	e1 f7       	brne	.-8      	; 0x530a <exp+0x42>
    5312:	41 95       	neg	r20
    5314:	55 0b       	sbc	r21, r21
    5316:	47 d0       	rcall	.+142    	; 0x53a6 <ldexp>
    5318:	0f 90       	pop	r0
    531a:	07 fe       	sbrs	r0, 7
    531c:	3b c0       	rjmp	.+118    	; 0x5394 <inverse>
    531e:	08 95       	ret

00005320 <__fp_mpack>:
    5320:	9f 3f       	cpi	r25, 0xFF	; 255
    5322:	31 f0       	breq	.+12     	; 0x5330 <__fp_mpack_finite+0xc>

00005324 <__fp_mpack_finite>:
    5324:	91 50       	subi	r25, 0x01	; 1
    5326:	20 f4       	brcc	.+8      	; 0x5330 <__fp_mpack_finite+0xc>
    5328:	87 95       	ror	r24
    532a:	77 95       	ror	r23
    532c:	67 95       	ror	r22
    532e:	b7 95       	ror	r27
    5330:	88 0f       	add	r24, r24
    5332:	91 1d       	adc	r25, r1
    5334:	96 95       	lsr	r25
    5336:	87 95       	ror	r24
    5338:	97 f9       	bld	r25, 7
    533a:	08 95       	ret

0000533c <__fp_norm2>:
    533c:	91 50       	subi	r25, 0x01	; 1
    533e:	50 40       	sbci	r21, 0x00	; 0
    5340:	66 0f       	add	r22, r22
    5342:	77 1f       	adc	r23, r23
    5344:	88 1f       	adc	r24, r24
    5346:	d2 f7       	brpl	.-12     	; 0x533c <__fp_norm2>
    5348:	08 95       	ret

0000534a <__fp_powser>:
    534a:	df 93       	push	r29
    534c:	cf 93       	push	r28
    534e:	1f 93       	push	r17
    5350:	0f 93       	push	r16
    5352:	ff 92       	push	r15
    5354:	ef 92       	push	r14
    5356:	df 92       	push	r13
    5358:	7b 01       	movw	r14, r22
    535a:	8c 01       	movw	r16, r24
    535c:	68 94       	set
    535e:	05 c0       	rjmp	.+10     	; 0x536a <__fp_powser+0x20>
    5360:	da 2e       	mov	r13, r26
    5362:	ef 01       	movw	r28, r30
    5364:	c7 de       	rcall	.-626    	; 0x50f4 <__mulsf3x>
    5366:	fe 01       	movw	r30, r28
    5368:	e8 94       	clt
    536a:	a5 91       	lpm	r26, Z+
    536c:	25 91       	lpm	r18, Z+
    536e:	35 91       	lpm	r19, Z+
    5370:	45 91       	lpm	r20, Z+
    5372:	55 91       	lpm	r21, Z+
    5374:	ae f3       	brts	.-22     	; 0x5360 <__fp_powser+0x16>
    5376:	ef 01       	movw	r28, r30
    5378:	c0 dc       	rcall	.-1664   	; 0x4cfa <__addsf3x>
    537a:	fe 01       	movw	r30, r28
    537c:	97 01       	movw	r18, r14
    537e:	a8 01       	movw	r20, r16
    5380:	da 94       	dec	r13
    5382:	79 f7       	brne	.-34     	; 0x5362 <__fp_powser+0x18>
    5384:	df 90       	pop	r13
    5386:	ef 90       	pop	r14
    5388:	ff 90       	pop	r15
    538a:	0f 91       	pop	r16
    538c:	1f 91       	pop	r17
    538e:	cf 91       	pop	r28
    5390:	df 91       	pop	r29
    5392:	08 95       	ret

00005394 <inverse>:
    5394:	9b 01       	movw	r18, r22
    5396:	ac 01       	movw	r20, r24
    5398:	60 e0       	ldi	r22, 0x00	; 0
    539a:	70 e0       	ldi	r23, 0x00	; 0
    539c:	80 e8       	ldi	r24, 0x80	; 128
    539e:	9f e3       	ldi	r25, 0x3F	; 63
    53a0:	03 cd       	rjmp	.-1530   	; 0x4da8 <__divsf3>
    53a2:	fc cd       	rjmp	.-1032   	; 0x4f9c <__fp_inf>
    53a4:	bd cf       	rjmp	.-134    	; 0x5320 <__fp_mpack>

000053a6 <ldexp>:
    53a6:	2a de       	rcall	.-940    	; 0x4ffc <__fp_splitA>
    53a8:	e8 f3       	brcs	.-6      	; 0x53a4 <inverse+0x10>
    53aa:	99 23       	and	r25, r25
    53ac:	d9 f3       	breq	.-10     	; 0x53a4 <inverse+0x10>
    53ae:	94 0f       	add	r25, r20
    53b0:	51 1d       	adc	r21, r1
    53b2:	bb f3       	brvs	.-18     	; 0x53a2 <inverse+0xe>
    53b4:	91 50       	subi	r25, 0x01	; 1
    53b6:	50 40       	sbci	r21, 0x00	; 0
    53b8:	94 f0       	brlt	.+36     	; 0x53de <ldexp+0x38>
    53ba:	59 f0       	breq	.+22     	; 0x53d2 <ldexp+0x2c>
    53bc:	88 23       	and	r24, r24
    53be:	32 f0       	brmi	.+12     	; 0x53cc <ldexp+0x26>
    53c0:	66 0f       	add	r22, r22
    53c2:	77 1f       	adc	r23, r23
    53c4:	88 1f       	adc	r24, r24
    53c6:	91 50       	subi	r25, 0x01	; 1
    53c8:	50 40       	sbci	r21, 0x00	; 0
    53ca:	c1 f7       	brne	.-16     	; 0x53bc <ldexp+0x16>
    53cc:	9e 3f       	cpi	r25, 0xFE	; 254
    53ce:	51 05       	cpc	r21, r1
    53d0:	44 f7       	brge	.-48     	; 0x53a2 <inverse+0xe>
    53d2:	88 0f       	add	r24, r24
    53d4:	91 1d       	adc	r25, r1
    53d6:	96 95       	lsr	r25
    53d8:	87 95       	ror	r24
    53da:	97 f9       	bld	r25, 7
    53dc:	08 95       	ret
    53de:	5f 3f       	cpi	r21, 0xFF	; 255
    53e0:	ac f0       	brlt	.+42     	; 0x540c <ldexp+0x66>
    53e2:	98 3e       	cpi	r25, 0xE8	; 232
    53e4:	9c f0       	brlt	.+38     	; 0x540c <ldexp+0x66>
    53e6:	bb 27       	eor	r27, r27
    53e8:	86 95       	lsr	r24
    53ea:	77 95       	ror	r23
    53ec:	67 95       	ror	r22
    53ee:	b7 95       	ror	r27
    53f0:	08 f4       	brcc	.+2      	; 0x53f4 <ldexp+0x4e>
    53f2:	b1 60       	ori	r27, 0x01	; 1
    53f4:	93 95       	inc	r25
    53f6:	c1 f7       	brne	.-16     	; 0x53e8 <ldexp+0x42>
    53f8:	bb 0f       	add	r27, r27
    53fa:	58 f7       	brcc	.-42     	; 0x53d2 <ldexp+0x2c>
    53fc:	11 f4       	brne	.+4      	; 0x5402 <ldexp+0x5c>
    53fe:	60 ff       	sbrs	r22, 0
    5400:	e8 cf       	rjmp	.-48     	; 0x53d2 <ldexp+0x2c>
    5402:	6f 5f       	subi	r22, 0xFF	; 255
    5404:	7f 4f       	sbci	r23, 0xFF	; 255
    5406:	8f 4f       	sbci	r24, 0xFF	; 255
    5408:	9f 4f       	sbci	r25, 0xFF	; 255
    540a:	e3 cf       	rjmp	.-58     	; 0x53d2 <ldexp+0x2c>
    540c:	12 ce       	rjmp	.-988    	; 0x5032 <__fp_szero>

0000540e <modf>:
    540e:	fa 01       	movw	r30, r20
    5410:	dc 01       	movw	r26, r24
    5412:	aa 0f       	add	r26, r26
    5414:	bb 1f       	adc	r27, r27
    5416:	9b 01       	movw	r18, r22
    5418:	ac 01       	movw	r20, r24
    541a:	bf 57       	subi	r27, 0x7F	; 127
    541c:	28 f4       	brcc	.+10     	; 0x5428 <modf+0x1a>
    541e:	22 27       	eor	r18, r18
    5420:	33 27       	eor	r19, r19
    5422:	44 27       	eor	r20, r20
    5424:	50 78       	andi	r21, 0x80	; 128
    5426:	1f c0       	rjmp	.+62     	; 0x5466 <modf+0x58>
    5428:	b7 51       	subi	r27, 0x17	; 23
    542a:	88 f4       	brcc	.+34     	; 0x544e <modf+0x40>
    542c:	ab 2f       	mov	r26, r27
    542e:	00 24       	eor	r0, r0
    5430:	46 95       	lsr	r20
    5432:	37 95       	ror	r19
    5434:	27 95       	ror	r18
    5436:	01 1c       	adc	r0, r1
    5438:	a3 95       	inc	r26
    543a:	d2 f3       	brmi	.-12     	; 0x5430 <modf+0x22>
    543c:	00 20       	and	r0, r0
    543e:	69 f0       	breq	.+26     	; 0x545a <modf+0x4c>
    5440:	22 0f       	add	r18, r18
    5442:	33 1f       	adc	r19, r19
    5444:	44 1f       	adc	r20, r20
    5446:	b3 95       	inc	r27
    5448:	da f3       	brmi	.-10     	; 0x5440 <modf+0x32>
    544a:	0d d0       	rcall	.+26     	; 0x5466 <modf+0x58>
    544c:	44 cc       	rjmp	.-1912   	; 0x4cd6 <__subsf3>
    544e:	61 30       	cpi	r22, 0x01	; 1
    5450:	71 05       	cpc	r23, r1
    5452:	a0 e8       	ldi	r26, 0x80	; 128
    5454:	8a 07       	cpc	r24, r26
    5456:	b9 46       	sbci	r27, 0x69	; 105
    5458:	30 f4       	brcc	.+12     	; 0x5466 <modf+0x58>
    545a:	9b 01       	movw	r18, r22
    545c:	ac 01       	movw	r20, r24
    545e:	66 27       	eor	r22, r22
    5460:	77 27       	eor	r23, r23
    5462:	88 27       	eor	r24, r24
    5464:	90 78       	andi	r25, 0x80	; 128
    5466:	30 96       	adiw	r30, 0x00	; 0
    5468:	21 f0       	breq	.+8      	; 0x5472 <modf+0x64>
    546a:	20 83       	st	Z, r18
    546c:	31 83       	std	Z+1, r19	; 0x01
    546e:	42 83       	std	Z+2, r20	; 0x02
    5470:	53 83       	std	Z+3, r21	; 0x03
    5472:	08 95       	ret

00005474 <_exit>:
    5474:	f8 94       	cli

00005476 <__stop_program>:
    5476:	ff cf       	rjmp	.-2      	; 0x5476 <__stop_program>
