
LCP_Basic.elf:     file format elf32-littlearm

Sections:
Idx Name          Size      VMA       LMA       File off  Algn
  0 .text         00001e80  00080000  00080000  00010000  2**2
                  CONTENTS, ALLOC, LOAD, READONLY, CODE
  1 .ARM.exidx    00000008  00081e80  00081e80  00011e80  2**2
                  CONTENTS, ALLOC, LOAD, READONLY, DATA
  2 .relocate     0000085c  20000000  00081e88  00020000  2**3
                  CONTENTS, ALLOC, LOAD, DATA
  3 .bss          0000030c  2000085c  000826e4  0002085c  2**2
                  ALLOC
  4 .stack        00000400  20000b68  000829f0  0002085c  2**0
                  ALLOC
  5 .heap         00000200  20000f68  00082df0  0002085c  2**0
                  ALLOC
  6 .ARM.attributes 00000029  00000000  00000000  0002085c  2**0
                  CONTENTS, READONLY
  7 .comment      00000059  00000000  00000000  00020885  2**0
                  CONTENTS, READONLY
  8 .debug_frame  0000040c  00000000  00000000  000208e0  2**2
                  CONTENTS, READONLY, DEBUGGING

Disassembly of section .text:

00080000 <exception_table>:
   80000:	68 0f 00 20 f9 02 08 00 f5 02 08 00 f5 02 08 00     h.. ............
   80010:	f5 02 08 00 f5 02 08 00 f5 02 08 00 00 00 00 00     ................
	...
   8002c:	f5 02 08 00 f5 02 08 00 00 00 00 00 f5 02 08 00     ................
   8003c:	2d 06 08 00 f5 02 08 00 f5 02 08 00 f5 02 08 00     -...............
   8004c:	f5 02 08 00 f5 02 08 00 f5 02 08 00 f5 02 08 00     ................
   8005c:	f5 02 08 00 f5 02 08 00 f5 02 08 00 00 00 00 00     ................
   8006c:	f5 02 08 00 f5 02 08 00 f5 02 08 00 f5 02 08 00     ................
	...
   80084:	f5 02 08 00 f5 02 08 00 f5 02 08 00 f5 02 08 00     ................
   80094:	f5 02 08 00 f5 02 08 00 f5 02 08 00 f5 02 08 00     ................
   800a4:	00 00 00 00 f5 02 08 00 f5 02 08 00 f5 02 08 00     ................
   800b4:	f5 02 08 00 f5 02 08 00 f5 02 08 00 f5 02 08 00     ................
   800c4:	f5 02 08 00 f5 02 08 00 f5 02 08 00 f5 02 08 00     ................
   800d4:	f5 02 08 00 f5 02 08 00 f5 02 08 00 2d 0a 08 00     ............-...
   800e4:	f5 02 08 00 f5 02 08 00 f5 02 08 00 f5 02 08 00     ................

000800f4 <__do_global_dtors_aux>:
   800f4:	b510      	push	{r4, lr}
   800f6:	4c05      	ldr	r4, [pc, #20]	; (8010c <__do_global_dtors_aux+0x18>)
   800f8:	7823      	ldrb	r3, [r4, #0]
   800fa:	b933      	cbnz	r3, 8010a <__do_global_dtors_aux+0x16>
   800fc:	4b04      	ldr	r3, [pc, #16]	; (80110 <__do_global_dtors_aux+0x1c>)
   800fe:	b113      	cbz	r3, 80106 <__do_global_dtors_aux+0x12>
   80100:	4804      	ldr	r0, [pc, #16]	; (80114 <__do_global_dtors_aux+0x20>)
   80102:	f3af 8000 	nop.w
   80106:	2301      	movs	r3, #1
   80108:	7023      	strb	r3, [r4, #0]
   8010a:	bd10      	pop	{r4, pc}
   8010c:	2000085c 	.word	0x2000085c
   80110:	00000000 	.word	0x00000000
   80114:	00081e88 	.word	0x00081e88

00080118 <frame_dummy>:
   80118:	4b0c      	ldr	r3, [pc, #48]	; (8014c <frame_dummy+0x34>)
   8011a:	b143      	cbz	r3, 8012e <frame_dummy+0x16>
   8011c:	480c      	ldr	r0, [pc, #48]	; (80150 <frame_dummy+0x38>)
   8011e:	b510      	push	{r4, lr}
   80120:	490c      	ldr	r1, [pc, #48]	; (80154 <frame_dummy+0x3c>)
   80122:	f3af 8000 	nop.w
   80126:	480c      	ldr	r0, [pc, #48]	; (80158 <frame_dummy+0x40>)
   80128:	6803      	ldr	r3, [r0, #0]
   8012a:	b923      	cbnz	r3, 80136 <frame_dummy+0x1e>
   8012c:	bd10      	pop	{r4, pc}
   8012e:	480a      	ldr	r0, [pc, #40]	; (80158 <frame_dummy+0x40>)
   80130:	6803      	ldr	r3, [r0, #0]
   80132:	b933      	cbnz	r3, 80142 <frame_dummy+0x2a>
   80134:	4770      	bx	lr
   80136:	4b09      	ldr	r3, [pc, #36]	; (8015c <frame_dummy+0x44>)
   80138:	2b00      	cmp	r3, #0
   8013a:	d0f7      	beq.n	8012c <frame_dummy+0x14>
   8013c:	e8bd 4010 	ldmia.w	sp!, {r4, lr}
   80140:	4718      	bx	r3
   80142:	4b06      	ldr	r3, [pc, #24]	; (8015c <frame_dummy+0x44>)
   80144:	2b00      	cmp	r3, #0
   80146:	d0f5      	beq.n	80134 <frame_dummy+0x1c>
   80148:	4718      	bx	r3
   8014a:	bf00      	nop
   8014c:	00000000 	.word	0x00000000
   80150:	00081e88 	.word	0x00081e88
   80154:	20000860 	.word	0x20000860
   80158:	00081e88 	.word	0x00081e88
   8015c:	00000000 	.word	0x00000000

00080160 <_Z5setupv>:
   80160:	b510      	push	{r4, lr}
   80162:	4b11      	ldr	r3, [pc, #68]	; (801a8 <_Z5setupv+0x48>)
   80164:	4798      	blx	r3
   80166:	4c11      	ldr	r4, [pc, #68]	; (801ac <_Z5setupv+0x4c>)
   80168:	2200      	movs	r2, #0
   8016a:	f44f 5116 	mov.w	r1, #9600	; 0x2580
   8016e:	4810      	ldr	r0, [pc, #64]	; (801b0 <_Z5setupv+0x50>)
   80170:	47a0      	blx	r4
   80172:	2200      	movs	r2, #0
   80174:	f44f 5116 	mov.w	r1, #9600	; 0x2580
   80178:	480e      	ldr	r0, [pc, #56]	; (801b4 <_Z5setupv+0x54>)
   8017a:	47a0      	blx	r4
   8017c:	2200      	movs	r2, #0
   8017e:	f44f 5116 	mov.w	r1, #9600	; 0x2580
   80182:	480d      	ldr	r0, [pc, #52]	; (801b8 <_Z5setupv+0x58>)
   80184:	47a0      	blx	r4
   80186:	2200      	movs	r2, #0
   80188:	f44f 5116 	mov.w	r1, #9600	; 0x2580
   8018c:	480b      	ldr	r0, [pc, #44]	; (801bc <_Z5setupv+0x5c>)
   8018e:	47a0      	blx	r4
   80190:	480b      	ldr	r0, [pc, #44]	; (801c0 <_Z5setupv+0x60>)
   80192:	4b0c      	ldr	r3, [pc, #48]	; (801c4 <_Z5setupv+0x64>)
   80194:	2200      	movs	r2, #0
   80196:	f44f 31e1 	mov.w	r1, #115200	; 0x1c200
   8019a:	4798      	blx	r3
   8019c:	e8bd 4010 	ldmia.w	sp!, {r4, lr}
   801a0:	4809      	ldr	r0, [pc, #36]	; (801c8 <_Z5setupv+0x68>)
   801a2:	4b0a      	ldr	r3, [pc, #40]	; (801cc <_Z5setupv+0x6c>)
   801a4:	4718      	bx	r3
   801a6:	bf00      	nop
   801a8:	000801dd 	.word	0x000801dd
   801ac:	0008100d 	.word	0x0008100d
   801b0:	20000adc 	.word	0x20000adc
   801b4:	20000ae4 	.word	0x20000ae4
   801b8:	20000aec 	.word	0x20000aec
   801bc:	20000af4 	.word	0x20000af4
   801c0:	20000018 	.word	0x20000018
   801c4:	000810ed 	.word	0x000810ed
   801c8:	20000afc 	.word	0x20000afc
   801cc:	00081081 	.word	0x00081081

000801d0 <_Z4loopv>:
   801d0:	2001      	movs	r0, #1
   801d2:	4b01      	ldr	r3, [pc, #4]	; (801d8 <_Z4loopv+0x8>)
   801d4:	4718      	bx	r3
   801d6:	bf00      	nop
   801d8:	00080fa9 	.word	0x00080fa9

000801dc <_Z19lcp_board_init_gpiov>:
   801dc:	b570      	push	{r4, r5, r6, lr}
   801de:	2100      	movs	r1, #0
   801e0:	4d41      	ldr	r5, [pc, #260]	; (802e8 <_Z19lcp_board_init_gpiov+0x10c>)
   801e2:	2002      	movs	r0, #2
   801e4:	47a8      	blx	r5
   801e6:	2101      	movs	r1, #1
   801e8:	2003      	movs	r0, #3
   801ea:	47a8      	blx	r5
   801ec:	2101      	movs	r1, #1
   801ee:	2005      	movs	r0, #5
   801f0:	47a8      	blx	r5
   801f2:	2101      	movs	r1, #1
   801f4:	2006      	movs	r0, #6
   801f6:	47a8      	blx	r5
   801f8:	2101      	movs	r1, #1
   801fa:	2017      	movs	r0, #23
   801fc:	47a8      	blx	r5
   801fe:	2101      	movs	r1, #1
   80200:	200a      	movs	r0, #10
   80202:	47a8      	blx	r5
   80204:	2101      	movs	r1, #1
   80206:	2030      	movs	r0, #48	; 0x30
   80208:	47a8      	blx	r5
   8020a:	2101      	movs	r1, #1
   8020c:	2018      	movs	r0, #24
   8020e:	47a8      	blx	r5
   80210:	2101      	movs	r1, #1
   80212:	2028      	movs	r0, #40	; 0x28
   80214:	47a8      	blx	r5
   80216:	2101      	movs	r1, #1
   80218:	2029      	movs	r0, #41	; 0x29
   8021a:	47a8      	blx	r5
   8021c:	2101      	movs	r1, #1
   8021e:	202d      	movs	r0, #45	; 0x2d
   80220:	47a8      	blx	r5
   80222:	2101      	movs	r1, #1
   80224:	2036      	movs	r0, #54	; 0x36
   80226:	47a8      	blx	r5
   80228:	2101      	movs	r1, #1
   8022a:	203d      	movs	r0, #61	; 0x3d
   8022c:	4c2f      	ldr	r4, [pc, #188]	; (802ec <_Z19lcp_board_init_gpiov+0x110>)
   8022e:	47a8      	blx	r5
   80230:	2100      	movs	r1, #0
   80232:	203d      	movs	r0, #61	; 0x3d
   80234:	47a0      	blx	r4
   80236:	2101      	movs	r1, #1
   80238:	2036      	movs	r0, #54	; 0x36
   8023a:	47a0      	blx	r4
   8023c:	2100      	movs	r1, #0
   8023e:	2018      	movs	r0, #24
   80240:	47a0      	blx	r4
   80242:	2101      	movs	r1, #1
   80244:	2003      	movs	r0, #3
   80246:	47a0      	blx	r4
   80248:	2101      	movs	r1, #1
   8024a:	2005      	movs	r0, #5
   8024c:	47a0      	blx	r4
   8024e:	2101      	movs	r1, #1
   80250:	2006      	movs	r0, #6
   80252:	47a0      	blx	r4
   80254:	2101      	movs	r1, #1
   80256:	2017      	movs	r0, #23
   80258:	47a0      	blx	r4
   8025a:	2101      	movs	r1, #1
   8025c:	200a      	movs	r0, #10
   8025e:	47a0      	blx	r4
   80260:	2101      	movs	r1, #1
   80262:	2030      	movs	r0, #48	; 0x30
   80264:	47a0      	blx	r4
   80266:	2100      	movs	r1, #0
   80268:	202d      	movs	r0, #45	; 0x2d
   8026a:	47a0      	blx	r4
   8026c:	2101      	movs	r1, #1
   8026e:	202d      	movs	r0, #45	; 0x2d
   80270:	47a8      	blx	r5
   80272:	2101      	movs	r1, #1
   80274:	2007      	movs	r0, #7
   80276:	47a8      	blx	r5
   80278:	2101      	movs	r1, #1
   8027a:	2008      	movs	r0, #8
   8027c:	47a8      	blx	r5
   8027e:	2101      	movs	r1, #1
   80280:	2009      	movs	r0, #9
   80282:	47a8      	blx	r5
   80284:	2100      	movs	r1, #0
   80286:	202d      	movs	r0, #45	; 0x2d
   80288:	47a0      	blx	r4
   8028a:	2100      	movs	r1, #0
   8028c:	2007      	movs	r0, #7
   8028e:	47a0      	blx	r4
   80290:	2100      	movs	r1, #0
   80292:	2008      	movs	r0, #8
   80294:	47a0      	blx	r4
   80296:	2100      	movs	r1, #0
   80298:	2009      	movs	r0, #9
   8029a:	4d15      	ldr	r5, [pc, #84]	; (802f0 <_Z19lcp_board_init_gpiov+0x114>)
   8029c:	47a0      	blx	r4
   8029e:	2064      	movs	r0, #100	; 0x64
   802a0:	47a8      	blx	r5
   802a2:	2101      	movs	r1, #1
   802a4:	202d      	movs	r0, #45	; 0x2d
   802a6:	47a0      	blx	r4
   802a8:	2064      	movs	r0, #100	; 0x64
   802aa:	47a8      	blx	r5
   802ac:	2101      	movs	r1, #1
   802ae:	2007      	movs	r0, #7
   802b0:	47a0      	blx	r4
   802b2:	2064      	movs	r0, #100	; 0x64
   802b4:	47a8      	blx	r5
   802b6:	2101      	movs	r1, #1
   802b8:	2008      	movs	r0, #8
   802ba:	47a0      	blx	r4
   802bc:	2064      	movs	r0, #100	; 0x64
   802be:	47a8      	blx	r5
   802c0:	2101      	movs	r1, #1
   802c2:	2009      	movs	r0, #9
   802c4:	47a0      	blx	r4
   802c6:	2064      	movs	r0, #100	; 0x64
   802c8:	47a8      	blx	r5
   802ca:	2100      	movs	r1, #0
   802cc:	202d      	movs	r0, #45	; 0x2d
   802ce:	47a0      	blx	r4
   802d0:	2100      	movs	r1, #0
   802d2:	2007      	movs	r0, #7
   802d4:	47a0      	blx	r4
   802d6:	2100      	movs	r1, #0
   802d8:	2008      	movs	r0, #8
   802da:	47a0      	blx	r4
   802dc:	4623      	mov	r3, r4
   802de:	e8bd 4070 	ldmia.w	sp!, {r4, r5, r6, lr}
   802e2:	2100      	movs	r1, #0
   802e4:	2009      	movs	r0, #9
   802e6:	4718      	bx	r3
   802e8:	00080ef9 	.word	0x00080ef9
   802ec:	00080f0d 	.word	0x00080f0d
   802f0:	00080fa9 	.word	0x00080fa9

000802f4 <Dummy_Handler>:
   802f4:	e7fe      	b.n	802f4 <Dummy_Handler>
	...

000802f8 <Reset_Handler>:
   802f8:	b508      	push	{r3, lr}
   802fa:	4a10      	ldr	r2, [pc, #64]	; (8033c <Reset_Handler+0x44>)
   802fc:	4b10      	ldr	r3, [pc, #64]	; (80340 <Reset_Handler+0x48>)
   802fe:	429a      	cmp	r2, r3
   80300:	d110      	bne.n	80324 <Reset_Handler+0x2c>
   80302:	2100      	movs	r1, #0
   80304:	4b0f      	ldr	r3, [pc, #60]	; (80344 <Reset_Handler+0x4c>)
   80306:	4a10      	ldr	r2, [pc, #64]	; (80348 <Reset_Handler+0x50>)
   80308:	4293      	cmp	r3, r2
   8030a:	d314      	bcc.n	80336 <Reset_Handler+0x3e>
   8030c:	4b0f      	ldr	r3, [pc, #60]	; (8034c <Reset_Handler+0x54>)
   8030e:	4a10      	ldr	r2, [pc, #64]	; (80350 <Reset_Handler+0x58>)
   80310:	f023 4360 	bic.w	r3, r3, #3758096384	; 0xe0000000
   80314:	f023 037f 	bic.w	r3, r3, #127	; 0x7f
   80318:	6093      	str	r3, [r2, #8]
   8031a:	4b0e      	ldr	r3, [pc, #56]	; (80354 <Reset_Handler+0x5c>)
   8031c:	4798      	blx	r3
   8031e:	4b0e      	ldr	r3, [pc, #56]	; (80358 <Reset_Handler+0x60>)
   80320:	4798      	blx	r3
   80322:	e7fe      	b.n	80322 <Reset_Handler+0x2a>
   80324:	490d      	ldr	r1, [pc, #52]	; (8035c <Reset_Handler+0x64>)
   80326:	3a04      	subs	r2, #4
   80328:	428b      	cmp	r3, r1
   8032a:	d2ea      	bcs.n	80302 <Reset_Handler+0xa>
   8032c:	f852 0f04 	ldr.w	r0, [r2, #4]!
   80330:	f843 0b04 	str.w	r0, [r3], #4
   80334:	e7f8      	b.n	80328 <Reset_Handler+0x30>
   80336:	f843 1b04 	str.w	r1, [r3], #4
   8033a:	e7e5      	b.n	80308 <Reset_Handler+0x10>
   8033c:	00081e88 	.word	0x00081e88
   80340:	20000000 	.word	0x20000000
   80344:	2000085c 	.word	0x2000085c
   80348:	20000b68 	.word	0x20000b68
   8034c:	00080000 	.word	0x00080000
   80350:	e000ed00 	.word	0xe000ed00
   80354:	00081121 	.word	0x00081121
   80358:	00080edd 	.word	0x00080edd
   8035c:	2000085c 	.word	0x2000085c

00080360 <SystemCoreClockUpdate>:
   80360:	4a2b      	ldr	r2, [pc, #172]	; (80410 <SystemCoreClockUpdate+0xb0>)
   80362:	b510      	push	{r4, lr}
   80364:	6b13      	ldr	r3, [r2, #48]	; 0x30
   80366:	f003 0303 	and.w	r3, r3, #3
   8036a:	2b01      	cmp	r3, #1
   8036c:	4b29      	ldr	r3, [pc, #164]	; (80414 <SystemCoreClockUpdate+0xb4>)
   8036e:	d00f      	beq.n	80390 <SystemCoreClockUpdate+0x30>
   80370:	d304      	bcc.n	8037c <SystemCoreClockUpdate+0x1c>
   80372:	6a11      	ldr	r1, [r2, #32]
   80374:	01cc      	lsls	r4, r1, #7
   80376:	d52c      	bpl.n	803d2 <SystemCoreClockUpdate+0x72>
   80378:	4927      	ldr	r1, [pc, #156]	; (80418 <SystemCoreClockUpdate+0xb8>)
   8037a:	e046      	b.n	8040a <SystemCoreClockUpdate+0xaa>
   8037c:	4927      	ldr	r1, [pc, #156]	; (8041c <SystemCoreClockUpdate+0xbc>)
   8037e:	6949      	ldr	r1, [r1, #20]
   80380:	0608      	lsls	r0, r1, #24
   80382:	bf4c      	ite	mi
   80384:	f44f 4100 	movmi.w	r1, #32768	; 0x8000
   80388:	f44f 41fa 	movpl.w	r1, #32000	; 0x7d00
   8038c:	6019      	str	r1, [r3, #0]
   8038e:	e00d      	b.n	803ac <SystemCoreClockUpdate+0x4c>
   80390:	6a11      	ldr	r1, [r2, #32]
   80392:	01c9      	lsls	r1, r1, #7
   80394:	d501      	bpl.n	8039a <SystemCoreClockUpdate+0x3a>
   80396:	4920      	ldr	r1, [pc, #128]	; (80418 <SystemCoreClockUpdate+0xb8>)
   80398:	e7f8      	b.n	8038c <SystemCoreClockUpdate+0x2c>
   8039a:	4921      	ldr	r1, [pc, #132]	; (80420 <SystemCoreClockUpdate+0xc0>)
   8039c:	6019      	str	r1, [r3, #0]
   8039e:	6a11      	ldr	r1, [r2, #32]
   803a0:	f001 0170 	and.w	r1, r1, #112	; 0x70
   803a4:	2910      	cmp	r1, #16
   803a6:	d012      	beq.n	803ce <SystemCoreClockUpdate+0x6e>
   803a8:	2920      	cmp	r1, #32
   803aa:	d0f4      	beq.n	80396 <SystemCoreClockUpdate+0x36>
   803ac:	6b11      	ldr	r1, [r2, #48]	; 0x30
   803ae:	f001 0170 	and.w	r1, r1, #112	; 0x70
   803b2:	2970      	cmp	r1, #112	; 0x70
   803b4:	bf05      	ittet	eq
   803b6:	2103      	moveq	r1, #3
   803b8:	681a      	ldreq	r2, [r3, #0]
   803ba:	6b11      	ldrne	r1, [r2, #48]	; 0x30
   803bc:	fbb2 f2f1 	udiveq	r2, r2, r1
   803c0:	bf1e      	ittt	ne
   803c2:	681a      	ldrne	r2, [r3, #0]
   803c4:	f3c1 1102 	ubfxne	r1, r1, #4, #3
   803c8:	40ca      	lsrne	r2, r1
   803ca:	601a      	str	r2, [r3, #0]
   803cc:	bd10      	pop	{r4, pc}
   803ce:	4915      	ldr	r1, [pc, #84]	; (80424 <SystemCoreClockUpdate+0xc4>)
   803d0:	e7dc      	b.n	8038c <SystemCoreClockUpdate+0x2c>
   803d2:	4913      	ldr	r1, [pc, #76]	; (80420 <SystemCoreClockUpdate+0xc0>)
   803d4:	6019      	str	r1, [r3, #0]
   803d6:	6a11      	ldr	r1, [r2, #32]
   803d8:	f001 0170 	and.w	r1, r1, #112	; 0x70
   803dc:	2910      	cmp	r1, #16
   803de:	d013      	beq.n	80408 <SystemCoreClockUpdate+0xa8>
   803e0:	2920      	cmp	r1, #32
   803e2:	d0c9      	beq.n	80378 <SystemCoreClockUpdate+0x18>
   803e4:	6b11      	ldr	r1, [r2, #48]	; 0x30
   803e6:	f001 0103 	and.w	r1, r1, #3
   803ea:	2902      	cmp	r1, #2
   803ec:	bf01      	itttt	eq
   803ee:	6a94      	ldreq	r4, [r2, #40]	; 0x28
   803f0:	6819      	ldreq	r1, [r3, #0]
   803f2:	f3c4 440a 	ubfxeq	r4, r4, #16, #11
   803f6:	fb04 1101 	mlaeq	r1, r4, r1, r1
   803fa:	bf09      	itett	eq
   803fc:	6a90      	ldreq	r0, [r2, #40]	; 0x28
   803fe:	490a      	ldrne	r1, [pc, #40]	; (80428 <SystemCoreClockUpdate+0xc8>)
   80400:	b2c0      	uxtbeq	r0, r0
   80402:	fbb1 f1f0 	udiveq	r1, r1, r0
   80406:	e7c1      	b.n	8038c <SystemCoreClockUpdate+0x2c>
   80408:	4906      	ldr	r1, [pc, #24]	; (80424 <SystemCoreClockUpdate+0xc4>)
   8040a:	6019      	str	r1, [r3, #0]
   8040c:	e7ea      	b.n	803e4 <SystemCoreClockUpdate+0x84>
   8040e:	bf00      	nop
   80410:	400e0600 	.word	0x400e0600
   80414:	20000004 	.word	0x20000004
   80418:	00b71b00 	.word	0x00b71b00
   8041c:	400e1a10 	.word	0x400e1a10
   80420:	003d0900 	.word	0x003d0900
   80424:	007a1200 	.word	0x007a1200
   80428:	0e4e1c00 	.word	0x0e4e1c00

0008042c <_ZL17hal_gpio_find_pinm>:
   8042c:	2200      	movs	r2, #0
   8042e:	b510      	push	{r4, lr}
   80430:	4b05      	ldr	r3, [pc, #20]	; (80448 <_ZL17hal_gpio_find_pinm+0x1c>)
   80432:	0111      	lsls	r1, r2, #4
   80434:	58cc      	ldr	r4, [r1, r3]
   80436:	4284      	cmp	r4, r0
   80438:	d101      	bne.n	8043e <_ZL17hal_gpio_find_pinm+0x12>
   8043a:	1858      	adds	r0, r3, r1
   8043c:	bd10      	pop	{r4, pc}
   8043e:	3201      	adds	r2, #1
   80440:	2a10      	cmp	r2, #16
   80442:	d1f6      	bne.n	80432 <_ZL17hal_gpio_find_pinm+0x6>
   80444:	2000      	movs	r0, #0
   80446:	bd10      	pop	{r4, pc}
   80448:	00081b88 	.word	0x00081b88

0008044c <_ZL21hal_gpio_enable_clockm>:
   8044c:	2301      	movs	r3, #1
   8044e:	281f      	cmp	r0, #31
   80450:	4a04      	ldr	r2, [pc, #16]	; (80464 <_ZL21hal_gpio_enable_clockm+0x18>)
   80452:	bf8b      	itete	hi
   80454:	3820      	subhi	r0, #32
   80456:	4083      	lslls	r3, r0
   80458:	4083      	lslhi	r3, r0
   8045a:	6113      	strls	r3, [r2, #16]
   8045c:	bf88      	it	hi
   8045e:	f8c2 3100 	strhi.w	r3, [r2, #256]	; 0x100
   80462:	4770      	bx	lr
   80464:	400e0600 	.word	0x400e0600

00080468 <_Z18hal_gpio_configurem11HalGpioMode>:
   80468:	b510      	push	{r4, lr}
   8046a:	4b0c      	ldr	r3, [pc, #48]	; (8049c <_Z18hal_gpio_configurem11HalGpioMode+0x34>)
   8046c:	460c      	mov	r4, r1
   8046e:	4798      	blx	r3
   80470:	4601      	mov	r1, r0
   80472:	b188      	cbz	r0, 80498 <_Z18hal_gpio_configurem11HalGpioMode+0x30>
   80474:	4b0a      	ldr	r3, [pc, #40]	; (804a0 <_Z18hal_gpio_configurem11HalGpioMode+0x38>)
   80476:	68c0      	ldr	r0, [r0, #12]
   80478:	4798      	blx	r3
   8047a:	684b      	ldr	r3, [r1, #4]
   8047c:	688a      	ldr	r2, [r1, #8]
   8047e:	2c01      	cmp	r4, #1
   80480:	601a      	str	r2, [r3, #0]
   80482:	645a      	str	r2, [r3, #68]	; 0x44
   80484:	d102      	bne.n	8048c <_Z18hal_gpio_configurem11HalGpioMode+0x24>
   80486:	661a      	str	r2, [r3, #96]	; 0x60
   80488:	611a      	str	r2, [r3, #16]
   8048a:	bd10      	pop	{r4, pc}
   8048c:	2c02      	cmp	r4, #2
   8048e:	615a      	str	r2, [r3, #20]
   80490:	d101      	bne.n	80496 <_Z18hal_gpio_configurem11HalGpioMode+0x2e>
   80492:	665a      	str	r2, [r3, #100]	; 0x64
   80494:	bd10      	pop	{r4, pc}
   80496:	661a      	str	r2, [r3, #96]	; 0x60
   80498:	bd10      	pop	{r4, pc}
   8049a:	bf00      	nop
   8049c:	0008042d 	.word	0x0008042d
   804a0:	0008044d 	.word	0x0008044d

000804a4 <_Z14hal_gpio_writemm>:
   804a4:	b510      	push	{r4, lr}
   804a6:	4b07      	ldr	r3, [pc, #28]	; (804c4 <_Z14hal_gpio_writemm+0x20>)
   804a8:	460c      	mov	r4, r1
   804aa:	4798      	blx	r3
   804ac:	4601      	mov	r1, r0
   804ae:	b140      	cbz	r0, 804c2 <_Z14hal_gpio_writemm+0x1e>
   804b0:	4b05      	ldr	r3, [pc, #20]	; (804c8 <_Z14hal_gpio_writemm+0x24>)
   804b2:	68c0      	ldr	r0, [r0, #12]
   804b4:	4798      	blx	r3
   804b6:	684b      	ldr	r3, [r1, #4]
   804b8:	688a      	ldr	r2, [r1, #8]
   804ba:	b10c      	cbz	r4, 804c0 <_Z14hal_gpio_writemm+0x1c>
   804bc:	631a      	str	r2, [r3, #48]	; 0x30
   804be:	bd10      	pop	{r4, pc}
   804c0:	635a      	str	r2, [r3, #52]	; 0x34
   804c2:	bd10      	pop	{r4, pc}
   804c4:	0008042d 	.word	0x0008042d
   804c8:	0008044d 	.word	0x0008044d

000804cc <_Z24sam3x_bootloader_requestm>:
   804cc:	2800      	cmp	r0, #0
   804ce:	bf08      	it	eq
   804d0:	2001      	moveq	r0, #1
   804d2:	4b01      	ldr	r3, [pc, #4]	; (804d8 <_Z24sam3x_bootloader_requestm+0xc>)
   804d4:	6018      	str	r0, [r3, #0]
   804d6:	4770      	bx	lr
   804d8:	20000008 	.word	0x20000008

000804dc <_Z23sam3x_bootloader_cancelv>:
   804dc:	f04f 32ff 	mov.w	r2, #4294967295
   804e0:	4b01      	ldr	r3, [pc, #4]	; (804e8 <_Z23sam3x_bootloader_cancelv+0xc>)
   804e2:	601a      	str	r2, [r3, #0]
   804e4:	4770      	bx	lr
   804e6:	bf00      	nop
   804e8:	20000008 	.word	0x20000008

000804ec <_Z21sam3x_bootloader_tickv>:
   804ec:	4b0e      	ldr	r3, [pc, #56]	; (80528 <_Z21sam3x_bootloader_tickv+0x3c>)
   804ee:	681a      	ldr	r2, [r3, #0]
   804f0:	2a00      	cmp	r2, #0
   804f2:	db17      	blt.n	80524 <_Z21sam3x_bootloader_tickv+0x38>
   804f4:	681a      	ldr	r2, [r3, #0]
   804f6:	2a00      	cmp	r2, #0
   804f8:	bfc2      	ittt	gt
   804fa:	681a      	ldrgt	r2, [r3, #0]
   804fc:	f102 32ff 	addgt.w	r2, r2, #4294967295
   80500:	601a      	strgt	r2, [r3, #0]
   80502:	681b      	ldr	r3, [r3, #0]
   80504:	b973      	cbnz	r3, 80524 <_Z21sam3x_bootloader_tickv+0x38>
   80506:	b672      	cpsid	i
   80508:	4b08      	ldr	r3, [pc, #32]	; (8052c <_Z21sam3x_bootloader_tickv+0x40>)
   8050a:	461a      	mov	r2, r3
   8050c:	6899      	ldr	r1, [r3, #8]
   8050e:	07c9      	lsls	r1, r1, #31
   80510:	d5fc      	bpl.n	8050c <_Z21sam3x_bootloader_tickv+0x20>
   80512:	4907      	ldr	r1, [pc, #28]	; (80530 <_Z21sam3x_bootloader_tickv+0x44>)
   80514:	6059      	str	r1, [r3, #4]
   80516:	6893      	ldr	r3, [r2, #8]
   80518:	07db      	lsls	r3, r3, #31
   8051a:	d5fc      	bpl.n	80516 <_Z21sam3x_bootloader_tickv+0x2a>
   8051c:	4a05      	ldr	r2, [pc, #20]	; (80534 <_Z21sam3x_bootloader_tickv+0x48>)
   8051e:	4b06      	ldr	r3, [pc, #24]	; (80538 <_Z21sam3x_bootloader_tickv+0x4c>)
   80520:	601a      	str	r2, [r3, #0]
   80522:	e7fe      	b.n	80522 <_Z21sam3x_bootloader_tickv+0x36>
   80524:	4770      	bx	lr
   80526:	bf00      	nop
   80528:	20000008 	.word	0x20000008
   8052c:	400e0a00 	.word	0x400e0a00
   80530:	5a00010c 	.word	0x5a00010c
   80534:	a5000005 	.word	0xa5000005
   80538:	400e1a00 	.word	0x400e1a00

0008053c <_Z17hal_spi_configureRK12HalSpiConfig>:
   8053c:	4b0e      	ldr	r3, [pc, #56]	; (80578 <_Z17hal_spi_configureRK12HalSpiConfig+0x3c>)
   8053e:	6802      	ldr	r2, [r0, #0]
   80540:	2a00      	cmp	r2, #0
   80542:	bf08      	it	eq
   80544:	461a      	moveq	r2, r3
   80546:	4b0d      	ldr	r3, [pc, #52]	; (8057c <_Z17hal_spi_configureRK12HalSpiConfig+0x40>)
   80548:	681b      	ldr	r3, [r3, #0]
   8054a:	3b01      	subs	r3, #1
   8054c:	4413      	add	r3, r2
   8054e:	fbb3 f3f2 	udiv	r3, r3, r2
   80552:	b17b      	cbz	r3, 80574 <_Z17hal_spi_configureRK12HalSpiConfig+0x38>
   80554:	2bff      	cmp	r3, #255	; 0xff
   80556:	bf28      	it	cs
   80558:	23ff      	movcs	r3, #255	; 0xff
   8055a:	7942      	ldrb	r2, [r0, #5]
   8055c:	021b      	lsls	r3, r3, #8
   8055e:	3a01      	subs	r2, #1
   80560:	b2d2      	uxtb	r2, r2
   80562:	2a02      	cmp	r2, #2
   80564:	bf8e      	itee	hi
   80566:	2202      	movhi	r2, #2
   80568:	4905      	ldrls	r1, [pc, #20]	; (80580 <_Z17hal_spi_configureRK12HalSpiConfig+0x44>)
   8056a:	5c8a      	ldrbls	r2, [r1, r2]
   8056c:	4313      	orrs	r3, r2
   8056e:	4a05      	ldr	r2, [pc, #20]	; (80584 <_Z17hal_spi_configureRK12HalSpiConfig+0x48>)
   80570:	6313      	str	r3, [r2, #48]	; 0x30
   80572:	4770      	bx	lr
   80574:	2301      	movs	r3, #1
   80576:	e7f0      	b.n	8055a <_Z17hal_spi_configureRK12HalSpiConfig+0x1e>
   80578:	003d0900 	.word	0x003d0900
   8057c:	20000004 	.word	0x20000004
   80580:	00081c88 	.word	0x00081c88
   80584:	40008000 	.word	0x40008000

00080588 <_Z13hal_spi_beginv>:
   80588:	b51f      	push	{r0, r1, r2, r3, r4, lr}
   8058a:	4b21      	ldr	r3, [pc, #132]	; (80610 <_Z13hal_spi_beginv+0x88>)
   8058c:	4798      	blx	r3
   8058e:	f04f 7380 	mov.w	r3, #16777216	; 0x1000000
   80592:	f44f 6100 	mov.w	r1, #2048	; 0x800
   80596:	f04f 7000 	mov.w	r0, #33554432	; 0x2000000
   8059a:	4a1e      	ldr	r2, [pc, #120]	; (80614 <_Z13hal_spi_beginv+0x8c>)
   8059c:	6113      	str	r3, [r2, #16]
   8059e:	4b1e      	ldr	r3, [pc, #120]	; (80618 <_Z13hal_spi_beginv+0x90>)
   805a0:	6111      	str	r1, [r2, #16]
   805a2:	6458      	str	r0, [r3, #68]	; 0x44
   805a4:	6618      	str	r0, [r3, #96]	; 0x60
   805a6:	6f1c      	ldr	r4, [r3, #112]	; 0x70
   805a8:	f024 7400 	bic.w	r4, r4, #33554432	; 0x2000000
   805ac:	671c      	str	r4, [r3, #112]	; 0x70
   805ae:	6058      	str	r0, [r3, #4]
   805b0:	f04f 6080 	mov.w	r0, #67108864	; 0x4000000
   805b4:	6111      	str	r1, [r2, #16]
   805b6:	6458      	str	r0, [r3, #68]	; 0x44
   805b8:	6618      	str	r0, [r3, #96]	; 0x60
   805ba:	6f1c      	ldr	r4, [r3, #112]	; 0x70
   805bc:	f024 6480 	bic.w	r4, r4, #67108864	; 0x4000000
   805c0:	671c      	str	r4, [r3, #112]	; 0x70
   805c2:	6058      	str	r0, [r3, #4]
   805c4:	6111      	str	r1, [r2, #16]
   805c6:	f04f 6200 	mov.w	r2, #134217728	; 0x8000000
   805ca:	645a      	str	r2, [r3, #68]	; 0x44
   805cc:	661a      	str	r2, [r3, #96]	; 0x60
   805ce:	6f19      	ldr	r1, [r3, #112]	; 0x70
   805d0:	4c12      	ldr	r4, [pc, #72]	; (8061c <_Z13hal_spi_beginv+0x94>)
   805d2:	f021 6100 	bic.w	r1, r1, #134217728	; 0x8000000
   805d6:	6719      	str	r1, [r3, #112]	; 0x70
   805d8:	605a      	str	r2, [r3, #4]
   805da:	2380      	movs	r3, #128	; 0x80
   805dc:	6023      	str	r3, [r4, #0]
   805de:	6023      	str	r3, [r4, #0]
   805e0:	4b0f      	ldr	r3, [pc, #60]	; (80620 <_Z13hal_spi_beginv+0x98>)
   805e2:	a802      	add	r0, sp, #8
   805e4:	6063      	str	r3, [r4, #4]
   805e6:	4b0f      	ldr	r3, [pc, #60]	; (80624 <_Z13hal_spi_beginv+0x9c>)
   805e8:	9302      	str	r3, [sp, #8]
   805ea:	2300      	movs	r3, #0
   805ec:	f88d 300c 	strb.w	r3, [sp, #12]
   805f0:	f88d 300d 	strb.w	r3, [sp, #13]
   805f4:	4b0c      	ldr	r3, [pc, #48]	; (80628 <_Z13hal_spi_beginv+0xa0>)
   805f6:	4798      	blx	r3
   805f8:	6923      	ldr	r3, [r4, #16]
   805fa:	07db      	lsls	r3, r3, #31
   805fc:	d503      	bpl.n	80606 <_Z13hal_spi_beginv+0x7e>
   805fe:	68a3      	ldr	r3, [r4, #8]
   80600:	9301      	str	r3, [sp, #4]
   80602:	9b01      	ldr	r3, [sp, #4]
   80604:	e7f8      	b.n	805f8 <_Z13hal_spi_beginv+0x70>
   80606:	2301      	movs	r3, #1
   80608:	6023      	str	r3, [r4, #0]
   8060a:	b004      	add	sp, #16
   8060c:	bd10      	pop	{r4, pc}
   8060e:	bf00      	nop
   80610:	00080361 	.word	0x00080361
   80614:	400e0600 	.word	0x400e0600
   80618:	400e0e00 	.word	0x400e0e00
   8061c:	40008000 	.word	0x40008000
   80620:	000e0011 	.word	0x000e0011
   80624:	003d0900 	.word	0x003d0900
   80628:	0008053d 	.word	0x0008053d

0008062c <SysTick_Handler>:
   8062c:	4a02      	ldr	r2, [pc, #8]	; (80638 <SysTick_Handler+0xc>)
   8062e:	6813      	ldr	r3, [r2, #0]
   80630:	3301      	adds	r3, #1
   80632:	6013      	str	r3, [r2, #0]
   80634:	4b01      	ldr	r3, [pc, #4]	; (8063c <SysTick_Handler+0x10>)
   80636:	4718      	bx	r3
   80638:	20000878 	.word	0x20000878
   8063c:	000804ed 	.word	0x000804ed

00080640 <_Z13hal_tick_initv>:
   80640:	b508      	push	{r3, lr}
   80642:	4b0b      	ldr	r3, [pc, #44]	; (80670 <_Z13hal_tick_initv+0x30>)
   80644:	4798      	blx	r3
   80646:	f44f 727a 	mov.w	r2, #1000	; 0x3e8
   8064a:	4b0a      	ldr	r3, [pc, #40]	; (80674 <_Z13hal_tick_initv+0x34>)
   8064c:	681b      	ldr	r3, [r3, #0]
   8064e:	fbb3 f3f2 	udiv	r3, r3, r2
   80652:	b15b      	cbz	r3, 8066c <_Z13hal_tick_initv+0x2c>
   80654:	21f0      	movs	r1, #240	; 0xf0
   80656:	4a08      	ldr	r2, [pc, #32]	; (80678 <_Z13hal_tick_initv+0x38>)
   80658:	3b01      	subs	r3, #1
   8065a:	6053      	str	r3, [r2, #4]
   8065c:	4b07      	ldr	r3, [pc, #28]	; (8067c <_Z13hal_tick_initv+0x3c>)
   8065e:	f883 1023 	strb.w	r1, [r3, #35]	; 0x23
   80662:	2300      	movs	r3, #0
   80664:	6093      	str	r3, [r2, #8]
   80666:	2307      	movs	r3, #7
   80668:	6013      	str	r3, [r2, #0]
   8066a:	bd08      	pop	{r3, pc}
   8066c:	bf00      	nop
   8066e:	e7fd      	b.n	8066c <_Z13hal_tick_initv+0x2c>
   80670:	00080361 	.word	0x00080361
   80674:	20000004 	.word	0x20000004
   80678:	e000e010 	.word	0xe000e010
   8067c:	e000ed00 	.word	0xe000ed00

00080680 <_Z12hal_delay_msm>:
   80680:	4b04      	ldr	r3, [pc, #16]	; (80694 <_Z12hal_delay_msm+0x14>)
   80682:	6819      	ldr	r1, [r3, #0]
   80684:	681a      	ldr	r2, [r3, #0]
   80686:	1a52      	subs	r2, r2, r1
   80688:	4282      	cmp	r2, r0
   8068a:	d201      	bcs.n	80690 <_Z12hal_delay_msm+0x10>
   8068c:	bf00      	nop
   8068e:	e7f9      	b.n	80684 <_Z12hal_delay_msm+0x4>
   80690:	4770      	bx	lr
   80692:	bf00      	nop
   80694:	20000878 	.word	0x20000878

00080698 <_ZL22hal_uart_configure_pinRK10HalUartPin>:
   80698:	2301      	movs	r3, #1
   8069a:	6882      	ldr	r2, [r0, #8]
   8069c:	490c      	ldr	r1, [pc, #48]	; (806d0 <_ZL22hal_uart_configure_pinRK10HalUartPin+0x38>)
   8069e:	2a1f      	cmp	r2, #31
   806a0:	bf8b      	itete	hi
   806a2:	3a20      	subhi	r2, #32
   806a4:	4093      	lslls	r3, r2
   806a6:	4093      	lslhi	r3, r2
   806a8:	610b      	strls	r3, [r1, #16]
   806aa:	bf88      	it	hi
   806ac:	f8c1 3100 	strhi.w	r3, [r1, #256]	; 0x100
   806b0:	6842      	ldr	r2, [r0, #4]
   806b2:	6803      	ldr	r3, [r0, #0]
   806b4:	645a      	str	r2, [r3, #68]	; 0x44
   806b6:	661a      	str	r2, [r3, #96]	; 0x60
   806b8:	7b01      	ldrb	r1, [r0, #12]
   806ba:	b121      	cbz	r1, 806c6 <_ZL22hal_uart_configure_pinRK10HalUartPin+0x2e>
   806bc:	6f19      	ldr	r1, [r3, #112]	; 0x70
   806be:	4311      	orrs	r1, r2
   806c0:	6719      	str	r1, [r3, #112]	; 0x70
   806c2:	605a      	str	r2, [r3, #4]
   806c4:	4770      	bx	lr
   806c6:	6f19      	ldr	r1, [r3, #112]	; 0x70
   806c8:	ea21 0102 	bic.w	r1, r1, r2
   806cc:	e7f8      	b.n	806c0 <_ZL22hal_uart_configure_pinRK10HalUartPin+0x28>
   806ce:	bf00      	nop
   806d0:	400e0600 	.word	0x400e0600

000806d4 <_Z14hal_uart_begin9HalUartIdm12HalUartFrame>:
   806d4:	2803      	cmp	r0, #3
   806d6:	e92d 43f8 	stmdb	sp!, {r3, r4, r5, r6, r7, r8, r9, lr}
   806da:	4606      	mov	r6, r0
   806dc:	460f      	mov	r7, r1
   806de:	4615      	mov	r5, r2
   806e0:	d83b      	bhi.n	8075a <_Z14hal_uart_begin9HalUartIdm12HalUartFrame+0x86>
   806e2:	2430      	movs	r4, #48	; 0x30
   806e4:	4344      	muls	r4, r0
   806e6:	f8df 80ac 	ldr.w	r8, [pc, #172]	; 80794 <_Z14hal_uart_begin9HalUartIdm12HalUartFrame+0xc0>
   806ea:	f104 0010 	add.w	r0, r4, #16
   806ee:	4440      	add	r0, r8
   806f0:	f8df 90a4 	ldr.w	r9, [pc, #164]	; 80798 <_Z14hal_uart_begin9HalUartIdm12HalUartFrame+0xc4>
   806f4:	47c8      	blx	r9
   806f6:	f104 0020 	add.w	r0, r4, #32
   806fa:	4440      	add	r0, r8
   806fc:	47c8      	blx	r9
   806fe:	2301      	movs	r3, #1
   80700:	4444      	add	r4, r8
   80702:	68e2      	ldr	r2, [r4, #12]
   80704:	4921      	ldr	r1, [pc, #132]	; (8078c <_Z14hal_uart_begin9HalUartIdm12HalUartFrame+0xb8>)
   80706:	2a1f      	cmp	r2, #31
   80708:	bf8b      	itete	hi
   8070a:	3a20      	subhi	r2, #32
   8070c:	4093      	lslls	r3, r2
   8070e:	4093      	lslhi	r3, r2
   80710:	610b      	strls	r3, [r1, #16]
   80712:	bf88      	it	hi
   80714:	f8c1 3100 	strhi.w	r3, [r1, #256]	; 0x100
   80718:	b30f      	cbz	r7, 8075e <_Z14hal_uart_begin9HalUartIdm12HalUartFrame+0x8a>
   8071a:	4b1d      	ldr	r3, [pc, #116]	; (80790 <_Z14hal_uart_begin9HalUartIdm12HalUartFrame+0xbc>)
   8071c:	013f      	lsls	r7, r7, #4
   8071e:	6819      	ldr	r1, [r3, #0]
   80720:	fbb1 f1f7 	udiv	r1, r1, r7
   80724:	2900      	cmp	r1, #0
   80726:	bf08      	it	eq
   80728:	2101      	moveq	r1, #1
   8072a:	2330      	movs	r3, #48	; 0x30
   8072c:	435e      	muls	r6, r3
   8072e:	f818 0006 	ldrb.w	r0, [r8, r6]
   80732:	eb08 0306 	add.w	r3, r8, r6
   80736:	f04f 32ff 	mov.w	r2, #4294967295
   8073a:	b9a8      	cbnz	r0, 80768 <_Z14hal_uart_begin9HalUartIdm12HalUartFrame+0x94>
   8073c:	20ac      	movs	r0, #172	; 0xac
   8073e:	685b      	ldr	r3, [r3, #4]
   80740:	2d01      	cmp	r5, #1
   80742:	6018      	str	r0, [r3, #0]
   80744:	60da      	str	r2, [r3, #12]
   80746:	d00c      	beq.n	80762 <_Z14hal_uart_begin9HalUartIdm12HalUartFrame+0x8e>
   80748:	2d02      	cmp	r5, #2
   8074a:	bf0c      	ite	eq
   8074c:	2200      	moveq	r2, #0
   8074e:	f44f 6200 	movne.w	r2, #2048	; 0x800
   80752:	605a      	str	r2, [r3, #4]
   80754:	2250      	movs	r2, #80	; 0x50
   80756:	6219      	str	r1, [r3, #32]
   80758:	601a      	str	r2, [r3, #0]
   8075a:	e8bd 83f8 	ldmia.w	sp!, {r3, r4, r5, r6, r7, r8, r9, pc}
   8075e:	2101      	movs	r1, #1
   80760:	e7e3      	b.n	8072a <_Z14hal_uart_begin9HalUartIdm12HalUartFrame+0x56>
   80762:	f44f 7200 	mov.w	r2, #512	; 0x200
   80766:	e7f4      	b.n	80752 <_Z14hal_uart_begin9HalUartIdm12HalUartFrame+0x7e>
   80768:	f44f 70d6 	mov.w	r0, #428	; 0x1ac
   8076c:	689b      	ldr	r3, [r3, #8]
   8076e:	2d01      	cmp	r5, #1
   80770:	6018      	str	r0, [r3, #0]
   80772:	60da      	str	r2, [r3, #12]
   80774:	d007      	beq.n	80786 <_Z14hal_uart_begin9HalUartIdm12HalUartFrame+0xb2>
   80776:	2d02      	cmp	r5, #2
   80778:	bf0c      	ite	eq
   8077a:	2200      	moveq	r2, #0
   8077c:	f44f 6200 	movne.w	r2, #2048	; 0x800
   80780:	f042 02c0 	orr.w	r2, r2, #192	; 0xc0
   80784:	e7e5      	b.n	80752 <_Z14hal_uart_begin9HalUartIdm12HalUartFrame+0x7e>
   80786:	f44f 7200 	mov.w	r2, #512	; 0x200
   8078a:	e7f9      	b.n	80780 <_Z14hal_uart_begin9HalUartIdm12HalUartFrame+0xac>
   8078c:	400e0600 	.word	0x400e0600
   80790:	20000004 	.word	0x20000004
   80794:	00081c8c 	.word	0x00081c8c
   80798:	00080699 	.word	0x00080699

0008079c <_Z14hal_uart_write9HalUartIdh>:
   8079c:	2803      	cmp	r0, #3
   8079e:	d812      	bhi.n	807c6 <_Z14hal_uart_write9HalUartIdh+0x2a>
   807a0:	2330      	movs	r3, #48	; 0x30
   807a2:	4358      	muls	r0, r3
   807a4:	4a08      	ldr	r2, [pc, #32]	; (807c8 <_Z14hal_uart_write9HalUartIdh+0x2c>)
   807a6:	1813      	adds	r3, r2, r0
   807a8:	5c12      	ldrb	r2, [r2, r0]
   807aa:	b92a      	cbnz	r2, 807b8 <_Z14hal_uart_write9HalUartIdh+0x1c>
   807ac:	685b      	ldr	r3, [r3, #4]
   807ae:	695a      	ldr	r2, [r3, #20]
   807b0:	0790      	lsls	r0, r2, #30
   807b2:	d407      	bmi.n	807c4 <_Z14hal_uart_write9HalUartIdh+0x28>
   807b4:	bf00      	nop
   807b6:	e7fa      	b.n	807ae <_Z14hal_uart_write9HalUartIdh+0x12>
   807b8:	689b      	ldr	r3, [r3, #8]
   807ba:	695a      	ldr	r2, [r3, #20]
   807bc:	0792      	lsls	r2, r2, #30
   807be:	d401      	bmi.n	807c4 <_Z14hal_uart_write9HalUartIdh+0x28>
   807c0:	bf00      	nop
   807c2:	e7fa      	b.n	807ba <_Z14hal_uart_write9HalUartIdh+0x1e>
   807c4:	61d9      	str	r1, [r3, #28]
   807c6:	4770      	bx	lr
   807c8:	00081c8c 	.word	0x00081c8c

000807cc <_ZL17usb_wait_for_flagPVmm>:
   807cc:	4b06      	ldr	r3, [pc, #24]	; (807e8 <_ZL17usb_wait_for_flagPVmm+0x1c>)
   807ce:	6802      	ldr	r2, [r0, #0]
   807d0:	420a      	tst	r2, r1
   807d2:	d107      	bne.n	807e4 <_ZL17usb_wait_for_flagPVmm+0x18>
   807d4:	bf00      	nop
   807d6:	3b01      	subs	r3, #1
   807d8:	d1f9      	bne.n	807ce <_ZL17usb_wait_for_flagPVmm+0x2>
   807da:	2101      	movs	r1, #1
   807dc:	4a03      	ldr	r2, [pc, #12]	; (807ec <_ZL17usb_wait_for_flagPVmm+0x20>)
   807de:	4618      	mov	r0, r3
   807e0:	6011      	str	r1, [r2, #0]
   807e2:	4770      	bx	lr
   807e4:	2001      	movs	r0, #1
   807e6:	4770      	bx	lr
   807e8:	000186a0 	.word	0x000186a0
   807ec:	2000087c 	.word	0x2000087c

000807f0 <_ZL22usb_configure_endpointmm>:
   807f0:	0083      	lsls	r3, r0, #2
   807f2:	f103 4380 	add.w	r3, r3, #1073741824	; 0x40000000
   807f6:	f503 232c 	add.w	r3, r3, #704512	; 0xac000
   807fa:	b510      	push	{r4, lr}
   807fc:	f8c3 1100 	str.w	r1, [r3, #256]	; 0x100
   80800:	2101      	movs	r1, #1
   80802:	4a09      	ldr	r2, [pc, #36]	; (80828 <_ZL22usb_configure_endpointmm+0x38>)
   80804:	fa01 f000 	lsl.w	r0, r1, r0
   80808:	69d4      	ldr	r4, [r2, #28]
   8080a:	4320      	orrs	r0, r4
   8080c:	61d0      	str	r0, [r2, #28]
   8080e:	f8d3 2100 	ldr.w	r2, [r3, #256]	; 0x100
   80812:	f042 0202 	orr.w	r2, r2, #2
   80816:	f8c3 2100 	str.w	r2, [r3, #256]	; 0x100
   8081a:	f8d3 3130 	ldr.w	r3, [r3, #304]	; 0x130
   8081e:	035b      	lsls	r3, r3, #13
   80820:	bf5c      	itt	pl
   80822:	4b02      	ldrpl	r3, [pc, #8]	; (8082c <_ZL22usb_configure_endpointmm+0x3c>)
   80824:	6019      	strpl	r1, [r3, #0]
   80826:	bd10      	pop	{r4, pc}
   80828:	400ac000 	.word	0x400ac000
   8082c:	2000087c 	.word	0x2000087c

00080830 <_ZL18usb_init_endpointsv>:
   80830:	b538      	push	{r3, r4, r5, lr}
   80832:	2132      	movs	r1, #50	; 0x32
   80834:	4c0b      	ldr	r4, [pc, #44]	; (80864 <_ZL18usb_init_endpointsv+0x34>)
   80836:	2000      	movs	r0, #0
   80838:	47a0      	blx	r4
   8083a:	2304      	movs	r3, #4
   8083c:	4d0a      	ldr	r5, [pc, #40]	; (80868 <_ZL18usb_init_endpointsv+0x38>)
   8083e:	f641 1132 	movw	r1, #6450	; 0x1932
   80842:	f8c5 31f0 	str.w	r3, [r5, #496]	; 0x1f0
   80846:	2001      	movs	r0, #1
   80848:	47a0      	blx	r4
   8084a:	f241 0166 	movw	r1, #4198	; 0x1066
   8084e:	2002      	movs	r0, #2
   80850:	47a0      	blx	r4
   80852:	f241 1166 	movw	r1, #4454	; 0x1166
   80856:	2003      	movs	r0, #3
   80858:	47a0      	blx	r4
   8085a:	2302      	movs	r3, #2
   8085c:	f8c5 31f8 	str.w	r3, [r5, #504]	; 0x1f8
   80860:	bd38      	pop	{r3, r4, r5, pc}
   80862:	bf00      	nop
   80864:	000807f1 	.word	0x000807f1
   80868:	400ac000 	.word	0x400ac000

0008086c <_ZL9usb_send8mh.constprop.1>:
   8086c:	4a05      	ldr	r2, [pc, #20]	; (80884 <_ZL9usb_send8mh.constprop.1+0x18>)
   8086e:	6853      	ldr	r3, [r2, #4]
   80870:	f103 5300 	add.w	r3, r3, #536870912	; 0x20000000
   80874:	f503 13c0 	add.w	r3, r3, #1572864	; 0x180000
   80878:	7018      	strb	r0, [r3, #0]
   8087a:	6853      	ldr	r3, [r2, #4]
   8087c:	3301      	adds	r3, #1
   8087e:	6053      	str	r3, [r2, #4]
   80880:	4770      	bx	lr
   80882:	bf00      	nop
   80884:	2000087c 	.word	0x2000087c

00080888 <_ZL8usb_recvmPhm.constprop.2>:
   80888:	2300      	movs	r3, #0
   8088a:	b510      	push	{r4, lr}
   8088c:	4c07      	ldr	r4, [pc, #28]	; (808ac <_ZL8usb_recvmPhm.constprop.2+0x24>)
   8088e:	428b      	cmp	r3, r1
   80890:	6962      	ldr	r2, [r4, #20]
   80892:	d008      	beq.n	808a6 <_ZL8usb_recvmPhm.constprop.2+0x1e>
   80894:	441a      	add	r2, r3
   80896:	f102 5200 	add.w	r2, r2, #536870912	; 0x20000000
   8089a:	f502 12c0 	add.w	r2, r2, #1572864	; 0x180000
   8089e:	7812      	ldrb	r2, [r2, #0]
   808a0:	54c2      	strb	r2, [r0, r3]
   808a2:	3301      	adds	r3, #1
   808a4:	e7f3      	b.n	8088e <_ZL8usb_recvmPhm.constprop.2+0x6>
   808a6:	4413      	add	r3, r2
   808a8:	6163      	str	r3, [r4, #20]
   808aa:	bd10      	pop	{r4, pc}
   808ac:	2000087c 	.word	0x2000087c

000808b0 <_ZL15usb_ring_acceptv>:
   808b0:	b570      	push	{r4, r5, r6, lr}
   808b2:	4d16      	ldr	r5, [pc, #88]	; (8090c <_ZL15usb_ring_acceptv+0x5c>)
   808b4:	4b16      	ldr	r3, [pc, #88]	; (80910 <_ZL15usb_ring_acceptv+0x60>)
   808b6:	4628      	mov	r0, r5
   808b8:	f8d5 2138 	ldr.w	r2, [r5, #312]	; 0x138
   808bc:	f3c2 520a 	ubfx	r2, r2, #20, #11
   808c0:	b1aa      	cbz	r2, 808ee <_ZL15usb_ring_acceptv+0x3e>
   808c2:	6a5a      	ldr	r2, [r3, #36]	; 0x24
   808c4:	6a99      	ldr	r1, [r3, #40]	; 0x28
   808c6:	3201      	adds	r2, #1
   808c8:	f3c2 0208 	ubfx	r2, r2, #0, #9
   808cc:	428a      	cmp	r2, r1
   808ce:	d00e      	beq.n	808ee <_ZL15usb_ring_acceptv+0x3e>
   808d0:	6a5c      	ldr	r4, [r3, #36]	; 0x24
   808d2:	69d9      	ldr	r1, [r3, #28]
   808d4:	f101 5100 	add.w	r1, r1, #536870912	; 0x20000000
   808d8:	f501 11c8 	add.w	r1, r1, #1638400	; 0x190000
   808dc:	780e      	ldrb	r6, [r1, #0]
   808de:	69d9      	ldr	r1, [r3, #28]
   808e0:	3101      	adds	r1, #1
   808e2:	61d9      	str	r1, [r3, #28]
   808e4:	1919      	adds	r1, r3, r4
   808e6:	f881 602c 	strb.w	r6, [r1, #44]	; 0x2c
   808ea:	625a      	str	r2, [r3, #36]	; 0x24
   808ec:	e7e4      	b.n	808b8 <_ZL15usb_ring_acceptv+0x8>
   808ee:	f8d0 3138 	ldr.w	r3, [r0, #312]	; 0x138
   808f2:	f3c3 530a 	ubfx	r3, r3, #20, #11
   808f6:	b943      	cbnz	r3, 8090a <_ZL15usb_ring_acceptv+0x5a>
   808f8:	2202      	movs	r2, #2
   808fa:	f8c0 2168 	str.w	r2, [r0, #360]	; 0x168
   808fe:	f44f 4280 	mov.w	r2, #16384	; 0x4000
   80902:	f8c0 2228 	str.w	r2, [r0, #552]	; 0x228
   80906:	4a02      	ldr	r2, [pc, #8]	; (80910 <_ZL15usb_ring_acceptv+0x60>)
   80908:	61d3      	str	r3, [r2, #28]
   8090a:	bd70      	pop	{r4, r5, r6, pc}
   8090c:	400ac000 	.word	0x400ac000
   80910:	2000087c 	.word	0x2000087c

00080914 <_ZL8usb_sendmPKvm>:
   80914:	2800      	cmp	r0, #0
   80916:	e92d 4ff0 	stmdb	sp!, {r4, r5, r6, r7, r8, r9, sl, fp, lr}
   8091a:	4606      	mov	r6, r0
   8091c:	468b      	mov	fp, r1
   8091e:	bf0c      	ite	eq
   80920:	f04f 0840 	moveq.w	r8, #64	; 0x40
   80924:	f44f 7800 	movne.w	r8, #512	; 0x200
   80928:	2400      	movs	r4, #0
   8092a:	f500 4380 	add.w	r3, r0, #16384	; 0x4000
   8092e:	3330      	adds	r3, #48	; 0x30
   80930:	b085      	sub	sp, #20
   80932:	03db      	lsls	r3, r3, #15
   80934:	f8df 909c 	ldr.w	r9, [pc, #156]	; 809d4 <_ZL8usb_sendmPKvm+0xc0>
   80938:	f8df a09c 	ldr.w	sl, [pc, #156]	; 809d8 <_ZL8usb_sendmPKvm+0xc4>
   8093c:	9302      	str	r3, [sp, #8]
   8093e:	0083      	lsls	r3, r0, #2
   80940:	9301      	str	r3, [sp, #4]
   80942:	4499      	add	r9, r3
   80944:	eb0a 0503 	add.w	r5, sl, r3
   80948:	4294      	cmp	r4, r2
   8094a:	9203      	str	r2, [sp, #12]
   8094c:	d23b      	bcs.n	809c6 <_ZL8usb_sendmPKvm+0xb2>
   8094e:	2101      	movs	r1, #1
   80950:	4648      	mov	r0, r9
   80952:	4b1f      	ldr	r3, [pc, #124]	; (809d0 <_ZL8usb_sendmPKvm+0xbc>)
   80954:	4798      	blx	r3
   80956:	b3b0      	cbz	r0, 809c6 <_ZL8usb_sendmPKvm+0xb2>
   80958:	9a03      	ldr	r2, [sp, #12]
   8095a:	1b13      	subs	r3, r2, r4
   8095c:	b9ae      	cbnz	r6, 8098a <_ZL8usb_sendmPKvm+0x76>
   8095e:	f8da 1004 	ldr.w	r1, [sl, #4]
   80962:	eba8 0101 	sub.w	r1, r8, r1
   80966:	428b      	cmp	r3, r1
   80968:	bf28      	it	cs
   8096a:	460b      	movcs	r3, r1
   8096c:	2100      	movs	r1, #0
   8096e:	eb0b 0c04 	add.w	ip, fp, r4
   80972:	428b      	cmp	r3, r1
   80974:	d00f      	beq.n	80996 <_ZL8usb_sendmPKvm+0x82>
   80976:	6868      	ldr	r0, [r5, #4]
   80978:	f81c e001 	ldrb.w	lr, [ip, r1]
   8097c:	4408      	add	r0, r1
   8097e:	4607      	mov	r7, r0
   80980:	9802      	ldr	r0, [sp, #8]
   80982:	3101      	adds	r1, #1
   80984:	f800 e007 	strb.w	lr, [r0, r7]
   80988:	e7f3      	b.n	80972 <_ZL8usb_sendmPKvm+0x5e>
   8098a:	2100      	movs	r1, #0
   8098c:	4543      	cmp	r3, r8
   8098e:	6069      	str	r1, [r5, #4]
   80990:	bf28      	it	cs
   80992:	4643      	movcs	r3, r8
   80994:	e7ea      	b.n	8096c <_ZL8usb_sendmPKvm+0x58>
   80996:	6869      	ldr	r1, [r5, #4]
   80998:	441c      	add	r4, r3
   8099a:	4419      	add	r1, r3
   8099c:	6069      	str	r1, [r5, #4]
   8099e:	b91e      	cbnz	r6, 809a8 <_ZL8usb_sendmPKvm+0x94>
   809a0:	f8da 3004 	ldr.w	r3, [sl, #4]
   809a4:	4598      	cmp	r8, r3
   809a6:	d1cf      	bne.n	80948 <_ZL8usb_sendmPKvm+0x34>
   809a8:	2101      	movs	r1, #1
   809aa:	9b01      	ldr	r3, [sp, #4]
   809ac:	f103 4380 	add.w	r3, r3, #1073741824	; 0x40000000
   809b0:	f503 232c 	add.w	r3, r3, #704512	; 0xac000
   809b4:	f8c3 1160 	str.w	r1, [r3, #352]	; 0x160
   809b8:	f44f 4180 	mov.w	r1, #16384	; 0x4000
   809bc:	f8c3 1220 	str.w	r1, [r3, #544]	; 0x220
   809c0:	2300      	movs	r3, #0
   809c2:	606b      	str	r3, [r5, #4]
   809c4:	e7c0      	b.n	80948 <_ZL8usb_sendmPKvm+0x34>
   809c6:	4620      	mov	r0, r4
   809c8:	b005      	add	sp, #20
   809ca:	e8bd 8ff0 	ldmia.w	sp!, {r4, r5, r6, r7, r8, r9, sl, fp, pc}
   809ce:	bf00      	nop
   809d0:	000807cd 	.word	0x000807cd
   809d4:	400ac130 	.word	0x400ac130
   809d8:	2000087c 	.word	0x2000087c

000809dc <_ZL26usb_send_string_descriptorPKct>:
   809dc:	b530      	push	{r4, r5, lr}
   809de:	b091      	sub	sp, #68	; 0x44
   809e0:	b1e8      	cbz	r0, 80a1e <_ZL26usb_send_string_descriptorPKct+0x42>
   809e2:	2901      	cmp	r1, #1
   809e4:	d91d      	bls.n	80a22 <_ZL26usb_send_string_descriptorPKct+0x46>
   809e6:	2202      	movs	r2, #2
   809e8:	2400      	movs	r4, #0
   809ea:	3801      	subs	r0, #1
   809ec:	f810 3f01 	ldrb.w	r3, [r0, #1]!
   809f0:	b163      	cbz	r3, 80a0c <_ZL26usb_send_string_descriptorPKct+0x30>
   809f2:	2a40      	cmp	r2, #64	; 0x40
   809f4:	d00a      	beq.n	80a0c <_ZL26usb_send_string_descriptorPKct+0x30>
   809f6:	1c55      	adds	r5, r2, #1
   809f8:	42a9      	cmp	r1, r5
   809fa:	d907      	bls.n	80a0c <_ZL26usb_send_string_descriptorPKct+0x30>
   809fc:	f80d 3002 	strb.w	r3, [sp, r2]
   80a00:	3202      	adds	r2, #2
   80a02:	eb0d 0302 	add.w	r3, sp, r2
   80a06:	f803 4c01 	strb.w	r4, [r3, #-1]
   80a0a:	e7ef      	b.n	809ec <_ZL26usb_send_string_descriptorPKct+0x10>
   80a0c:	2303      	movs	r3, #3
   80a0e:	4669      	mov	r1, sp
   80a10:	f88d 3001 	strb.w	r3, [sp, #1]
   80a14:	2000      	movs	r0, #0
   80a16:	4b04      	ldr	r3, [pc, #16]	; (80a28 <_ZL26usb_send_string_descriptorPKct+0x4c>)
   80a18:	f88d 2000 	strb.w	r2, [sp]
   80a1c:	4798      	blx	r3
   80a1e:	b011      	add	sp, #68	; 0x44
   80a20:	bd30      	pop	{r4, r5, pc}
   80a22:	2000      	movs	r0, #0
   80a24:	e7fb      	b.n	80a1e <_ZL26usb_send_string_descriptorPKct+0x42>
   80a26:	bf00      	nop
   80a28:	00080915 	.word	0x00080915

00080a2c <UOTGHS_Handler>:
   80a2c:	b570      	push	{r4, r5, r6, lr}
   80a2e:	4cb1      	ldr	r4, [pc, #708]	; (80cf4 <UOTGHS_Handler+0x2c8>)
   80a30:	b096      	sub	sp, #88	; 0x58
   80a32:	6865      	ldr	r5, [r4, #4]
   80a34:	072b      	lsls	r3, r5, #28
   80a36:	d50f      	bpl.n	80a58 <UOTGHS_Handler+0x2c>
   80a38:	6823      	ldr	r3, [r4, #0]
   80a3a:	f023 037f 	bic.w	r3, r3, #127	; 0x7f
   80a3e:	6023      	str	r3, [r4, #0]
   80a40:	6823      	ldr	r3, [r4, #0]
   80a42:	f043 0380 	orr.w	r3, r3, #128	; 0x80
   80a46:	6023      	str	r3, [r4, #0]
   80a48:	4bab      	ldr	r3, [pc, #684]	; (80cf8 <UOTGHS_Handler+0x2cc>)
   80a4a:	4798      	blx	r3
   80a4c:	2200      	movs	r2, #0
   80a4e:	4bab      	ldr	r3, [pc, #684]	; (80cfc <UOTGHS_Handler+0x2d0>)
   80a50:	f8c3 222c 	str.w	r2, [r3, #556]	; 0x22c
   80a54:	2308      	movs	r3, #8
   80a56:	60a3      	str	r3, [r4, #8]
   80a58:	046e      	lsls	r6, r5, #17
   80a5a:	d506      	bpl.n	80a6a <UOTGHS_Handler+0x3e>
   80a5c:	4ba5      	ldr	r3, [pc, #660]	; (80cf4 <UOTGHS_Handler+0x2c8>)
   80a5e:	f8d3 3138 	ldr.w	r3, [r3, #312]	; 0x138
   80a62:	079c      	lsls	r4, r3, #30
   80a64:	d501      	bpl.n	80a6a <UOTGHS_Handler+0x3e>
   80a66:	4ba6      	ldr	r3, [pc, #664]	; (80d00 <UOTGHS_Handler+0x2d4>)
   80a68:	4798      	blx	r3
   80a6a:	04e8      	lsls	r0, r5, #19
   80a6c:	d52e      	bpl.n	80acc <UOTGHS_Handler+0xa0>
   80a6e:	4da1      	ldr	r5, [pc, #644]	; (80cf4 <UOTGHS_Handler+0x2c8>)
   80a70:	f8d5 3130 	ldr.w	r3, [r5, #304]	; 0x130
   80a74:	0759      	lsls	r1, r3, #29
   80a76:	d529      	bpl.n	80acc <UOTGHS_Handler+0xa0>
   80a78:	2108      	movs	r1, #8
   80a7a:	a801      	add	r0, sp, #4
   80a7c:	4ea1      	ldr	r6, [pc, #644]	; (80d04 <UOTGHS_Handler+0x2d8>)
   80a7e:	47b0      	blx	r6
   80a80:	2304      	movs	r3, #4
   80a82:	f8c5 3160 	str.w	r3, [r5, #352]	; 0x160
   80a86:	2300      	movs	r3, #0
   80a88:	f99d 2004 	ldrsb.w	r2, [sp, #4]
   80a8c:	4c9b      	ldr	r4, [pc, #620]	; (80cfc <UOTGHS_Handler+0x2d0>)
   80a8e:	429a      	cmp	r2, r3
   80a90:	6163      	str	r3, [r4, #20]
   80a92:	da1d      	bge.n	80ad0 <UOTGHS_Handler+0xa4>
   80a94:	2101      	movs	r1, #1
   80a96:	489c      	ldr	r0, [pc, #624]	; (80d08 <UOTGHS_Handler+0x2dc>)
   80a98:	4b9c      	ldr	r3, [pc, #624]	; (80d0c <UOTGHS_Handler+0x2e0>)
   80a9a:	4798      	blx	r3
   80a9c:	f89d 3004 	ldrb.w	r3, [sp, #4]
   80aa0:	f013 0560 	ands.w	r5, r3, #96	; 0x60
   80aa4:	f040 80e2 	bne.w	80c6c <UOTGHS_Handler+0x240>
   80aa8:	f89d 1005 	ldrb.w	r1, [sp, #5]
   80aac:	b9c9      	cbnz	r1, 80ae2 <UOTGHS_Handler+0xb6>
   80aae:	4608      	mov	r0, r1
   80ab0:	4d97      	ldr	r5, [pc, #604]	; (80d10 <UOTGHS_Handler+0x2e4>)
   80ab2:	47a8      	blx	r5
   80ab4:	4608      	mov	r0, r1
   80ab6:	47a8      	blx	r5
   80ab8:	2201      	movs	r2, #1
   80aba:	4b8e      	ldr	r3, [pc, #568]	; (80cf4 <UOTGHS_Handler+0x2c8>)
   80abc:	f8c3 2160 	str.w	r2, [r3, #352]	; 0x160
   80ac0:	f44f 4280 	mov.w	r2, #16384	; 0x4000
   80ac4:	f8c3 2220 	str.w	r2, [r3, #544]	; 0x220
   80ac8:	2300      	movs	r3, #0
   80aca:	6063      	str	r3, [r4, #4]
   80acc:	b016      	add	sp, #88	; 0x58
   80ace:	bd70      	pop	{r4, r5, r6, pc}
   80ad0:	2201      	movs	r2, #1
   80ad2:	f8c5 2160 	str.w	r2, [r5, #352]	; 0x160
   80ad6:	f44f 4280 	mov.w	r2, #16384	; 0x4000
   80ada:	f8c5 2220 	str.w	r2, [r5, #544]	; 0x220
   80ade:	6063      	str	r3, [r4, #4]
   80ae0:	e7dc      	b.n	80a9c <UOTGHS_Handler+0x70>
   80ae2:	f001 02fd 	and.w	r2, r1, #253	; 0xfd
   80ae6:	2a01      	cmp	r2, #1
   80ae8:	d103      	bne.n	80af2 <UOTGHS_Handler+0xc6>
   80aea:	4628      	mov	r0, r5
   80aec:	4b88      	ldr	r3, [pc, #544]	; (80d10 <UOTGHS_Handler+0x2e4>)
   80aee:	4798      	blx	r3
   80af0:	e7e2      	b.n	80ab8 <UOTGHS_Handler+0x8c>
   80af2:	2905      	cmp	r1, #5
   80af4:	d110      	bne.n	80b18 <UOTGHS_Handler+0xec>
   80af6:	2101      	movs	r1, #1
   80af8:	4b84      	ldr	r3, [pc, #528]	; (80d0c <UOTGHS_Handler+0x2e0>)
   80afa:	4883      	ldr	r0, [pc, #524]	; (80d08 <UOTGHS_Handler+0x2dc>)
   80afc:	4798      	blx	r3
   80afe:	497d      	ldr	r1, [pc, #500]	; (80cf4 <UOTGHS_Handler+0x2c8>)
   80b00:	f89d 3006 	ldrb.w	r3, [sp, #6]
   80b04:	680a      	ldr	r2, [r1, #0]
   80b06:	f003 037f 	and.w	r3, r3, #127	; 0x7f
   80b0a:	f022 027f 	bic.w	r2, r2, #127	; 0x7f
   80b0e:	f042 0280 	orr.w	r2, r2, #128	; 0x80
   80b12:	4313      	orrs	r3, r2
   80b14:	600b      	str	r3, [r1, #0]
   80b16:	e7cf      	b.n	80ab8 <UOTGHS_Handler+0x8c>
   80b18:	2906      	cmp	r1, #6
   80b1a:	f040 8088 	bne.w	80c2e <UOTGHS_Handler+0x202>
   80b1e:	f89d 3007 	ldrb.w	r3, [sp, #7]
   80b22:	2b02      	cmp	r3, #2
   80b24:	d12c      	bne.n	80b80 <UOTGHS_Handler+0x154>
   80b26:	f88d 300d 	strb.w	r3, [sp, #13]
   80b2a:	f88d 3010 	strb.w	r3, [sp, #16]
   80b2e:	2301      	movs	r3, #1
   80b30:	2209      	movs	r2, #9
   80b32:	f88d 3011 	strb.w	r3, [sp, #17]
   80b36:	23c0      	movs	r3, #192	; 0xc0
   80b38:	f88d 200c 	strb.w	r2, [sp, #12]
   80b3c:	224b      	movs	r2, #75	; 0x4b
   80b3e:	f88d 3013 	strb.w	r3, [sp, #19]
   80b42:	23fa      	movs	r3, #250	; 0xfa
   80b44:	f8ad 200e 	strh.w	r2, [sp, #14]
   80b48:	2242      	movs	r2, #66	; 0x42
   80b4a:	f8bd 600a 	ldrh.w	r6, [sp, #10]
   80b4e:	4971      	ldr	r1, [pc, #452]	; (80d14 <UOTGHS_Handler+0x2e8>)
   80b50:	f88d 5012 	strb.w	r5, [sp, #18]
   80b54:	f88d 3014 	strb.w	r3, [sp, #20]
   80b58:	f10d 0015 	add.w	r0, sp, #21
   80b5c:	4b6e      	ldr	r3, [pc, #440]	; (80d18 <UOTGHS_Handler+0x2ec>)
   80b5e:	4798      	blx	r3
   80b60:	2e4b      	cmp	r6, #75	; 0x4b
   80b62:	4632      	mov	r2, r6
   80b64:	bfa8      	it	ge
   80b66:	224b      	movge	r2, #75	; 0x4b
   80b68:	a903      	add	r1, sp, #12
   80b6a:	2000      	movs	r0, #0
   80b6c:	4b6b      	ldr	r3, [pc, #428]	; (80d1c <UOTGHS_Handler+0x2f0>)
   80b6e:	4798      	blx	r3
   80b70:	2800      	cmp	r0, #0
   80b72:	d1a1      	bne.n	80ab8 <UOTGHS_Handler+0x8c>
   80b74:	f44f 2200 	mov.w	r2, #524288	; 0x80000
   80b78:	4b5e      	ldr	r3, [pc, #376]	; (80cf4 <UOTGHS_Handler+0x2c8>)
   80b7a:	f8c3 21f0 	str.w	r2, [r3, #496]	; 0x1f0
   80b7e:	e7a5      	b.n	80acc <UOTGHS_Handler+0xa0>
   80b80:	2b07      	cmp	r3, #7
   80b82:	d11a      	bne.n	80bba <UOTGHS_Handler+0x18e>
   80b84:	f88d 300d 	strb.w	r3, [sp, #13]
   80b88:	234b      	movs	r3, #75	; 0x4b
   80b8a:	f8ad 300e 	strh.w	r3, [sp, #14]
   80b8e:	2302      	movs	r3, #2
   80b90:	f88d 3010 	strb.w	r3, [sp, #16]
   80b94:	2301      	movs	r3, #1
   80b96:	f88d 3011 	strb.w	r3, [sp, #17]
   80b9a:	23c0      	movs	r3, #192	; 0xc0
   80b9c:	2209      	movs	r2, #9
   80b9e:	f88d 3013 	strb.w	r3, [sp, #19]
   80ba2:	23fa      	movs	r3, #250	; 0xfa
   80ba4:	f88d 200c 	strb.w	r2, [sp, #12]
   80ba8:	f8bd 600a 	ldrh.w	r6, [sp, #10]
   80bac:	f88d 5012 	strb.w	r5, [sp, #18]
   80bb0:	f88d 3014 	strb.w	r3, [sp, #20]
   80bb4:	2242      	movs	r2, #66	; 0x42
   80bb6:	495a      	ldr	r1, [pc, #360]	; (80d20 <UOTGHS_Handler+0x2f4>)
   80bb8:	e7ce      	b.n	80b58 <UOTGHS_Handler+0x12c>
   80bba:	2b01      	cmp	r3, #1
   80bbc:	d112      	bne.n	80be4 <UOTGHS_Handler+0x1b8>
   80bbe:	4a59      	ldr	r2, [pc, #356]	; (80d24 <UOTGHS_Handler+0x2f8>)
   80bc0:	f8d4 0230 	ldr.w	r0, [r4, #560]	; 0x230
   80bc4:	f1a2 0112 	sub.w	r1, r2, #18
   80bc8:	2800      	cmp	r0, #0
   80bca:	bf08      	it	eq
   80bcc:	4611      	moveq	r1, r2
   80bce:	f8bd 200a 	ldrh.w	r2, [sp, #10]
   80bd2:	2a08      	cmp	r2, #8
   80bd4:	d102      	bne.n	80bdc <UOTGHS_Handler+0x1b0>
   80bd6:	f8c4 3230 	str.w	r3, [r4, #560]	; 0x230
   80bda:	e7c6      	b.n	80b6a <UOTGHS_Handler+0x13e>
   80bdc:	2a12      	cmp	r2, #18
   80bde:	bfa8      	it	ge
   80be0:	2212      	movge	r2, #18
   80be2:	e7c2      	b.n	80b6a <UOTGHS_Handler+0x13e>
   80be4:	2b06      	cmp	r3, #6
   80be6:	d106      	bne.n	80bf6 <UOTGHS_Handler+0x1ca>
   80be8:	f8bd 200a 	ldrh.w	r2, [sp, #10]
   80bec:	494e      	ldr	r1, [pc, #312]	; (80d28 <UOTGHS_Handler+0x2fc>)
   80bee:	2a0a      	cmp	r2, #10
   80bf0:	bfa8      	it	ge
   80bf2:	220a      	movge	r2, #10
   80bf4:	e7b9      	b.n	80b6a <UOTGHS_Handler+0x13e>
   80bf6:	2b03      	cmp	r3, #3
   80bf8:	d1bc      	bne.n	80b74 <UOTGHS_Handler+0x148>
   80bfa:	f89d 0006 	ldrb.w	r0, [sp, #6]
   80bfe:	b910      	cbnz	r0, 80c06 <UOTGHS_Handler+0x1da>
   80c00:	2204      	movs	r2, #4
   80c02:	494a      	ldr	r1, [pc, #296]	; (80d2c <UOTGHS_Handler+0x300>)
   80c04:	e7b2      	b.n	80b6c <UOTGHS_Handler+0x140>
   80c06:	2801      	cmp	r0, #1
   80c08:	d105      	bne.n	80c16 <UOTGHS_Handler+0x1ea>
   80c0a:	f8bd 100a 	ldrh.w	r1, [sp, #10]
   80c0e:	4848      	ldr	r0, [pc, #288]	; (80d30 <UOTGHS_Handler+0x304>)
   80c10:	4b48      	ldr	r3, [pc, #288]	; (80d34 <UOTGHS_Handler+0x308>)
   80c12:	4798      	blx	r3
   80c14:	e7ac      	b.n	80b70 <UOTGHS_Handler+0x144>
   80c16:	2802      	cmp	r0, #2
   80c18:	d103      	bne.n	80c22 <UOTGHS_Handler+0x1f6>
   80c1a:	f8bd 100a 	ldrh.w	r1, [sp, #10]
   80c1e:	4846      	ldr	r0, [pc, #280]	; (80d38 <UOTGHS_Handler+0x30c>)
   80c20:	e7f6      	b.n	80c10 <UOTGHS_Handler+0x1e4>
   80c22:	2803      	cmp	r0, #3
   80c24:	d1a6      	bne.n	80b74 <UOTGHS_Handler+0x148>
   80c26:	f8bd 100a 	ldrh.w	r1, [sp, #10]
   80c2a:	4844      	ldr	r0, [pc, #272]	; (80d3c <UOTGHS_Handler+0x310>)
   80c2c:	e7f0      	b.n	80c10 <UOTGHS_Handler+0x1e4>
   80c2e:	2907      	cmp	r1, #7
   80c30:	d0a0      	beq.n	80b74 <UOTGHS_Handler+0x148>
   80c32:	2908      	cmp	r1, #8
   80c34:	d103      	bne.n	80c3e <UOTGHS_Handler+0x212>
   80c36:	f8d4 022c 	ldr.w	r0, [r4, #556]	; 0x22c
   80c3a:	b2c0      	uxtb	r0, r0
   80c3c:	e756      	b.n	80aec <UOTGHS_Handler+0xc0>
   80c3e:	2909      	cmp	r1, #9
   80c40:	d108      	bne.n	80c54 <UOTGHS_Handler+0x228>
   80c42:	06da      	lsls	r2, r3, #27
   80c44:	d196      	bne.n	80b74 <UOTGHS_Handler+0x148>
   80c46:	4b2c      	ldr	r3, [pc, #176]	; (80cf8 <UOTGHS_Handler+0x2cc>)
   80c48:	4798      	blx	r3
   80c4a:	f89d 3006 	ldrb.w	r3, [sp, #6]
   80c4e:	f8c4 322c 	str.w	r3, [r4, #556]	; 0x22c
   80c52:	e731      	b.n	80ab8 <UOTGHS_Handler+0x8c>
   80c54:	290a      	cmp	r1, #10
   80c56:	d102      	bne.n	80c5e <UOTGHS_Handler+0x232>
   80c58:	f8d4 0234 	ldr.w	r0, [r4, #564]	; 0x234
   80c5c:	e7ed      	b.n	80c3a <UOTGHS_Handler+0x20e>
   80c5e:	290b      	cmp	r1, #11
   80c60:	d188      	bne.n	80b74 <UOTGHS_Handler+0x148>
   80c62:	f89d 3006 	ldrb.w	r3, [sp, #6]
   80c66:	f8c4 3234 	str.w	r3, [r4, #564]	; 0x234
   80c6a:	e725      	b.n	80ab8 <UOTGHS_Handler+0x8c>
   80c6c:	2ba1      	cmp	r3, #161	; 0xa1
   80c6e:	d11c      	bne.n	80caa <UOTGHS_Handler+0x27e>
   80c70:	f89d 3005 	ldrb.w	r3, [sp, #5]
   80c74:	2b21      	cmp	r3, #33	; 0x21
   80c76:	f47f af7d 	bne.w	80b74 <UOTGHS_Handler+0x148>
   80c7a:	4b31      	ldr	r3, [pc, #196]	; (80d40 <UOTGHS_Handler+0x314>)
   80c7c:	a903      	add	r1, sp, #12
   80c7e:	681a      	ldr	r2, [r3, #0]
   80c80:	2000      	movs	r0, #0
   80c82:	9203      	str	r2, [sp, #12]
   80c84:	791a      	ldrb	r2, [r3, #4]
   80c86:	f88d 2010 	strb.w	r2, [sp, #16]
   80c8a:	795a      	ldrb	r2, [r3, #5]
   80c8c:	f88d 2011 	strb.w	r2, [sp, #17]
   80c90:	799a      	ldrb	r2, [r3, #6]
   80c92:	79db      	ldrb	r3, [r3, #7]
   80c94:	f88d 2012 	strb.w	r2, [sp, #18]
   80c98:	f88d 3013 	strb.w	r3, [sp, #19]
   80c9c:	2207      	movs	r2, #7
   80c9e:	4b1f      	ldr	r3, [pc, #124]	; (80d1c <UOTGHS_Handler+0x2f0>)
   80ca0:	4798      	blx	r3
   80ca2:	2807      	cmp	r0, #7
   80ca4:	f47f af66 	bne.w	80b74 <UOTGHS_Handler+0x148>
   80ca8:	e706      	b.n	80ab8 <UOTGHS_Handler+0x8c>
   80caa:	2b21      	cmp	r3, #33	; 0x21
   80cac:	f47f af62 	bne.w	80b74 <UOTGHS_Handler+0x148>
   80cb0:	f89d 3005 	ldrb.w	r3, [sp, #5]
   80cb4:	2b20      	cmp	r3, #32
   80cb6:	d145      	bne.n	80d44 <UOTGHS_Handler+0x318>
   80cb8:	2102      	movs	r1, #2
   80cba:	4813      	ldr	r0, [pc, #76]	; (80d08 <UOTGHS_Handler+0x2dc>)
   80cbc:	4b13      	ldr	r3, [pc, #76]	; (80d0c <UOTGHS_Handler+0x2e0>)
   80cbe:	4798      	blx	r3
   80cc0:	2800      	cmp	r0, #0
   80cc2:	f43f af57 	beq.w	80b74 <UOTGHS_Handler+0x148>
   80cc6:	2107      	movs	r1, #7
   80cc8:	a803      	add	r0, sp, #12
   80cca:	47b0      	blx	r6
   80ccc:	2202      	movs	r2, #2
   80cce:	4b09      	ldr	r3, [pc, #36]	; (80cf4 <UOTGHS_Handler+0x2c8>)
   80cd0:	f8c3 2160 	str.w	r2, [r3, #352]	; 0x160
   80cd4:	2300      	movs	r3, #0
   80cd6:	9a03      	ldr	r2, [sp, #12]
   80cd8:	6163      	str	r3, [r4, #20]
   80cda:	4b19      	ldr	r3, [pc, #100]	; (80d40 <UOTGHS_Handler+0x314>)
   80cdc:	601a      	str	r2, [r3, #0]
   80cde:	f89d 2010 	ldrb.w	r2, [sp, #16]
   80ce2:	711a      	strb	r2, [r3, #4]
   80ce4:	f89d 2011 	ldrb.w	r2, [sp, #17]
   80ce8:	715a      	strb	r2, [r3, #5]
   80cea:	f89d 2012 	ldrb.w	r2, [sp, #18]
   80cee:	719a      	strb	r2, [r3, #6]
   80cf0:	e6e2      	b.n	80ab8 <UOTGHS_Handler+0x8c>
   80cf2:	bf00      	nop
   80cf4:	400ac000 	.word	0x400ac000
   80cf8:	00080831 	.word	0x00080831
   80cfc:	2000087c 	.word	0x2000087c
   80d00:	000808b1 	.word	0x000808b1
   80d04:	00080889 	.word	0x00080889
   80d08:	400ac130 	.word	0x400ac130
   80d0c:	000807cd 	.word	0x000807cd
   80d10:	0008086d 	.word	0x0008086d
   80d14:	00081d70 	.word	0x00081d70
   80d18:	000816d5 	.word	0x000816d5
   80d1c:	00080915 	.word	0x00080915
   80d20:	00081db2 	.word	0x00081db2
   80d24:	00081d5e 	.word	0x00081d5e
   80d28:	00081df4 	.word	0x00081df4
   80d2c:	00081dfd 	.word	0x00081dfd
   80d30:	00081e01 	.word	0x00081e01
   80d34:	000809dd 	.word	0x000809dd
   80d38:	00081e06 	.word	0x00081e06
   80d3c:	00081e10 	.word	0x00081e10
   80d40:	2000000c 	.word	0x2000000c
   80d44:	2b22      	cmp	r3, #34	; 0x22
   80d46:	d112      	bne.n	80d6e <UOTGHS_Handler+0x342>
   80d48:	f89d 2006 	ldrb.w	r2, [sp, #6]
   80d4c:	4b0c      	ldr	r3, [pc, #48]	; (80d80 <UOTGHS_Handler+0x354>)
   80d4e:	71da      	strb	r2, [r3, #7]
   80d50:	681a      	ldr	r2, [r3, #0]
   80d52:	f5b2 6f96 	cmp.w	r2, #1200	; 0x4b0
   80d56:	f47f aeaf 	bne.w	80ab8 <UOTGHS_Handler+0x8c>
   80d5a:	79db      	ldrb	r3, [r3, #7]
   80d5c:	07db      	lsls	r3, r3, #31
   80d5e:	d403      	bmi.n	80d68 <UOTGHS_Handler+0x33c>
   80d60:	20fa      	movs	r0, #250	; 0xfa
   80d62:	4b08      	ldr	r3, [pc, #32]	; (80d84 <UOTGHS_Handler+0x358>)
   80d64:	4798      	blx	r3
   80d66:	e6a7      	b.n	80ab8 <UOTGHS_Handler+0x8c>
   80d68:	4b07      	ldr	r3, [pc, #28]	; (80d88 <UOTGHS_Handler+0x35c>)
   80d6a:	4798      	blx	r3
   80d6c:	e6a4      	b.n	80ab8 <UOTGHS_Handler+0x8c>
   80d6e:	2b23      	cmp	r3, #35	; 0x23
   80d70:	f47f af00 	bne.w	80b74 <UOTGHS_Handler+0x148>
   80d74:	f8bd 2006 	ldrh.w	r2, [sp, #6]
   80d78:	4b01      	ldr	r3, [pc, #4]	; (80d80 <UOTGHS_Handler+0x354>)
   80d7a:	609a      	str	r2, [r3, #8]
   80d7c:	e69c      	b.n	80ab8 <UOTGHS_Handler+0x8c>
   80d7e:	bf00      	nop
   80d80:	2000000c 	.word	0x2000000c
   80d84:	000804cd 	.word	0x000804cd
   80d88:	000804dd 	.word	0x000804dd

00080d8c <_Z17hal_usb_cdc_beginv>:
   80d8c:	b570      	push	{r4, r5, r6, lr}
   80d8e:	4c2d      	ldr	r4, [pc, #180]	; (80e44 <_Z17hal_usb_cdc_beginv+0xb8>)
   80d90:	f8d4 3238 	ldr.w	r3, [r4, #568]	; 0x238
   80d94:	2b00      	cmp	r3, #0
   80d96:	d14e      	bne.n	80e36 <_Z17hal_usb_cdc_beginv+0xaa>
   80d98:	f44f 7280 	mov.w	r2, #256	; 0x100
   80d9c:	6063      	str	r3, [r4, #4]
   80d9e:	6163      	str	r3, [r4, #20]
   80da0:	60a3      	str	r3, [r4, #8]
   80da2:	61a3      	str	r3, [r4, #24]
   80da4:	60e3      	str	r3, [r4, #12]
   80da6:	61e3      	str	r3, [r4, #28]
   80da8:	6123      	str	r3, [r4, #16]
   80daa:	6223      	str	r3, [r4, #32]
   80dac:	6263      	str	r3, [r4, #36]	; 0x24
   80dae:	62a3      	str	r3, [r4, #40]	; 0x28
   80db0:	6023      	str	r3, [r4, #0]
   80db2:	f8c4 322c 	str.w	r3, [r4, #556]	; 0x22c
   80db6:	4b24      	ldr	r3, [pc, #144]	; (80e48 <_Z17hal_usb_cdc_beginv+0xbc>)
   80db8:	f8c3 2100 	str.w	r2, [r3, #256]	; 0x100
   80dbc:	f44f 1244 	mov.w	r2, #3211264	; 0x310000
   80dc0:	61da      	str	r2, [r3, #28]
   80dc2:	6e9a      	ldr	r2, [r3, #104]	; 0x68
   80dc4:	0652      	lsls	r2, r2, #25
   80dc6:	d5fc      	bpl.n	80dc2 <_Z17hal_usb_cdc_beginv+0x36>
   80dc8:	2601      	movs	r6, #1
   80dca:	4d20      	ldr	r5, [pc, #128]	; (80e4c <_Z17hal_usb_cdc_beginv+0xc0>)
   80dcc:	639e      	str	r6, [r3, #56]	; 0x38
   80dce:	f8d5 3800 	ldr.w	r3, [r5, #2048]	; 0x800
   80dd2:	f44f 4180 	mov.w	r1, #16384	; 0x4000
   80dd6:	f043 7300 	orr.w	r3, r3, #33554432	; 0x2000000
   80dda:	f8c5 3800 	str.w	r3, [r5, #2048]	; 0x800
   80dde:	f8d5 3800 	ldr.w	r3, [r5, #2048]	; 0x800
   80de2:	481b      	ldr	r0, [pc, #108]	; (80e50 <_Z17hal_usb_cdc_beginv+0xc4>)
   80de4:	f023 7380 	bic.w	r3, r3, #16777216	; 0x1000000
   80de8:	f8c5 3800 	str.w	r3, [r5, #2048]	; 0x800
   80dec:	f8d5 3800 	ldr.w	r3, [r5, #2048]	; 0x800
   80df0:	f443 5380 	orr.w	r3, r3, #4096	; 0x1000
   80df4:	f8c5 3800 	str.w	r3, [r5, #2048]	; 0x800
   80df8:	f8d5 3800 	ldr.w	r3, [r5, #2048]	; 0x800
   80dfc:	f443 4300 	orr.w	r3, r3, #32768	; 0x8000
   80e00:	f8c5 3800 	str.w	r3, [r5, #2048]	; 0x800
   80e04:	f8d5 3800 	ldr.w	r3, [r5, #2048]	; 0x800
   80e08:	f423 4380 	bic.w	r3, r3, #16384	; 0x4000
   80e0c:	f8c5 3800 	str.w	r3, [r5, #2048]	; 0x800
   80e10:	4b10      	ldr	r3, [pc, #64]	; (80e54 <_Z17hal_usb_cdc_beginv+0xc8>)
   80e12:	4798      	blx	r3
   80e14:	2200      	movs	r2, #0
   80e16:	4b10      	ldr	r3, [pc, #64]	; (80e58 <_Z17hal_usb_cdc_beginv+0xcc>)
   80e18:	f883 2328 	strb.w	r2, [r3, #808]	; 0x328
   80e1c:	f44f 7280 	mov.w	r2, #256	; 0x100
   80e20:	605a      	str	r2, [r3, #4]
   80e22:	2308      	movs	r3, #8
   80e24:	61ab      	str	r3, [r5, #24]
   80e26:	f44f 5380 	mov.w	r3, #4096	; 0x1000
   80e2a:	61ab      	str	r3, [r5, #24]
   80e2c:	f44f 4380 	mov.w	r3, #16384	; 0x4000
   80e30:	61ab      	str	r3, [r5, #24]
   80e32:	f8c4 6238 	str.w	r6, [r4, #568]	; 0x238
   80e36:	4a05      	ldr	r2, [pc, #20]	; (80e4c <_Z17hal_usb_cdc_beginv+0xc0>)
   80e38:	6813      	ldr	r3, [r2, #0]
   80e3a:	f423 7380 	bic.w	r3, r3, #256	; 0x100
   80e3e:	6013      	str	r3, [r2, #0]
   80e40:	bd70      	pop	{r4, r5, r6, pc}
   80e42:	bf00      	nop
   80e44:	2000087c 	.word	0x2000087c
   80e48:	400e0600 	.word	0x400e0600
   80e4c:	400ac000 	.word	0x400ac000
   80e50:	400ac804 	.word	0x400ac804
   80e54:	000807cd 	.word	0x000807cd
   80e58:	e000e100 	.word	0xe000e100

00080e5c <_Z18hal_usb_cdc_openedv>:
   80e5c:	4b03      	ldr	r3, [pc, #12]	; (80e6c <_Z18hal_usb_cdc_openedv+0x10>)
   80e5e:	79d8      	ldrb	r0, [r3, #7]
   80e60:	f010 0003 	ands.w	r0, r0, #3
   80e64:	bf18      	it	ne
   80e66:	2001      	movne	r0, #1
   80e68:	4770      	bx	lr
   80e6a:	bf00      	nop
   80e6c:	2000000c 	.word	0x2000000c

00080e70 <_Z17hal_usb_cdc_writePKhj>:
   80e70:	460a      	mov	r2, r1
   80e72:	b510      	push	{r4, lr}
   80e74:	4601      	mov	r1, r0
   80e76:	b160      	cbz	r0, 80e92 <_Z17hal_usb_cdc_writePKhj+0x22>
   80e78:	b15a      	cbz	r2, 80e92 <_Z17hal_usb_cdc_writePKhj+0x22>
   80e7a:	4b07      	ldr	r3, [pc, #28]	; (80e98 <_Z17hal_usb_cdc_writePKhj+0x28>)
   80e7c:	f8d3 322c 	ldr.w	r3, [r3, #556]	; 0x22c
   80e80:	b13b      	cbz	r3, 80e92 <_Z17hal_usb_cdc_writePKhj+0x22>
   80e82:	4b06      	ldr	r3, [pc, #24]	; (80e9c <_Z17hal_usb_cdc_writePKhj+0x2c>)
   80e84:	4798      	blx	r3
   80e86:	b120      	cbz	r0, 80e92 <_Z17hal_usb_cdc_writePKhj+0x22>
   80e88:	e8bd 4010 	ldmia.w	sp!, {r4, lr}
   80e8c:	2003      	movs	r0, #3
   80e8e:	4b04      	ldr	r3, [pc, #16]	; (80ea0 <_Z17hal_usb_cdc_writePKhj+0x30>)
   80e90:	4718      	bx	r3
   80e92:	2000      	movs	r0, #0
   80e94:	bd10      	pop	{r4, pc}
   80e96:	bf00      	nop
   80e98:	2000087c 	.word	0x2000087c
   80e9c:	00080e5d 	.word	0x00080e5d
   80ea0:	00080915 	.word	0x00080915

00080ea4 <_GLOBAL__sub_I__ZN13EthernetClass6_stateE>:
   80ea4:	4801      	ldr	r0, [pc, #4]	; (80eac <_GLOBAL__sub_I__ZN13EthernetClass6_stateE+0x8>)
   80ea6:	4b02      	ldr	r3, [pc, #8]	; (80eb0 <_GLOBAL__sub_I__ZN13EthernetClass6_stateE+0xc>)
   80ea8:	4718      	bx	r3
   80eaa:	bf00      	nop
   80eac:	20000ad0 	.word	0x20000ad0
   80eb0:	00080eb5 	.word	0x00080eb5

00080eb4 <_ZN9IPAddressC1Ev>:
   80eb4:	2200      	movs	r2, #0
   80eb6:	6002      	str	r2, [r0, #0]
   80eb8:	4770      	bx	lr
	...

00080ebc <_GLOBAL__sub_I_INADDR_NONE>:
   80ebc:	2200      	movs	r2, #0
   80ebe:	4b03      	ldr	r3, [pc, #12]	; (80ecc <_GLOBAL__sub_I_INADDR_NONE+0x10>)
   80ec0:	701a      	strb	r2, [r3, #0]
   80ec2:	705a      	strb	r2, [r3, #1]
   80ec4:	709a      	strb	r2, [r3, #2]
   80ec6:	70da      	strb	r2, [r3, #3]
   80ec8:	4770      	bx	lr
   80eca:	bf00      	nop
   80ecc:	20000ad4 	.word	0x20000ad4

00080ed0 <_GLOBAL__sub_I_w5500>:
   80ed0:	220a      	movs	r2, #10
   80ed2:	4b01      	ldr	r3, [pc, #4]	; (80ed8 <_GLOBAL__sub_I_w5500+0x8>)
   80ed4:	701a      	strb	r2, [r3, #0]
   80ed6:	4770      	bx	lr
   80ed8:	20000ad8 	.word	0x20000ad8

00080edc <main>:
   80edc:	b508      	push	{r3, lr}
   80ede:	4b03      	ldr	r3, [pc, #12]	; (80eec <main+0x10>)
   80ee0:	4798      	blx	r3
   80ee2:	4b03      	ldr	r3, [pc, #12]	; (80ef0 <main+0x14>)
   80ee4:	4798      	blx	r3
   80ee6:	4c03      	ldr	r4, [pc, #12]	; (80ef4 <main+0x18>)
   80ee8:	47a0      	blx	r4
   80eea:	e7fd      	b.n	80ee8 <main+0xc>
   80eec:	00080641 	.word	0x00080641
   80ef0:	00080161 	.word	0x00080161
   80ef4:	000801d1 	.word	0x000801d1

00080ef8 <_Z7pinModemm>:
   80ef8:	2901      	cmp	r1, #1
   80efa:	d003      	beq.n	80f04 <_Z7pinModemm+0xc>
   80efc:	2902      	cmp	r1, #2
   80efe:	bf0c      	ite	eq
   80f00:	2102      	moveq	r1, #2
   80f02:	2100      	movne	r1, #0
   80f04:	4b00      	ldr	r3, [pc, #0]	; (80f08 <_Z7pinModemm+0x10>)
   80f06:	4718      	bx	r3
   80f08:	00080469 	.word	0x00080469

00080f0c <_Z12digitalWritemm>:
   80f0c:	4b00      	ldr	r3, [pc, #0]	; (80f10 <_Z12digitalWritemm+0x4>)
   80f0e:	4718      	bx	r3
   80f10:	000804a5 	.word	0x000804a5

00080f14 <_ZN10SerialPortD1Ev>:
   80f14:	4770      	bx	lr
	...

00080f18 <_ZN10SerialPortD0Ev>:
   80f18:	b510      	push	{r4, lr}
   80f1a:	4604      	mov	r4, r0
   80f1c:	2108      	movs	r1, #8
   80f1e:	4b02      	ldr	r3, [pc, #8]	; (80f28 <_ZN10SerialPortD0Ev+0x10>)
   80f20:	4798      	blx	r3
   80f22:	4620      	mov	r0, r4
   80f24:	bd10      	pop	{r4, pc}
   80f26:	bf00      	nop
   80f28:	00081101 	.word	0x00081101

00080f2c <_GLOBAL__sub_I_Serial>:
   80f2c:	e92d 47f0 	stmdb	sp!, {r4, r5, r6, r7, r8, r9, sl, lr}
   80f30:	4c14      	ldr	r4, [pc, #80]	; (80f84 <_GLOBAL__sub_I_Serial+0x58>)
   80f32:	4f15      	ldr	r7, [pc, #84]	; (80f88 <_GLOBAL__sub_I_Serial+0x5c>)
   80f34:	4e15      	ldr	r6, [pc, #84]	; (80f8c <_GLOBAL__sub_I_Serial+0x60>)
   80f36:	f8df 805c 	ldr.w	r8, [pc, #92]	; 80f94 <_GLOBAL__sub_I_Serial+0x68>
   80f3a:	2100      	movs	r1, #0
   80f3c:	4620      	mov	r0, r4
   80f3e:	47c0      	blx	r8
   80f40:	4d13      	ldr	r5, [pc, #76]	; (80f90 <_GLOBAL__sub_I_Serial+0x64>)
   80f42:	463a      	mov	r2, r7
   80f44:	f104 0908 	add.w	r9, r4, #8
   80f48:	4631      	mov	r1, r6
   80f4a:	4620      	mov	r0, r4
   80f4c:	47a8      	blx	r5
   80f4e:	2101      	movs	r1, #1
   80f50:	4648      	mov	r0, r9
   80f52:	47c0      	blx	r8
   80f54:	463a      	mov	r2, r7
   80f56:	4631      	mov	r1, r6
   80f58:	4648      	mov	r0, r9
   80f5a:	f104 0910 	add.w	r9, r4, #16
   80f5e:	47a8      	blx	r5
   80f60:	2102      	movs	r1, #2
   80f62:	4648      	mov	r0, r9
   80f64:	47c0      	blx	r8
   80f66:	3418      	adds	r4, #24
   80f68:	463a      	mov	r2, r7
   80f6a:	4631      	mov	r1, r6
   80f6c:	4648      	mov	r0, r9
   80f6e:	47a8      	blx	r5
   80f70:	2103      	movs	r1, #3
   80f72:	4620      	mov	r0, r4
   80f74:	47c0      	blx	r8
   80f76:	463a      	mov	r2, r7
   80f78:	4631      	mov	r1, r6
   80f7a:	4620      	mov	r0, r4
   80f7c:	462b      	mov	r3, r5
   80f7e:	e8bd 47f0 	ldmia.w	sp!, {r4, r5, r6, r7, r8, r9, sl, lr}
   80f82:	4718      	bx	r3
   80f84:	20000adc 	.word	0x20000adc
   80f88:	20000000 	.word	0x20000000
   80f8c:	00080f15 	.word	0x00080f15
   80f90:	000810f5 	.word	0x000810f5
   80f94:	00080ffd 	.word	0x00080ffd

00080f98 <_GLOBAL__sub_I_SPI>:
   80f98:	4801      	ldr	r0, [pc, #4]	; (80fa0 <_GLOBAL__sub_I_SPI+0x8>)
   80f9a:	4b02      	ldr	r3, [pc, #8]	; (80fa4 <_GLOBAL__sub_I_SPI+0xc>)
   80f9c:	4718      	bx	r3
   80f9e:	bf00      	nop
   80fa0:	20000afc 	.word	0x20000afc
   80fa4:	0008102d 	.word	0x0008102d

00080fa8 <_Z5delaym>:
   80fa8:	4b00      	ldr	r3, [pc, #0]	; (80fac <_Z5delaym+0x4>)
   80faa:	4718      	bx	r3
   80fac:	00080681 	.word	0x00080681

00080fb0 <_ZN13UsbSerialPortD1Ev>:
   80fb0:	4770      	bx	lr
	...

00080fb4 <_ZN13UsbSerialPortD0Ev>:
   80fb4:	b510      	push	{r4, lr}
   80fb6:	4604      	mov	r4, r0
   80fb8:	2104      	movs	r1, #4
   80fba:	4b02      	ldr	r3, [pc, #8]	; (80fc4 <_ZN13UsbSerialPortD0Ev+0x10>)
   80fbc:	4798      	blx	r3
   80fbe:	4620      	mov	r0, r4
   80fc0:	bd10      	pop	{r4, pc}
   80fc2:	bf00      	nop
   80fc4:	00081101 	.word	0x00081101

00080fc8 <_GLOBAL__sub_I_SerialUSB>:
   80fc8:	4a02      	ldr	r2, [pc, #8]	; (80fd4 <_GLOBAL__sub_I_SerialUSB+0xc>)
   80fca:	4903      	ldr	r1, [pc, #12]	; (80fd8 <_GLOBAL__sub_I_SerialUSB+0x10>)
   80fcc:	4803      	ldr	r0, [pc, #12]	; (80fdc <_GLOBAL__sub_I_SerialUSB+0x14>)
   80fce:	4b04      	ldr	r3, [pc, #16]	; (80fe0 <_GLOBAL__sub_I_SerialUSB+0x18>)
   80fd0:	4718      	bx	r3
   80fd2:	bf00      	nop
   80fd4:	20000000 	.word	0x20000000
   80fd8:	00080fb1 	.word	0x00080fb1
   80fdc:	20000018 	.word	0x20000018
   80fe0:	000810f5 	.word	0x000810f5

00080fe4 <_ZN10SerialPort5writeEh>:
   80fe4:	b508      	push	{r3, lr}
   80fe6:	7943      	ldrb	r3, [r0, #5]
   80fe8:	b123      	cbz	r3, 80ff4 <_ZN10SerialPort5writeEh+0x10>
   80fea:	7900      	ldrb	r0, [r0, #4]
   80fec:	4b02      	ldr	r3, [pc, #8]	; (80ff8 <_ZN10SerialPort5writeEh+0x14>)
   80fee:	4798      	blx	r3
   80ff0:	2001      	movs	r0, #1
   80ff2:	bd08      	pop	{r3, pc}
   80ff4:	4618      	mov	r0, r3
   80ff6:	bd08      	pop	{r3, pc}
   80ff8:	0008079d 	.word	0x0008079d

00080ffc <_ZN10SerialPortC1E9HalUartId>:
   80ffc:	4a02      	ldr	r2, [pc, #8]	; (81008 <_ZN10SerialPortC1E9HalUartId+0xc>)
   80ffe:	7101      	strb	r1, [r0, #4]
   81000:	6002      	str	r2, [r0, #0]
   81002:	2200      	movs	r2, #0
   81004:	7142      	strb	r2, [r0, #5]
   81006:	4770      	bx	lr
   81008:	00081e1c 	.word	0x00081e1c

0008100c <_ZN10SerialPort5beginEmm>:
   8100c:	2a01      	cmp	r2, #1
   8100e:	b510      	push	{r4, lr}
   81010:	4604      	mov	r4, r0
   81012:	7900      	ldrb	r0, [r0, #4]
   81014:	d003      	beq.n	8101e <_ZN10SerialPort5beginEmm+0x12>
   81016:	2a02      	cmp	r2, #2
   81018:	bf0c      	ite	eq
   8101a:	2202      	moveq	r2, #2
   8101c:	2200      	movne	r2, #0
   8101e:	4b02      	ldr	r3, [pc, #8]	; (81028 <_ZN10SerialPort5beginEmm+0x1c>)
   81020:	4798      	blx	r3
   81022:	2301      	movs	r3, #1
   81024:	7163      	strb	r3, [r4, #5]
   81026:	bd10      	pop	{r4, pc}
   81028:	000806d5 	.word	0x000806d5

0008102c <_ZN8SPIClassC1Ev>:
   8102c:	4a03      	ldr	r2, [pc, #12]	; (8103c <_ZN8SPIClassC1Ev+0x10>)
   8102e:	6002      	str	r2, [r0, #0]
   81030:	2200      	movs	r2, #0
   81032:	7102      	strb	r2, [r0, #4]
   81034:	7142      	strb	r2, [r0, #5]
   81036:	7202      	strb	r2, [r0, #8]
   81038:	4770      	bx	lr
   8103a:	bf00      	nop
   8103c:	003d0900 	.word	0x003d0900

00081040 <_ZNK8SPIClass15make_hal_configERK11SPISettings>:
   81040:	2100      	movs	r1, #0
   81042:	6813      	ldr	r3, [r2, #0]
   81044:	7101      	strb	r1, [r0, #4]
   81046:	6003      	str	r3, [r0, #0]
   81048:	7953      	ldrb	r3, [r2, #5]
   8104a:	3b01      	subs	r3, #1
   8104c:	b2db      	uxtb	r3, r3
   8104e:	2b02      	cmp	r3, #2
   81050:	bf8e      	itee	hi
   81052:	460b      	movhi	r3, r1
   81054:	4a01      	ldrls	r2, [pc, #4]	; (8105c <_ZNK8SPIClass15make_hal_configERK11SPISettings+0x1c>)
   81056:	5cd3      	ldrbls	r3, [r2, r3]
   81058:	7143      	strb	r3, [r0, #5]
   8105a:	4770      	bx	lr
   8105c:	00081e28 	.word	0x00081e28

00081060 <_ZN8SPIClass22apply_current_settingsEv>:
   81060:	b507      	push	{r0, r1, r2, lr}
   81062:	4b05      	ldr	r3, [pc, #20]	; (81078 <_ZN8SPIClass22apply_current_settingsEv+0x18>)
   81064:	4602      	mov	r2, r0
   81066:	4601      	mov	r1, r0
   81068:	4668      	mov	r0, sp
   8106a:	4798      	blx	r3
   8106c:	4668      	mov	r0, sp
   8106e:	4b03      	ldr	r3, [pc, #12]	; (8107c <_ZN8SPIClass22apply_current_settingsEv+0x1c>)
   81070:	4798      	blx	r3
   81072:	b003      	add	sp, #12
   81074:	f85d fb04 	ldr.w	pc, [sp], #4
   81078:	00081041 	.word	0x00081041
   8107c:	0008053d 	.word	0x0008053d

00081080 <_ZN8SPIClass5beginEv>:
   81080:	b510      	push	{r4, lr}
   81082:	4604      	mov	r4, r0
   81084:	4b03      	ldr	r3, [pc, #12]	; (81094 <_ZN8SPIClass5beginEv+0x14>)
   81086:	4798      	blx	r3
   81088:	4b03      	ldr	r3, [pc, #12]	; (81098 <_ZN8SPIClass5beginEv+0x18>)
   8108a:	4620      	mov	r0, r4
   8108c:	4798      	blx	r3
   8108e:	2301      	movs	r3, #1
   81090:	7223      	strb	r3, [r4, #8]
   81092:	bd10      	pop	{r4, pc}
   81094:	00080589 	.word	0x00080589
   81098:	00081061 	.word	0x00081061

0008109c <_sbrk>:
   8109c:	b508      	push	{r3, lr}
   8109e:	4b0a      	ldr	r3, [pc, #40]	; (810c8 <_sbrk+0x2c>)
   810a0:	681a      	ldr	r2, [r3, #0]
   810a2:	b90a      	cbnz	r2, 810a8 <_sbrk+0xc>
   810a4:	4a09      	ldr	r2, [pc, #36]	; (810cc <_sbrk+0x30>)
   810a6:	601a      	str	r2, [r3, #0]
   810a8:	4669      	mov	r1, sp
   810aa:	681a      	ldr	r2, [r3, #0]
   810ac:	4410      	add	r0, r2
   810ae:	4288      	cmp	r0, r1
   810b0:	d306      	bcc.n	810c0 <_sbrk+0x24>
   810b2:	4b07      	ldr	r3, [pc, #28]	; (810d0 <_sbrk+0x34>)
   810b4:	4798      	blx	r3
   810b6:	230c      	movs	r3, #12
   810b8:	6003      	str	r3, [r0, #0]
   810ba:	f04f 30ff 	mov.w	r0, #4294967295
   810be:	bd08      	pop	{r3, pc}
   810c0:	6018      	str	r0, [r3, #0]
   810c2:	4610      	mov	r0, r2
   810c4:	bd08      	pop	{r3, pc}
   810c6:	bf00      	nop
   810c8:	20000b08 	.word	0x20000b08
   810cc:	20001168 	.word	0x20001168
   810d0:	00081115 	.word	0x00081115

000810d4 <_ZN13UsbSerialPort5writeEh>:
   810d4:	b507      	push	{r0, r1, r2, lr}
   810d6:	a802      	add	r0, sp, #8
   810d8:	f800 1d01 	strb.w	r1, [r0, #-1]!
   810dc:	4b02      	ldr	r3, [pc, #8]	; (810e8 <_ZN13UsbSerialPort5writeEh+0x14>)
   810de:	2101      	movs	r1, #1
   810e0:	4798      	blx	r3
   810e2:	b003      	add	sp, #12
   810e4:	f85d fb04 	ldr.w	pc, [sp], #4
   810e8:	00080e71 	.word	0x00080e71

000810ec <_ZN13UsbSerialPort5beginEmm>:
   810ec:	4b00      	ldr	r3, [pc, #0]	; (810f0 <_ZN13UsbSerialPort5beginEmm+0x4>)
   810ee:	4718      	bx	r3
   810f0:	00080d8d 	.word	0x00080d8d

000810f4 <__aeabi_atexit>:
   810f4:	460b      	mov	r3, r1
   810f6:	4601      	mov	r1, r0
   810f8:	4618      	mov	r0, r3
   810fa:	f000 b805 	b.w	81108 <__cxa_atexit>
   810fe:	bf00      	nop

00081100 <_ZdlPvj>:
   81100:	f000 b800 	b.w	81104 <_ZdlPv>

00081104 <_ZdlPv>:
   81104:	f000 b83c 	b.w	81180 <free>

00081108 <__cxa_atexit>:
   81108:	4613      	mov	r3, r2
   8110a:	460a      	mov	r2, r1
   8110c:	4601      	mov	r1, r0
   8110e:	2002      	movs	r0, #2
   81110:	f000 bb74 	b.w	817fc <__register_exitproc>

00081114 <__errno>:
   81114:	4b01      	ldr	r3, [pc, #4]	; (8111c <__errno+0x8>)
   81116:	6818      	ldr	r0, [r3, #0]
   81118:	4770      	bx	lr
   8111a:	bf00      	nop
   8111c:	2000001c 	.word	0x2000001c

00081120 <__libc_init_array>:
   81120:	b570      	push	{r4, r5, r6, lr}
   81122:	4e0f      	ldr	r6, [pc, #60]	; (81160 <__libc_init_array+0x40>)
   81124:	4d0f      	ldr	r5, [pc, #60]	; (81164 <__libc_init_array+0x44>)
   81126:	1b76      	subs	r6, r6, r5
   81128:	10b6      	asrs	r6, r6, #2
   8112a:	bf18      	it	ne
   8112c:	2400      	movne	r4, #0
   8112e:	d005      	beq.n	8113c <__libc_init_array+0x1c>
   81130:	3401      	adds	r4, #1
   81132:	f855 3b04 	ldr.w	r3, [r5], #4
   81136:	4798      	blx	r3
   81138:	42a6      	cmp	r6, r4
   8113a:	d1f9      	bne.n	81130 <__libc_init_array+0x10>
   8113c:	4e0a      	ldr	r6, [pc, #40]	; (81168 <__libc_init_array+0x48>)
   8113e:	4d0b      	ldr	r5, [pc, #44]	; (8116c <__libc_init_array+0x4c>)
   81140:	f000 fe80 	bl	81e44 <_init>
   81144:	1b76      	subs	r6, r6, r5
   81146:	10b6      	asrs	r6, r6, #2
   81148:	bf18      	it	ne
   8114a:	2400      	movne	r4, #0
   8114c:	d006      	beq.n	8115c <__libc_init_array+0x3c>
   8114e:	3401      	adds	r4, #1
   81150:	f855 3b04 	ldr.w	r3, [r5], #4
   81154:	4798      	blx	r3
   81156:	42a6      	cmp	r6, r4
   81158:	d1f9      	bne.n	8114e <__libc_init_array+0x2e>
   8115a:	bd70      	pop	{r4, r5, r6, pc}
   8115c:	bd70      	pop	{r4, r5, r6, pc}
   8115e:	bf00      	nop
   81160:	00081e50 	.word	0x00081e50
   81164:	00081e50 	.word	0x00081e50
   81168:	00081e70 	.word	0x00081e70
   8116c:	00081e50 	.word	0x00081e50

00081170 <malloc>:
   81170:	4b02      	ldr	r3, [pc, #8]	; (8117c <malloc+0xc>)
   81172:	4601      	mov	r1, r0
   81174:	6818      	ldr	r0, [r3, #0]
   81176:	f000 b80b 	b.w	81190 <_malloc_r>
   8117a:	bf00      	nop
   8117c:	2000001c 	.word	0x2000001c

00081180 <free>:
   81180:	4b02      	ldr	r3, [pc, #8]	; (8118c <free+0xc>)
   81182:	4601      	mov	r1, r0
   81184:	6818      	ldr	r0, [r3, #0]
   81186:	f000 bc15 	b.w	819b4 <_free_r>
   8118a:	bf00      	nop
   8118c:	2000001c 	.word	0x2000001c

00081190 <_malloc_r>:
   81190:	e92d 4ff0 	stmdb	sp!, {r4, r5, r6, r7, r8, r9, sl, fp, lr}
   81194:	f101 060b 	add.w	r6, r1, #11
   81198:	2e16      	cmp	r6, #22
   8119a:	b083      	sub	sp, #12
   8119c:	4605      	mov	r5, r0
   8119e:	f240 809e 	bls.w	812de <_malloc_r+0x14e>
   811a2:	f036 0607 	bics.w	r6, r6, #7
   811a6:	f100 80bd 	bmi.w	81324 <_malloc_r+0x194>
   811aa:	42b1      	cmp	r1, r6
   811ac:	f200 80ba 	bhi.w	81324 <_malloc_r+0x194>
   811b0:	f000 fb06 	bl	817c0 <__malloc_lock>
   811b4:	f5b6 7ffc 	cmp.w	r6, #504	; 0x1f8
   811b8:	f0c0 8285 	bcc.w	816c6 <_malloc_r+0x536>
   811bc:	0a73      	lsrs	r3, r6, #9
   811be:	f000 80b8 	beq.w	81332 <_malloc_r+0x1a2>
   811c2:	2b04      	cmp	r3, #4
   811c4:	f200 816c 	bhi.w	814a0 <_malloc_r+0x310>
   811c8:	09b3      	lsrs	r3, r6, #6
   811ca:	f103 0039 	add.w	r0, r3, #57	; 0x39
   811ce:	f103 0e38 	add.w	lr, r3, #56	; 0x38
   811d2:	00c1      	lsls	r1, r0, #3
   811d4:	4fb8      	ldr	r7, [pc, #736]	; (814b8 <_malloc_r+0x328>)
   811d6:	4439      	add	r1, r7
   811d8:	684c      	ldr	r4, [r1, #4]
   811da:	3908      	subs	r1, #8
   811dc:	42a1      	cmp	r1, r4
   811de:	d106      	bne.n	811ee <_malloc_r+0x5e>
   811e0:	e00c      	b.n	811fc <_malloc_r+0x6c>
   811e2:	2a00      	cmp	r2, #0
   811e4:	f280 80ab 	bge.w	8133e <_malloc_r+0x1ae>
   811e8:	68e4      	ldr	r4, [r4, #12]
   811ea:	42a1      	cmp	r1, r4
   811ec:	d006      	beq.n	811fc <_malloc_r+0x6c>
   811ee:	6863      	ldr	r3, [r4, #4]
   811f0:	f023 0303 	bic.w	r3, r3, #3
   811f4:	1b9a      	subs	r2, r3, r6
   811f6:	2a0f      	cmp	r2, #15
   811f8:	ddf3      	ble.n	811e2 <_malloc_r+0x52>
   811fa:	4670      	mov	r0, lr
   811fc:	693c      	ldr	r4, [r7, #16]
   811fe:	f8df e2cc 	ldr.w	lr, [pc, #716]	; 814cc <_malloc_r+0x33c>
   81202:	4574      	cmp	r4, lr
   81204:	f000 819e 	beq.w	81544 <_malloc_r+0x3b4>
   81208:	6863      	ldr	r3, [r4, #4]
   8120a:	f023 0303 	bic.w	r3, r3, #3
   8120e:	1b9a      	subs	r2, r3, r6
   81210:	2a0f      	cmp	r2, #15
   81212:	f300 8183 	bgt.w	8151c <_malloc_r+0x38c>
   81216:	2a00      	cmp	r2, #0
   81218:	f8c7 e014 	str.w	lr, [r7, #20]
   8121c:	f8c7 e010 	str.w	lr, [r7, #16]
   81220:	f280 8091 	bge.w	81346 <_malloc_r+0x1b6>
   81224:	f5b3 7f00 	cmp.w	r3, #512	; 0x200
   81228:	f080 8154 	bcs.w	814d4 <_malloc_r+0x344>
   8122c:	2201      	movs	r2, #1
   8122e:	08db      	lsrs	r3, r3, #3
   81230:	6879      	ldr	r1, [r7, #4]
   81232:	ea4f 0ca3 	mov.w	ip, r3, asr #2
   81236:	4413      	add	r3, r2
   81238:	f857 8033 	ldr.w	r8, [r7, r3, lsl #3]
   8123c:	fa02 f20c 	lsl.w	r2, r2, ip
   81240:	eb07 0cc3 	add.w	ip, r7, r3, lsl #3
   81244:	430a      	orrs	r2, r1
   81246:	f1ac 0108 	sub.w	r1, ip, #8
   8124a:	60e1      	str	r1, [r4, #12]
   8124c:	f8c4 8008 	str.w	r8, [r4, #8]
   81250:	607a      	str	r2, [r7, #4]
   81252:	f847 4033 	str.w	r4, [r7, r3, lsl #3]
   81256:	f8c8 400c 	str.w	r4, [r8, #12]
   8125a:	2401      	movs	r4, #1
   8125c:	1083      	asrs	r3, r0, #2
   8125e:	409c      	lsls	r4, r3
   81260:	4294      	cmp	r4, r2
   81262:	d87d      	bhi.n	81360 <_malloc_r+0x1d0>
   81264:	4214      	tst	r4, r2
   81266:	d106      	bne.n	81276 <_malloc_r+0xe6>
   81268:	f020 0003 	bic.w	r0, r0, #3
   8126c:	0064      	lsls	r4, r4, #1
   8126e:	4214      	tst	r4, r2
   81270:	f100 0004 	add.w	r0, r0, #4
   81274:	d0fa      	beq.n	8126c <_malloc_r+0xdc>
   81276:	eb07 09c0 	add.w	r9, r7, r0, lsl #3
   8127a:	46cc      	mov	ip, r9
   8127c:	4680      	mov	r8, r0
   8127e:	f8dc 300c 	ldr.w	r3, [ip, #12]
   81282:	459c      	cmp	ip, r3
   81284:	d107      	bne.n	81296 <_malloc_r+0x106>
   81286:	e15f      	b.n	81548 <_malloc_r+0x3b8>
   81288:	2a00      	cmp	r2, #0
   8128a:	f280 816d 	bge.w	81568 <_malloc_r+0x3d8>
   8128e:	68db      	ldr	r3, [r3, #12]
   81290:	459c      	cmp	ip, r3
   81292:	f000 8159 	beq.w	81548 <_malloc_r+0x3b8>
   81296:	6859      	ldr	r1, [r3, #4]
   81298:	f021 0103 	bic.w	r1, r1, #3
   8129c:	1b8a      	subs	r2, r1, r6
   8129e:	2a0f      	cmp	r2, #15
   812a0:	ddf2      	ble.n	81288 <_malloc_r+0xf8>
   812a2:	68dc      	ldr	r4, [r3, #12]
   812a4:	f8d3 c008 	ldr.w	ip, [r3, #8]
   812a8:	f046 0801 	orr.w	r8, r6, #1
   812ac:	4628      	mov	r0, r5
   812ae:	441e      	add	r6, r3
   812b0:	f042 0501 	orr.w	r5, r2, #1
   812b4:	f8c3 8004 	str.w	r8, [r3, #4]
   812b8:	f8cc 400c 	str.w	r4, [ip, #12]
   812bc:	f8c4 c008 	str.w	ip, [r4, #8]
   812c0:	617e      	str	r6, [r7, #20]
   812c2:	613e      	str	r6, [r7, #16]
   812c4:	f8c6 e00c 	str.w	lr, [r6, #12]
   812c8:	f8c6 e008 	str.w	lr, [r6, #8]
   812cc:	6075      	str	r5, [r6, #4]
   812ce:	505a      	str	r2, [r3, r1]
   812d0:	9300      	str	r3, [sp, #0]
   812d2:	f000 fa7b 	bl	817cc <__malloc_unlock>
   812d6:	9b00      	ldr	r3, [sp, #0]
   812d8:	f103 0408 	add.w	r4, r3, #8
   812dc:	e01e      	b.n	8131c <_malloc_r+0x18c>
   812de:	2910      	cmp	r1, #16
   812e0:	d820      	bhi.n	81324 <_malloc_r+0x194>
   812e2:	f000 fa6d 	bl	817c0 <__malloc_lock>
   812e6:	2610      	movs	r6, #16
   812e8:	2318      	movs	r3, #24
   812ea:	2002      	movs	r0, #2
   812ec:	4f72      	ldr	r7, [pc, #456]	; (814b8 <_malloc_r+0x328>)
   812ee:	443b      	add	r3, r7
   812f0:	685c      	ldr	r4, [r3, #4]
   812f2:	f1a3 0208 	sub.w	r2, r3, #8
   812f6:	4294      	cmp	r4, r2
   812f8:	f000 812f 	beq.w	8155a <_malloc_r+0x3ca>
   812fc:	6863      	ldr	r3, [r4, #4]
   812fe:	68e1      	ldr	r1, [r4, #12]
   81300:	f023 0303 	bic.w	r3, r3, #3
   81304:	4423      	add	r3, r4
   81306:	685a      	ldr	r2, [r3, #4]
   81308:	68a6      	ldr	r6, [r4, #8]
   8130a:	f042 0201 	orr.w	r2, r2, #1
   8130e:	60f1      	str	r1, [r6, #12]
   81310:	4628      	mov	r0, r5
   81312:	608e      	str	r6, [r1, #8]
   81314:	605a      	str	r2, [r3, #4]
   81316:	f000 fa59 	bl	817cc <__malloc_unlock>
   8131a:	3408      	adds	r4, #8
   8131c:	4620      	mov	r0, r4
   8131e:	b003      	add	sp, #12
   81320:	e8bd 8ff0 	ldmia.w	sp!, {r4, r5, r6, r7, r8, r9, sl, fp, pc}
   81324:	2400      	movs	r4, #0
   81326:	230c      	movs	r3, #12
   81328:	4620      	mov	r0, r4
   8132a:	602b      	str	r3, [r5, #0]
   8132c:	b003      	add	sp, #12
   8132e:	e8bd 8ff0 	ldmia.w	sp!, {r4, r5, r6, r7, r8, r9, sl, fp, pc}
   81332:	2040      	movs	r0, #64	; 0x40
   81334:	f44f 7100 	mov.w	r1, #512	; 0x200
   81338:	f04f 0e3f 	mov.w	lr, #63	; 0x3f
   8133c:	e74a      	b.n	811d4 <_malloc_r+0x44>
   8133e:	4423      	add	r3, r4
   81340:	685a      	ldr	r2, [r3, #4]
   81342:	68e1      	ldr	r1, [r4, #12]
   81344:	e7e0      	b.n	81308 <_malloc_r+0x178>
   81346:	4423      	add	r3, r4
   81348:	685a      	ldr	r2, [r3, #4]
   8134a:	4628      	mov	r0, r5
   8134c:	f042 0201 	orr.w	r2, r2, #1
   81350:	605a      	str	r2, [r3, #4]
   81352:	3408      	adds	r4, #8
   81354:	f000 fa3a 	bl	817cc <__malloc_unlock>
   81358:	4620      	mov	r0, r4
   8135a:	b003      	add	sp, #12
   8135c:	e8bd 8ff0 	ldmia.w	sp!, {r4, r5, r6, r7, r8, r9, sl, fp, pc}
   81360:	68bc      	ldr	r4, [r7, #8]
   81362:	6863      	ldr	r3, [r4, #4]
   81364:	f023 0803 	bic.w	r8, r3, #3
   81368:	45b0      	cmp	r8, r6
   8136a:	d304      	bcc.n	81376 <_malloc_r+0x1e6>
   8136c:	eba8 0306 	sub.w	r3, r8, r6
   81370:	2b0f      	cmp	r3, #15
   81372:	f300 8085 	bgt.w	81480 <_malloc_r+0x2f0>
   81376:	f8df 9158 	ldr.w	r9, [pc, #344]	; 814d0 <_malloc_r+0x340>
   8137a:	4b50      	ldr	r3, [pc, #320]	; (814bc <_malloc_r+0x32c>)
   8137c:	f8d9 2000 	ldr.w	r2, [r9]
   81380:	681b      	ldr	r3, [r3, #0]
   81382:	3201      	adds	r2, #1
   81384:	4433      	add	r3, r6
   81386:	eb04 0a08 	add.w	sl, r4, r8
   8138a:	f000 8154 	beq.w	81636 <_malloc_r+0x4a6>
   8138e:	f503 5380 	add.w	r3, r3, #4096	; 0x1000
   81392:	330f      	adds	r3, #15
   81394:	f423 6b7f 	bic.w	fp, r3, #4080	; 0xff0
   81398:	f02b 0b0f 	bic.w	fp, fp, #15
   8139c:	4659      	mov	r1, fp
   8139e:	4628      	mov	r0, r5
   813a0:	f000 fa1a 	bl	817d8 <_sbrk_r>
   813a4:	1c41      	adds	r1, r0, #1
   813a6:	4602      	mov	r2, r0
   813a8:	f000 80fb 	beq.w	815a2 <_malloc_r+0x412>
   813ac:	4582      	cmp	sl, r0
   813ae:	f200 80f6 	bhi.w	8159e <_malloc_r+0x40e>
   813b2:	4b43      	ldr	r3, [pc, #268]	; (814c0 <_malloc_r+0x330>)
   813b4:	6819      	ldr	r1, [r3, #0]
   813b6:	4459      	add	r1, fp
   813b8:	6019      	str	r1, [r3, #0]
   813ba:	f000 814c 	beq.w	81656 <_malloc_r+0x4c6>
   813be:	f8d9 0000 	ldr.w	r0, [r9]
   813c2:	3001      	adds	r0, #1
   813c4:	bf1b      	ittet	ne
   813c6:	eba2 0a0a 	subne.w	sl, r2, sl
   813ca:	4451      	addne	r1, sl
   813cc:	f8c9 2000 	streq.w	r2, [r9]
   813d0:	6019      	strne	r1, [r3, #0]
   813d2:	f012 0107 	ands.w	r1, r2, #7
   813d6:	f000 8114 	beq.w	81602 <_malloc_r+0x472>
   813da:	f1c1 0008 	rsb	r0, r1, #8
   813de:	f5c1 5180 	rsb	r1, r1, #4096	; 0x1000
   813e2:	4402      	add	r2, r0
   813e4:	3108      	adds	r1, #8
   813e6:	eb02 090b 	add.w	r9, r2, fp
   813ea:	f3c9 090b 	ubfx	r9, r9, #0, #12
   813ee:	eba1 0909 	sub.w	r9, r1, r9
   813f2:	4649      	mov	r1, r9
   813f4:	4628      	mov	r0, r5
   813f6:	9301      	str	r3, [sp, #4]
   813f8:	9200      	str	r2, [sp, #0]
   813fa:	f000 f9ed 	bl	817d8 <_sbrk_r>
   813fe:	1c43      	adds	r3, r0, #1
   81400:	e89d 000c 	ldmia.w	sp, {r2, r3}
   81404:	f000 8142 	beq.w	8168c <_malloc_r+0x4fc>
   81408:	1a80      	subs	r0, r0, r2
   8140a:	4448      	add	r0, r9
   8140c:	f040 0001 	orr.w	r0, r0, #1
   81410:	6819      	ldr	r1, [r3, #0]
   81412:	42bc      	cmp	r4, r7
   81414:	4449      	add	r1, r9
   81416:	60ba      	str	r2, [r7, #8]
   81418:	6019      	str	r1, [r3, #0]
   8141a:	6050      	str	r0, [r2, #4]
   8141c:	d017      	beq.n	8144e <_malloc_r+0x2be>
   8141e:	f1b8 0f0f 	cmp.w	r8, #15
   81422:	f240 80fa 	bls.w	8161a <_malloc_r+0x48a>
   81426:	f04f 0c05 	mov.w	ip, #5
   8142a:	6862      	ldr	r2, [r4, #4]
   8142c:	f1a8 000c 	sub.w	r0, r8, #12
   81430:	f020 0007 	bic.w	r0, r0, #7
   81434:	f002 0201 	and.w	r2, r2, #1
   81438:	eb04 0e00 	add.w	lr, r4, r0
   8143c:	4302      	orrs	r2, r0
   8143e:	280f      	cmp	r0, #15
   81440:	6062      	str	r2, [r4, #4]
   81442:	f8ce c004 	str.w	ip, [lr, #4]
   81446:	f8ce c008 	str.w	ip, [lr, #8]
   8144a:	f200 8116 	bhi.w	8167a <_malloc_r+0x4ea>
   8144e:	4b1d      	ldr	r3, [pc, #116]	; (814c4 <_malloc_r+0x334>)
   81450:	68bc      	ldr	r4, [r7, #8]
   81452:	681a      	ldr	r2, [r3, #0]
   81454:	4291      	cmp	r1, r2
   81456:	bf88      	it	hi
   81458:	6019      	strhi	r1, [r3, #0]
   8145a:	4b1b      	ldr	r3, [pc, #108]	; (814c8 <_malloc_r+0x338>)
   8145c:	681a      	ldr	r2, [r3, #0]
   8145e:	4291      	cmp	r1, r2
   81460:	6862      	ldr	r2, [r4, #4]
   81462:	bf88      	it	hi
   81464:	6019      	strhi	r1, [r3, #0]
   81466:	f022 0203 	bic.w	r2, r2, #3
   8146a:	4296      	cmp	r6, r2
   8146c:	eba2 0306 	sub.w	r3, r2, r6
   81470:	d801      	bhi.n	81476 <_malloc_r+0x2e6>
   81472:	2b0f      	cmp	r3, #15
   81474:	dc04      	bgt.n	81480 <_malloc_r+0x2f0>
   81476:	4628      	mov	r0, r5
   81478:	f000 f9a8 	bl	817cc <__malloc_unlock>
   8147c:	2400      	movs	r4, #0
   8147e:	e74d      	b.n	8131c <_malloc_r+0x18c>
   81480:	f046 0201 	orr.w	r2, r6, #1
   81484:	f043 0301 	orr.w	r3, r3, #1
   81488:	4426      	add	r6, r4
   8148a:	6062      	str	r2, [r4, #4]
   8148c:	4628      	mov	r0, r5
   8148e:	60be      	str	r6, [r7, #8]
   81490:	3408      	adds	r4, #8
   81492:	6073      	str	r3, [r6, #4]
   81494:	f000 f99a 	bl	817cc <__malloc_unlock>
   81498:	4620      	mov	r0, r4
   8149a:	b003      	add	sp, #12
   8149c:	e8bd 8ff0 	ldmia.w	sp!, {r4, r5, r6, r7, r8, r9, sl, fp, pc}
   814a0:	2b14      	cmp	r3, #20
   814a2:	d970      	bls.n	81586 <_malloc_r+0x3f6>
   814a4:	2b54      	cmp	r3, #84	; 0x54
   814a6:	f200 80a2 	bhi.w	815ee <_malloc_r+0x45e>
   814aa:	0b33      	lsrs	r3, r6, #12
   814ac:	f103 006f 	add.w	r0, r3, #111	; 0x6f
   814b0:	f103 0e6e 	add.w	lr, r3, #110	; 0x6e
   814b4:	00c1      	lsls	r1, r0, #3
   814b6:	e68d      	b.n	811d4 <_malloc_r+0x44>
   814b8:	20000448 	.word	0x20000448
   814bc:	20000b3c 	.word	0x20000b3c
   814c0:	20000b0c 	.word	0x20000b0c
   814c4:	20000b34 	.word	0x20000b34
   814c8:	20000b38 	.word	0x20000b38
   814cc:	20000450 	.word	0x20000450
   814d0:	20000850 	.word	0x20000850
   814d4:	0a5a      	lsrs	r2, r3, #9
   814d6:	2a04      	cmp	r2, #4
   814d8:	d95b      	bls.n	81592 <_malloc_r+0x402>
   814da:	2a14      	cmp	r2, #20
   814dc:	f200 80ae 	bhi.w	8163c <_malloc_r+0x4ac>
   814e0:	f102 015c 	add.w	r1, r2, #92	; 0x5c
   814e4:	00c9      	lsls	r1, r1, #3
   814e6:	325b      	adds	r2, #91	; 0x5b
   814e8:	eb07 0c01 	add.w	ip, r7, r1
   814ec:	5879      	ldr	r1, [r7, r1]
   814ee:	f1ac 0c08 	sub.w	ip, ip, #8
   814f2:	458c      	cmp	ip, r1
   814f4:	f000 8088 	beq.w	81608 <_malloc_r+0x478>
   814f8:	684a      	ldr	r2, [r1, #4]
   814fa:	f022 0203 	bic.w	r2, r2, #3
   814fe:	4293      	cmp	r3, r2
   81500:	d273      	bcs.n	815ea <_malloc_r+0x45a>
   81502:	6889      	ldr	r1, [r1, #8]
   81504:	458c      	cmp	ip, r1
   81506:	d1f7      	bne.n	814f8 <_malloc_r+0x368>
   81508:	f8dc 300c 	ldr.w	r3, [ip, #12]
   8150c:	687a      	ldr	r2, [r7, #4]
   8150e:	60e3      	str	r3, [r4, #12]
   81510:	f8c4 c008 	str.w	ip, [r4, #8]
   81514:	609c      	str	r4, [r3, #8]
   81516:	f8cc 400c 	str.w	r4, [ip, #12]
   8151a:	e69e      	b.n	8125a <_malloc_r+0xca>
   8151c:	f046 0c01 	orr.w	ip, r6, #1
   81520:	f042 0101 	orr.w	r1, r2, #1
   81524:	4426      	add	r6, r4
   81526:	f8c4 c004 	str.w	ip, [r4, #4]
   8152a:	4628      	mov	r0, r5
   8152c:	617e      	str	r6, [r7, #20]
   8152e:	613e      	str	r6, [r7, #16]
   81530:	f8c6 e00c 	str.w	lr, [r6, #12]
   81534:	f8c6 e008 	str.w	lr, [r6, #8]
   81538:	6071      	str	r1, [r6, #4]
   8153a:	50e2      	str	r2, [r4, r3]
   8153c:	f000 f946 	bl	817cc <__malloc_unlock>
   81540:	3408      	adds	r4, #8
   81542:	e6eb      	b.n	8131c <_malloc_r+0x18c>
   81544:	687a      	ldr	r2, [r7, #4]
   81546:	e688      	b.n	8125a <_malloc_r+0xca>
   81548:	f108 0801 	add.w	r8, r8, #1
   8154c:	f018 0f03 	tst.w	r8, #3
   81550:	f10c 0c08 	add.w	ip, ip, #8
   81554:	f47f ae93 	bne.w	8127e <_malloc_r+0xee>
   81558:	e02d      	b.n	815b6 <_malloc_r+0x426>
   8155a:	68dc      	ldr	r4, [r3, #12]
   8155c:	42a3      	cmp	r3, r4
   8155e:	bf08      	it	eq
   81560:	3002      	addeq	r0, #2
   81562:	f43f ae4b 	beq.w	811fc <_malloc_r+0x6c>
   81566:	e6c9      	b.n	812fc <_malloc_r+0x16c>
   81568:	461c      	mov	r4, r3
   8156a:	4419      	add	r1, r3
   8156c:	684a      	ldr	r2, [r1, #4]
   8156e:	68db      	ldr	r3, [r3, #12]
   81570:	f854 6f08 	ldr.w	r6, [r4, #8]!
   81574:	f042 0201 	orr.w	r2, r2, #1
   81578:	604a      	str	r2, [r1, #4]
   8157a:	4628      	mov	r0, r5
   8157c:	60f3      	str	r3, [r6, #12]
   8157e:	609e      	str	r6, [r3, #8]
   81580:	f000 f924 	bl	817cc <__malloc_unlock>
   81584:	e6ca      	b.n	8131c <_malloc_r+0x18c>
   81586:	f103 005c 	add.w	r0, r3, #92	; 0x5c
   8158a:	f103 0e5b 	add.w	lr, r3, #91	; 0x5b
   8158e:	00c1      	lsls	r1, r0, #3
   81590:	e620      	b.n	811d4 <_malloc_r+0x44>
   81592:	099a      	lsrs	r2, r3, #6
   81594:	f102 0139 	add.w	r1, r2, #57	; 0x39
   81598:	00c9      	lsls	r1, r1, #3
   8159a:	3238      	adds	r2, #56	; 0x38
   8159c:	e7a4      	b.n	814e8 <_malloc_r+0x358>
   8159e:	42bc      	cmp	r4, r7
   815a0:	d054      	beq.n	8164c <_malloc_r+0x4bc>
   815a2:	68bc      	ldr	r4, [r7, #8]
   815a4:	6862      	ldr	r2, [r4, #4]
   815a6:	f022 0203 	bic.w	r2, r2, #3
   815aa:	e75e      	b.n	8146a <_malloc_r+0x2da>
   815ac:	f859 3908 	ldr.w	r3, [r9], #-8
   815b0:	4599      	cmp	r9, r3
   815b2:	f040 8086 	bne.w	816c2 <_malloc_r+0x532>
   815b6:	f010 0f03 	tst.w	r0, #3
   815ba:	f100 30ff 	add.w	r0, r0, #4294967295
   815be:	d1f5      	bne.n	815ac <_malloc_r+0x41c>
   815c0:	687b      	ldr	r3, [r7, #4]
   815c2:	ea23 0304 	bic.w	r3, r3, r4
   815c6:	607b      	str	r3, [r7, #4]
   815c8:	0064      	lsls	r4, r4, #1
   815ca:	429c      	cmp	r4, r3
   815cc:	f63f aec8 	bhi.w	81360 <_malloc_r+0x1d0>
   815d0:	2c00      	cmp	r4, #0
   815d2:	f43f aec5 	beq.w	81360 <_malloc_r+0x1d0>
   815d6:	421c      	tst	r4, r3
   815d8:	4640      	mov	r0, r8
   815da:	f47f ae4c 	bne.w	81276 <_malloc_r+0xe6>
   815de:	0064      	lsls	r4, r4, #1
   815e0:	421c      	tst	r4, r3
   815e2:	f100 0004 	add.w	r0, r0, #4
   815e6:	d0fa      	beq.n	815de <_malloc_r+0x44e>
   815e8:	e645      	b.n	81276 <_malloc_r+0xe6>
   815ea:	468c      	mov	ip, r1
   815ec:	e78c      	b.n	81508 <_malloc_r+0x378>
   815ee:	f5b3 7faa 	cmp.w	r3, #340	; 0x154
   815f2:	d815      	bhi.n	81620 <_malloc_r+0x490>
   815f4:	0bf3      	lsrs	r3, r6, #15
   815f6:	f103 0078 	add.w	r0, r3, #120	; 0x78
   815fa:	f103 0e77 	add.w	lr, r3, #119	; 0x77
   815fe:	00c1      	lsls	r1, r0, #3
   81600:	e5e8      	b.n	811d4 <_malloc_r+0x44>
   81602:	f44f 5180 	mov.w	r1, #4096	; 0x1000
   81606:	e6ee      	b.n	813e6 <_malloc_r+0x256>
   81608:	2101      	movs	r1, #1
   8160a:	687b      	ldr	r3, [r7, #4]
   8160c:	1092      	asrs	r2, r2, #2
   8160e:	fa01 f202 	lsl.w	r2, r1, r2
   81612:	431a      	orrs	r2, r3
   81614:	607a      	str	r2, [r7, #4]
   81616:	4663      	mov	r3, ip
   81618:	e779      	b.n	8150e <_malloc_r+0x37e>
   8161a:	2301      	movs	r3, #1
   8161c:	6053      	str	r3, [r2, #4]
   8161e:	e72a      	b.n	81476 <_malloc_r+0x2e6>
   81620:	f240 5254 	movw	r2, #1364	; 0x554
   81624:	4293      	cmp	r3, r2
   81626:	d822      	bhi.n	8166e <_malloc_r+0x4de>
   81628:	0cb3      	lsrs	r3, r6, #18
   8162a:	f103 007d 	add.w	r0, r3, #125	; 0x7d
   8162e:	f103 0e7c 	add.w	lr, r3, #124	; 0x7c
   81632:	00c1      	lsls	r1, r0, #3
   81634:	e5ce      	b.n	811d4 <_malloc_r+0x44>
   81636:	f103 0b10 	add.w	fp, r3, #16
   8163a:	e6af      	b.n	8139c <_malloc_r+0x20c>
   8163c:	2a54      	cmp	r2, #84	; 0x54
   8163e:	d829      	bhi.n	81694 <_malloc_r+0x504>
   81640:	0b1a      	lsrs	r2, r3, #12
   81642:	f102 016f 	add.w	r1, r2, #111	; 0x6f
   81646:	00c9      	lsls	r1, r1, #3
   81648:	326e      	adds	r2, #110	; 0x6e
   8164a:	e74d      	b.n	814e8 <_malloc_r+0x358>
   8164c:	4b20      	ldr	r3, [pc, #128]	; (816d0 <_malloc_r+0x540>)
   8164e:	6819      	ldr	r1, [r3, #0]
   81650:	4459      	add	r1, fp
   81652:	6019      	str	r1, [r3, #0]
   81654:	e6b3      	b.n	813be <_malloc_r+0x22e>
   81656:	f3ca 000b 	ubfx	r0, sl, #0, #12
   8165a:	2800      	cmp	r0, #0
   8165c:	f47f aeaf 	bne.w	813be <_malloc_r+0x22e>
   81660:	eb08 030b 	add.w	r3, r8, fp
   81664:	68ba      	ldr	r2, [r7, #8]
   81666:	f043 0301 	orr.w	r3, r3, #1
   8166a:	6053      	str	r3, [r2, #4]
   8166c:	e6ef      	b.n	8144e <_malloc_r+0x2be>
   8166e:	207f      	movs	r0, #127	; 0x7f
   81670:	f44f 717e 	mov.w	r1, #1016	; 0x3f8
   81674:	f04f 0e7e 	mov.w	lr, #126	; 0x7e
   81678:	e5ac      	b.n	811d4 <_malloc_r+0x44>
   8167a:	f104 0108 	add.w	r1, r4, #8
   8167e:	4628      	mov	r0, r5
   81680:	9300      	str	r3, [sp, #0]
   81682:	f000 f997 	bl	819b4 <_free_r>
   81686:	9b00      	ldr	r3, [sp, #0]
   81688:	6819      	ldr	r1, [r3, #0]
   8168a:	e6e0      	b.n	8144e <_malloc_r+0x2be>
   8168c:	2001      	movs	r0, #1
   8168e:	f04f 0900 	mov.w	r9, #0
   81692:	e6bd      	b.n	81410 <_malloc_r+0x280>
   81694:	f5b2 7faa 	cmp.w	r2, #340	; 0x154
   81698:	d805      	bhi.n	816a6 <_malloc_r+0x516>
   8169a:	0bda      	lsrs	r2, r3, #15
   8169c:	f102 0178 	add.w	r1, r2, #120	; 0x78
   816a0:	00c9      	lsls	r1, r1, #3
   816a2:	3277      	adds	r2, #119	; 0x77
   816a4:	e720      	b.n	814e8 <_malloc_r+0x358>
   816a6:	f240 5154 	movw	r1, #1364	; 0x554
   816aa:	428a      	cmp	r2, r1
   816ac:	d805      	bhi.n	816ba <_malloc_r+0x52a>
   816ae:	0c9a      	lsrs	r2, r3, #18
   816b0:	f102 017d 	add.w	r1, r2, #125	; 0x7d
   816b4:	00c9      	lsls	r1, r1, #3
   816b6:	327c      	adds	r2, #124	; 0x7c
   816b8:	e716      	b.n	814e8 <_malloc_r+0x358>
   816ba:	f44f 717e 	mov.w	r1, #1016	; 0x3f8
   816be:	227e      	movs	r2, #126	; 0x7e
   816c0:	e712      	b.n	814e8 <_malloc_r+0x358>
   816c2:	687b      	ldr	r3, [r7, #4]
   816c4:	e780      	b.n	815c8 <_malloc_r+0x438>
   816c6:	08f0      	lsrs	r0, r6, #3
   816c8:	f106 0308 	add.w	r3, r6, #8
   816cc:	e60e      	b.n	812ec <_malloc_r+0x15c>
   816ce:	bf00      	nop
   816d0:	20000b0c 	.word	0x20000b0c

000816d4 <memcpy>:
   816d4:	4684      	mov	ip, r0
   816d6:	ea41 0300 	orr.w	r3, r1, r0
   816da:	f013 0303 	ands.w	r3, r3, #3
   816de:	d149      	bne.n	81774 <memcpy+0xa0>
   816e0:	3a40      	subs	r2, #64	; 0x40
   816e2:	d323      	bcc.n	8172c <memcpy+0x58>
   816e4:	680b      	ldr	r3, [r1, #0]
   816e6:	6003      	str	r3, [r0, #0]
   816e8:	684b      	ldr	r3, [r1, #4]
   816ea:	6043      	str	r3, [r0, #4]
   816ec:	688b      	ldr	r3, [r1, #8]
   816ee:	6083      	str	r3, [r0, #8]
   816f0:	68cb      	ldr	r3, [r1, #12]
   816f2:	60c3      	str	r3, [r0, #12]
   816f4:	690b      	ldr	r3, [r1, #16]
   816f6:	6103      	str	r3, [r0, #16]
   816f8:	694b      	ldr	r3, [r1, #20]
   816fa:	6143      	str	r3, [r0, #20]
   816fc:	698b      	ldr	r3, [r1, #24]
   816fe:	6183      	str	r3, [r0, #24]
   81700:	69cb      	ldr	r3, [r1, #28]
   81702:	61c3      	str	r3, [r0, #28]
   81704:	6a0b      	ldr	r3, [r1, #32]
   81706:	6203      	str	r3, [r0, #32]
   81708:	6a4b      	ldr	r3, [r1, #36]	; 0x24
   8170a:	6243      	str	r3, [r0, #36]	; 0x24
   8170c:	6a8b      	ldr	r3, [r1, #40]	; 0x28
   8170e:	6283      	str	r3, [r0, #40]	; 0x28
   81710:	6acb      	ldr	r3, [r1, #44]	; 0x2c
   81712:	62c3      	str	r3, [r0, #44]	; 0x2c
   81714:	6b0b      	ldr	r3, [r1, #48]	; 0x30
   81716:	6303      	str	r3, [r0, #48]	; 0x30
   81718:	6b4b      	ldr	r3, [r1, #52]	; 0x34
   8171a:	6343      	str	r3, [r0, #52]	; 0x34
   8171c:	6b8b      	ldr	r3, [r1, #56]	; 0x38
   8171e:	6383      	str	r3, [r0, #56]	; 0x38
   81720:	6bcb      	ldr	r3, [r1, #60]	; 0x3c
   81722:	63c3      	str	r3, [r0, #60]	; 0x3c
   81724:	3040      	adds	r0, #64	; 0x40
   81726:	3140      	adds	r1, #64	; 0x40
   81728:	3a40      	subs	r2, #64	; 0x40
   8172a:	d2db      	bcs.n	816e4 <memcpy+0x10>
   8172c:	3230      	adds	r2, #48	; 0x30
   8172e:	d30b      	bcc.n	81748 <memcpy+0x74>
   81730:	680b      	ldr	r3, [r1, #0]
   81732:	6003      	str	r3, [r0, #0]
   81734:	684b      	ldr	r3, [r1, #4]
   81736:	6043      	str	r3, [r0, #4]
   81738:	688b      	ldr	r3, [r1, #8]
   8173a:	6083      	str	r3, [r0, #8]
   8173c:	68cb      	ldr	r3, [r1, #12]
   8173e:	60c3      	str	r3, [r0, #12]
   81740:	3010      	adds	r0, #16
   81742:	3110      	adds	r1, #16
   81744:	3a10      	subs	r2, #16
   81746:	d2f3      	bcs.n	81730 <memcpy+0x5c>
   81748:	320c      	adds	r2, #12
   8174a:	d305      	bcc.n	81758 <memcpy+0x84>
   8174c:	f851 3b04 	ldr.w	r3, [r1], #4
   81750:	f840 3b04 	str.w	r3, [r0], #4
   81754:	3a04      	subs	r2, #4
   81756:	d2f9      	bcs.n	8174c <memcpy+0x78>
   81758:	3204      	adds	r2, #4
   8175a:	d008      	beq.n	8176e <memcpy+0x9a>
   8175c:	07d2      	lsls	r2, r2, #31
   8175e:	bf1c      	itt	ne
   81760:	f811 3b01 	ldrbne.w	r3, [r1], #1
   81764:	f800 3b01 	strbne.w	r3, [r0], #1
   81768:	d301      	bcc.n	8176e <memcpy+0x9a>
   8176a:	880b      	ldrh	r3, [r1, #0]
   8176c:	8003      	strh	r3, [r0, #0]
   8176e:	4660      	mov	r0, ip
   81770:	4770      	bx	lr
   81772:	bf00      	nop
   81774:	2a08      	cmp	r2, #8
   81776:	d313      	bcc.n	817a0 <memcpy+0xcc>
   81778:	078b      	lsls	r3, r1, #30
   8177a:	d0b1      	beq.n	816e0 <memcpy+0xc>
   8177c:	f010 0303 	ands.w	r3, r0, #3
   81780:	d0ae      	beq.n	816e0 <memcpy+0xc>
   81782:	f1c3 0304 	rsb	r3, r3, #4
   81786:	1ad2      	subs	r2, r2, r3
   81788:	07db      	lsls	r3, r3, #31
   8178a:	bf1c      	itt	ne
   8178c:	f811 3b01 	ldrbne.w	r3, [r1], #1
   81790:	f800 3b01 	strbne.w	r3, [r0], #1
   81794:	d3a4      	bcc.n	816e0 <memcpy+0xc>
   81796:	f831 3b02 	ldrh.w	r3, [r1], #2
   8179a:	f820 3b02 	strh.w	r3, [r0], #2
   8179e:	e79f      	b.n	816e0 <memcpy+0xc>
   817a0:	3a04      	subs	r2, #4
   817a2:	d3d9      	bcc.n	81758 <memcpy+0x84>
   817a4:	3a01      	subs	r2, #1
   817a6:	f811 3b01 	ldrb.w	r3, [r1], #1
   817aa:	f800 3b01 	strb.w	r3, [r0], #1
   817ae:	d2f9      	bcs.n	817a4 <memcpy+0xd0>
   817b0:	780b      	ldrb	r3, [r1, #0]
   817b2:	7003      	strb	r3, [r0, #0]
   817b4:	784b      	ldrb	r3, [r1, #1]
   817b6:	7043      	strb	r3, [r0, #1]
   817b8:	788b      	ldrb	r3, [r1, #2]
   817ba:	7083      	strb	r3, [r0, #2]
   817bc:	4660      	mov	r0, ip
   817be:	4770      	bx	lr

000817c0 <__malloc_lock>:
   817c0:	4801      	ldr	r0, [pc, #4]	; (817c8 <__malloc_lock+0x8>)
   817c2:	f000 b9dd 	b.w	81b80 <__retarget_lock_acquire_recursive>
   817c6:	bf00      	nop
   817c8:	20000b50 	.word	0x20000b50

000817cc <__malloc_unlock>:
   817cc:	4801      	ldr	r0, [pc, #4]	; (817d4 <__malloc_unlock+0x8>)
   817ce:	f000 b9d9 	b.w	81b84 <__retarget_lock_release_recursive>
   817d2:	bf00      	nop
   817d4:	20000b50 	.word	0x20000b50

000817d8 <_sbrk_r>:
   817d8:	b538      	push	{r3, r4, r5, lr}
   817da:	2300      	movs	r3, #0
   817dc:	4c06      	ldr	r4, [pc, #24]	; (817f8 <_sbrk_r+0x20>)
   817de:	4605      	mov	r5, r0
   817e0:	4608      	mov	r0, r1
   817e2:	6023      	str	r3, [r4, #0]
   817e4:	f7ff fc5a 	bl	8109c <_sbrk>
   817e8:	1c43      	adds	r3, r0, #1
   817ea:	d000      	beq.n	817ee <_sbrk_r+0x16>
   817ec:	bd38      	pop	{r3, r4, r5, pc}
   817ee:	6823      	ldr	r3, [r4, #0]
   817f0:	2b00      	cmp	r3, #0
   817f2:	d0fb      	beq.n	817ec <_sbrk_r+0x14>
   817f4:	602b      	str	r3, [r5, #0]
   817f6:	bd38      	pop	{r3, r4, r5, pc}
   817f8:	20000b64 	.word	0x20000b64

000817fc <__register_exitproc>:
   817fc:	e92d 43f8 	stmdb	sp!, {r3, r4, r5, r6, r7, r8, r9, lr}
   81800:	4d2c      	ldr	r5, [pc, #176]	; (818b4 <__register_exitproc+0xb8>)
   81802:	4606      	mov	r6, r0
   81804:	6828      	ldr	r0, [r5, #0]
   81806:	4698      	mov	r8, r3
   81808:	460f      	mov	r7, r1
   8180a:	4691      	mov	r9, r2
   8180c:	f000 f9b8 	bl	81b80 <__retarget_lock_acquire_recursive>
   81810:	4b29      	ldr	r3, [pc, #164]	; (818b8 <__register_exitproc+0xbc>)
   81812:	681c      	ldr	r4, [r3, #0]
   81814:	f8d4 3148 	ldr.w	r3, [r4, #328]	; 0x148
   81818:	2b00      	cmp	r3, #0
   8181a:	d03e      	beq.n	8189a <__register_exitproc+0x9e>
   8181c:	685a      	ldr	r2, [r3, #4]
   8181e:	2a1f      	cmp	r2, #31
   81820:	dc1c      	bgt.n	8185c <__register_exitproc+0x60>
   81822:	f102 0e01 	add.w	lr, r2, #1
   81826:	b176      	cbz	r6, 81846 <__register_exitproc+0x4a>
   81828:	2101      	movs	r1, #1
   8182a:	eb03 0482 	add.w	r4, r3, r2, lsl #2
   8182e:	f8c4 9088 	str.w	r9, [r4, #136]	; 0x88
   81832:	f8d3 0188 	ldr.w	r0, [r3, #392]	; 0x188
   81836:	4091      	lsls	r1, r2
   81838:	4308      	orrs	r0, r1
   8183a:	2e02      	cmp	r6, #2
   8183c:	f8c3 0188 	str.w	r0, [r3, #392]	; 0x188
   81840:	f8c4 8108 	str.w	r8, [r4, #264]	; 0x108
   81844:	d023      	beq.n	8188e <__register_exitproc+0x92>
   81846:	3202      	adds	r2, #2
   81848:	f8c3 e004 	str.w	lr, [r3, #4]
   8184c:	6828      	ldr	r0, [r5, #0]
   8184e:	f843 7022 	str.w	r7, [r3, r2, lsl #2]
   81852:	f000 f997 	bl	81b84 <__retarget_lock_release_recursive>
   81856:	2000      	movs	r0, #0
   81858:	e8bd 83f8 	ldmia.w	sp!, {r3, r4, r5, r6, r7, r8, r9, pc}
   8185c:	4b17      	ldr	r3, [pc, #92]	; (818bc <__register_exitproc+0xc0>)
   8185e:	b30b      	cbz	r3, 818a4 <__register_exitproc+0xa8>
   81860:	f44f 70c8 	mov.w	r0, #400	; 0x190
   81864:	f7ff fc84 	bl	81170 <malloc>
   81868:	4603      	mov	r3, r0
   8186a:	b1d8      	cbz	r0, 818a4 <__register_exitproc+0xa8>
   8186c:	2000      	movs	r0, #0
   8186e:	f8d4 1148 	ldr.w	r1, [r4, #328]	; 0x148
   81872:	f04f 0e01 	mov.w	lr, #1
   81876:	6058      	str	r0, [r3, #4]
   81878:	6019      	str	r1, [r3, #0]
   8187a:	4602      	mov	r2, r0
   8187c:	f8c4 3148 	str.w	r3, [r4, #328]	; 0x148
   81880:	f8c3 0188 	str.w	r0, [r3, #392]	; 0x188
   81884:	f8c3 018c 	str.w	r0, [r3, #396]	; 0x18c
   81888:	2e00      	cmp	r6, #0
   8188a:	d0dc      	beq.n	81846 <__register_exitproc+0x4a>
   8188c:	e7cc      	b.n	81828 <__register_exitproc+0x2c>
   8188e:	f8d3 018c 	ldr.w	r0, [r3, #396]	; 0x18c
   81892:	4301      	orrs	r1, r0
   81894:	f8c3 118c 	str.w	r1, [r3, #396]	; 0x18c
   81898:	e7d5      	b.n	81846 <__register_exitproc+0x4a>
   8189a:	f504 73a6 	add.w	r3, r4, #332	; 0x14c
   8189e:	f8c4 3148 	str.w	r3, [r4, #328]	; 0x148
   818a2:	e7bb      	b.n	8181c <__register_exitproc+0x20>
   818a4:	6828      	ldr	r0, [r5, #0]
   818a6:	f000 f96d 	bl	81b84 <__retarget_lock_release_recursive>
   818aa:	f04f 30ff 	mov.w	r0, #4294967295
   818ae:	e8bd 83f8 	ldmia.w	sp!, {r3, r4, r5, r6, r7, r8, r9, pc}
   818b2:	bf00      	nop
   818b4:	20000858 	.word	0x20000858
   818b8:	00081e40 	.word	0x00081e40
   818bc:	00081171 	.word	0x00081171

000818c0 <register_fini>:
   818c0:	4b02      	ldr	r3, [pc, #8]	; (818cc <register_fini+0xc>)
   818c2:	b113      	cbz	r3, 818ca <register_fini+0xa>
   818c4:	4802      	ldr	r0, [pc, #8]	; (818d0 <register_fini+0x10>)
   818c6:	f000 b805 	b.w	818d4 <atexit>
   818ca:	4770      	bx	lr
   818cc:	00000000 	.word	0x00000000
   818d0:	000818e1 	.word	0x000818e1

000818d4 <atexit>:
   818d4:	2300      	movs	r3, #0
   818d6:	4601      	mov	r1, r0
   818d8:	461a      	mov	r2, r3
   818da:	4618      	mov	r0, r3
   818dc:	f7ff bf8e 	b.w	817fc <__register_exitproc>

000818e0 <__libc_fini_array>:
   818e0:	b538      	push	{r3, r4, r5, lr}
   818e2:	4c0a      	ldr	r4, [pc, #40]	; (8190c <__libc_fini_array+0x2c>)
   818e4:	4d0a      	ldr	r5, [pc, #40]	; (81910 <__libc_fini_array+0x30>)
   818e6:	1b64      	subs	r4, r4, r5
   818e8:	10a4      	asrs	r4, r4, #2
   818ea:	d00a      	beq.n	81902 <__libc_fini_array+0x22>
   818ec:	f104 4380 	add.w	r3, r4, #1073741824	; 0x40000000
   818f0:	3b01      	subs	r3, #1
   818f2:	eb05 0583 	add.w	r5, r5, r3, lsl #2
   818f6:	3c01      	subs	r4, #1
   818f8:	f855 3904 	ldr.w	r3, [r5], #-4
   818fc:	4798      	blx	r3
   818fe:	2c00      	cmp	r4, #0
   81900:	d1f9      	bne.n	818f6 <__libc_fini_array+0x16>
   81902:	e8bd 4038 	ldmia.w	sp!, {r3, r4, r5, lr}
   81906:	f000 bab3 	b.w	81e70 <_fini>
   8190a:	bf00      	nop
   8190c:	00081e80 	.word	0x00081e80
   81910:	00081e7c 	.word	0x00081e7c

00081914 <_malloc_trim_r>:
   81914:	b5f8      	push	{r3, r4, r5, r6, r7, lr}
   81916:	460c      	mov	r4, r1
   81918:	4f23      	ldr	r7, [pc, #140]	; (819a8 <_malloc_trim_r+0x94>)
   8191a:	4606      	mov	r6, r0
   8191c:	f7ff ff50 	bl	817c0 <__malloc_lock>
   81920:	68bb      	ldr	r3, [r7, #8]
   81922:	f5c4 617e 	rsb	r1, r4, #4064	; 0xfe0
   81926:	685d      	ldr	r5, [r3, #4]
   81928:	310f      	adds	r1, #15
   8192a:	f025 0503 	bic.w	r5, r5, #3
   8192e:	4429      	add	r1, r5
   81930:	f421 617f 	bic.w	r1, r1, #4080	; 0xff0
   81934:	f021 010f 	bic.w	r1, r1, #15
   81938:	f5a1 5480 	sub.w	r4, r1, #4096	; 0x1000
   8193c:	f5b4 5f80 	cmp.w	r4, #4096	; 0x1000
   81940:	db07      	blt.n	81952 <_malloc_trim_r+0x3e>
   81942:	2100      	movs	r1, #0
   81944:	4630      	mov	r0, r6
   81946:	f7ff ff47 	bl	817d8 <_sbrk_r>
   8194a:	68bb      	ldr	r3, [r7, #8]
   8194c:	442b      	add	r3, r5
   8194e:	4298      	cmp	r0, r3
   81950:	d004      	beq.n	8195c <_malloc_trim_r+0x48>
   81952:	4630      	mov	r0, r6
   81954:	f7ff ff3a 	bl	817cc <__malloc_unlock>
   81958:	2000      	movs	r0, #0
   8195a:	bdf8      	pop	{r3, r4, r5, r6, r7, pc}
   8195c:	4261      	negs	r1, r4
   8195e:	4630      	mov	r0, r6
   81960:	f7ff ff3a 	bl	817d8 <_sbrk_r>
   81964:	3001      	adds	r0, #1
   81966:	d00d      	beq.n	81984 <_malloc_trim_r+0x70>
   81968:	4b10      	ldr	r3, [pc, #64]	; (819ac <_malloc_trim_r+0x98>)
   8196a:	68ba      	ldr	r2, [r7, #8]
   8196c:	6819      	ldr	r1, [r3, #0]
   8196e:	1b2d      	subs	r5, r5, r4
   81970:	f045 0501 	orr.w	r5, r5, #1
   81974:	4630      	mov	r0, r6
   81976:	1b09      	subs	r1, r1, r4
   81978:	6055      	str	r5, [r2, #4]
   8197a:	6019      	str	r1, [r3, #0]
   8197c:	f7ff ff26 	bl	817cc <__malloc_unlock>
   81980:	2001      	movs	r0, #1
   81982:	bdf8      	pop	{r3, r4, r5, r6, r7, pc}
   81984:	2100      	movs	r1, #0
   81986:	4630      	mov	r0, r6
   81988:	f7ff ff26 	bl	817d8 <_sbrk_r>
   8198c:	68ba      	ldr	r2, [r7, #8]
   8198e:	1a83      	subs	r3, r0, r2
   81990:	2b0f      	cmp	r3, #15
   81992:	ddde      	ble.n	81952 <_malloc_trim_r+0x3e>
   81994:	4c06      	ldr	r4, [pc, #24]	; (819b0 <_malloc_trim_r+0x9c>)
   81996:	4905      	ldr	r1, [pc, #20]	; (819ac <_malloc_trim_r+0x98>)
   81998:	6824      	ldr	r4, [r4, #0]
   8199a:	f043 0301 	orr.w	r3, r3, #1
   8199e:	1b00      	subs	r0, r0, r4
   819a0:	6053      	str	r3, [r2, #4]
   819a2:	6008      	str	r0, [r1, #0]
   819a4:	e7d5      	b.n	81952 <_malloc_trim_r+0x3e>
   819a6:	bf00      	nop
   819a8:	20000448 	.word	0x20000448
   819ac:	20000b0c 	.word	0x20000b0c
   819b0:	20000850 	.word	0x20000850

000819b4 <_free_r>:
   819b4:	2900      	cmp	r1, #0
   819b6:	d044      	beq.n	81a42 <_free_r+0x8e>
   819b8:	e92d 41f0 	stmdb	sp!, {r4, r5, r6, r7, r8, lr}
   819bc:	460d      	mov	r5, r1
   819be:	4680      	mov	r8, r0
   819c0:	f7ff fefe 	bl	817c0 <__malloc_lock>
   819c4:	f855 7c04 	ldr.w	r7, [r5, #-4]
   819c8:	4969      	ldr	r1, [pc, #420]	; (81b70 <_free_r+0x1bc>)
   819ca:	f1a5 0408 	sub.w	r4, r5, #8
   819ce:	f027 0301 	bic.w	r3, r7, #1
   819d2:	18e2      	adds	r2, r4, r3
   819d4:	688e      	ldr	r6, [r1, #8]
   819d6:	6850      	ldr	r0, [r2, #4]
   819d8:	42b2      	cmp	r2, r6
   819da:	f020 0003 	bic.w	r0, r0, #3
   819de:	d05e      	beq.n	81a9e <_free_r+0xea>
   819e0:	07fe      	lsls	r6, r7, #31
   819e2:	6050      	str	r0, [r2, #4]
   819e4:	d40b      	bmi.n	819fe <_free_r+0x4a>
   819e6:	f855 7c08 	ldr.w	r7, [r5, #-8]
   819ea:	f101 0e08 	add.w	lr, r1, #8
   819ee:	1be4      	subs	r4, r4, r7
   819f0:	68a5      	ldr	r5, [r4, #8]
   819f2:	443b      	add	r3, r7
   819f4:	4575      	cmp	r5, lr
   819f6:	d06d      	beq.n	81ad4 <_free_r+0x120>
   819f8:	68e7      	ldr	r7, [r4, #12]
   819fa:	60ef      	str	r7, [r5, #12]
   819fc:	60bd      	str	r5, [r7, #8]
   819fe:	1815      	adds	r5, r2, r0
   81a00:	686d      	ldr	r5, [r5, #4]
   81a02:	07ed      	lsls	r5, r5, #31
   81a04:	d53e      	bpl.n	81a84 <_free_r+0xd0>
   81a06:	f043 0201 	orr.w	r2, r3, #1
   81a0a:	6062      	str	r2, [r4, #4]
   81a0c:	50e3      	str	r3, [r4, r3]
   81a0e:	f5b3 7f00 	cmp.w	r3, #512	; 0x200
   81a12:	d217      	bcs.n	81a44 <_free_r+0x90>
   81a14:	2201      	movs	r2, #1
   81a16:	08db      	lsrs	r3, r3, #3
   81a18:	1098      	asrs	r0, r3, #2
   81a1a:	684d      	ldr	r5, [r1, #4]
   81a1c:	4413      	add	r3, r2
   81a1e:	f851 7033 	ldr.w	r7, [r1, r3, lsl #3]
   81a22:	4082      	lsls	r2, r0
   81a24:	eb01 00c3 	add.w	r0, r1, r3, lsl #3
   81a28:	432a      	orrs	r2, r5
   81a2a:	3808      	subs	r0, #8
   81a2c:	60e0      	str	r0, [r4, #12]
   81a2e:	60a7      	str	r7, [r4, #8]
   81a30:	604a      	str	r2, [r1, #4]
   81a32:	f841 4033 	str.w	r4, [r1, r3, lsl #3]
   81a36:	60fc      	str	r4, [r7, #12]
   81a38:	4640      	mov	r0, r8
   81a3a:	e8bd 41f0 	ldmia.w	sp!, {r4, r5, r6, r7, r8, lr}
   81a3e:	f7ff bec5 	b.w	817cc <__malloc_unlock>
   81a42:	4770      	bx	lr
   81a44:	0a5a      	lsrs	r2, r3, #9
   81a46:	2a04      	cmp	r2, #4
   81a48:	d852      	bhi.n	81af0 <_free_r+0x13c>
   81a4a:	099a      	lsrs	r2, r3, #6
   81a4c:	f102 0739 	add.w	r7, r2, #57	; 0x39
   81a50:	00ff      	lsls	r7, r7, #3
   81a52:	f102 0538 	add.w	r5, r2, #56	; 0x38
   81a56:	19c8      	adds	r0, r1, r7
   81a58:	59ca      	ldr	r2, [r1, r7]
   81a5a:	3808      	subs	r0, #8
   81a5c:	4290      	cmp	r0, r2
   81a5e:	d04f      	beq.n	81b00 <_free_r+0x14c>
   81a60:	6851      	ldr	r1, [r2, #4]
   81a62:	f021 0103 	bic.w	r1, r1, #3
   81a66:	428b      	cmp	r3, r1
   81a68:	d232      	bcs.n	81ad0 <_free_r+0x11c>
   81a6a:	6892      	ldr	r2, [r2, #8]
   81a6c:	4290      	cmp	r0, r2
   81a6e:	d1f7      	bne.n	81a60 <_free_r+0xac>
   81a70:	68c3      	ldr	r3, [r0, #12]
   81a72:	60a0      	str	r0, [r4, #8]
   81a74:	60e3      	str	r3, [r4, #12]
   81a76:	609c      	str	r4, [r3, #8]
   81a78:	60c4      	str	r4, [r0, #12]
   81a7a:	4640      	mov	r0, r8
   81a7c:	e8bd 41f0 	ldmia.w	sp!, {r4, r5, r6, r7, r8, lr}
   81a80:	f7ff bea4 	b.w	817cc <__malloc_unlock>
   81a84:	6895      	ldr	r5, [r2, #8]
   81a86:	4f3b      	ldr	r7, [pc, #236]	; (81b74 <_free_r+0x1c0>)
   81a88:	4403      	add	r3, r0
   81a8a:	42bd      	cmp	r5, r7
   81a8c:	d040      	beq.n	81b10 <_free_r+0x15c>
   81a8e:	68d0      	ldr	r0, [r2, #12]
   81a90:	f043 0201 	orr.w	r2, r3, #1
   81a94:	60e8      	str	r0, [r5, #12]
   81a96:	6085      	str	r5, [r0, #8]
   81a98:	6062      	str	r2, [r4, #4]
   81a9a:	50e3      	str	r3, [r4, r3]
   81a9c:	e7b7      	b.n	81a0e <_free_r+0x5a>
   81a9e:	07ff      	lsls	r7, r7, #31
   81aa0:	4403      	add	r3, r0
   81aa2:	d407      	bmi.n	81ab4 <_free_r+0x100>
   81aa4:	f855 5c08 	ldr.w	r5, [r5, #-8]
   81aa8:	1b64      	subs	r4, r4, r5
   81aaa:	68e2      	ldr	r2, [r4, #12]
   81aac:	68a0      	ldr	r0, [r4, #8]
   81aae:	442b      	add	r3, r5
   81ab0:	60c2      	str	r2, [r0, #12]
   81ab2:	6090      	str	r0, [r2, #8]
   81ab4:	4a30      	ldr	r2, [pc, #192]	; (81b78 <_free_r+0x1c4>)
   81ab6:	f043 0001 	orr.w	r0, r3, #1
   81aba:	6812      	ldr	r2, [r2, #0]
   81abc:	6060      	str	r0, [r4, #4]
   81abe:	4293      	cmp	r3, r2
   81ac0:	608c      	str	r4, [r1, #8]
   81ac2:	d3b9      	bcc.n	81a38 <_free_r+0x84>
   81ac4:	4b2d      	ldr	r3, [pc, #180]	; (81b7c <_free_r+0x1c8>)
   81ac6:	4640      	mov	r0, r8
   81ac8:	6819      	ldr	r1, [r3, #0]
   81aca:	f7ff ff23 	bl	81914 <_malloc_trim_r>
   81ace:	e7b3      	b.n	81a38 <_free_r+0x84>
   81ad0:	4610      	mov	r0, r2
   81ad2:	e7cd      	b.n	81a70 <_free_r+0xbc>
   81ad4:	1811      	adds	r1, r2, r0
   81ad6:	6849      	ldr	r1, [r1, #4]
   81ad8:	07c9      	lsls	r1, r1, #31
   81ada:	d444      	bmi.n	81b66 <_free_r+0x1b2>
   81adc:	6891      	ldr	r1, [r2, #8]
   81ade:	4403      	add	r3, r0
   81ae0:	68d2      	ldr	r2, [r2, #12]
   81ae2:	f043 0001 	orr.w	r0, r3, #1
   81ae6:	60ca      	str	r2, [r1, #12]
   81ae8:	6091      	str	r1, [r2, #8]
   81aea:	6060      	str	r0, [r4, #4]
   81aec:	50e3      	str	r3, [r4, r3]
   81aee:	e7a3      	b.n	81a38 <_free_r+0x84>
   81af0:	2a14      	cmp	r2, #20
   81af2:	d816      	bhi.n	81b22 <_free_r+0x16e>
   81af4:	f102 075c 	add.w	r7, r2, #92	; 0x5c
   81af8:	00ff      	lsls	r7, r7, #3
   81afa:	f102 055b 	add.w	r5, r2, #91	; 0x5b
   81afe:	e7aa      	b.n	81a56 <_free_r+0xa2>
   81b00:	2301      	movs	r3, #1
   81b02:	10aa      	asrs	r2, r5, #2
   81b04:	684d      	ldr	r5, [r1, #4]
   81b06:	4093      	lsls	r3, r2
   81b08:	432b      	orrs	r3, r5
   81b0a:	604b      	str	r3, [r1, #4]
   81b0c:	4603      	mov	r3, r0
   81b0e:	e7b0      	b.n	81a72 <_free_r+0xbe>
   81b10:	f043 0201 	orr.w	r2, r3, #1
   81b14:	614c      	str	r4, [r1, #20]
   81b16:	610c      	str	r4, [r1, #16]
   81b18:	60e5      	str	r5, [r4, #12]
   81b1a:	60a5      	str	r5, [r4, #8]
   81b1c:	6062      	str	r2, [r4, #4]
   81b1e:	50e3      	str	r3, [r4, r3]
   81b20:	e78a      	b.n	81a38 <_free_r+0x84>
   81b22:	2a54      	cmp	r2, #84	; 0x54
   81b24:	d806      	bhi.n	81b34 <_free_r+0x180>
   81b26:	0b1a      	lsrs	r2, r3, #12
   81b28:	f102 076f 	add.w	r7, r2, #111	; 0x6f
   81b2c:	00ff      	lsls	r7, r7, #3
   81b2e:	f102 056e 	add.w	r5, r2, #110	; 0x6e
   81b32:	e790      	b.n	81a56 <_free_r+0xa2>
   81b34:	f5b2 7faa 	cmp.w	r2, #340	; 0x154
   81b38:	d806      	bhi.n	81b48 <_free_r+0x194>
   81b3a:	0bda      	lsrs	r2, r3, #15
   81b3c:	f102 0778 	add.w	r7, r2, #120	; 0x78
   81b40:	00ff      	lsls	r7, r7, #3
   81b42:	f102 0577 	add.w	r5, r2, #119	; 0x77
   81b46:	e786      	b.n	81a56 <_free_r+0xa2>
   81b48:	f240 5054 	movw	r0, #1364	; 0x554
   81b4c:	4282      	cmp	r2, r0
   81b4e:	d806      	bhi.n	81b5e <_free_r+0x1aa>
   81b50:	0c9a      	lsrs	r2, r3, #18
   81b52:	f102 077d 	add.w	r7, r2, #125	; 0x7d
   81b56:	00ff      	lsls	r7, r7, #3
   81b58:	f102 057c 	add.w	r5, r2, #124	; 0x7c
   81b5c:	e77b      	b.n	81a56 <_free_r+0xa2>
   81b5e:	f44f 777e 	mov.w	r7, #1016	; 0x3f8
   81b62:	257e      	movs	r5, #126	; 0x7e
   81b64:	e777      	b.n	81a56 <_free_r+0xa2>
   81b66:	f043 0101 	orr.w	r1, r3, #1
   81b6a:	6061      	str	r1, [r4, #4]
   81b6c:	6013      	str	r3, [r2, #0]
   81b6e:	e763      	b.n	81a38 <_free_r+0x84>
   81b70:	20000448 	.word	0x20000448
   81b74:	20000450 	.word	0x20000450
   81b78:	20000854 	.word	0x20000854
   81b7c:	20000b3c 	.word	0x20000b3c

00081b80 <__retarget_lock_acquire_recursive>:
   81b80:	4770      	bx	lr
   81b82:	bf00      	nop

00081b84 <__retarget_lock_release_recursive>:
   81b84:	4770      	bx	lr
   81b86:	bf00      	nop

00081b88 <_ZL11g_gpio_pins>:
   81b88:	0002 0000 1000 400e 0000 0200 000c 0000     .......@........
   81b98:	0003 0000 1200 400e 0000 1000 000d 0000     .......@........
   81ba8:	0005 0000 1200 400e 0000 0200 000d 0000     .......@........
   81bb8:	0006 0000 1200 400e 0000 0100 000d 0000     .......@........
   81bc8:	0007 0000 1200 400e 0000 0080 000d 0000     .......@........
   81bd8:	0008 0000 1200 400e 0000 0040 000d 0000     .......@..@.....
   81be8:	0009 0000 1200 400e 0000 0020 000d 0000     .......@.. .....
   81bf8:	000a 0000 1200 400e 0000 2000 000d 0000     .......@... ....
   81c08:	0017 0000 0e00 400e 4000 0000 000b 0000     .......@.@......
   81c18:	0018 0000 0e00 400e 8000 0000 000b 0000     .......@........
   81c28:	0028 0000 1200 400e 0100 0000 000d 0000     (......@........
   81c38:	0029 0000 1200 400e 0200 0000 000d 0000     )......@........
   81c48:	002d 0000 1200 400e 0000 0004 000d 0000     -......@........
   81c58:	0030 0000 1200 400e 8000 0000 000d 0000     0......@........
   81c68:	0036 0000 0e00 400e 0000 0001 000b 0000     6......@........
   81c78:	003d 0000 0e00 400e 0004 0000 000b 0000     =......@........

00081c88 <CSWTCH.12>:
   81c88:	0300 0001                                   ....

00081c8c <_ZL12g_uart_ports>:
   81c8c:	0000 0000 0800 400e 0000 0000 0008 0000     .......@........
   81c9c:	0e00 400e 0100 0000 000b 0000 0000 0000     ...@............
   81cac:	0e00 400e 0200 0000 000b 0000 0000 0000     ...@............
   81cbc:	0001 0000 0000 0000 8000 4009 0011 0000     ...........@....
   81ccc:	0e00 400e 0400 0000 000b 0000 0000 0000     ...@............
   81cdc:	0e00 400e 0800 0000 000b 0000 0000 0000     ...@............
   81cec:	0001 0000 0000 0000 c000 4009 0012 0000     ...........@....
   81cfc:	0e00 400e 1000 0000 000b 0000 0000 0000     ...@............
   81d0c:	0e00 400e 2000 0000 000b 0000 0000 0000     ...@. ..........
   81d1c:	0001 0000 0000 0000 4000 400a 0014 0000     .........@.@....
   81d2c:	1400 400e 0020 0000 000e 0000 0001 0000     ...@ ...........
   81d3c:	1400 400e 0010 0000 000e 0000 0001 0000     ...@............

00081d4c <_ZL23g_device_descriptor_iad>:
   81d4c:	0112 0200 02ef 4001 2341 003e 0100 0201     .......@A#>.....
   81d5c:	0103                                        ..

00081d5e <_ZL19g_device_descriptor>:
   81d5e:	0112 0200 0000 4000 2341 003e 0100 0201     .......@A#>.....
   81d6e:	0103                                        ..

00081d70 <_ZL16g_cdc_descriptor>:
   81d70:	0b08 0200 0202 0001 0409 0000 0201 0002     ................
   81d80:	0500 0024 0110 2405 0101 0401 0224 0506     ..$....$....$...
   81d90:	0624 0100 0507 0381 0010 0910 0104 0200     $...............
   81da0:	000a 0000 0507 0283 0200 0700 0205 0002     ................
   81db0:	0002                                        ..

00081db2 <_ZL28g_cdc_other_speed_descriptor>:
   81db2:	0b08 0200 0202 0001 0409 0000 0201 0002     ................
   81dc2:	0500 0024 0110 2405 0101 0401 0224 0506     ..$....$....$...
   81dd2:	0624 0100 0507 0381 0010 0910 0104 0200     $...............
   81de2:	000a 0000 0507 0283 0040 0700 0205 4002     ........@......@
	...

00081df4 <_ZL18g_device_qualifier>:
   81df4:	060a 0200 0000 4000 0401                         .......@.

00081dfd <_ZZL28usb_send_language_descriptorvE19language_descriptor>:
   81dfd:	0304 0409 4749 5341 4c00 5043 4220 7361     ....IGAS.LCP Bas
   81e0d:	6369 4c00 5043 0000                              ic.LCP.

00081e14 <_ZTV10SerialPort>:
	...
   81e1c:	0f15 0008 0f19 0008 0fe5 0008               ............

00081e28 <CSWTCH.18>:
   81e28:	0201 0003                                   ....

00081e2c <_ZTV13UsbSerialPort>:
	...
   81e34:	0fb1 0008 0fb5 0008 10d5 0008               ............

00081e40 <_global_impure_ptr>:
   81e40:	0020 2000                                    .. 

00081e44 <_init>:
   81e44:	b5f8      	push	{r3, r4, r5, r6, r7, lr}
   81e46:	bf00      	nop
   81e48:	bcf8      	pop	{r3, r4, r5, r6, r7}
   81e4a:	bc08      	pop	{r3}
   81e4c:	469e      	mov	lr, r3
   81e4e:	4770      	bx	lr

00081e50 <__init_array_start>:
   81e50:	000818c1 	.word	0x000818c1

00081e54 <__frame_dummy_init_array_entry>:
   81e54:	00080119 00080ea5 00080ebd 00080ed1     ................
   81e64:	00080f2d 00080f99 00080fc9              -...........

00081e70 <_fini>:
   81e70:	b5f8      	push	{r3, r4, r5, r6, r7, lr}
   81e72:	bf00      	nop
   81e74:	bcf8      	pop	{r3, r4, r5, r6, r7}
   81e76:	bc08      	pop	{r3}
   81e78:	469e      	mov	lr, r3
   81e7a:	4770      	bx	lr

00081e7c <__fini_array_start>:
   81e7c:	000800f5 	.word	0x000800f5
