
LCP_Basic.elf:     file format elf32-littlearm

Sections:
Idx Name          Size      VMA       LMA       File off  Algn
  0 .text         00002488  00080000  00080000  00010000  2**2
                  CONTENTS, ALLOC, LOAD, READONLY, CODE
  1 .ARM.exidx    00000008  00082488  00082488  00012488  2**2
                  CONTENTS, ALLOC, LOAD, READONLY, DATA
  2 .relocate     00000894  20000000  00082490  00020000  2**3
                  CONTENTS, ALLOC, LOAD, CODE
  3 .bss          0000030c  20000894  00082d24  00020894  2**2
                  ALLOC
  4 .stack        00000400  20000ba0  00083030  00020894  2**0
                  ALLOC
  5 .heap         00000200  20000fa0  00083430  00020894  2**0
                  ALLOC
  6 .ARM.attributes 00000029  00000000  00000000  00020894  2**0
                  CONTENTS, READONLY
  7 .comment      00000059  00000000  00000000  000208bd  2**0
                  CONTENTS, READONLY
  8 .debug_info   00016bf0  00000000  00000000  00020916  2**0
                  CONTENTS, READONLY, DEBUGGING
  9 .debug_abbrev 00003ef3  00000000  00000000  00037506  2**0
                  CONTENTS, READONLY, DEBUGGING
 10 .debug_loc    00006321  00000000  00000000  0003b3f9  2**0
                  CONTENTS, READONLY, DEBUGGING
 11 .debug_aranges 00000ad8  00000000  00000000  0004171a  2**0
                  CONTENTS, READONLY, DEBUGGING
 12 .debug_ranges 00000a28  00000000  00000000  000421f2  2**0
                  CONTENTS, READONLY, DEBUGGING
 13 .debug_macro  000150a7  00000000  00000000  00042c1a  2**0
                  CONTENTS, READONLY, DEBUGGING
 14 .debug_line   00007e92  00000000  00000000  00057cc1  2**0
                  CONTENTS, READONLY, DEBUGGING
 15 .debug_str    00059b53  00000000  00000000  0005fb53  2**0
                  CONTENTS, READONLY, DEBUGGING
 16 .debug_frame  00001f40  00000000  00000000  000b96a8  2**2
                  CONTENTS, READONLY, DEBUGGING

Disassembly of section .text:

00080000 <exception_table>:
   80000:	a0 0f 00 20 f5 02 08 00 f1 02 08 00 f1 02 08 00     ... ............
   80010:	f1 02 08 00 f1 02 08 00 f1 02 08 00 00 00 00 00     ................
	...
   8002c:	f1 02 08 00 f1 02 08 00 00 00 00 00 f1 02 08 00     ................
   8003c:	01 07 08 00 f1 02 08 00 f1 02 08 00 f1 02 08 00     ................
   8004c:	f1 02 08 00 f1 02 08 00 f1 02 08 00 f1 02 08 00     ................
   8005c:	f1 02 08 00 f1 02 08 00 f1 02 08 00 00 00 00 00     ................
   8006c:	f1 02 08 00 f1 02 08 00 f1 02 08 00 f1 02 08 00     ................
	...
   80084:	f1 02 08 00 f1 02 08 00 f1 02 08 00 f1 02 08 00     ................
   80094:	f1 02 08 00 f1 02 08 00 f1 02 08 00 f1 02 08 00     ................
   800a4:	00 00 00 00 f1 02 08 00 f1 02 08 00 f1 02 08 00     ................
   800b4:	f1 02 08 00 f1 02 08 00 f1 02 08 00 f1 02 08 00     ................
   800c4:	f1 02 08 00 f1 02 08 00 f1 02 08 00 f1 02 08 00     ................
   800d4:	f1 02 08 00 f1 02 08 00 f1 02 08 00 09 12 08 00     ................
   800e4:	f1 02 08 00 f1 02 08 00 f1 02 08 00 f1 02 08 00     ................

000800f4 <__do_global_dtors_aux>:
   800f4:	b510      	push	{r4, lr}
   800f6:	4c05      	ldr	r4, [pc, #20]	; (8010c <__do_global_dtors_aux+0x18>)
   800f8:	7823      	ldrb	r3, [r4, #0]
   800fa:	b933      	cbnz	r3, 8010a <__do_global_dtors_aux+0x16>
   800fc:	4b04      	ldr	r3, [pc, #16]	; (80110 <__do_global_dtors_aux+0x1c>)
   800fe:	b113      	cbz	r3, 80106 <__do_global_dtors_aux+0x12>
   80100:	4804      	ldr	r0, [pc, #16]	; (80114 <__do_global_dtors_aux+0x20>)
   80102:	f3af 8000 	nop.w
   80106:	2301      	movs	r3, #1
   80108:	7023      	strb	r3, [r4, #0]
   8010a:	bd10      	pop	{r4, pc}
   8010c:	20000894 	.word	0x20000894
   80110:	00000000 	.word	0x00000000
   80114:	00082490 	.word	0x00082490

00080118 <frame_dummy>:
   80118:	4b0c      	ldr	r3, [pc, #48]	; (8014c <frame_dummy+0x34>)
   8011a:	b143      	cbz	r3, 8012e <frame_dummy+0x16>
   8011c:	480c      	ldr	r0, [pc, #48]	; (80150 <frame_dummy+0x38>)
   8011e:	b510      	push	{r4, lr}
   80120:	490c      	ldr	r1, [pc, #48]	; (80154 <frame_dummy+0x3c>)
   80122:	f3af 8000 	nop.w
   80126:	480c      	ldr	r0, [pc, #48]	; (80158 <frame_dummy+0x40>)
   80128:	6803      	ldr	r3, [r0, #0]
   8012a:	b923      	cbnz	r3, 80136 <frame_dummy+0x1e>
   8012c:	bd10      	pop	{r4, pc}
   8012e:	480a      	ldr	r0, [pc, #40]	; (80158 <frame_dummy+0x40>)
   80130:	6803      	ldr	r3, [r0, #0]
   80132:	b933      	cbnz	r3, 80142 <frame_dummy+0x2a>
   80134:	4770      	bx	lr
   80136:	4b09      	ldr	r3, [pc, #36]	; (8015c <frame_dummy+0x44>)
   80138:	2b00      	cmp	r3, #0
   8013a:	d0f7      	beq.n	8012c <frame_dummy+0x14>
   8013c:	e8bd 4010 	ldmia.w	sp!, {r4, lr}
   80140:	4718      	bx	r3
   80142:	4b06      	ldr	r3, [pc, #24]	; (8015c <frame_dummy+0x44>)
   80144:	2b00      	cmp	r3, #0
   80146:	d0f5      	beq.n	80134 <frame_dummy+0x1c>
   80148:	4718      	bx	r3
   8014a:	bf00      	nop
   8014c:	00000000 	.word	0x00000000
   80150:	00082490 	.word	0x00082490
   80154:	20000898 	.word	0x20000898
   80158:	00082490 	.word	0x00082490
   8015c:	00000000 	.word	0x00000000

00080160 <_Z5setupv>:
#include "app.hpp"
#include "../board/lcp_board.hpp"
#include "../platform/platform.hpp"

void setup(void)
{
   80160:	b510      	push	{r4, lr}
    lcp_board_init_gpio();
   80162:	4b10      	ldr	r3, [pc, #64]	; (801a4 <_Z5setupv+0x44>)
   80164:	4798      	blx	r3

    Serial.begin(9600U, SERIAL_8N1);
   80166:	2200      	movs	r2, #0
   80168:	f44f 5116 	mov.w	r1, #9600	; 0x2580
   8016c:	480e      	ldr	r0, [pc, #56]	; (801a8 <_Z5setupv+0x48>)
   8016e:	4c0f      	ldr	r4, [pc, #60]	; (801ac <_Z5setupv+0x4c>)
   80170:	47a0      	blx	r4
    Serial1.begin(9600U, SERIAL_8N1);
   80172:	2200      	movs	r2, #0
   80174:	f44f 5116 	mov.w	r1, #9600	; 0x2580
   80178:	480d      	ldr	r0, [pc, #52]	; (801b0 <_Z5setupv+0x50>)
   8017a:	47a0      	blx	r4
    Serial2.begin(9600U, SERIAL_8N1);
   8017c:	2200      	movs	r2, #0
   8017e:	f44f 5116 	mov.w	r1, #9600	; 0x2580
   80182:	480c      	ldr	r0, [pc, #48]	; (801b4 <_Z5setupv+0x54>)
   80184:	47a0      	blx	r4
    Serial3.begin(9600U, SERIAL_8N1);
   80186:	2200      	movs	r2, #0
   80188:	f44f 5116 	mov.w	r1, #9600	; 0x2580
   8018c:	480a      	ldr	r0, [pc, #40]	; (801b8 <_Z5setupv+0x58>)
   8018e:	47a0      	blx	r4

    SerialUSB.begin(115200U, SERIAL_8N1);
   80190:	2200      	movs	r2, #0
   80192:	f44f 31e1 	mov.w	r1, #115200	; 0x1c200
   80196:	4809      	ldr	r0, [pc, #36]	; (801bc <_Z5setupv+0x5c>)
   80198:	4b09      	ldr	r3, [pc, #36]	; (801c0 <_Z5setupv+0x60>)
   8019a:	4798      	blx	r3

    SPI.begin();
   8019c:	4809      	ldr	r0, [pc, #36]	; (801c4 <_Z5setupv+0x64>)
   8019e:	4b0a      	ldr	r3, [pc, #40]	; (801c8 <_Z5setupv+0x68>)
   801a0:	4798      	blx	r3
   801a2:	bd10      	pop	{r4, pc}
   801a4:	000801dd 	.word	0x000801dd
   801a8:	20000b14 	.word	0x20000b14
   801ac:	00081591 	.word	0x00081591
   801b0:	20000b1c 	.word	0x20000b1c
   801b4:	20000b24 	.word	0x20000b24
   801b8:	20000b2c 	.word	0x20000b2c
   801bc:	2000004c 	.word	0x2000004c
   801c0:	000816bd 	.word	0x000816bd
   801c4:	20000b34 	.word	0x20000b34
   801c8:	00081659 	.word	0x00081659

000801cc <_Z4loopv>:
}

void loop(void)
{
   801cc:	b508      	push	{r3, lr}
    delay(1U);
   801ce:	2001      	movs	r0, #1
   801d0:	4b01      	ldr	r3, [pc, #4]	; (801d8 <_Z4loopv+0xc>)
   801d2:	4798      	blx	r3
   801d4:	bd08      	pop	{r3, pc}
   801d6:	bf00      	nop
   801d8:	000814ed 	.word	0x000814ed

000801dc <_Z19lcp_board_init_gpiov>:
 */

#include "lcp_board.hpp"

void lcp_board_init_gpio(void)
{
   801dc:	b538      	push	{r3, r4, r5, lr}
    pinMode(LCP_PIN_WIZ_INT, INPUT);
   801de:	2100      	movs	r1, #0
   801e0:	2002      	movs	r0, #2
   801e2:	4d40      	ldr	r5, [pc, #256]	; (802e4 <_Z19lcp_board_init_gpiov+0x108>)
   801e4:	47a8      	blx	r5

    pinMode(LCP_PIN_UART1_CS, OUTPUT);
   801e6:	2101      	movs	r1, #1
   801e8:	2003      	movs	r0, #3
   801ea:	47a8      	blx	r5
    pinMode(LCP_PIN_UART2_CS, OUTPUT);
   801ec:	2101      	movs	r1, #1
   801ee:	2005      	movs	r0, #5
   801f0:	47a8      	blx	r5
    pinMode(LCP_PIN_UART3_CS, OUTPUT);
   801f2:	2101      	movs	r1, #1
   801f4:	2006      	movs	r0, #6
   801f6:	47a8      	blx	r5

    pinMode(LCP_PIN_MICROSD_CS, OUTPUT);
   801f8:	2101      	movs	r1, #1
   801fa:	2017      	movs	r0, #23
   801fc:	47a8      	blx	r5
    pinMode(LCP_PIN_ETH1_CS, OUTPUT);
   801fe:	2101      	movs	r1, #1
   80200:	200a      	movs	r0, #10
   80202:	47a8      	blx	r5
    pinMode(LCP_PIN_ETH2_CS, OUTPUT);
   80204:	2101      	movs	r1, #1
   80206:	2030      	movs	r0, #48	; 0x30
   80208:	47a8      	blx	r5

    pinMode(LCP_PIN_X2X_LED, OUTPUT);
   8020a:	2101      	movs	r1, #1
   8020c:	2018      	movs	r0, #24
   8020e:	47a8      	blx	r5
    pinMode(LCP_PIN_PLC_OK, OUTPUT);
   80210:	2101      	movs	r1, #1
   80212:	2028      	movs	r0, #40	; 0x28
   80214:	47a8      	blx	r5
    pinMode(LCP_PIN_SD_OK, OUTPUT);
   80216:	2101      	movs	r1, #1
   80218:	2029      	movs	r0, #41	; 0x29
   8021a:	47a8      	blx	r5
    pinMode(LCP_PIN_X2X_TRANSMIT, OUTPUT);
   8021c:	2101      	movs	r1, #1
   8021e:	202d      	movs	r0, #45	; 0x2d
   80220:	47a8      	blx	r5

    pinMode(LCP_PIN_A0, OUTPUT);
   80222:	2101      	movs	r1, #1
   80224:	2036      	movs	r0, #54	; 0x36
   80226:	47a8      	blx	r5
    pinMode(LCP_PIN_A7, OUTPUT);
   80228:	2101      	movs	r1, #1
   8022a:	203d      	movs	r0, #61	; 0x3d
   8022c:	47a8      	blx	r5

    digitalWrite(LCP_PIN_A7, LOW);
   8022e:	2100      	movs	r1, #0
   80230:	203d      	movs	r0, #61	; 0x3d
   80232:	4c2d      	ldr	r4, [pc, #180]	; (802e8 <_Z19lcp_board_init_gpiov+0x10c>)
   80234:	47a0      	blx	r4
    digitalWrite(LCP_PIN_A0, HIGH);
   80236:	2101      	movs	r1, #1
   80238:	2036      	movs	r0, #54	; 0x36
   8023a:	47a0      	blx	r4

    digitalWrite(LCP_PIN_X2X_LED, LOW);
   8023c:	2100      	movs	r1, #0
   8023e:	2018      	movs	r0, #24
   80240:	47a0      	blx	r4

    digitalWrite(LCP_PIN_UART1_CS, HIGH);
   80242:	2101      	movs	r1, #1
   80244:	2003      	movs	r0, #3
   80246:	47a0      	blx	r4
    digitalWrite(LCP_PIN_UART2_CS, HIGH);
   80248:	2101      	movs	r1, #1
   8024a:	2005      	movs	r0, #5
   8024c:	47a0      	blx	r4
    digitalWrite(LCP_PIN_UART3_CS, HIGH);
   8024e:	2101      	movs	r1, #1
   80250:	2006      	movs	r0, #6
   80252:	47a0      	blx	r4

    digitalWrite(LCP_PIN_MICROSD_CS, HIGH);
   80254:	2101      	movs	r1, #1
   80256:	2017      	movs	r0, #23
   80258:	47a0      	blx	r4
    digitalWrite(LCP_PIN_ETH1_CS, HIGH);
   8025a:	2101      	movs	r1, #1
   8025c:	200a      	movs	r0, #10
   8025e:	47a0      	blx	r4
    digitalWrite(LCP_PIN_ETH2_CS, HIGH);
   80260:	2101      	movs	r1, #1
   80262:	2030      	movs	r0, #48	; 0x30
   80264:	47a0      	blx	r4

    digitalWrite(LCP_PIN_X2X_TRANSMIT, LOW);
   80266:	2100      	movs	r1, #0
   80268:	202d      	movs	r0, #45	; 0x2d
   8026a:	47a0      	blx	r4

    pinMode(LCP_PIN_RS485_DE_0, OUTPUT);
   8026c:	2101      	movs	r1, #1
   8026e:	202d      	movs	r0, #45	; 0x2d
   80270:	47a8      	blx	r5
    pinMode(LCP_PIN_RS485_DE_1, OUTPUT);
   80272:	2101      	movs	r1, #1
   80274:	2007      	movs	r0, #7
   80276:	47a8      	blx	r5
    pinMode(LCP_PIN_RS485_DE_2, OUTPUT);
   80278:	2101      	movs	r1, #1
   8027a:	2008      	movs	r0, #8
   8027c:	47a8      	blx	r5
    pinMode(LCP_PIN_RS485_DE_3, OUTPUT);
   8027e:	2101      	movs	r1, #1
   80280:	2009      	movs	r0, #9
   80282:	47a8      	blx	r5

    digitalWrite(LCP_PIN_RS485_DE_0, LCP_RS485_RECEIVE);
   80284:	2100      	movs	r1, #0
   80286:	202d      	movs	r0, #45	; 0x2d
   80288:	47a0      	blx	r4
    digitalWrite(LCP_PIN_RS485_DE_1, LCP_RS485_RECEIVE);
   8028a:	2100      	movs	r1, #0
   8028c:	2007      	movs	r0, #7
   8028e:	47a0      	blx	r4
    digitalWrite(LCP_PIN_RS485_DE_2, LCP_RS485_RECEIVE);
   80290:	2100      	movs	r1, #0
   80292:	2008      	movs	r0, #8
   80294:	47a0      	blx	r4
    digitalWrite(LCP_PIN_RS485_DE_3, LCP_RS485_RECEIVE);
   80296:	2100      	movs	r1, #0
   80298:	2009      	movs	r0, #9
   8029a:	47a0      	blx	r4

    delay(100U);
   8029c:	2064      	movs	r0, #100	; 0x64
   8029e:	4d13      	ldr	r5, [pc, #76]	; (802ec <_Z19lcp_board_init_gpiov+0x110>)
   802a0:	47a8      	blx	r5
    digitalWrite(LCP_PIN_RS485_DE_0, LCP_RS485_TRANSMIT);
   802a2:	2101      	movs	r1, #1
   802a4:	202d      	movs	r0, #45	; 0x2d
   802a6:	47a0      	blx	r4

    delay(100U);
   802a8:	2064      	movs	r0, #100	; 0x64
   802aa:	47a8      	blx	r5
    digitalWrite(LCP_PIN_RS485_DE_1, LCP_RS485_TRANSMIT);
   802ac:	2101      	movs	r1, #1
   802ae:	2007      	movs	r0, #7
   802b0:	47a0      	blx	r4

    delay(100U);
   802b2:	2064      	movs	r0, #100	; 0x64
   802b4:	47a8      	blx	r5
    digitalWrite(LCP_PIN_RS485_DE_2, LCP_RS485_TRANSMIT);
   802b6:	2101      	movs	r1, #1
   802b8:	2008      	movs	r0, #8
   802ba:	47a0      	blx	r4

    delay(100U);
   802bc:	2064      	movs	r0, #100	; 0x64
   802be:	47a8      	blx	r5
    digitalWrite(LCP_PIN_RS485_DE_3, LCP_RS485_TRANSMIT);
   802c0:	2101      	movs	r1, #1
   802c2:	2009      	movs	r0, #9
   802c4:	47a0      	blx	r4

    delay(100U);
   802c6:	2064      	movs	r0, #100	; 0x64
   802c8:	47a8      	blx	r5
    digitalWrite(LCP_PIN_RS485_DE_0, LCP_RS485_RECEIVE);
   802ca:	2100      	movs	r1, #0
   802cc:	202d      	movs	r0, #45	; 0x2d
   802ce:	47a0      	blx	r4
    digitalWrite(LCP_PIN_RS485_DE_1, LCP_RS485_RECEIVE);
   802d0:	2100      	movs	r1, #0
   802d2:	2007      	movs	r0, #7
   802d4:	47a0      	blx	r4
    digitalWrite(LCP_PIN_RS485_DE_2, LCP_RS485_RECEIVE);
   802d6:	2100      	movs	r1, #0
   802d8:	2008      	movs	r0, #8
   802da:	47a0      	blx	r4
    digitalWrite(LCP_PIN_RS485_DE_3, LCP_RS485_RECEIVE);
   802dc:	2100      	movs	r1, #0
   802de:	2009      	movs	r0, #9
   802e0:	47a0      	blx	r4
   802e2:	bd38      	pop	{r3, r4, r5, pc}
   802e4:	000813e5 	.word	0x000813e5
   802e8:	00081401 	.word	0x00081401
   802ec:	000814ed 	.word	0x000814ed

000802f0 <Dummy_Handler>:

/**
 * \brief Default interrupt handler for unused IRQs.
 */
void Dummy_Handler(void)
{
   802f0:	e7fe      	b.n	802f0 <Dummy_Handler>
	...

000802f4 <Reset_Handler>:
{
   802f4:	b508      	push	{r3, lr}
        if (pSrc != pDest) {
   802f6:	4b11      	ldr	r3, [pc, #68]	; (8033c <Reset_Handler+0x48>)
   802f8:	4a11      	ldr	r2, [pc, #68]	; (80340 <Reset_Handler+0x4c>)
   802fa:	429a      	cmp	r2, r3
   802fc:	d009      	beq.n	80312 <Reset_Handler+0x1e>
   802fe:	4b0f      	ldr	r3, [pc, #60]	; (8033c <Reset_Handler+0x48>)
   80300:	4a0f      	ldr	r2, [pc, #60]	; (80340 <Reset_Handler+0x4c>)
   80302:	e003      	b.n	8030c <Reset_Handler+0x18>
                        *pDest++ = *pSrc++;
   80304:	6811      	ldr	r1, [r2, #0]
   80306:	6019      	str	r1, [r3, #0]
   80308:	3304      	adds	r3, #4
   8030a:	3204      	adds	r2, #4
                for (; pDest < &_erelocate;) {
   8030c:	490d      	ldr	r1, [pc, #52]	; (80344 <Reset_Handler+0x50>)
   8030e:	428b      	cmp	r3, r1
   80310:	d3f8      	bcc.n	80304 <Reset_Handler+0x10>
                        *pDest++ = *pSrc++;
   80312:	4b0d      	ldr	r3, [pc, #52]	; (80348 <Reset_Handler+0x54>)
   80314:	e002      	b.n	8031c <Reset_Handler+0x28>
                *pDest++ = 0;
   80316:	2200      	movs	r2, #0
   80318:	601a      	str	r2, [r3, #0]
   8031a:	3304      	adds	r3, #4
        for (pDest = &_szero; pDest < &_ezero;) {
   8031c:	4a0b      	ldr	r2, [pc, #44]	; (8034c <Reset_Handler+0x58>)
   8031e:	4293      	cmp	r3, r2
   80320:	d3f9      	bcc.n	80316 <Reset_Handler+0x22>
        SCB->VTOR = ((uint32_t) pSrc & SCB_VTOR_TBLOFF_Msk);
   80322:	4b0b      	ldr	r3, [pc, #44]	; (80350 <Reset_Handler+0x5c>)
   80324:	f023 4360 	bic.w	r3, r3, #3758096384	; 0xe0000000
   80328:	f023 037f 	bic.w	r3, r3, #127	; 0x7f
   8032c:	4a09      	ldr	r2, [pc, #36]	; (80354 <Reset_Handler+0x60>)
   8032e:	6093      	str	r3, [r2, #8]
        __libc_init_array();
   80330:	4b09      	ldr	r3, [pc, #36]	; (80358 <Reset_Handler+0x64>)
   80332:	4798      	blx	r3
        main();
   80334:	4b09      	ldr	r3, [pc, #36]	; (8035c <Reset_Handler+0x68>)
   80336:	4798      	blx	r3
   80338:	e7fe      	b.n	80338 <Reset_Handler+0x44>
   8033a:	bf00      	nop
   8033c:	20000000 	.word	0x20000000
   80340:	00082490 	.word	0x00082490
   80344:	20000894 	.word	0x20000894
   80348:	20000894 	.word	0x20000894
   8034c:	20000ba0 	.word	0x20000ba0
   80350:	00080000 	.word	0x00080000
   80354:	e000ed00 	.word	0xe000ed00
   80358:	00081721 	.word	0x00081721
   8035c:	000813c9 	.word	0x000813c9

00080360 <SystemCoreClockUpdate>:
}

void SystemCoreClockUpdate( void )
{
  /* Determine clock frequency according to clock register values */
  switch ( PMC->PMC_MCKR & PMC_MCKR_CSS_Msk )
   80360:	4b3e      	ldr	r3, [pc, #248]	; (8045c <SystemCoreClockUpdate+0xfc>)
   80362:	6b1b      	ldr	r3, [r3, #48]	; 0x30
   80364:	f003 0303 	and.w	r3, r3, #3
   80368:	2b03      	cmp	r3, #3
   8036a:	d83f      	bhi.n	803ec <SystemCoreClockUpdate+0x8c>
   8036c:	e8df f003 	tbb	[pc, r3]
   80370:	2d2d1102 	.word	0x2d2d1102
  {
    case PMC_MCKR_CSS_SLOW_CLK: /* Slow clock */
      if (SUPC->SUPC_SR & SUPC_SR_OSCSEL)
   80374:	4b3a      	ldr	r3, [pc, #232]	; (80460 <SystemCoreClockUpdate+0x100>)
   80376:	695b      	ldr	r3, [r3, #20]
   80378:	f013 0f80 	tst.w	r3, #128	; 0x80
   8037c:	d004      	beq.n	80388 <SystemCoreClockUpdate+0x28>
      {
        SystemCoreClock = CHIP_FREQ_XTAL_32K;
   8037e:	f44f 4200 	mov.w	r2, #32768	; 0x8000
   80382:	4b38      	ldr	r3, [pc, #224]	; (80464 <SystemCoreClockUpdate+0x104>)
   80384:	601a      	str	r2, [r3, #0]
   80386:	e031      	b.n	803ec <SystemCoreClockUpdate+0x8c>
      }
      else
      {
        SystemCoreClock = CHIP_FREQ_SLCK_RC;
   80388:	f44f 42fa 	mov.w	r2, #32000	; 0x7d00
   8038c:	4b35      	ldr	r3, [pc, #212]	; (80464 <SystemCoreClockUpdate+0x104>)
   8038e:	601a      	str	r2, [r3, #0]
   80390:	e02c      	b.n	803ec <SystemCoreClockUpdate+0x8c>
      }
    break;

    case PMC_MCKR_CSS_MAIN_CLK: /* Main clock */
      if (PMC->CKGR_MOR & CKGR_MOR_MOSCSEL)
   80392:	4b32      	ldr	r3, [pc, #200]	; (8045c <SystemCoreClockUpdate+0xfc>)
   80394:	6a1b      	ldr	r3, [r3, #32]
   80396:	f013 7f80 	tst.w	r3, #16777216	; 0x1000000
   8039a:	d003      	beq.n	803a4 <SystemCoreClockUpdate+0x44>
      {
        SystemCoreClock = CHIP_FREQ_XTAL_12M;
   8039c:	4a32      	ldr	r2, [pc, #200]	; (80468 <SystemCoreClockUpdate+0x108>)
   8039e:	4b31      	ldr	r3, [pc, #196]	; (80464 <SystemCoreClockUpdate+0x104>)
   803a0:	601a      	str	r2, [r3, #0]
   803a2:	e023      	b.n	803ec <SystemCoreClockUpdate+0x8c>
      }
      else
      {
        SystemCoreClock = CHIP_FREQ_MAINCK_RC_4MHZ;
   803a4:	4a31      	ldr	r2, [pc, #196]	; (8046c <SystemCoreClockUpdate+0x10c>)
   803a6:	4b2f      	ldr	r3, [pc, #188]	; (80464 <SystemCoreClockUpdate+0x104>)
   803a8:	601a      	str	r2, [r3, #0]

        switch (PMC->CKGR_MOR & CKGR_MOR_MOSCRCF_Msk)
   803aa:	4b2c      	ldr	r3, [pc, #176]	; (8045c <SystemCoreClockUpdate+0xfc>)
   803ac:	6a1b      	ldr	r3, [r3, #32]
   803ae:	f003 0370 	and.w	r3, r3, #112	; 0x70
   803b2:	2b10      	cmp	r3, #16
   803b4:	d005      	beq.n	803c2 <SystemCoreClockUpdate+0x62>
   803b6:	2b20      	cmp	r3, #32
   803b8:	d118      	bne.n	803ec <SystemCoreClockUpdate+0x8c>
          case CKGR_MOR_MOSCRCF_8_MHz:
            SystemCoreClock *= 2U;
          break;

          case CKGR_MOR_MOSCRCF_12_MHz:
            SystemCoreClock *= 3U;
   803ba:	4a2b      	ldr	r2, [pc, #172]	; (80468 <SystemCoreClockUpdate+0x108>)
   803bc:	4b29      	ldr	r3, [pc, #164]	; (80464 <SystemCoreClockUpdate+0x104>)
   803be:	601a      	str	r2, [r3, #0]
          break;
   803c0:	e014      	b.n	803ec <SystemCoreClockUpdate+0x8c>
            SystemCoreClock *= 2U;
   803c2:	4a2b      	ldr	r2, [pc, #172]	; (80470 <SystemCoreClockUpdate+0x110>)
   803c4:	4b27      	ldr	r3, [pc, #156]	; (80464 <SystemCoreClockUpdate+0x104>)
   803c6:	601a      	str	r2, [r3, #0]
          break;
   803c8:	e010      	b.n	803ec <SystemCoreClockUpdate+0x8c>
      }
    break;

    case PMC_MCKR_CSS_PLLA_CLK: /* PLLA clock */
    case PMC_MCKR_CSS_UPLL_CLK: /* UPLL clock */
      if ( PMC->CKGR_MOR & CKGR_MOR_MOSCSEL )
   803ca:	4b24      	ldr	r3, [pc, #144]	; (8045c <SystemCoreClockUpdate+0xfc>)
   803cc:	6a1b      	ldr	r3, [r3, #32]
   803ce:	f013 7f80 	tst.w	r3, #16777216	; 0x1000000
   803d2:	d01a      	beq.n	8040a <SystemCoreClockUpdate+0xaa>
      {
        SystemCoreClock = CHIP_FREQ_XTAL_12M;
   803d4:	4a24      	ldr	r2, [pc, #144]	; (80468 <SystemCoreClockUpdate+0x108>)
   803d6:	4b23      	ldr	r3, [pc, #140]	; (80464 <SystemCoreClockUpdate+0x104>)
   803d8:	601a      	str	r2, [r3, #0]

          default:
          break;
        }
      }
      if ( (PMC->PMC_MCKR & PMC_MCKR_CSS_Msk) == PMC_MCKR_CSS_PLLA_CLK )
   803da:	4b20      	ldr	r3, [pc, #128]	; (8045c <SystemCoreClockUpdate+0xfc>)
   803dc:	6b1b      	ldr	r3, [r3, #48]	; 0x30
   803de:	f003 0303 	and.w	r3, r3, #3
   803e2:	2b02      	cmp	r3, #2
   803e4:	d024      	beq.n	80430 <SystemCoreClockUpdate+0xd0>
        SystemCoreClock *= ((((PMC->CKGR_PLLAR) & CKGR_PLLAR_MULA_Msk) >> CKGR_PLLAR_MULA_Pos) + 1U);
        SystemCoreClock /= ((((PMC->CKGR_PLLAR) & CKGR_PLLAR_DIVA_Msk) >> CKGR_PLLAR_DIVA_Pos));
      }
      else
      {
        SystemCoreClock = CHIP_FREQ_UTMIPLL / 2U;
   803e6:	4a23      	ldr	r2, [pc, #140]	; (80474 <SystemCoreClockUpdate+0x114>)
   803e8:	4b1e      	ldr	r3, [pc, #120]	; (80464 <SystemCoreClockUpdate+0x104>)
   803ea:	601a      	str	r2, [r3, #0]
      }
    break;
  }

  if ( (PMC->PMC_MCKR & PMC_MCKR_PRES_Msk) == PMC_MCKR_PRES_CLK_3 )
   803ec:	4b1b      	ldr	r3, [pc, #108]	; (8045c <SystemCoreClockUpdate+0xfc>)
   803ee:	6b1b      	ldr	r3, [r3, #48]	; 0x30
   803f0:	f003 0370 	and.w	r3, r3, #112	; 0x70
   803f4:	2b70      	cmp	r3, #112	; 0x70
   803f6:	d029      	beq.n	8044c <SystemCoreClockUpdate+0xec>
  {
    SystemCoreClock /= 3U;
  }
  else
  {
    SystemCoreClock >>= ((PMC->PMC_MCKR & PMC_MCKR_PRES_Msk) >> PMC_MCKR_PRES_Pos);
   803f8:	4b18      	ldr	r3, [pc, #96]	; (8045c <SystemCoreClockUpdate+0xfc>)
   803fa:	6b1a      	ldr	r2, [r3, #48]	; 0x30
   803fc:	f3c2 1202 	ubfx	r2, r2, #4, #3
   80400:	4918      	ldr	r1, [pc, #96]	; (80464 <SystemCoreClockUpdate+0x104>)
   80402:	680b      	ldr	r3, [r1, #0]
   80404:	40d3      	lsrs	r3, r2
   80406:	600b      	str	r3, [r1, #0]
   80408:	4770      	bx	lr
        SystemCoreClock = CHIP_FREQ_MAINCK_RC_4MHZ;
   8040a:	4a18      	ldr	r2, [pc, #96]	; (8046c <SystemCoreClockUpdate+0x10c>)
   8040c:	4b15      	ldr	r3, [pc, #84]	; (80464 <SystemCoreClockUpdate+0x104>)
   8040e:	601a      	str	r2, [r3, #0]
        switch ( PMC->CKGR_MOR & CKGR_MOR_MOSCRCF_Msk )
   80410:	4b12      	ldr	r3, [pc, #72]	; (8045c <SystemCoreClockUpdate+0xfc>)
   80412:	6a1b      	ldr	r3, [r3, #32]
   80414:	f003 0370 	and.w	r3, r3, #112	; 0x70
   80418:	2b10      	cmp	r3, #16
   8041a:	d005      	beq.n	80428 <SystemCoreClockUpdate+0xc8>
   8041c:	2b20      	cmp	r3, #32
   8041e:	d1dc      	bne.n	803da <SystemCoreClockUpdate+0x7a>
            SystemCoreClock *= 3U;
   80420:	4a11      	ldr	r2, [pc, #68]	; (80468 <SystemCoreClockUpdate+0x108>)
   80422:	4b10      	ldr	r3, [pc, #64]	; (80464 <SystemCoreClockUpdate+0x104>)
   80424:	601a      	str	r2, [r3, #0]
          break;
   80426:	e7d8      	b.n	803da <SystemCoreClockUpdate+0x7a>
            SystemCoreClock *= 2U;
   80428:	4a11      	ldr	r2, [pc, #68]	; (80470 <SystemCoreClockUpdate+0x110>)
   8042a:	4b0e      	ldr	r3, [pc, #56]	; (80464 <SystemCoreClockUpdate+0x104>)
   8042c:	601a      	str	r2, [r3, #0]
          break;
   8042e:	e7d4      	b.n	803da <SystemCoreClockUpdate+0x7a>
        SystemCoreClock *= ((((PMC->CKGR_PLLAR) & CKGR_PLLAR_MULA_Msk) >> CKGR_PLLAR_MULA_Pos) + 1U);
   80430:	480a      	ldr	r0, [pc, #40]	; (8045c <SystemCoreClockUpdate+0xfc>)
   80432:	6a82      	ldr	r2, [r0, #40]	; 0x28
   80434:	f3c2 420a 	ubfx	r2, r2, #16, #11
   80438:	490a      	ldr	r1, [pc, #40]	; (80464 <SystemCoreClockUpdate+0x104>)
   8043a:	680b      	ldr	r3, [r1, #0]
   8043c:	fb02 3303 	mla	r3, r2, r3, r3
        SystemCoreClock /= ((((PMC->CKGR_PLLAR) & CKGR_PLLAR_DIVA_Msk) >> CKGR_PLLAR_DIVA_Pos));
   80440:	6a82      	ldr	r2, [r0, #40]	; 0x28
   80442:	b2d2      	uxtb	r2, r2
   80444:	fbb3 f3f2 	udiv	r3, r3, r2
   80448:	600b      	str	r3, [r1, #0]
   8044a:	e7cf      	b.n	803ec <SystemCoreClockUpdate+0x8c>
    SystemCoreClock /= 3U;
   8044c:	4a05      	ldr	r2, [pc, #20]	; (80464 <SystemCoreClockUpdate+0x104>)
   8044e:	6813      	ldr	r3, [r2, #0]
   80450:	4909      	ldr	r1, [pc, #36]	; (80478 <SystemCoreClockUpdate+0x118>)
   80452:	fba1 1303 	umull	r1, r3, r1, r3
   80456:	085b      	lsrs	r3, r3, #1
   80458:	6013      	str	r3, [r2, #0]
   8045a:	4770      	bx	lr
   8045c:	400e0600 	.word	0x400e0600
   80460:	400e1a10 	.word	0x400e1a10
   80464:	20000038 	.word	0x20000038
   80468:	00b71b00 	.word	0x00b71b00
   8046c:	003d0900 	.word	0x003d0900
   80470:	007a1200 	.word	0x007a1200
   80474:	0e4e1c00 	.word	0x0e4e1c00
   80478:	aaaaaaab 	.word	0xaaaaaaab

0008047c <_ZL17hal_gpio_find_pinm>:

static const HalGpioPinDescription* hal_gpio_find_pin(uint32_t pin_id)
{
    const uint32_t count = sizeof(g_gpio_pins) / sizeof(g_gpio_pins[0]);

    for (uint32_t index = 0U; index < count; ++index)
   8047c:	2300      	movs	r3, #0
   8047e:	2b0f      	cmp	r3, #15
   80480:	d809      	bhi.n	80496 <_ZL17hal_gpio_find_pinm+0x1a>
    {
        if (g_gpio_pins[index].pin_id == pin_id)
   80482:	011a      	lsls	r2, r3, #4
   80484:	4905      	ldr	r1, [pc, #20]	; (8049c <_ZL17hal_gpio_find_pinm+0x20>)
   80486:	588a      	ldr	r2, [r1, r2]
   80488:	4282      	cmp	r2, r0
   8048a:	d001      	beq.n	80490 <_ZL17hal_gpio_find_pinm+0x14>
    for (uint32_t index = 0U; index < count; ++index)
   8048c:	3301      	adds	r3, #1
   8048e:	e7f6      	b.n	8047e <_ZL17hal_gpio_find_pinm+0x2>
        {
            return &g_gpio_pins[index];
   80490:	eb01 1003 	add.w	r0, r1, r3, lsl #4
   80494:	4770      	bx	lr
        }
    }

    return 0;
   80496:	2000      	movs	r0, #0
}
   80498:	4770      	bx	lr
   8049a:	bf00      	nop
   8049c:	00082188 	.word	0x00082188

000804a0 <_ZL21hal_gpio_enable_clockm>:

static void hal_gpio_enable_clock(uint32_t peripheral_id)
{
    if (peripheral_id < 32U)
   804a0:	281f      	cmp	r0, #31
   804a2:	d907      	bls.n	804b4 <_ZL21hal_gpio_enable_clockm+0x14>
    {
        PMC->PMC_PCER0 = (1UL << peripheral_id);
    }
    else
    {
        PMC->PMC_PCER1 = (1UL << (peripheral_id - 32U));
   804a4:	3820      	subs	r0, #32
   804a6:	2301      	movs	r3, #1
   804a8:	fa03 f000 	lsl.w	r0, r3, r0
   804ac:	4b04      	ldr	r3, [pc, #16]	; (804c0 <_ZL21hal_gpio_enable_clockm+0x20>)
   804ae:	f8c3 0100 	str.w	r0, [r3, #256]	; 0x100
   804b2:	4770      	bx	lr
        PMC->PMC_PCER0 = (1UL << peripheral_id);
   804b4:	2301      	movs	r3, #1
   804b6:	fa03 f000 	lsl.w	r0, r3, r0
   804ba:	4b01      	ldr	r3, [pc, #4]	; (804c0 <_ZL21hal_gpio_enable_clockm+0x20>)
   804bc:	6118      	str	r0, [r3, #16]
   804be:	4770      	bx	lr
   804c0:	400e0600 	.word	0x400e0600

000804c4 <_Z18hal_gpio_configurem11HalGpioMode>:
    }
}

void hal_gpio_configure(uint32_t pin_id, HalGpioMode mode)
{
   804c4:	b538      	push	{r3, r4, r5, lr}
   804c6:	460d      	mov	r5, r1
    const HalGpioPinDescription* pin = hal_gpio_find_pin(pin_id);
   804c8:	4b11      	ldr	r3, [pc, #68]	; (80510 <_Z18hal_gpio_configurem11HalGpioMode+0x4c>)
   804ca:	4798      	blx	r3

    if (pin == 0)
   804cc:	b198      	cbz	r0, 804f6 <_Z18hal_gpio_configurem11HalGpioMode+0x32>
   804ce:	4604      	mov	r4, r0
    {
        return;
    }

    hal_gpio_enable_clock(pin->peripheral_id);
   804d0:	68c0      	ldr	r0, [r0, #12]
   804d2:	4b10      	ldr	r3, [pc, #64]	; (80514 <_Z18hal_gpio_configurem11HalGpioMode+0x50>)
   804d4:	4798      	blx	r3

    pin->port->PIO_PER = pin->mask;
   804d6:	6863      	ldr	r3, [r4, #4]
   804d8:	68a2      	ldr	r2, [r4, #8]
   804da:	601a      	str	r2, [r3, #0]
    pin->port->PIO_IDR = pin->mask;
   804dc:	6863      	ldr	r3, [r4, #4]
   804de:	68a2      	ldr	r2, [r4, #8]
   804e0:	645a      	str	r2, [r3, #68]	; 0x44

    if (mode == HAL_GPIO_OUTPUT)
   804e2:	2d01      	cmp	r5, #1
   804e4:	d008      	beq.n	804f8 <_Z18hal_gpio_configurem11HalGpioMode+0x34>
        pin->port->PIO_PUDR = pin->mask;
        pin->port->PIO_OER = pin->mask;
    }
    else
    {
        pin->port->PIO_ODR = pin->mask;
   804e6:	6863      	ldr	r3, [r4, #4]
   804e8:	68a2      	ldr	r2, [r4, #8]
   804ea:	615a      	str	r2, [r3, #20]

        if (mode == HAL_GPIO_INPUT_PULLUP)
   804ec:	2d02      	cmp	r5, #2
   804ee:	d00a      	beq.n	80506 <_Z18hal_gpio_configurem11HalGpioMode+0x42>
        {
            pin->port->PIO_PUER = pin->mask;
        }
        else
        {
            pin->port->PIO_PUDR = pin->mask;
   804f0:	6863      	ldr	r3, [r4, #4]
   804f2:	68a2      	ldr	r2, [r4, #8]
   804f4:	661a      	str	r2, [r3, #96]	; 0x60
   804f6:	bd38      	pop	{r3, r4, r5, pc}
        pin->port->PIO_PUDR = pin->mask;
   804f8:	6863      	ldr	r3, [r4, #4]
   804fa:	68a2      	ldr	r2, [r4, #8]
   804fc:	661a      	str	r2, [r3, #96]	; 0x60
        pin->port->PIO_OER = pin->mask;
   804fe:	6863      	ldr	r3, [r4, #4]
   80500:	68a2      	ldr	r2, [r4, #8]
   80502:	611a      	str	r2, [r3, #16]
   80504:	bd38      	pop	{r3, r4, r5, pc}
            pin->port->PIO_PUER = pin->mask;
   80506:	6863      	ldr	r3, [r4, #4]
   80508:	68a2      	ldr	r2, [r4, #8]
   8050a:	665a      	str	r2, [r3, #100]	; 0x64
   8050c:	bd38      	pop	{r3, r4, r5, pc}
   8050e:	bf00      	nop
   80510:	0008047d 	.word	0x0008047d
   80514:	000804a1 	.word	0x000804a1

00080518 <_Z14hal_gpio_writemm>:
        }
    }
}

void hal_gpio_write(uint32_t pin_id, uint32_t value)
{
   80518:	b538      	push	{r3, r4, r5, lr}
   8051a:	460d      	mov	r5, r1
    const HalGpioPinDescription* pin = hal_gpio_find_pin(pin_id);
   8051c:	4b07      	ldr	r3, [pc, #28]	; (8053c <_Z14hal_gpio_writemm+0x24>)
   8051e:	4798      	blx	r3

    if (pin == 0)
   80520:	b138      	cbz	r0, 80532 <_Z14hal_gpio_writemm+0x1a>
   80522:	4604      	mov	r4, r0
    {
        return;
    }

    hal_gpio_enable_clock(pin->peripheral_id);
   80524:	68c0      	ldr	r0, [r0, #12]
   80526:	4b06      	ldr	r3, [pc, #24]	; (80540 <_Z14hal_gpio_writemm+0x28>)
   80528:	4798      	blx	r3

    if (value != 0U)
   8052a:	b91d      	cbnz	r5, 80534 <_Z14hal_gpio_writemm+0x1c>
    {
        pin->port->PIO_SODR = pin->mask;
    }
    else
    {
        pin->port->PIO_CODR = pin->mask;
   8052c:	6863      	ldr	r3, [r4, #4]
   8052e:	68a2      	ldr	r2, [r4, #8]
   80530:	635a      	str	r2, [r3, #52]	; 0x34
   80532:	bd38      	pop	{r3, r4, r5, pc}
        pin->port->PIO_SODR = pin->mask;
   80534:	6863      	ldr	r3, [r4, #4]
   80536:	68a2      	ldr	r2, [r4, #8]
   80538:	631a      	str	r2, [r3, #48]	; 0x30
   8053a:	bd38      	pop	{r3, r4, r5, pc}
   8053c:	0008047d 	.word	0x0008047d
   80540:	000804a1 	.word	0x000804a1

00080544 <_Z24sam3x_bootloader_requestm>:
    }
}

void sam3x_bootloader_request(uint32_t delay_ms)
{
    if (delay_ms == 0U)
   80544:	4603      	mov	r3, r0
   80546:	b900      	cbnz	r0, 8054a <_Z24sam3x_bootloader_requestm+0x6>
    {
        delay_ms = 1U;
   80548:	2301      	movs	r3, #1
    }

    g_bootloader_ticks = static_cast<int32_t>(delay_ms);
   8054a:	4a01      	ldr	r2, [pc, #4]	; (80550 <_Z24sam3x_bootloader_requestm+0xc>)
   8054c:	6013      	str	r3, [r2, #0]
   8054e:	4770      	bx	lr
   80550:	2000003c 	.word	0x2000003c

00080554 <_Z23sam3x_bootloader_cancelv>:
}

void sam3x_bootloader_cancel(void)
{
    g_bootloader_ticks = -1;
   80554:	f04f 32ff 	mov.w	r2, #4294967295
   80558:	4b01      	ldr	r3, [pc, #4]	; (80560 <_Z23sam3x_bootloader_cancelv+0xc>)
   8055a:	601a      	str	r2, [r3, #0]
   8055c:	4770      	bx	lr
   8055e:	bf00      	nop
   80560:	2000003c 	.word	0x2000003c

00080564 <_Z21sam3x_bootloader_tickv>:
}

void sam3x_bootloader_tick(void)
{
   80564:	b508      	push	{r3, lr}
    if (g_bootloader_ticks < 0)
   80566:	4b09      	ldr	r3, [pc, #36]	; (8058c <_Z21sam3x_bootloader_tickv+0x28>)
   80568:	681b      	ldr	r3, [r3, #0]
   8056a:	2b00      	cmp	r3, #0
   8056c:	db0a      	blt.n	80584 <_Z21sam3x_bootloader_tickv+0x20>
    {
        return;
    }

    if (g_bootloader_ticks > 0)
   8056e:	4b07      	ldr	r3, [pc, #28]	; (8058c <_Z21sam3x_bootloader_tickv+0x28>)
   80570:	681b      	ldr	r3, [r3, #0]
   80572:	2b00      	cmp	r3, #0
   80574:	dd03      	ble.n	8057e <_Z21sam3x_bootloader_tickv+0x1a>
    {
        --g_bootloader_ticks;
   80576:	4a05      	ldr	r2, [pc, #20]	; (8058c <_Z21sam3x_bootloader_tickv+0x28>)
   80578:	6813      	ldr	r3, [r2, #0]
   8057a:	3b01      	subs	r3, #1
   8057c:	6013      	str	r3, [r2, #0]
    }

    if (g_bootloader_ticks == 0)
   8057e:	4b03      	ldr	r3, [pc, #12]	; (8058c <_Z21sam3x_bootloader_tickv+0x28>)
   80580:	681b      	ldr	r3, [r3, #0]
   80582:	b103      	cbz	r3, 80586 <_Z21sam3x_bootloader_tickv+0x22>
   80584:	bd08      	pop	{r3, pc}
    {
        sam3x_enter_samba_bootloader();
   80586:	4b02      	ldr	r3, [pc, #8]	; (80590 <_Z21sam3x_bootloader_tickv+0x2c>)
   80588:	4798      	blx	r3
   8058a:	bf00      	nop
   8058c:	2000003c 	.word	0x2000003c
   80590:	20000001 	.word	0x20000001

00080594 <_ZL27hal_enable_peripheral_clockm>:
static const uint32_t HAL_SPI_DEFAULT_CLOCK_HZ = 4000000U;
static const uint32_t HAL_SPI_PCS_VALUE = 0x0EU;

static void hal_enable_peripheral_clock(uint32_t peripheral_id)
{
    if (peripheral_id < 32U)
   80594:	281f      	cmp	r0, #31
   80596:	d907      	bls.n	805a8 <_ZL27hal_enable_peripheral_clockm+0x14>
    {
        PMC->PMC_PCER0 = (1UL << peripheral_id);
    }
    else
    {
        PMC->PMC_PCER1 = (1UL << (peripheral_id - 32U));
   80598:	3820      	subs	r0, #32
   8059a:	2301      	movs	r3, #1
   8059c:	fa03 f000 	lsl.w	r0, r3, r0
   805a0:	4b04      	ldr	r3, [pc, #16]	; (805b4 <_ZL27hal_enable_peripheral_clockm+0x20>)
   805a2:	f8c3 0100 	str.w	r0, [r3, #256]	; 0x100
   805a6:	4770      	bx	lr
        PMC->PMC_PCER0 = (1UL << peripheral_id);
   805a8:	2301      	movs	r3, #1
   805aa:	fa03 f000 	lsl.w	r0, r3, r0
   805ae:	4b01      	ldr	r3, [pc, #4]	; (805b4 <_ZL27hal_enable_peripheral_clockm+0x20>)
   805b0:	6118      	str	r0, [r3, #16]
   805b2:	4770      	bx	lr
   805b4:	400e0600 	.word	0x400e0600

000805b8 <_ZL21hal_spi_configure_pinP3Piommh>:
    }
}

static void hal_spi_configure_pin(Pio* port, uint32_t mask, uint32_t pio_id, uint8_t peripheral_b)
{
   805b8:	b570      	push	{r4, r5, r6, lr}
   805ba:	4604      	mov	r4, r0
   805bc:	460d      	mov	r5, r1
   805be:	461e      	mov	r6, r3
    hal_enable_peripheral_clock(pio_id);
   805c0:	4610      	mov	r0, r2
   805c2:	4b07      	ldr	r3, [pc, #28]	; (805e0 <_ZL21hal_spi_configure_pinP3Piommh+0x28>)
   805c4:	4798      	blx	r3

    port->PIO_IDR = mask;
   805c6:	6465      	str	r5, [r4, #68]	; 0x44
    port->PIO_PUDR = mask;
   805c8:	6625      	str	r5, [r4, #96]	; 0x60

    if (peripheral_b != 0U)
   805ca:	b92e      	cbnz	r6, 805d8 <_ZL21hal_spi_configure_pinP3Piommh+0x20>
    {
        port->PIO_ABSR |= mask;
    }
    else
    {
        port->PIO_ABSR &= ~mask;
   805cc:	6f23      	ldr	r3, [r4, #112]	; 0x70
   805ce:	ea23 0305 	bic.w	r3, r3, r5
   805d2:	6723      	str	r3, [r4, #112]	; 0x70
    }

    port->PIO_PDR = mask;
   805d4:	6065      	str	r5, [r4, #4]
   805d6:	bd70      	pop	{r4, r5, r6, pc}
        port->PIO_ABSR |= mask;
   805d8:	6f23      	ldr	r3, [r4, #112]	; 0x70
   805da:	432b      	orrs	r3, r5
   805dc:	6723      	str	r3, [r4, #112]	; 0x70
   805de:	e7f9      	b.n	805d4 <_ZL21hal_spi_configure_pinP3Piommh+0x1c>
   805e0:	00080595 	.word	0x00080595

000805e4 <_ZL19hal_spi_get_divisorm>:
}

static uint32_t hal_spi_get_divisor(uint32_t clock_hz)
{
    if (clock_hz == 0U)
   805e4:	4603      	mov	r3, r0
   805e6:	b900      	cbnz	r0, 805ea <_ZL19hal_spi_get_divisorm+0x6>
    {
        clock_hz = HAL_SPI_DEFAULT_CLOCK_HZ;
   805e8:	4b06      	ldr	r3, [pc, #24]	; (80604 <_ZL19hal_spi_get_divisorm+0x20>)
    }

    uint32_t divisor = (SystemCoreClock + clock_hz - 1U) / clock_hz;
   805ea:	4a07      	ldr	r2, [pc, #28]	; (80608 <_ZL19hal_spi_get_divisorm+0x24>)
   805ec:	6810      	ldr	r0, [r2, #0]
   805ee:	4418      	add	r0, r3
   805f0:	3801      	subs	r0, #1
   805f2:	fbb0 f0f3 	udiv	r0, r0, r3

    if (divisor == 0U)
   805f6:	b900      	cbnz	r0, 805fa <_ZL19hal_spi_get_divisorm+0x16>
    {
        divisor = 1U;
   805f8:	2001      	movs	r0, #1
    }

    if (divisor > 255U)
   805fa:	28ff      	cmp	r0, #255	; 0xff
   805fc:	d900      	bls.n	80600 <_ZL19hal_spi_get_divisorm+0x1c>
    {
        divisor = 255U;
   805fe:	20ff      	movs	r0, #255	; 0xff
    }

    return divisor;
}
   80600:	4770      	bx	lr
   80602:	bf00      	nop
   80604:	003d0900 	.word	0x003d0900
   80608:	20000038 	.word	0x20000038

0008060c <_ZL21hal_spi_get_mode_bits10HalSpiMode>:

static uint32_t hal_spi_get_mode_bits(HalSpiMode mode)
{
    switch (mode)
   8060c:	2802      	cmp	r0, #2
   8060e:	d009      	beq.n	80624 <_ZL21hal_spi_get_mode_bits10HalSpiMode+0x18>
   80610:	2803      	cmp	r0, #3
   80612:	d005      	beq.n	80620 <_ZL21hal_spi_get_mode_bits10HalSpiMode+0x14>
   80614:	2801      	cmp	r0, #1
   80616:	d001      	beq.n	8061c <_ZL21hal_spi_get_mode_bits10HalSpiMode+0x10>
        case HAL_SPI_MODE_3:
            return SPI_CSR_CPOL;

        case HAL_SPI_MODE_0:
        default:
            return SPI_CSR_NCPHA;
   80618:	2002      	movs	r0, #2
   8061a:	4770      	bx	lr
            return 0U;
   8061c:	2000      	movs	r0, #0
   8061e:	4770      	bx	lr
            return SPI_CSR_CPOL;
   80620:	2001      	movs	r0, #1
   80622:	4770      	bx	lr
            return SPI_CSR_CPOL | SPI_CSR_NCPHA;
   80624:	2003      	movs	r0, #3
    }
}
   80626:	4770      	bx	lr

00080628 <_ZL16hal_spi_flush_rxv>:

static void hal_spi_flush_rx(void)
{
    while ((SPI0->SPI_SR & SPI_SR_RDRF) != 0U)
   80628:	4b08      	ldr	r3, [pc, #32]	; (8064c <_ZL16hal_spi_flush_rxv+0x24>)
   8062a:	691b      	ldr	r3, [r3, #16]
   8062c:	f013 0f01 	tst.w	r3, #1
   80630:	d00a      	beq.n	80648 <_ZL16hal_spi_flush_rxv+0x20>
{
   80632:	b082      	sub	sp, #8
    {
        volatile uint32_t value = SPI0->SPI_RDR;
   80634:	4b05      	ldr	r3, [pc, #20]	; (8064c <_ZL16hal_spi_flush_rxv+0x24>)
   80636:	689b      	ldr	r3, [r3, #8]
   80638:	9301      	str	r3, [sp, #4]
        (void)value;
   8063a:	9b01      	ldr	r3, [sp, #4]
    while ((SPI0->SPI_SR & SPI_SR_RDRF) != 0U)
   8063c:	4b03      	ldr	r3, [pc, #12]	; (8064c <_ZL16hal_spi_flush_rxv+0x24>)
   8063e:	691b      	ldr	r3, [r3, #16]
   80640:	f013 0f01 	tst.w	r3, #1
   80644:	d1f6      	bne.n	80634 <_ZL16hal_spi_flush_rxv+0xc>
    }
}
   80646:	b002      	add	sp, #8
   80648:	4770      	bx	lr
   8064a:	bf00      	nop
   8064c:	40008000 	.word	0x40008000

00080650 <_Z17hal_spi_configureRK12HalSpiConfig>:
{
    SPI0->SPI_CR = SPI_CR_SPIDIS;
}

void hal_spi_configure(const HalSpiConfig& config)
{
   80650:	b538      	push	{r3, r4, r5, lr}
   80652:	4605      	mov	r5, r0
    const uint32_t divisor = hal_spi_get_divisor(config.clock_hz);
   80654:	6800      	ldr	r0, [r0, #0]
   80656:	4b05      	ldr	r3, [pc, #20]	; (8066c <_Z17hal_spi_configureRK12HalSpiConfig+0x1c>)
   80658:	4798      	blx	r3

    const uint32_t csr = SPI_CSR_BITS_8_BIT
                       | SPI_CSR_SCBR(divisor)
   8065a:	0200      	lsls	r0, r0, #8
   8065c:	b284      	uxth	r4, r0
                       | hal_spi_get_mode_bits(config.mode);
   8065e:	7968      	ldrb	r0, [r5, #5]
   80660:	4b03      	ldr	r3, [pc, #12]	; (80670 <_Z17hal_spi_configureRK12HalSpiConfig+0x20>)
   80662:	4798      	blx	r3
   80664:	4320      	orrs	r0, r4

    SPI0->SPI_CSR[0] = csr;
   80666:	4b03      	ldr	r3, [pc, #12]	; (80674 <_Z17hal_spi_configureRK12HalSpiConfig+0x24>)
   80668:	6318      	str	r0, [r3, #48]	; 0x30
   8066a:	bd38      	pop	{r3, r4, r5, pc}
   8066c:	000805e5 	.word	0x000805e5
   80670:	0008060d 	.word	0x0008060d
   80674:	40008000 	.word	0x40008000

00080678 <_Z13hal_spi_beginv>:
{
   80678:	b530      	push	{r4, r5, lr}
   8067a:	b083      	sub	sp, #12
    SystemCoreClockUpdate();
   8067c:	4b17      	ldr	r3, [pc, #92]	; (806dc <_Z13hal_spi_beginv+0x64>)
   8067e:	4798      	blx	r3
    hal_enable_peripheral_clock(ID_SPI0);
   80680:	2018      	movs	r0, #24
   80682:	4b17      	ldr	r3, [pc, #92]	; (806e0 <_Z13hal_spi_beginv+0x68>)
   80684:	4798      	blx	r3
    hal_spi_configure_pin(PIOA, (1UL << 25), ID_PIOA, 0U);
   80686:	4d17      	ldr	r5, [pc, #92]	; (806e4 <_Z13hal_spi_beginv+0x6c>)
   80688:	2300      	movs	r3, #0
   8068a:	220b      	movs	r2, #11
   8068c:	f04f 7100 	mov.w	r1, #33554432	; 0x2000000
   80690:	4628      	mov	r0, r5
   80692:	4c15      	ldr	r4, [pc, #84]	; (806e8 <_Z13hal_spi_beginv+0x70>)
   80694:	47a0      	blx	r4
    hal_spi_configure_pin(PIOA, (1UL << 26), ID_PIOA, 0U);
   80696:	2300      	movs	r3, #0
   80698:	220b      	movs	r2, #11
   8069a:	f04f 6180 	mov.w	r1, #67108864	; 0x4000000
   8069e:	4628      	mov	r0, r5
   806a0:	47a0      	blx	r4
    hal_spi_configure_pin(PIOA, (1UL << 27), ID_PIOA, 0U);
   806a2:	2300      	movs	r3, #0
   806a4:	220b      	movs	r2, #11
   806a6:	f04f 6100 	mov.w	r1, #134217728	; 0x8000000
   806aa:	4628      	mov	r0, r5
   806ac:	47a0      	blx	r4
    SPI0->SPI_CR = SPI_CR_SWRST;
   806ae:	4c0f      	ldr	r4, [pc, #60]	; (806ec <_Z13hal_spi_beginv+0x74>)
   806b0:	2380      	movs	r3, #128	; 0x80
   806b2:	6023      	str	r3, [r4, #0]
    SPI0->SPI_CR = SPI_CR_SWRST;
   806b4:	6023      	str	r3, [r4, #0]
    SPI0->SPI_MR = SPI_MR_MSTR
   806b6:	4b0e      	ldr	r3, [pc, #56]	; (806f0 <_Z13hal_spi_beginv+0x78>)
   806b8:	6063      	str	r3, [r4, #4]
    default_config.clock_hz = HAL_SPI_DEFAULT_CLOCK_HZ;
   806ba:	4b0e      	ldr	r3, [pc, #56]	; (806f4 <_Z13hal_spi_beginv+0x7c>)
   806bc:	9300      	str	r3, [sp, #0]
    default_config.bit_order = HAL_SPI_MSB_FIRST;
   806be:	2300      	movs	r3, #0
   806c0:	f88d 3004 	strb.w	r3, [sp, #4]
    default_config.mode = HAL_SPI_MODE_0;
   806c4:	f88d 3005 	strb.w	r3, [sp, #5]
    hal_spi_configure(default_config);
   806c8:	4668      	mov	r0, sp
   806ca:	4b0b      	ldr	r3, [pc, #44]	; (806f8 <_Z13hal_spi_beginv+0x80>)
   806cc:	4798      	blx	r3
    hal_spi_flush_rx();
   806ce:	4b0b      	ldr	r3, [pc, #44]	; (806fc <_Z13hal_spi_beginv+0x84>)
   806d0:	4798      	blx	r3
    SPI0->SPI_CR = SPI_CR_SPIEN;
   806d2:	2301      	movs	r3, #1
   806d4:	6023      	str	r3, [r4, #0]
}
   806d6:	b003      	add	sp, #12
   806d8:	bd30      	pop	{r4, r5, pc}
   806da:	bf00      	nop
   806dc:	00080361 	.word	0x00080361
   806e0:	00080595 	.word	0x00080595
   806e4:	400e0e00 	.word	0x400e0e00
   806e8:	000805b9 	.word	0x000805b9
   806ec:	40008000 	.word	0x40008000
   806f0:	000e0011 	.word	0x000e0011
   806f4:	003d0900 	.word	0x003d0900
   806f8:	00080651 	.word	0x00080651
   806fc:	00080629 	.word	0x00080629

00080700 <SysTick_Handler>:
 *
 * Обработчик увеличивает миллисекундный счётчик системного времени
 * и обслуживает отложенный переход в ROM-загрузчик.
 */
extern "C" void SysTick_Handler(void)
{
   80700:	b508      	push	{r3, lr}
    ++g_ms_ticks;
   80702:	4a03      	ldr	r2, [pc, #12]	; (80710 <SysTick_Handler+0x10>)
   80704:	6813      	ldr	r3, [r2, #0]
   80706:	3301      	adds	r3, #1
   80708:	6013      	str	r3, [r2, #0]
    sam3x_bootloader_tick();
   8070a:	4b02      	ldr	r3, [pc, #8]	; (80714 <SysTick_Handler+0x14>)
   8070c:	4798      	blx	r3
   8070e:	bd08      	pop	{r3, pc}
   80710:	200008b0 	.word	0x200008b0
   80714:	00080565 	.word	0x00080565

00080718 <_Z13hal_tick_initv>:
}

void hal_tick_init(void)
{
   80718:	b508      	push	{r3, lr}
    SystemCoreClockUpdate();
   8071a:	4b11      	ldr	r3, [pc, #68]	; (80760 <_Z13hal_tick_initv+0x48>)
   8071c:	4798      	blx	r3

    const uint32_t ticks_per_ms = SystemCoreClock / 1000U;
   8071e:	4b11      	ldr	r3, [pc, #68]	; (80764 <_Z13hal_tick_initv+0x4c>)
   80720:	681b      	ldr	r3, [r3, #0]
   80722:	4a11      	ldr	r2, [pc, #68]	; (80768 <_Z13hal_tick_initv+0x50>)
   80724:	fba2 2303 	umull	r2, r3, r2, r3

    if ((ticks_per_ms == 0U) || (SysTick_Config(ticks_per_ms) != 0U))
   80728:	099b      	lsrs	r3, r3, #6
   8072a:	d013      	beq.n	80754 <_Z13hal_tick_initv+0x3c>
           function <b>SysTick_Config</b> is not included. In this case, the file <b><i>device</i>.h</b>
           must contain a vendor-specific implementation of this function.
 */
__STATIC_INLINE uint32_t SysTick_Config(uint32_t ticks)
{
  if ((ticks - 1UL) > SysTick_LOAD_RELOAD_Msk)
   8072c:	3b01      	subs	r3, #1
   8072e:	f1b3 7f80 	cmp.w	r3, #16777216	; 0x1000000
   80732:	d20a      	bcs.n	8074a <_Z13hal_tick_initv+0x32>
  {
    return (1UL);                                                   /* Reload value impossible */
  }

  SysTick->LOAD  = (uint32_t)(ticks - 1UL);                         /* set reload register */
   80734:	4a0d      	ldr	r2, [pc, #52]	; (8076c <_Z13hal_tick_initv+0x54>)
   80736:	6053      	str	r3, [r2, #4]
    SCB->SHP[(((uint32_t)IRQn) & 0xFUL)-4UL] = (uint8_t)((priority << (8U - __NVIC_PRIO_BITS)) & (uint32_t)0xFFUL);
   80738:	21f0      	movs	r1, #240	; 0xf0
   8073a:	4b0d      	ldr	r3, [pc, #52]	; (80770 <_Z13hal_tick_initv+0x58>)
   8073c:	f883 1023 	strb.w	r1, [r3, #35]	; 0x23
  NVIC_SetPriority (SysTick_IRQn, (1UL << __NVIC_PRIO_BITS) - 1UL); /* set Priority for Systick Interrupt */
  SysTick->VAL   = 0UL;                                             /* Load the SysTick Counter Value */
   80740:	2300      	movs	r3, #0
   80742:	6093      	str	r3, [r2, #8]
  SysTick->CTRL  = SysTick_CTRL_CLKSOURCE_Msk |
   80744:	2107      	movs	r1, #7
   80746:	6011      	str	r1, [r2, #0]
   80748:	e000      	b.n	8074c <_Z13hal_tick_initv+0x34>
    return (1UL);                                                   /* Reload value impossible */
   8074a:	2301      	movs	r3, #1
   8074c:	b923      	cbnz	r3, 80758 <_Z13hal_tick_initv+0x40>
   8074e:	b12b      	cbz	r3, 8075c <_Z13hal_tick_initv+0x44>
    __asm__ volatile ("nop");
   80750:	bf00      	nop
   80752:	e7fd      	b.n	80750 <_Z13hal_tick_initv+0x38>
    if ((ticks_per_ms == 0U) || (SysTick_Config(ticks_per_ms) != 0U))
   80754:	2301      	movs	r3, #1
   80756:	e7fa      	b.n	8074e <_Z13hal_tick_initv+0x36>
   80758:	2301      	movs	r3, #1
   8075a:	e7f8      	b.n	8074e <_Z13hal_tick_initv+0x36>
   8075c:	bd08      	pop	{r3, pc}
   8075e:	bf00      	nop
   80760:	00080361 	.word	0x00080361
   80764:	20000038 	.word	0x20000038
   80768:	10624dd3 	.word	0x10624dd3
   8076c:	e000e010 	.word	0xe000e010
   80770:	e000ed00 	.word	0xe000ed00

00080774 <_Z10hal_millisv>:
    }
}

uint32_t hal_millis(void)
{
    return g_ms_ticks;
   80774:	4b01      	ldr	r3, [pc, #4]	; (8077c <_Z10hal_millisv+0x8>)
   80776:	6818      	ldr	r0, [r3, #0]
}
   80778:	4770      	bx	lr
   8077a:	bf00      	nop
   8077c:	200008b0 	.word	0x200008b0

00080780 <_Z12hal_delay_msm>:

    return (ms * 1000U) + (elapsed_cycles / cycles_per_us);
}

void hal_delay_ms(uint32_t ms)
{
   80780:	b538      	push	{r3, r4, r5, lr}
   80782:	4605      	mov	r5, r0
    const uint32_t started = hal_millis();
   80784:	4b05      	ldr	r3, [pc, #20]	; (8079c <_Z12hal_delay_msm+0x1c>)
   80786:	4798      	blx	r3
   80788:	4604      	mov	r4, r0

    while ((uint32_t)(hal_millis() - started) < ms)
   8078a:	4b04      	ldr	r3, [pc, #16]	; (8079c <_Z12hal_delay_msm+0x1c>)
   8078c:	4798      	blx	r3
   8078e:	1b00      	subs	r0, r0, r4
   80790:	42a8      	cmp	r0, r5
   80792:	d201      	bcs.n	80798 <_Z12hal_delay_msm+0x18>
    __asm__ volatile ("nop");
   80794:	bf00      	nop
   80796:	e7f8      	b.n	8078a <_Z12hal_delay_msm+0xa>
   80798:	bd38      	pop	{r3, r4, r5, pc}
   8079a:	bf00      	nop
   8079c:	00080775 	.word	0x00080775

000807a0 <_ZL23hal_uart_get_descriptor9HalUartId>:
static const HalUartDescriptor* hal_uart_get_descriptor(HalUartId port_id)
{
    const uint32_t index = static_cast<uint32_t>(port_id);
    const uint32_t count = sizeof(g_uart_ports) / sizeof(g_uart_ports[0]);

    if (index >= count)
   807a0:	2803      	cmp	r0, #3
   807a2:	d805      	bhi.n	807b0 <_ZL23hal_uart_get_descriptor9HalUartId+0x10>
    {
        return 0;
    }

    return &g_uart_ports[index];
   807a4:	eb00 0040 	add.w	r0, r0, r0, lsl #1
   807a8:	0103      	lsls	r3, r0, #4
   807aa:	4802      	ldr	r0, [pc, #8]	; (807b4 <_ZL23hal_uart_get_descriptor9HalUartId+0x14>)
   807ac:	4418      	add	r0, r3
   807ae:	4770      	bx	lr
        return 0;
   807b0:	2000      	movs	r0, #0
}
   807b2:	4770      	bx	lr
   807b4:	00082288 	.word	0x00082288

000807b8 <_ZL27hal_enable_peripheral_clockm>:

static void hal_enable_peripheral_clock(uint32_t peripheral_id)
{
    if (peripheral_id < 32U)
   807b8:	281f      	cmp	r0, #31
   807ba:	d907      	bls.n	807cc <_ZL27hal_enable_peripheral_clockm+0x14>
    {
        PMC->PMC_PCER0 = (1UL << peripheral_id);
    }
    else
    {
        PMC->PMC_PCER1 = (1UL << (peripheral_id - 32U));
   807bc:	3820      	subs	r0, #32
   807be:	2301      	movs	r3, #1
   807c0:	fa03 f000 	lsl.w	r0, r3, r0
   807c4:	4b04      	ldr	r3, [pc, #16]	; (807d8 <_ZL27hal_enable_peripheral_clockm+0x20>)
   807c6:	f8c3 0100 	str.w	r0, [r3, #256]	; 0x100
   807ca:	4770      	bx	lr
        PMC->PMC_PCER0 = (1UL << peripheral_id);
   807cc:	2301      	movs	r3, #1
   807ce:	fa03 f000 	lsl.w	r0, r3, r0
   807d2:	4b01      	ldr	r3, [pc, #4]	; (807d8 <_ZL27hal_enable_peripheral_clockm+0x20>)
   807d4:	6118      	str	r0, [r3, #16]
   807d6:	4770      	bx	lr
   807d8:	400e0600 	.word	0x400e0600

000807dc <_ZL22hal_uart_configure_pinRK10HalUartPin>:
    }
}

static void hal_uart_configure_pin(const HalUartPin& pin)
{
   807dc:	b510      	push	{r4, lr}
   807de:	4604      	mov	r4, r0
    hal_enable_peripheral_clock(pin.pio_id);
   807e0:	6880      	ldr	r0, [r0, #8]
   807e2:	4b0d      	ldr	r3, [pc, #52]	; (80818 <_ZL22hal_uart_configure_pinRK10HalUartPin+0x3c>)
   807e4:	4798      	blx	r3

    pin.port->PIO_IDR = pin.mask;
   807e6:	6823      	ldr	r3, [r4, #0]
   807e8:	6862      	ldr	r2, [r4, #4]
   807ea:	645a      	str	r2, [r3, #68]	; 0x44
    pin.port->PIO_PUDR = pin.mask;
   807ec:	6823      	ldr	r3, [r4, #0]
   807ee:	6862      	ldr	r2, [r4, #4]
   807f0:	661a      	str	r2, [r3, #96]	; 0x60

    if (pin.peripheral_b != 0U)
   807f2:	7b23      	ldrb	r3, [r4, #12]
   807f4:	b94b      	cbnz	r3, 8080a <_ZL22hal_uart_configure_pinRK10HalUartPin+0x2e>
    {
        pin.port->PIO_ABSR |= pin.mask;
    }
    else
    {
        pin.port->PIO_ABSR &= ~pin.mask;
   807f6:	6822      	ldr	r2, [r4, #0]
   807f8:	6f13      	ldr	r3, [r2, #112]	; 0x70
   807fa:	6861      	ldr	r1, [r4, #4]
   807fc:	ea23 0301 	bic.w	r3, r3, r1
   80800:	6713      	str	r3, [r2, #112]	; 0x70
    }

    pin.port->PIO_PDR = pin.mask;
   80802:	6823      	ldr	r3, [r4, #0]
   80804:	6862      	ldr	r2, [r4, #4]
   80806:	605a      	str	r2, [r3, #4]
   80808:	bd10      	pop	{r4, pc}
        pin.port->PIO_ABSR |= pin.mask;
   8080a:	6822      	ldr	r2, [r4, #0]
   8080c:	6f13      	ldr	r3, [r2, #112]	; 0x70
   8080e:	6861      	ldr	r1, [r4, #4]
   80810:	430b      	orrs	r3, r1
   80812:	6713      	str	r3, [r2, #112]	; 0x70
   80814:	e7f5      	b.n	80802 <_ZL22hal_uart_configure_pinRK10HalUartPin+0x26>
   80816:	bf00      	nop
   80818:	000807b9 	.word	0x000807b9

0008081c <_ZL24hal_uart_get_uart_parity12HalUartFrame>:
}

static uint32_t hal_uart_get_uart_parity(HalUartFrame frame)
{
    switch (frame)
   8081c:	2801      	cmp	r0, #1
   8081e:	d004      	beq.n	8082a <_ZL24hal_uart_get_uart_parity12HalUartFrame+0xe>
   80820:	2802      	cmp	r0, #2
   80822:	d005      	beq.n	80830 <_ZL24hal_uart_get_uart_parity12HalUartFrame+0x14>
        case HAL_UART_FRAME_8E1:
            return UART_MR_PAR_EVEN;

        case HAL_UART_FRAME_8N1:
        default:
            return UART_MR_PAR_NO;
   80824:	f44f 6000 	mov.w	r0, #2048	; 0x800
   80828:	4770      	bx	lr
            return UART_MR_PAR_ODD;
   8082a:	f44f 7000 	mov.w	r0, #512	; 0x200
   8082e:	4770      	bx	lr
            return UART_MR_PAR_EVEN;
   80830:	2000      	movs	r0, #0
    }
}
   80832:	4770      	bx	lr

00080834 <_ZL25hal_uart_get_usart_parity12HalUartFrame>:

static uint32_t hal_uart_get_usart_parity(HalUartFrame frame)
{
    switch (frame)
   80834:	2801      	cmp	r0, #1
   80836:	d004      	beq.n	80842 <_ZL25hal_uart_get_usart_parity12HalUartFrame+0xe>
   80838:	2802      	cmp	r0, #2
   8083a:	d005      	beq.n	80848 <_ZL25hal_uart_get_usart_parity12HalUartFrame+0x14>
        case HAL_UART_FRAME_8E1:
            return US_MR_PAR_EVEN;

        case HAL_UART_FRAME_8N1:
        default:
            return US_MR_PAR_NO;
   8083c:	f44f 6000 	mov.w	r0, #2048	; 0x800
   80840:	4770      	bx	lr
            return US_MR_PAR_ODD;
   80842:	f44f 7000 	mov.w	r0, #512	; 0x200
   80846:	4770      	bx	lr
            return US_MR_PAR_EVEN;
   80848:	2000      	movs	r0, #0
    }
}
   8084a:	4770      	bx	lr

0008084c <_ZL25hal_uart_get_baud_divisorm>:

static uint32_t hal_uart_get_baud_divisor(uint32_t baudrate)
{
    if (baudrate == 0U)
   8084c:	4603      	mov	r3, r0
   8084e:	b140      	cbz	r0, 80862 <_ZL25hal_uart_get_baud_divisorm+0x16>
    {
        return 1U;
    }

    uint32_t divisor = SystemCoreClock / (16U * baudrate);
   80850:	4a05      	ldr	r2, [pc, #20]	; (80868 <_ZL25hal_uart_get_baud_divisorm+0x1c>)
   80852:	6810      	ldr	r0, [r2, #0]
   80854:	011b      	lsls	r3, r3, #4
   80856:	fbb0 f0f3 	udiv	r0, r0, r3

    if (divisor == 0U)
   8085a:	b908      	cbnz	r0, 80860 <_ZL25hal_uart_get_baud_divisorm+0x14>
    {
        divisor = 1U;
   8085c:	2001      	movs	r0, #1
    }

    return divisor;
}
   8085e:	4770      	bx	lr
   80860:	4770      	bx	lr
        return 1U;
   80862:	2001      	movs	r0, #1
   80864:	4770      	bx	lr
   80866:	bf00      	nop
   80868:	20000038 	.word	0x20000038

0008086c <_Z14hal_uart_begin9HalUartIdm12HalUartFrame>:

void hal_uart_begin(HalUartId port_id, uint32_t baudrate, HalUartFrame frame)
{
   8086c:	b5f8      	push	{r3, r4, r5, r6, r7, lr}
   8086e:	460f      	mov	r7, r1
   80870:	4616      	mov	r6, r2
    const HalUartDescriptor* descriptor = hal_uart_get_descriptor(port_id);
   80872:	4b19      	ldr	r3, [pc, #100]	; (808d8 <_Z14hal_uart_begin9HalUartIdm12HalUartFrame+0x6c>)
   80874:	4798      	blx	r3

    if (descriptor == 0)
   80876:	b1f8      	cbz	r0, 808b8 <_Z14hal_uart_begin9HalUartIdm12HalUartFrame+0x4c>
   80878:	4604      	mov	r4, r0
    {
        return;
    }

    hal_uart_configure_pin(descriptor->rx);
   8087a:	3010      	adds	r0, #16
   8087c:	4d17      	ldr	r5, [pc, #92]	; (808dc <_Z14hal_uart_begin9HalUartIdm12HalUartFrame+0x70>)
   8087e:	47a8      	blx	r5
    hal_uart_configure_pin(descriptor->tx);
   80880:	f104 0020 	add.w	r0, r4, #32
   80884:	47a8      	blx	r5
    hal_enable_peripheral_clock(descriptor->peripheral_id);
   80886:	68e0      	ldr	r0, [r4, #12]
   80888:	4b15      	ldr	r3, [pc, #84]	; (808e0 <_Z14hal_uart_begin9HalUartIdm12HalUartFrame+0x74>)
   8088a:	4798      	blx	r3

    const uint32_t baud_divisor = hal_uart_get_baud_divisor(baudrate);
   8088c:	4638      	mov	r0, r7
   8088e:	4b15      	ldr	r3, [pc, #84]	; (808e4 <_Z14hal_uart_begin9HalUartIdm12HalUartFrame+0x78>)
   80890:	4798      	blx	r3
   80892:	4605      	mov	r5, r0

    if (descriptor->type == HAL_UART_PERIPHERAL_UART)
   80894:	7823      	ldrb	r3, [r4, #0]
   80896:	b183      	cbz	r3, 808ba <_Z14hal_uart_begin9HalUartIdm12HalUartFrame+0x4e>
        uart->UART_BRGR = baud_divisor;
        uart->UART_CR = UART_CR_RXEN | UART_CR_TXEN;
    }
    else
    {
        Usart* usart = descriptor->usart;
   80898:	68a4      	ldr	r4, [r4, #8]

        usart->US_CR = US_CR_RSTRX | US_CR_RSTTX | US_CR_RXDIS | US_CR_TXDIS | US_CR_RSTSTA;
   8089a:	f44f 73d6 	mov.w	r3, #428	; 0x1ac
   8089e:	6023      	str	r3, [r4, #0]
        usart->US_IDR = 0xFFFFFFFFU;
   808a0:	f04f 33ff 	mov.w	r3, #4294967295
   808a4:	60e3      	str	r3, [r4, #12]
        usart->US_MR = US_MR_USART_MODE_NORMAL
                     | US_MR_USCLKS_MCK
                     | US_MR_CHRL_8_BIT
                     | hal_uart_get_usart_parity(frame)
   808a6:	4630      	mov	r0, r6
   808a8:	4b0f      	ldr	r3, [pc, #60]	; (808e8 <_Z14hal_uart_begin9HalUartIdm12HalUartFrame+0x7c>)
   808aa:	4798      	blx	r3
   808ac:	f040 00c0 	orr.w	r0, r0, #192	; 0xc0
        usart->US_MR = US_MR_USART_MODE_NORMAL
   808b0:	6060      	str	r0, [r4, #4]
                     | US_MR_NBSTOP_1_BIT
                     | US_MR_CHMODE_NORMAL;
        usart->US_BRGR = baud_divisor;
   808b2:	6225      	str	r5, [r4, #32]
        usart->US_CR = US_CR_RXEN | US_CR_TXEN;
   808b4:	2350      	movs	r3, #80	; 0x50
   808b6:	6023      	str	r3, [r4, #0]
   808b8:	bdf8      	pop	{r3, r4, r5, r6, r7, pc}
        Uart* uart = descriptor->uart;
   808ba:	6864      	ldr	r4, [r4, #4]
        uart->UART_CR = UART_CR_RSTRX | UART_CR_RSTTX | UART_CR_RXDIS | UART_CR_TXDIS;
   808bc:	23ac      	movs	r3, #172	; 0xac
   808be:	6023      	str	r3, [r4, #0]
        uart->UART_IDR = 0xFFFFFFFFU;
   808c0:	f04f 33ff 	mov.w	r3, #4294967295
   808c4:	60e3      	str	r3, [r4, #12]
        uart->UART_MR = hal_uart_get_uart_parity(frame);
   808c6:	4630      	mov	r0, r6
   808c8:	4b08      	ldr	r3, [pc, #32]	; (808ec <_Z14hal_uart_begin9HalUartIdm12HalUartFrame+0x80>)
   808ca:	4798      	blx	r3
   808cc:	6060      	str	r0, [r4, #4]
        uart->UART_BRGR = baud_divisor;
   808ce:	6225      	str	r5, [r4, #32]
        uart->UART_CR = UART_CR_RXEN | UART_CR_TXEN;
   808d0:	2350      	movs	r3, #80	; 0x50
   808d2:	6023      	str	r3, [r4, #0]
   808d4:	bdf8      	pop	{r3, r4, r5, r6, r7, pc}
   808d6:	bf00      	nop
   808d8:	000807a1 	.word	0x000807a1
   808dc:	000807dd 	.word	0x000807dd
   808e0:	000807b9 	.word	0x000807b9
   808e4:	0008084d 	.word	0x0008084d
   808e8:	00080835 	.word	0x00080835
   808ec:	0008081d 	.word	0x0008081d

000808f0 <_Z14hal_uart_write9HalUartIdh>:

    return static_cast<int>(descriptor->usart->US_RHR & 0xFFU);
}

void hal_uart_write(HalUartId port_id, uint8_t value)
{
   808f0:	b510      	push	{r4, lr}
   808f2:	460c      	mov	r4, r1
    const HalUartDescriptor* descriptor = hal_uart_get_descriptor(port_id);
   808f4:	4b0b      	ldr	r3, [pc, #44]	; (80924 <_Z14hal_uart_write9HalUartIdh+0x34>)
   808f6:	4798      	blx	r3

    if (descriptor == 0)
   808f8:	b198      	cbz	r0, 80922 <_Z14hal_uart_write9HalUartIdh+0x32>
   808fa:	4603      	mov	r3, r0
    {
        return;
    }

    if (descriptor->type == HAL_UART_PERIPHERAL_UART)
   808fc:	7802      	ldrb	r2, [r0, #0]
   808fe:	b942      	cbnz	r2, 80912 <_Z14hal_uart_write9HalUartIdh+0x22>
    {
        while ((descriptor->uart->UART_SR & UART_SR_TXRDY) == 0U)
   80900:	685a      	ldr	r2, [r3, #4]
   80902:	6951      	ldr	r1, [r2, #20]
   80904:	f011 0f02 	tst.w	r1, #2
   80908:	d101      	bne.n	8090e <_Z14hal_uart_write9HalUartIdh+0x1e>
        {
            __asm__ volatile ("nop");
   8090a:	bf00      	nop
        while ((descriptor->uart->UART_SR & UART_SR_TXRDY) == 0U)
   8090c:	e7f8      	b.n	80900 <_Z14hal_uart_write9HalUartIdh+0x10>
        }

        descriptor->uart->UART_THR = value;
   8090e:	61d4      	str	r4, [r2, #28]
   80910:	bd10      	pop	{r4, pc}
    }
    else
    {
        while ((descriptor->usart->US_CSR & US_CSR_TXRDY) == 0U)
   80912:	689a      	ldr	r2, [r3, #8]
   80914:	6951      	ldr	r1, [r2, #20]
   80916:	f011 0f02 	tst.w	r1, #2
   8091a:	d101      	bne.n	80920 <_Z14hal_uart_write9HalUartIdh+0x30>
        {
            __asm__ volatile ("nop");
   8091c:	bf00      	nop
        while ((descriptor->usart->US_CSR & US_CSR_TXRDY) == 0U)
   8091e:	e7f8      	b.n	80912 <_Z14hal_uart_write9HalUartIdh+0x22>
        }

        descriptor->usart->US_THR = value;
   80920:	61d4      	str	r4, [r2, #28]
   80922:	bd10      	pop	{r4, pc}
   80924:	000807a1 	.word	0x000807a1

00080928 <_ZL17usb_ep_max_packetm>:
    __asm__ volatile ("nop");
}

static uint32_t usb_ep_max_packet(uint32_t ep)
{
    return (ep == EP0) ? EP0_SIZE : EPX_SIZE;
   80928:	b110      	cbz	r0, 80930 <_ZL17usb_ep_max_packetm+0x8>
   8092a:	f44f 7000 	mov.w	r0, #512	; 0x200
}
   8092e:	4770      	bx	lr
    return (ep == EP0) ? EP0_SIZE : EPX_SIZE;
   80930:	2040      	movs	r0, #64	; 0x40
   80932:	4770      	bx	lr

00080934 <_ZL17usb_wait_for_flagPVmm>:

static uint32_t usb_wait_for_flag(volatile uint32_t* reg, uint32_t mask)
{
    for (uint32_t i = 0U; i < USB_WAIT_TIMEOUT_ITERATIONS; ++i)
   80934:	2300      	movs	r3, #0
   80936:	4a08      	ldr	r2, [pc, #32]	; (80958 <_ZL17usb_wait_for_flagPVmm+0x24>)
   80938:	4293      	cmp	r3, r2
   8093a:	d805      	bhi.n	80948 <_ZL17usb_wait_for_flagPVmm+0x14>
    {
        if ((*reg & mask) != 0U)
   8093c:	6802      	ldr	r2, [r0, #0]
   8093e:	420a      	tst	r2, r1
   80940:	d107      	bne.n	80952 <_ZL17usb_wait_for_flagPVmm+0x1e>
    __asm__ volatile ("nop");
   80942:	bf00      	nop
    for (uint32_t i = 0U; i < USB_WAIT_TIMEOUT_ITERATIONS; ++i)
   80944:	3301      	adds	r3, #1
   80946:	e7f6      	b.n	80936 <_ZL17usb_wait_for_flagPVmm+0x2>
        }

        usb_cpu_relax();
    }

    g_usb_error = 1U;
   80948:	2201      	movs	r2, #1
   8094a:	4b04      	ldr	r3, [pc, #16]	; (8095c <_ZL17usb_wait_for_flagPVmm+0x28>)
   8094c:	601a      	str	r2, [r3, #0]
    return 0U;
   8094e:	2000      	movs	r0, #0
   80950:	4770      	bx	lr
            return 1U;
   80952:	2001      	movs	r0, #1
}
   80954:	4770      	bx	lr
   80956:	bf00      	nop
   80958:	0001869f 	.word	0x0001869f
   8095c:	200008b4 	.word	0x200008b4

00080960 <_ZL27usb_enable_peripheral_clockm>:

static void usb_enable_peripheral_clock(uint32_t peripheral_id)
{
    if (peripheral_id < 32U)
   80960:	281f      	cmp	r0, #31
   80962:	d907      	bls.n	80974 <_ZL27usb_enable_peripheral_clockm+0x14>
    {
        PMC->PMC_PCER0 = (1UL << peripheral_id);
    }
    else
    {
        PMC->PMC_PCER1 = (1UL << (peripheral_id - 32U));
   80964:	3820      	subs	r0, #32
   80966:	2301      	movs	r3, #1
   80968:	fa03 f000 	lsl.w	r0, r3, r0
   8096c:	4b04      	ldr	r3, [pc, #16]	; (80980 <_ZL27usb_enable_peripheral_clockm+0x20>)
   8096e:	f8c3 0100 	str.w	r0, [r3, #256]	; 0x100
   80972:	4770      	bx	lr
        PMC->PMC_PCER0 = (1UL << peripheral_id);
   80974:	2301      	movs	r3, #1
   80976:	fa03 f000 	lsl.w	r0, r3, r0
   8097a:	4b01      	ldr	r3, [pc, #4]	; (80980 <_ZL27usb_enable_peripheral_clockm+0x20>)
   8097c:	6118      	str	r0, [r3, #16]
   8097e:	4770      	bx	lr
   80980:	400e0600 	.word	0x400e0600

00080984 <_ZL17usb_enable_clocksv>:
    }
}

static void usb_enable_clocks(void)
{
   80984:	b508      	push	{r3, lr}
    usb_enable_peripheral_clock(ID_UOTGHS);
   80986:	2028      	movs	r0, #40	; 0x28
   80988:	4b07      	ldr	r3, [pc, #28]	; (809a8 <_ZL17usb_enable_clocksv+0x24>)
   8098a:	4798      	blx	r3

#ifdef CKGR_UCKR_UPLLEN
    PMC->CKGR_UCKR = CKGR_UCKR_UPLLCOUNT(3U) | CKGR_UCKR_UPLLEN;
   8098c:	f44f 1244 	mov.w	r2, #3211264	; 0x310000
   80990:	4b06      	ldr	r3, [pc, #24]	; (809ac <_ZL17usb_enable_clocksv+0x28>)
   80992:	61da      	str	r2, [r3, #28]
    while ((PMC->PMC_SR & PMC_SR_LOCKU) == 0U)
   80994:	4b05      	ldr	r3, [pc, #20]	; (809ac <_ZL17usb_enable_clocksv+0x28>)
   80996:	6e9b      	ldr	r3, [r3, #104]	; 0x68
   80998:	f013 0f40 	tst.w	r3, #64	; 0x40
   8099c:	d0fa      	beq.n	80994 <_ZL17usb_enable_clocksv+0x10>
    {
    }
#endif

#ifdef PMC_USB_USBS
    PMC->PMC_USB = PMC_USB_USBS | PMC_USB_USBDIV(0U);
   8099e:	2201      	movs	r2, #1
   809a0:	4b02      	ldr	r3, [pc, #8]	; (809ac <_ZL17usb_enable_clocksv+0x28>)
   809a2:	639a      	str	r2, [r3, #56]	; 0x38
   809a4:	bd08      	pop	{r3, pc}
   809a6:	bf00      	nop
   809a8:	00080961 	.word	0x00080961
   809ac:	400e0600 	.word	0x400e0600

000809b0 <_ZL21usb_force_device_modev>:
}

static void usb_force_device_mode(void)
{
#ifdef UOTGHS_CTRL_UIMOD
    UOTGHS->UOTGHS_CTRL |= UOTGHS_CTRL_UIMOD;
   809b0:	4b06      	ldr	r3, [pc, #24]	; (809cc <_ZL21usb_force_device_modev+0x1c>)
   809b2:	f8d3 2800 	ldr.w	r2, [r3, #2048]	; 0x800
   809b6:	f042 7200 	orr.w	r2, r2, #33554432	; 0x2000000
   809ba:	f8c3 2800 	str.w	r2, [r3, #2048]	; 0x800
#endif

#ifdef UOTGHS_CTRL_UIDE
    UOTGHS->UOTGHS_CTRL &= ~UOTGHS_CTRL_UIDE;
   809be:	f8d3 2800 	ldr.w	r2, [r3, #2048]	; 0x800
   809c2:	f022 7280 	bic.w	r2, r2, #16777216	; 0x1000000
   809c6:	f8c3 2800 	str.w	r2, [r3, #2048]	; 0x800
   809ca:	4770      	bx	lr
   809cc:	400ac000 	.word	0x400ac000

000809d0 <_ZL24usb_enable_pad_and_clockv>:
#endif
}

static void usb_enable_pad_and_clock(void)
{
   809d0:	b508      	push	{r3, lr}
#ifdef UOTGHS_CTRL_OTGPADE
    UOTGHS->UOTGHS_CTRL |= UOTGHS_CTRL_OTGPADE;
   809d2:	4b0c      	ldr	r3, [pc, #48]	; (80a04 <_ZL24usb_enable_pad_and_clockv+0x34>)
   809d4:	f8d3 2800 	ldr.w	r2, [r3, #2048]	; 0x800
   809d8:	f442 5280 	orr.w	r2, r2, #4096	; 0x1000
   809dc:	f8c3 2800 	str.w	r2, [r3, #2048]	; 0x800
#endif

#ifdef UOTGHS_CTRL_USBE
    UOTGHS->UOTGHS_CTRL |= UOTGHS_CTRL_USBE;
   809e0:	f8d3 2800 	ldr.w	r2, [r3, #2048]	; 0x800
   809e4:	f442 4200 	orr.w	r2, r2, #32768	; 0x8000
   809e8:	f8c3 2800 	str.w	r2, [r3, #2048]	; 0x800
#endif

#ifdef UOTGHS_CTRL_FRZCLK
    UOTGHS->UOTGHS_CTRL &= ~UOTGHS_CTRL_FRZCLK;
   809ec:	f8d3 2800 	ldr.w	r2, [r3, #2048]	; 0x800
   809f0:	f422 4280 	bic.w	r2, r2, #16384	; 0x4000
   809f4:	f8c3 2800 	str.w	r2, [r3, #2048]	; 0x800
#endif

#ifdef UOTGHS_SR_CLKUSABLE
    (void)usb_wait_for_flag(&UOTGHS->UOTGHS_SR, UOTGHS_SR_CLKUSABLE);
   809f8:	f44f 4180 	mov.w	r1, #16384	; 0x4000
   809fc:	4802      	ldr	r0, [pc, #8]	; (80a08 <_ZL24usb_enable_pad_and_clockv+0x38>)
   809fe:	4b03      	ldr	r3, [pc, #12]	; (80a0c <_ZL24usb_enable_pad_and_clockv+0x3c>)
   80a00:	4798      	blx	r3
   80a02:	bd08      	pop	{r3, pc}
   80a04:	400ac000 	.word	0x400ac000
   80a08:	400ac804 	.word	0x400ac804
   80a0c:	00080935 	.word	0x00080935

00080a10 <_ZL28usb_endpoint_fifo_byte_countm>:
#endif
}

static uint32_t usb_endpoint_fifo_byte_count(uint32_t ep)
{
    return ((UOTGHS->UOTGHS_DEVEPTISR[ep] & UOTGHS_DEVEPTISR_BYCT_Msk) >> UOTGHS_DEVEPTISR_BYCT_Pos);
   80a10:	304c      	adds	r0, #76	; 0x4c
   80a12:	4b03      	ldr	r3, [pc, #12]	; (80a20 <_ZL28usb_endpoint_fifo_byte_countm+0x10>)
   80a14:	f853 0020 	ldr.w	r0, [r3, r0, lsl #2]
}
   80a18:	f3c0 500a 	ubfx	r0, r0, #20, #11
   80a1c:	4770      	bx	lr
   80a1e:	bf00      	nop
   80a20:	400ac000 	.word	0x400ac000

00080a24 <_ZL14usb_release_rxm>:

static void usb_release_rx(uint32_t ep)
{
    UOTGHS->UOTGHS_DEVEPTICR[ep] = UOTGHS_DEVEPTICR_RXOUTIC;
   80a24:	4b08      	ldr	r3, [pc, #32]	; (80a48 <_ZL14usb_release_rxm+0x24>)
   80a26:	f100 0258 	add.w	r2, r0, #88	; 0x58
   80a2a:	2102      	movs	r1, #2
   80a2c:	f843 1022 	str.w	r1, [r3, r2, lsl #2]
#ifdef UOTGHS_DEVEPTIDR_FIFOCONC
    UOTGHS->UOTGHS_DEVEPTIDR[ep] = UOTGHS_DEVEPTIDR_FIFOCONC;
   80a30:	f100 0288 	add.w	r2, r0, #136	; 0x88
   80a34:	f44f 4180 	mov.w	r1, #16384	; 0x4000
   80a38:	f843 1022 	str.w	r1, [r3, r2, lsl #2]
#endif
    g_recv_fifo_ptr[ep] = 0U;
   80a3c:	4b03      	ldr	r3, [pc, #12]	; (80a4c <_ZL14usb_release_rxm+0x28>)
   80a3e:	eb03 0080 	add.w	r0, r3, r0, lsl #2
   80a42:	2300      	movs	r3, #0
   80a44:	6043      	str	r3, [r0, #4]
   80a46:	4770      	bx	lr
   80a48:	400ac000 	.word	0x400ac000
   80a4c:	200008b4 	.word	0x200008b4

00080a50 <_ZL14usb_release_txm>:
}

static void usb_release_tx(uint32_t ep)
{
    UOTGHS->UOTGHS_DEVEPTICR[ep] = UOTGHS_DEVEPTICR_TXINIC;
   80a50:	4b08      	ldr	r3, [pc, #32]	; (80a74 <_ZL14usb_release_txm+0x24>)
   80a52:	f100 0258 	add.w	r2, r0, #88	; 0x58
   80a56:	2101      	movs	r1, #1
   80a58:	f843 1022 	str.w	r1, [r3, r2, lsl #2]
#ifdef UOTGHS_DEVEPTIDR_FIFOCONC
    UOTGHS->UOTGHS_DEVEPTIDR[ep] = UOTGHS_DEVEPTIDR_FIFOCONC;
   80a5c:	f100 0288 	add.w	r2, r0, #136	; 0x88
   80a60:	f44f 4180 	mov.w	r1, #16384	; 0x4000
   80a64:	f843 1022 	str.w	r1, [r3, r2, lsl #2]
#endif
    g_send_fifo_ptr[ep] = 0U;
   80a68:	4b03      	ldr	r3, [pc, #12]	; (80a78 <_ZL14usb_release_txm+0x28>)
   80a6a:	eb03 0080 	add.w	r0, r3, r0, lsl #2
   80a6e:	2300      	movs	r3, #0
   80a70:	6143      	str	r3, [r0, #20]
   80a72:	4770      	bx	lr
   80a74:	400ac000 	.word	0x400ac000
   80a78:	200008b4 	.word	0x200008b4

00080a7c <_ZL17usb_endpoint_fifom>:
}

static volatile uint8_t* usb_endpoint_fifo(uint32_t ep)
{
    return reinterpret_cast<volatile uint8_t*>(UOTGHS_RAM_ADDR + (ep * UOTGHS_ENDPOINT_FIFO_STRIDE));
   80a7c:	f500 4080 	add.w	r0, r0, #16384	; 0x4000
   80a80:	3030      	adds	r0, #48	; 0x30
}
   80a82:	03c0      	lsls	r0, r0, #15
   80a84:	4770      	bx	lr
	...

00080a88 <_ZL9usb_recv8m>:

static uint8_t usb_recv8(uint32_t ep)
{
   80a88:	b510      	push	{r4, lr}
   80a8a:	4604      	mov	r4, r0
    volatile uint8_t* fifo = usb_endpoint_fifo(ep);
   80a8c:	4b05      	ldr	r3, [pc, #20]	; (80aa4 <_ZL9usb_recv8m+0x1c>)
   80a8e:	4798      	blx	r3
    const uint8_t value = fifo[g_recv_fifo_ptr[ep]];
   80a90:	4b05      	ldr	r3, [pc, #20]	; (80aa8 <_ZL9usb_recv8m+0x20>)
   80a92:	eb03 0384 	add.w	r3, r3, r4, lsl #2
   80a96:	685a      	ldr	r2, [r3, #4]
   80a98:	5c80      	ldrb	r0, [r0, r2]
    ++g_recv_fifo_ptr[ep];
   80a9a:	685a      	ldr	r2, [r3, #4]
   80a9c:	3201      	adds	r2, #1
   80a9e:	605a      	str	r2, [r3, #4]
    return value;
}
   80aa0:	bd10      	pop	{r4, pc}
   80aa2:	bf00      	nop
   80aa4:	00080a7d 	.word	0x00080a7d
   80aa8:	200008b4 	.word	0x200008b4

00080aac <_ZL8usb_recvmPhm>:

static void usb_recv(uint32_t ep, uint8_t* data, uint32_t length)
{
   80aac:	b570      	push	{r4, r5, r6, lr}
   80aae:	4605      	mov	r5, r0
   80ab0:	460e      	mov	r6, r1
   80ab2:	4614      	mov	r4, r2
    volatile uint8_t* fifo = usb_endpoint_fifo(ep);
   80ab4:	4b0a      	ldr	r3, [pc, #40]	; (80ae0 <_ZL8usb_recvmPhm+0x34>)
   80ab6:	4798      	blx	r3

    for (uint32_t i = 0U; i < length; ++i)
   80ab8:	2300      	movs	r3, #0
   80aba:	42a3      	cmp	r3, r4
   80abc:	d208      	bcs.n	80ad0 <_ZL8usb_recvmPhm+0x24>
    {
        data[i] = fifo[g_recv_fifo_ptr[ep] + i];
   80abe:	4a09      	ldr	r2, [pc, #36]	; (80ae4 <_ZL8usb_recvmPhm+0x38>)
   80ac0:	eb02 0285 	add.w	r2, r2, r5, lsl #2
   80ac4:	6852      	ldr	r2, [r2, #4]
   80ac6:	441a      	add	r2, r3
   80ac8:	5c82      	ldrb	r2, [r0, r2]
   80aca:	54f2      	strb	r2, [r6, r3]
    for (uint32_t i = 0U; i < length; ++i)
   80acc:	3301      	adds	r3, #1
   80ace:	e7f4      	b.n	80aba <_ZL8usb_recvmPhm+0xe>
    }

    g_recv_fifo_ptr[ep] += length;
   80ad0:	4b04      	ldr	r3, [pc, #16]	; (80ae4 <_ZL8usb_recvmPhm+0x38>)
   80ad2:	eb03 0585 	add.w	r5, r3, r5, lsl #2
   80ad6:	686b      	ldr	r3, [r5, #4]
   80ad8:	441c      	add	r4, r3
   80ada:	606c      	str	r4, [r5, #4]
   80adc:	bd70      	pop	{r4, r5, r6, pc}
   80ade:	bf00      	nop
   80ae0:	00080a7d 	.word	0x00080a7d
   80ae4:	200008b4 	.word	0x200008b4

00080ae8 <_ZL9usb_send8mh>:
}

static void usb_send8(uint32_t ep, uint8_t data)
{
   80ae8:	b538      	push	{r3, r4, r5, lr}
   80aea:	4605      	mov	r5, r0
   80aec:	460c      	mov	r4, r1
    volatile uint8_t* fifo = usb_endpoint_fifo(ep);
   80aee:	4b05      	ldr	r3, [pc, #20]	; (80b04 <_ZL9usb_send8mh+0x1c>)
   80af0:	4798      	blx	r3
    fifo[g_send_fifo_ptr[ep]] = data;
   80af2:	4b05      	ldr	r3, [pc, #20]	; (80b08 <_ZL9usb_send8mh+0x20>)
   80af4:	eb03 0385 	add.w	r3, r3, r5, lsl #2
   80af8:	695a      	ldr	r2, [r3, #20]
   80afa:	5484      	strb	r4, [r0, r2]
    ++g_send_fifo_ptr[ep];
   80afc:	695a      	ldr	r2, [r3, #20]
   80afe:	3201      	adds	r2, #1
   80b00:	615a      	str	r2, [r3, #20]
   80b02:	bd38      	pop	{r3, r4, r5, pc}
   80b04:	00080a7d 	.word	0x00080a7d
   80b08:	200008b4 	.word	0x200008b4

00080b0c <_ZL8usb_sendmPKvm>:
}

static uint32_t usb_send(uint32_t ep, const void* data, uint32_t length)
{
   80b0c:	e92d 43f8 	stmdb	sp!, {r3, r4, r5, r6, r7, r8, r9, lr}
   80b10:	4604      	mov	r4, r0
   80b12:	460f      	mov	r7, r1
   80b14:	4690      	mov	r8, r2
    const uint8_t* source = static_cast<const uint8_t*>(data);
    volatile uint8_t* fifo = usb_endpoint_fifo(ep);
   80b16:	4b28      	ldr	r3, [pc, #160]	; (80bb8 <_ZL8usb_sendmPKvm+0xac>)
   80b18:	4798      	blx	r3
   80b1a:	4606      	mov	r6, r0
    const uint32_t max_packet = usb_ep_max_packet(ep);
   80b1c:	4620      	mov	r0, r4
   80b1e:	4b27      	ldr	r3, [pc, #156]	; (80bbc <_ZL8usb_sendmPKvm+0xb0>)
   80b20:	4798      	blx	r3
   80b22:	4681      	mov	r9, r0
    uint32_t sent = 0U;
   80b24:	2500      	movs	r5, #0
   80b26:	e01e      	b.n	80b66 <_ZL8usb_sendmPKvm+0x5a>
                chunk = available;
            }
        }
        else
        {
            g_send_fifo_ptr[ep] = 0U;
   80b28:	4b25      	ldr	r3, [pc, #148]	; (80bc0 <_ZL8usb_sendmPKvm+0xb4>)
   80b2a:	eb03 0384 	add.w	r3, r3, r4, lsl #2
   80b2e:	2200      	movs	r2, #0
   80b30:	615a      	str	r2, [r3, #20]

            if (chunk > max_packet)
   80b32:	4581      	cmp	r9, r0
   80b34:	d22c      	bcs.n	80b90 <_ZL8usb_sendmPKvm+0x84>
            {
                chunk = max_packet;
   80b36:	4648      	mov	r0, r9
   80b38:	e02a      	b.n	80b90 <_ZL8usb_sendmPKvm+0x84>
                chunk = available;
   80b3a:	4618      	mov	r0, r3
   80b3c:	e028      	b.n	80b90 <_ZL8usb_sendmPKvm+0x84>
        for (uint32_t i = 0U; i < chunk; ++i)
        {
            fifo[g_send_fifo_ptr[ep] + i] = source[sent + i];
        }

        g_send_fifo_ptr[ep] += chunk;
   80b3e:	4b20      	ldr	r3, [pc, #128]	; (80bc0 <_ZL8usb_sendmPKvm+0xb4>)
   80b40:	eb03 0384 	add.w	r3, r3, r4, lsl #2
   80b44:	695a      	ldr	r2, [r3, #20]
   80b46:	4402      	add	r2, r0
   80b48:	615a      	str	r2, [r3, #20]
        sent += chunk;
   80b4a:	4405      	add	r5, r0

        if ((ep != EP0) || (g_send_fifo_ptr[ep] == max_packet))
   80b4c:	b94c      	cbnz	r4, 80b62 <_ZL8usb_sendmPKvm+0x56>
   80b4e:	4b1c      	ldr	r3, [pc, #112]	; (80bc0 <_ZL8usb_sendmPKvm+0xb4>)
   80b50:	eb03 0384 	add.w	r3, r3, r4, lsl #2
   80b54:	695b      	ldr	r3, [r3, #20]
   80b56:	4599      	cmp	r9, r3
   80b58:	d001      	beq.n	80b5e <_ZL8usb_sendmPKvm+0x52>
   80b5a:	2300      	movs	r3, #0
   80b5c:	e002      	b.n	80b64 <_ZL8usb_sendmPKvm+0x58>
   80b5e:	2301      	movs	r3, #1
   80b60:	e000      	b.n	80b64 <_ZL8usb_sendmPKvm+0x58>
   80b62:	2301      	movs	r3, #1
   80b64:	bb0b      	cbnz	r3, 80baa <_ZL8usb_sendmPKvm+0x9e>
    while (sent < length)
   80b66:	4545      	cmp	r5, r8
   80b68:	d223      	bcs.n	80bb2 <_ZL8usb_sendmPKvm+0xa6>
        if (usb_wait_for_flag(&UOTGHS->UOTGHS_DEVEPTISR[ep], UOTGHS_DEVEPTISR_TXINI) == 0U)
   80b6a:	2101      	movs	r1, #1
   80b6c:	4815      	ldr	r0, [pc, #84]	; (80bc4 <_ZL8usb_sendmPKvm+0xb8>)
   80b6e:	eb00 0084 	add.w	r0, r0, r4, lsl #2
   80b72:	4b15      	ldr	r3, [pc, #84]	; (80bc8 <_ZL8usb_sendmPKvm+0xbc>)
   80b74:	4798      	blx	r3
   80b76:	b1e0      	cbz	r0, 80bb2 <_ZL8usb_sendmPKvm+0xa6>
        uint32_t chunk = length - sent;
   80b78:	eba8 0005 	sub.w	r0, r8, r5
        if (ep == EP0)
   80b7c:	2c00      	cmp	r4, #0
   80b7e:	d1d3      	bne.n	80b28 <_ZL8usb_sendmPKvm+0x1c>
            const uint32_t available = max_packet - g_send_fifo_ptr[ep];
   80b80:	4b0f      	ldr	r3, [pc, #60]	; (80bc0 <_ZL8usb_sendmPKvm+0xb4>)
   80b82:	eb03 0384 	add.w	r3, r3, r4, lsl #2
   80b86:	695b      	ldr	r3, [r3, #20]
   80b88:	eba9 0303 	sub.w	r3, r9, r3
            if (chunk > available)
   80b8c:	4298      	cmp	r0, r3
   80b8e:	d8d4      	bhi.n	80b3a <_ZL8usb_sendmPKvm+0x2e>
        for (uint32_t i = 0U; i < chunk; ++i)
   80b90:	2300      	movs	r3, #0
   80b92:	4298      	cmp	r0, r3
   80b94:	d9d3      	bls.n	80b3e <_ZL8usb_sendmPKvm+0x32>
            fifo[g_send_fifo_ptr[ep] + i] = source[sent + i];
   80b96:	4a0a      	ldr	r2, [pc, #40]	; (80bc0 <_ZL8usb_sendmPKvm+0xb4>)
   80b98:	eb02 0284 	add.w	r2, r2, r4, lsl #2
   80b9c:	6952      	ldr	r2, [r2, #20]
   80b9e:	441a      	add	r2, r3
   80ba0:	18e9      	adds	r1, r5, r3
   80ba2:	5c79      	ldrb	r1, [r7, r1]
   80ba4:	54b1      	strb	r1, [r6, r2]
        for (uint32_t i = 0U; i < chunk; ++i)
   80ba6:	3301      	adds	r3, #1
   80ba8:	e7f3      	b.n	80b92 <_ZL8usb_sendmPKvm+0x86>
        {
            usb_release_tx(ep);
   80baa:	4620      	mov	r0, r4
   80bac:	4b07      	ldr	r3, [pc, #28]	; (80bcc <_ZL8usb_sendmPKvm+0xc0>)
   80bae:	4798      	blx	r3
   80bb0:	e7d9      	b.n	80b66 <_ZL8usb_sendmPKvm+0x5a>
        }
    }

    return sent;
}
   80bb2:	4628      	mov	r0, r5
   80bb4:	e8bd 83f8 	ldmia.w	sp!, {r3, r4, r5, r6, r7, r8, r9, pc}
   80bb8:	00080a7d 	.word	0x00080a7d
   80bbc:	00080929 	.word	0x00080929
   80bc0:	200008b4 	.word	0x200008b4
   80bc4:	400ac130 	.word	0x400ac130
   80bc8:	00080935 	.word	0x00080935
   80bcc:	00080a51 	.word	0x00080a51

00080bd0 <_ZL12usb_clear_inv>:

static void usb_clear_in(void)
{
   80bd0:	b508      	push	{r3, lr}
    usb_release_tx(EP0);
   80bd2:	2000      	movs	r0, #0
   80bd4:	4b01      	ldr	r3, [pc, #4]	; (80bdc <_ZL12usb_clear_inv+0xc>)
   80bd6:	4798      	blx	r3
   80bd8:	bd08      	pop	{r3, pc}
   80bda:	bf00      	nop
   80bdc:	00080a51 	.word	0x00080a51

00080be0 <_ZL13usb_clear_outv>:
}

static void usb_clear_out(void)
{
    UOTGHS->UOTGHS_DEVEPTICR[EP0] = UOTGHS_DEVEPTICR_RXOUTIC;
   80be0:	2202      	movs	r2, #2
   80be2:	4b03      	ldr	r3, [pc, #12]	; (80bf0 <_ZL13usb_clear_outv+0x10>)
   80be4:	f8c3 2160 	str.w	r2, [r3, #352]	; 0x160
    g_recv_fifo_ptr[EP0] = 0U;
   80be8:	2200      	movs	r2, #0
   80bea:	4b02      	ldr	r3, [pc, #8]	; (80bf4 <_ZL13usb_clear_outv+0x14>)
   80bec:	605a      	str	r2, [r3, #4]
   80bee:	4770      	bx	lr
   80bf0:	400ac000 	.word	0x400ac000
   80bf4:	200008b4 	.word	0x200008b4

00080bf8 <_ZL15usb_clear_setupv>:
}

static void usb_clear_setup(void)
{
    UOTGHS->UOTGHS_DEVEPTICR[EP0] = UOTGHS_DEVEPTICR_RXSTPIC;
   80bf8:	2204      	movs	r2, #4
   80bfa:	4b03      	ldr	r3, [pc, #12]	; (80c08 <_ZL15usb_clear_setupv+0x10>)
   80bfc:	f8c3 2160 	str.w	r2, [r3, #352]	; 0x160
    g_recv_fifo_ptr[EP0] = 0U;
   80c00:	2200      	movs	r2, #0
   80c02:	4b02      	ldr	r3, [pc, #8]	; (80c0c <_ZL15usb_clear_setupv+0x14>)
   80c04:	605a      	str	r2, [r3, #4]
   80c06:	4770      	bx	lr
   80c08:	400ac000 	.word	0x400ac000
   80c0c:	200008b4 	.word	0x200008b4

00080c10 <_ZL9usb_stallv>:
}

static void usb_stall(void)
{
#ifdef UOTGHS_DEVEPTIER_STALLRQS
    UOTGHS->UOTGHS_DEVEPTIER[EP0] = UOTGHS_DEVEPTIER_STALLRQS;
   80c10:	f44f 2200 	mov.w	r2, #524288	; 0x80000
   80c14:	4b01      	ldr	r3, [pc, #4]	; (80c1c <_ZL9usb_stallv+0xc>)
   80c16:	f8c3 21f0 	str.w	r2, [r3, #496]	; 0x1f0
   80c1a:	4770      	bx	lr
   80c1c:	400ac000 	.word	0x400ac000

00080c20 <_ZL18usb_received_setupv>:
#endif
}

static uint32_t usb_received_setup(void)
{
    return (UOTGHS->UOTGHS_DEVEPTISR[EP0] & UOTGHS_DEVEPTISR_RXSTPI);
   80c20:	4b02      	ldr	r3, [pc, #8]	; (80c2c <_ZL18usb_received_setupv+0xc>)
   80c22:	f8d3 0130 	ldr.w	r0, [r3, #304]	; 0x130
}
   80c26:	f000 0004 	and.w	r0, r0, #4
   80c2a:	4770      	bx	lr
   80c2c:	400ac000 	.word	0x400ac000

00080c30 <_ZL16usb_recv_controlPvm>:

static uint32_t usb_recv_control(void* data, uint32_t length)
{
   80c30:	b538      	push	{r3, r4, r5, lr}
   80c32:	4605      	mov	r5, r0
   80c34:	460c      	mov	r4, r1
    if (usb_wait_for_flag(&UOTGHS->UOTGHS_DEVEPTISR[EP0], UOTGHS_DEVEPTISR_RXOUTI) == 0U)
   80c36:	2102      	movs	r1, #2
   80c38:	4807      	ldr	r0, [pc, #28]	; (80c58 <_ZL16usb_recv_controlPvm+0x28>)
   80c3a:	4b08      	ldr	r3, [pc, #32]	; (80c5c <_ZL16usb_recv_controlPvm+0x2c>)
   80c3c:	4798      	blx	r3
   80c3e:	b908      	cbnz	r0, 80c44 <_ZL16usb_recv_controlPvm+0x14>
    {
        return 0U;
   80c40:	2000      	movs	r0, #0

    usb_recv(EP0, static_cast<uint8_t*>(data), length);
    usb_clear_out();

    return length;
}
   80c42:	bd38      	pop	{r3, r4, r5, pc}
    usb_recv(EP0, static_cast<uint8_t*>(data), length);
   80c44:	4622      	mov	r2, r4
   80c46:	4629      	mov	r1, r5
   80c48:	2000      	movs	r0, #0
   80c4a:	4b05      	ldr	r3, [pc, #20]	; (80c60 <_ZL16usb_recv_controlPvm+0x30>)
   80c4c:	4798      	blx	r3
    usb_clear_out();
   80c4e:	4b05      	ldr	r3, [pc, #20]	; (80c64 <_ZL16usb_recv_controlPvm+0x34>)
   80c50:	4798      	blx	r3
    return length;
   80c52:	4620      	mov	r0, r4
   80c54:	bd38      	pop	{r3, r4, r5, pc}
   80c56:	bf00      	nop
   80c58:	400ac130 	.word	0x400ac130
   80c5c:	00080935 	.word	0x00080935
   80c60:	00080aad 	.word	0x00080aad
   80c64:	00080be1 	.word	0x00080be1

00080c68 <_ZL16usb_send_controlPKvm>:

static uint32_t usb_send_control(const void* data, uint32_t length)
{
   80c68:	b508      	push	{r3, lr}
    const uint32_t sent = usb_send(EP0, data, length);
   80c6a:	460a      	mov	r2, r1
   80c6c:	4601      	mov	r1, r0
   80c6e:	2000      	movs	r0, #0
   80c70:	4b01      	ldr	r3, [pc, #4]	; (80c78 <_ZL16usb_send_controlPKvm+0x10>)
   80c72:	4798      	blx	r3
    return sent;
}
   80c74:	bd08      	pop	{r3, pc}
   80c76:	bf00      	nop
   80c78:	00080b0d 	.word	0x00080b0d

00080c7c <_ZL26usb_send_string_descriptorPKct>:
static uint32_t usb_send_string_descriptor(const char* text, uint16_t max_length)
{
    uint8_t buffer[64];
    uint32_t index = 2U;

    if ((text == 0) || (max_length < 2U))
   80c7c:	b318      	cbz	r0, 80cc6 <_ZL26usb_send_string_descriptorPKct+0x4a>
{
   80c7e:	b530      	push	{r4, r5, lr}
   80c80:	b091      	sub	sp, #68	; 0x44
   80c82:	4604      	mov	r4, r0
    if ((text == 0) || (max_length < 2U))
   80c84:	2901      	cmp	r1, #1
   80c86:	d920      	bls.n	80cca <_ZL26usb_send_string_descriptorPKct+0x4e>
   80c88:	2202      	movs	r2, #2
    {
        return 0U;
    }

    while ((*text != '\0') && ((index + 1U) < sizeof(buffer)) && ((index + 1U) < max_length))
   80c8a:	7820      	ldrb	r0, [r4, #0]
   80c8c:	b180      	cbz	r0, 80cb0 <_ZL26usb_send_string_descriptorPKct+0x34>
   80c8e:	1c53      	adds	r3, r2, #1
   80c90:	2b3f      	cmp	r3, #63	; 0x3f
   80c92:	d80d      	bhi.n	80cb0 <_ZL26usb_send_string_descriptorPKct+0x34>
   80c94:	428b      	cmp	r3, r1
   80c96:	d20b      	bcs.n	80cb0 <_ZL26usb_send_string_descriptorPKct+0x34>
    {
        buffer[index++] = static_cast<uint8_t>(*text++);
   80c98:	3401      	adds	r4, #1
   80c9a:	ad10      	add	r5, sp, #64	; 0x40
   80c9c:	4415      	add	r5, r2
   80c9e:	f805 0c40 	strb.w	r0, [r5, #-64]
        buffer[index++] = 0U;
   80ca2:	3202      	adds	r2, #2
   80ca4:	a810      	add	r0, sp, #64	; 0x40
   80ca6:	4403      	add	r3, r0
   80ca8:	2000      	movs	r0, #0
   80caa:	f803 0c40 	strb.w	r0, [r3, #-64]
    while ((*text != '\0') && ((index + 1U) < sizeof(buffer)) && ((index + 1U) < max_length))
   80cae:	e7ec      	b.n	80c8a <_ZL26usb_send_string_descriptorPKct+0xe>
    }

    buffer[0] = static_cast<uint8_t>(index);
   80cb0:	f88d 2000 	strb.w	r2, [sp]
    buffer[1] = USB_STRING_DESCRIPTOR_TYPE;
   80cb4:	2303      	movs	r3, #3
   80cb6:	f88d 3001 	strb.w	r3, [sp, #1]

    return usb_send_control(buffer, index);
   80cba:	4611      	mov	r1, r2
   80cbc:	4668      	mov	r0, sp
   80cbe:	4b04      	ldr	r3, [pc, #16]	; (80cd0 <_ZL26usb_send_string_descriptorPKct+0x54>)
   80cc0:	4798      	blx	r3
}
   80cc2:	b011      	add	sp, #68	; 0x44
   80cc4:	bd30      	pop	{r4, r5, pc}
        return 0U;
   80cc6:	2000      	movs	r0, #0
   80cc8:	4770      	bx	lr
   80cca:	2000      	movs	r0, #0
   80ccc:	e7f9      	b.n	80cc2 <_ZL26usb_send_string_descriptorPKct+0x46>
   80cce:	bf00      	nop
   80cd0:	00080c69 	.word	0x00080c69

00080cd4 <_ZL28usb_send_language_descriptorv>:

static uint32_t usb_send_language_descriptor(void)
{
   80cd4:	b508      	push	{r3, lr}
        USB_STRING_DESCRIPTOR_TYPE,
        0x09U,
        0x04U
    };

    return usb_send_control(language_descriptor, sizeof(language_descriptor));
   80cd6:	2104      	movs	r1, #4
   80cd8:	4801      	ldr	r0, [pc, #4]	; (80ce0 <_ZL28usb_send_language_descriptorv+0xc>)
   80cda:	4b02      	ldr	r3, [pc, #8]	; (80ce4 <_ZL28usb_send_language_descriptorv+0x10>)
   80cdc:	4798      	blx	r3
}
   80cde:	bd08      	pop	{r3, pc}
   80ce0:	00082348 	.word	0x00082348
   80ce4:	00080c69 	.word	0x00080c69

00080ce8 <_ZL22usb_send_configurationth>:

static uint32_t usb_send_configuration(uint16_t max_length, uint8_t other_speed)
{
   80ce8:	b530      	push	{r4, r5, lr}
   80cea:	b097      	sub	sp, #92	; 0x5c
   80cec:	4604      	mov	r4, r0
    uint8_t buffer[sizeof(ConfigDescriptor) + sizeof(CdcDescriptor)];
    ConfigDescriptor config;

    config.len = 9U;
   80cee:	2309      	movs	r3, #9
   80cf0:	f88d 3000 	strb.w	r3, [sp]
    config.dtype = other_speed ? USB_OTHER_SPEED_CONFIGURATION : USB_CONFIGURATION_DESCRIPTOR_TYPE;
   80cf4:	460d      	mov	r5, r1
   80cf6:	b341      	cbz	r1, 80d4a <_ZL22usb_send_configurationth+0x62>
   80cf8:	2307      	movs	r3, #7
   80cfa:	f88d 3001 	strb.w	r3, [sp, #1]
    config.clen = static_cast<uint16_t>(sizeof(buffer));
   80cfe:	234b      	movs	r3, #75	; 0x4b
   80d00:	f8ad 3002 	strh.w	r3, [sp, #2]
    config.numInterfaces = 2U;
   80d04:	2302      	movs	r3, #2
   80d06:	f88d 3004 	strb.w	r3, [sp, #4]
    config.config = 1U;
   80d0a:	2301      	movs	r3, #1
   80d0c:	f88d 3005 	strb.w	r3, [sp, #5]
    config.iconfig = 0U;
   80d10:	2300      	movs	r3, #0
   80d12:	f88d 3006 	strb.w	r3, [sp, #6]
    config.attributes = 0xC0U;
   80d16:	23c0      	movs	r3, #192	; 0xc0
   80d18:	f88d 3007 	strb.w	r3, [sp, #7]
    config.maxPower = 250U;
   80d1c:	23fa      	movs	r3, #250	; 0xfa
   80d1e:	f88d 3008 	strb.w	r3, [sp, #8]

    memcpy(buffer, &config, sizeof(config));
   80d22:	ab03      	add	r3, sp, #12
   80d24:	e89d 0007 	ldmia.w	sp, {r0, r1, r2}
   80d28:	c303      	stmia	r3!, {r0, r1}
   80d2a:	701a      	strb	r2, [r3, #0]

    if (other_speed != 0U)
   80d2c:	b17d      	cbz	r5, 80d4e <_ZL22usb_send_configurationth+0x66>
    {
        memcpy(buffer + sizeof(config), &g_cdc_other_speed_descriptor, sizeof(g_cdc_other_speed_descriptor));
   80d2e:	2242      	movs	r2, #66	; 0x42
   80d30:	490b      	ldr	r1, [pc, #44]	; (80d60 <_ZL22usb_send_configurationth+0x78>)
   80d32:	f10d 0015 	add.w	r0, sp, #21
   80d36:	4b0b      	ldr	r3, [pc, #44]	; (80d64 <_ZL22usb_send_configurationth+0x7c>)
   80d38:	4798      	blx	r3
        memcpy(buffer + sizeof(config), &g_cdc_descriptor, sizeof(g_cdc_descriptor));
    }

    uint16_t length = static_cast<uint16_t>(sizeof(buffer));

    if (max_length < length)
   80d3a:	2c4a      	cmp	r4, #74	; 0x4a
   80d3c:	dc0e      	bgt.n	80d5c <_ZL22usb_send_configurationth+0x74>
    {
        length = max_length;
    }

    return usb_send_control(buffer, length);
   80d3e:	4621      	mov	r1, r4
   80d40:	a803      	add	r0, sp, #12
   80d42:	4b09      	ldr	r3, [pc, #36]	; (80d68 <_ZL22usb_send_configurationth+0x80>)
   80d44:	4798      	blx	r3
}
   80d46:	b017      	add	sp, #92	; 0x5c
   80d48:	bd30      	pop	{r4, r5, pc}
    config.dtype = other_speed ? USB_OTHER_SPEED_CONFIGURATION : USB_CONFIGURATION_DESCRIPTOR_TYPE;
   80d4a:	2302      	movs	r3, #2
   80d4c:	e7d5      	b.n	80cfa <_ZL22usb_send_configurationth+0x12>
        memcpy(buffer + sizeof(config), &g_cdc_descriptor, sizeof(g_cdc_descriptor));
   80d4e:	2242      	movs	r2, #66	; 0x42
   80d50:	4906      	ldr	r1, [pc, #24]	; (80d6c <_ZL22usb_send_configurationth+0x84>)
   80d52:	f10d 0015 	add.w	r0, sp, #21
   80d56:	4b03      	ldr	r3, [pc, #12]	; (80d64 <_ZL22usb_send_configurationth+0x7c>)
   80d58:	4798      	blx	r3
   80d5a:	e7ee      	b.n	80d3a <_ZL22usb_send_configurationth+0x52>
    uint16_t length = static_cast<uint16_t>(sizeof(buffer));
   80d5c:	244b      	movs	r4, #75	; 0x4b
   80d5e:	e7ee      	b.n	80d3e <_ZL22usb_send_configurationth+0x56>
   80d60:	0008234c 	.word	0x0008234c
   80d64:	00081cd5 	.word	0x00081cd5
   80d68:	00080c69 	.word	0x00080c69
   80d6c:	00082390 	.word	0x00082390

00080d70 <_ZL19usb_send_descriptorRK8UsbSetup>:

static uint32_t usb_send_descriptor(const UsbSetup& setup)
{
   80d70:	b508      	push	{r3, lr}
    const uint8_t descriptor_type = setup.wValueH;
   80d72:	78c3      	ldrb	r3, [r0, #3]

    if (descriptor_type == USB_CONFIGURATION_DESCRIPTOR_TYPE)
   80d74:	2b02      	cmp	r3, #2
   80d76:	d009      	beq.n	80d8c <_ZL19usb_send_descriptorRK8UsbSetup+0x1c>
    {
        return usb_send_configuration(setup.wLength, 0U);
    }

    if (descriptor_type == USB_OTHER_SPEED_CONFIGURATION)
   80d78:	2b07      	cmp	r3, #7
   80d7a:	d00c      	beq.n	80d96 <_ZL19usb_send_descriptorRK8UsbSetup+0x26>
    {
        return usb_send_configuration(setup.wLength, 1U);
    }

    if (descriptor_type == USB_DEVICE_DESCRIPTOR_TYPE)
   80d7c:	2b01      	cmp	r3, #1
   80d7e:	d00f      	beq.n	80da0 <_ZL19usb_send_descriptorRK8UsbSetup+0x30>
        }

        return usb_send_control(descriptor, length);
    }

    if (descriptor_type == USB_DEVICE_QUALIFIER)
   80d80:	2b06      	cmp	r3, #6
   80d82:	d024      	beq.n	80dce <_ZL19usb_send_descriptorRK8UsbSetup+0x5e>
        }

        return usb_send_control(&g_device_qualifier, length);
    }

    if (descriptor_type == USB_STRING_DESCRIPTOR_TYPE)
   80d84:	2b03      	cmp	r3, #3
   80d86:	d02b      	beq.n	80de0 <_ZL19usb_send_descriptorRK8UsbSetup+0x70>
        {
            return usb_send_string_descriptor("LCP", setup.wLength);
        }
    }

    return 0U;
   80d88:	2000      	movs	r0, #0
   80d8a:	bd08      	pop	{r3, pc}
        return usb_send_configuration(setup.wLength, 0U);
   80d8c:	2100      	movs	r1, #0
   80d8e:	88c0      	ldrh	r0, [r0, #6]
   80d90:	4b21      	ldr	r3, [pc, #132]	; (80e18 <_ZL19usb_send_descriptorRK8UsbSetup+0xa8>)
   80d92:	4798      	blx	r3
   80d94:	bd08      	pop	{r3, pc}
        return usb_send_configuration(setup.wLength, 1U);
   80d96:	2101      	movs	r1, #1
   80d98:	88c0      	ldrh	r0, [r0, #6]
   80d9a:	4b1f      	ldr	r3, [pc, #124]	; (80e18 <_ZL19usb_send_descriptorRK8UsbSetup+0xa8>)
   80d9c:	4798      	blx	r3
   80d9e:	bd08      	pop	{r3, pc}
        const DeviceDescriptor* descriptor = (g_usb_composite != 0U) ? &g_device_descriptor_iad : &g_device_descriptor;
   80da0:	4b1e      	ldr	r3, [pc, #120]	; (80e1c <_ZL19usb_send_descriptorRK8UsbSetup+0xac>)
   80da2:	6a5b      	ldr	r3, [r3, #36]	; 0x24
   80da4:	b15b      	cbz	r3, 80dbe <_ZL19usb_send_descriptorRK8UsbSetup+0x4e>
   80da6:	4b1e      	ldr	r3, [pc, #120]	; (80e20 <_ZL19usb_send_descriptorRK8UsbSetup+0xb0>)
        if (setup.wLength == 8U)
   80da8:	88c1      	ldrh	r1, [r0, #6]
   80daa:	2908      	cmp	r1, #8
   80dac:	d009      	beq.n	80dc2 <_ZL19usb_send_descriptorRK8UsbSetup+0x52>
        uint16_t length = descriptor->len;
   80dae:	781a      	ldrb	r2, [r3, #0]
   80db0:	b290      	uxth	r0, r2
        if (setup.wLength < length)
   80db2:	4291      	cmp	r1, r2
   80db4:	da09      	bge.n	80dca <_ZL19usb_send_descriptorRK8UsbSetup+0x5a>
        return usb_send_control(descriptor, length);
   80db6:	4618      	mov	r0, r3
   80db8:	4b1a      	ldr	r3, [pc, #104]	; (80e24 <_ZL19usb_send_descriptorRK8UsbSetup+0xb4>)
   80dba:	4798      	blx	r3
   80dbc:	bd08      	pop	{r3, pc}
        const DeviceDescriptor* descriptor = (g_usb_composite != 0U) ? &g_device_descriptor_iad : &g_device_descriptor;
   80dbe:	4b1a      	ldr	r3, [pc, #104]	; (80e28 <_ZL19usb_send_descriptorRK8UsbSetup+0xb8>)
   80dc0:	e7f2      	b.n	80da8 <_ZL19usb_send_descriptorRK8UsbSetup+0x38>
            g_usb_composite = 1U;
   80dc2:	2001      	movs	r0, #1
   80dc4:	4a15      	ldr	r2, [pc, #84]	; (80e1c <_ZL19usb_send_descriptorRK8UsbSetup+0xac>)
   80dc6:	6250      	str	r0, [r2, #36]	; 0x24
   80dc8:	e7f1      	b.n	80dae <_ZL19usb_send_descriptorRK8UsbSetup+0x3e>
        uint16_t length = descriptor->len;
   80dca:	4601      	mov	r1, r0
   80dcc:	e7f3      	b.n	80db6 <_ZL19usb_send_descriptorRK8UsbSetup+0x46>
        if (setup.wLength < length)
   80dce:	88c1      	ldrh	r1, [r0, #6]
   80dd0:	2909      	cmp	r1, #9
   80dd2:	dc03      	bgt.n	80ddc <_ZL19usb_send_descriptorRK8UsbSetup+0x6c>
        return usb_send_control(&g_device_qualifier, length);
   80dd4:	4815      	ldr	r0, [pc, #84]	; (80e2c <_ZL19usb_send_descriptorRK8UsbSetup+0xbc>)
   80dd6:	4b13      	ldr	r3, [pc, #76]	; (80e24 <_ZL19usb_send_descriptorRK8UsbSetup+0xb4>)
   80dd8:	4798      	blx	r3
   80dda:	bd08      	pop	{r3, pc}
        uint16_t length = g_device_qualifier.len;
   80ddc:	210a      	movs	r1, #10
   80dde:	e7f9      	b.n	80dd4 <_ZL19usb_send_descriptorRK8UsbSetup+0x64>
        if (setup.wValueL == 0U)
   80de0:	7883      	ldrb	r3, [r0, #2]
   80de2:	b13b      	cbz	r3, 80df4 <_ZL19usb_send_descriptorRK8UsbSetup+0x84>
        if (setup.wValueL == IMANUFACTURER)
   80de4:	2b01      	cmp	r3, #1
   80de6:	d008      	beq.n	80dfa <_ZL19usb_send_descriptorRK8UsbSetup+0x8a>
        if (setup.wValueL == IPRODUCT)
   80de8:	2b02      	cmp	r3, #2
   80dea:	d00b      	beq.n	80e04 <_ZL19usb_send_descriptorRK8UsbSetup+0x94>
        if (setup.wValueL == ISERIAL)
   80dec:	2b03      	cmp	r3, #3
   80dee:	d00e      	beq.n	80e0e <_ZL19usb_send_descriptorRK8UsbSetup+0x9e>
    return 0U;
   80df0:	2000      	movs	r0, #0
}
   80df2:	bd08      	pop	{r3, pc}
            return usb_send_language_descriptor();
   80df4:	4b0e      	ldr	r3, [pc, #56]	; (80e30 <_ZL19usb_send_descriptorRK8UsbSetup+0xc0>)
   80df6:	4798      	blx	r3
   80df8:	bd08      	pop	{r3, pc}
            return usb_send_string_descriptor(HAL_USB_CDC_MANUFACTURER_NAME, setup.wLength);
   80dfa:	88c1      	ldrh	r1, [r0, #6]
   80dfc:	480d      	ldr	r0, [pc, #52]	; (80e34 <_ZL19usb_send_descriptorRK8UsbSetup+0xc4>)
   80dfe:	4b0e      	ldr	r3, [pc, #56]	; (80e38 <_ZL19usb_send_descriptorRK8UsbSetup+0xc8>)
   80e00:	4798      	blx	r3
   80e02:	bd08      	pop	{r3, pc}
            return usb_send_string_descriptor(HAL_USB_CDC_PRODUCT_NAME, setup.wLength);
   80e04:	88c1      	ldrh	r1, [r0, #6]
   80e06:	480d      	ldr	r0, [pc, #52]	; (80e3c <_ZL19usb_send_descriptorRK8UsbSetup+0xcc>)
   80e08:	4b0b      	ldr	r3, [pc, #44]	; (80e38 <_ZL19usb_send_descriptorRK8UsbSetup+0xc8>)
   80e0a:	4798      	blx	r3
   80e0c:	bd08      	pop	{r3, pc}
            return usb_send_string_descriptor("LCP", setup.wLength);
   80e0e:	88c1      	ldrh	r1, [r0, #6]
   80e10:	480b      	ldr	r0, [pc, #44]	; (80e40 <_ZL19usb_send_descriptorRK8UsbSetup+0xd0>)
   80e12:	4b09      	ldr	r3, [pc, #36]	; (80e38 <_ZL19usb_send_descriptorRK8UsbSetup+0xc8>)
   80e14:	4798      	blx	r3
   80e16:	bd08      	pop	{r3, pc}
   80e18:	00080ce9 	.word	0x00080ce9
   80e1c:	200008b4 	.word	0x200008b4
   80e20:	000823d4 	.word	0x000823d4
   80e24:	00080c69 	.word	0x00080c69
   80e28:	000823e8 	.word	0x000823e8
   80e2c:	000823fc 	.word	0x000823fc
   80e30:	00080cd5 	.word	0x00080cd5
   80e34:	00082408 	.word	0x00082408
   80e38:	00080c7d 	.word	0x00080c7d
   80e3c:	00082410 	.word	0x00082410
   80e40:	0008241c 	.word	0x0008241c

00080e44 <_ZL15usb_ring_acceptv>:

static void usb_ring_accept(void)
{
   80e44:	b570      	push	{r4, r5, r6, lr}
    while (usb_endpoint_fifo_byte_count(CDC_RX) != 0U)
   80e46:	2002      	movs	r0, #2
   80e48:	4b0e      	ldr	r3, [pc, #56]	; (80e84 <_ZL15usb_ring_acceptv+0x40>)
   80e4a:	4798      	blx	r3
   80e4c:	b188      	cbz	r0, 80e72 <_ZL15usb_ring_acceptv+0x2e>
    {
        const uint32_t next = (g_rx_head + 1U) % CDC_RX_BUFFER_SIZE;
   80e4e:	4b0e      	ldr	r3, [pc, #56]	; (80e88 <_ZL15usb_ring_acceptv+0x44>)
   80e50:	6a9c      	ldr	r4, [r3, #40]	; 0x28
   80e52:	3401      	adds	r4, #1
   80e54:	f3c4 0408 	ubfx	r4, r4, #0, #9

        if (next == g_rx_tail)
   80e58:	6adb      	ldr	r3, [r3, #44]	; 0x2c
   80e5a:	429c      	cmp	r4, r3
   80e5c:	d009      	beq.n	80e72 <_ZL15usb_ring_acceptv+0x2e>
        {
            break;
        }

        g_rx_buffer[g_rx_head] = usb_recv8(CDC_RX);
   80e5e:	4d0a      	ldr	r5, [pc, #40]	; (80e88 <_ZL15usb_ring_acceptv+0x44>)
   80e60:	6aae      	ldr	r6, [r5, #40]	; 0x28
   80e62:	2002      	movs	r0, #2
   80e64:	4b09      	ldr	r3, [pc, #36]	; (80e8c <_ZL15usb_ring_acceptv+0x48>)
   80e66:	4798      	blx	r3
   80e68:	442e      	add	r6, r5
   80e6a:	f886 0030 	strb.w	r0, [r6, #48]	; 0x30
        g_rx_head = next;
   80e6e:	62ac      	str	r4, [r5, #40]	; 0x28
    while (usb_endpoint_fifo_byte_count(CDC_RX) != 0U)
   80e70:	e7e9      	b.n	80e46 <_ZL15usb_ring_acceptv+0x2>
    }

    if (usb_endpoint_fifo_byte_count(CDC_RX) == 0U)
   80e72:	2002      	movs	r0, #2
   80e74:	4b03      	ldr	r3, [pc, #12]	; (80e84 <_ZL15usb_ring_acceptv+0x40>)
   80e76:	4798      	blx	r3
   80e78:	b100      	cbz	r0, 80e7c <_ZL15usb_ring_acceptv+0x38>
   80e7a:	bd70      	pop	{r4, r5, r6, pc}
    {
        usb_release_rx(CDC_RX);
   80e7c:	2002      	movs	r0, #2
   80e7e:	4b04      	ldr	r3, [pc, #16]	; (80e90 <_ZL15usb_ring_acceptv+0x4c>)
   80e80:	4798      	blx	r3
    }
}
   80e82:	e7fa      	b.n	80e7a <_ZL15usb_ring_acceptv+0x36>
   80e84:	00080a11 	.word	0x00080a11
   80e88:	200008b4 	.word	0x200008b4
   80e8c:	00080a89 	.word	0x00080a89
   80e90:	00080a25 	.word	0x00080a25

00080e94 <_ZL22usb_configure_endpointmm>:

    return 0U;
}

static void usb_configure_endpoint(uint32_t ep, uint32_t config)
{
   80e94:	b410      	push	{r4}
    UOTGHS->UOTGHS_DEVEPTCFG[ep] = config;
   80e96:	4b0d      	ldr	r3, [pc, #52]	; (80ecc <_ZL22usb_configure_endpointmm+0x38>)
   80e98:	f100 0240 	add.w	r2, r0, #64	; 0x40
   80e9c:	f843 1022 	str.w	r1, [r3, r2, lsl #2]
    UOTGHS->UOTGHS_DEVEPT |= (1UL << ep);
   80ea0:	69d9      	ldr	r1, [r3, #28]
   80ea2:	2401      	movs	r4, #1
   80ea4:	4084      	lsls	r4, r0
   80ea6:	4321      	orrs	r1, r4
   80ea8:	61d9      	str	r1, [r3, #28]

#ifdef UOTGHS_DEVEPTCFG_ALLOC
    UOTGHS->UOTGHS_DEVEPTCFG[ep] |= UOTGHS_DEVEPTCFG_ALLOC;
   80eaa:	f853 1022 	ldr.w	r1, [r3, r2, lsl #2]
   80eae:	f041 0102 	orr.w	r1, r1, #2
   80eb2:	f843 1022 	str.w	r1, [r3, r2, lsl #2]
#endif

#ifdef UOTGHS_DEVEPTISR_CFGOK
    if ((UOTGHS->UOTGHS_DEVEPTISR[ep] & UOTGHS_DEVEPTISR_CFGOK) == 0U)
   80eb6:	304c      	adds	r0, #76	; 0x4c
   80eb8:	f853 3020 	ldr.w	r3, [r3, r0, lsl #2]
   80ebc:	f413 2f80 	tst.w	r3, #262144	; 0x40000
   80ec0:	d102      	bne.n	80ec8 <_ZL22usb_configure_endpointmm+0x34>
    {
        g_usb_error = 1U;
   80ec2:	2201      	movs	r2, #1
   80ec4:	4b02      	ldr	r3, [pc, #8]	; (80ed0 <_ZL22usb_configure_endpointmm+0x3c>)
   80ec6:	601a      	str	r2, [r3, #0]
    }
#endif
}
   80ec8:	bc10      	pop	{r4}
   80eca:	4770      	bx	lr
   80ecc:	400ac000 	.word	0x400ac000
   80ed0:	200008b4 	.word	0x200008b4

00080ed4 <_ZL27usb_endpoint_config_controlv>:
{
    return UOTGHS_DEVEPTCFG_EPSIZE_64_BYTE
         | UOTGHS_DEVEPTCFG_EPTYPE_CTRL
         | UOTGHS_DEVEPTCFG_EPBK_1_BANK
         | UOTGHS_DEVEPTCFG_ALLOC;
}
   80ed4:	2032      	movs	r0, #50	; 0x32
   80ed6:	4770      	bx	lr

00080ed8 <_ZL32usb_endpoint_config_interrupt_inv>:
    return UOTGHS_DEVEPTCFG_EPSIZE_64_BYTE
         | UOTGHS_DEVEPTCFG_EPDIR_IN
         | UOTGHS_DEVEPTCFG_EPTYPE_INTRPT
         | UOTGHS_DEVEPTCFG_EPBK_1_BANK
         | UOTGHS_DEVEPTCFG_ALLOC;
}
   80ed8:	f641 1032 	movw	r0, #6450	; 0x1932
   80edc:	4770      	bx	lr

00080ede <_ZL28usb_endpoint_config_bulk_outm>:
static uint32_t usb_endpoint_config_bulk_out(uint32_t size_512)
{
    return (size_512 ? UOTGHS_DEVEPTCFG_EPSIZE_512_BYTE : UOTGHS_DEVEPTCFG_EPSIZE_64_BYTE)
         | UOTGHS_DEVEPTCFG_EPTYPE_BLK
         | UOTGHS_DEVEPTCFG_EPBK_2_BANK
         | UOTGHS_DEVEPTCFG_ALLOC;
   80ede:	b910      	cbnz	r0, 80ee6 <_ZL28usb_endpoint_config_bulk_outm+0x8>
   80ee0:	f241 0036 	movw	r0, #4150	; 0x1036
}
   80ee4:	4770      	bx	lr
         | UOTGHS_DEVEPTCFG_ALLOC;
   80ee6:	f241 0066 	movw	r0, #4198	; 0x1066
   80eea:	4770      	bx	lr

00080eec <_ZL27usb_endpoint_config_bulk_inm>:
{
    return (size_512 ? UOTGHS_DEVEPTCFG_EPSIZE_512_BYTE : UOTGHS_DEVEPTCFG_EPSIZE_64_BYTE)
         | UOTGHS_DEVEPTCFG_EPDIR_IN
         | UOTGHS_DEVEPTCFG_EPTYPE_BLK
         | UOTGHS_DEVEPTCFG_EPBK_2_BANK
         | UOTGHS_DEVEPTCFG_ALLOC;
   80eec:	b910      	cbnz	r0, 80ef4 <_ZL27usb_endpoint_config_bulk_inm+0x8>
   80eee:	f241 1036 	movw	r0, #4406	; 0x1136
}
   80ef2:	4770      	bx	lr
         | UOTGHS_DEVEPTCFG_ALLOC;
   80ef4:	f241 1066 	movw	r0, #4454	; 0x1166
   80ef8:	4770      	bx	lr
	...

00080efc <_ZL18usb_init_endpointsv>:

static void usb_init_endpoints(void)
{
   80efc:	b538      	push	{r3, r4, r5, lr}
    usb_configure_endpoint(EP0, usb_endpoint_config_control());
   80efe:	4b0f      	ldr	r3, [pc, #60]	; (80f3c <_ZL18usb_init_endpointsv+0x40>)
   80f00:	4798      	blx	r3
   80f02:	4601      	mov	r1, r0
   80f04:	2000      	movs	r0, #0
   80f06:	4c0e      	ldr	r4, [pc, #56]	; (80f40 <_ZL18usb_init_endpointsv+0x44>)
   80f08:	47a0      	blx	r4
    UOTGHS->UOTGHS_DEVEPTIER[EP0] = UOTGHS_DEVEPTIER_RXSTPES;
   80f0a:	4d0e      	ldr	r5, [pc, #56]	; (80f44 <_ZL18usb_init_endpointsv+0x48>)
   80f0c:	2304      	movs	r3, #4
   80f0e:	f8c5 31f0 	str.w	r3, [r5, #496]	; 0x1f0

    usb_configure_endpoint(CDC_ENDPOINT_ACM, usb_endpoint_config_interrupt_in());
   80f12:	4b0d      	ldr	r3, [pc, #52]	; (80f48 <_ZL18usb_init_endpointsv+0x4c>)
   80f14:	4798      	blx	r3
   80f16:	4601      	mov	r1, r0
   80f18:	2001      	movs	r0, #1
   80f1a:	47a0      	blx	r4
    usb_configure_endpoint(CDC_ENDPOINT_OUT, usb_endpoint_config_bulk_out(1U));
   80f1c:	2001      	movs	r0, #1
   80f1e:	4b0b      	ldr	r3, [pc, #44]	; (80f4c <_ZL18usb_init_endpointsv+0x50>)
   80f20:	4798      	blx	r3
   80f22:	4601      	mov	r1, r0
   80f24:	2002      	movs	r0, #2
   80f26:	47a0      	blx	r4
    usb_configure_endpoint(CDC_ENDPOINT_IN, usb_endpoint_config_bulk_in(1U));
   80f28:	2001      	movs	r0, #1
   80f2a:	4b09      	ldr	r3, [pc, #36]	; (80f50 <_ZL18usb_init_endpointsv+0x54>)
   80f2c:	4798      	blx	r3
   80f2e:	4601      	mov	r1, r0
   80f30:	2003      	movs	r0, #3
   80f32:	47a0      	blx	r4

    UOTGHS->UOTGHS_DEVEPTIER[CDC_RX] = UOTGHS_DEVEPTIER_RXOUTES;
   80f34:	2302      	movs	r3, #2
   80f36:	f8c5 31f8 	str.w	r3, [r5, #504]	; 0x1f8
   80f3a:	bd38      	pop	{r3, r4, r5, pc}
   80f3c:	00080ed5 	.word	0x00080ed5
   80f40:	00080e95 	.word	0x00080e95
   80f44:	400ac000 	.word	0x400ac000
   80f48:	00080ed9 	.word	0x00080ed9
   80f4c:	00080edf 	.word	0x00080edf
   80f50:	00080eed 	.word	0x00080eed

00080f54 <_ZL17usb_reset_handlerv>:
}

static void usb_reset_handler(void)
{
   80f54:	b510      	push	{r4, lr}
    UOTGHS->UOTGHS_DEVCTRL &= ~UOTGHS_DEVCTRL_UADD_Msk;
   80f56:	4c09      	ldr	r4, [pc, #36]	; (80f7c <_ZL17usb_reset_handlerv+0x28>)
   80f58:	6823      	ldr	r3, [r4, #0]
   80f5a:	f023 037f 	bic.w	r3, r3, #127	; 0x7f
   80f5e:	6023      	str	r3, [r4, #0]
    UOTGHS->UOTGHS_DEVCTRL |= UOTGHS_DEVCTRL_ADDEN;
   80f60:	6823      	ldr	r3, [r4, #0]
   80f62:	f043 0380 	orr.w	r3, r3, #128	; 0x80
   80f66:	6023      	str	r3, [r4, #0]

    usb_init_endpoints();
   80f68:	4b05      	ldr	r3, [pc, #20]	; (80f80 <_ZL17usb_reset_handlerv+0x2c>)
   80f6a:	4798      	blx	r3

    g_usb_configuration = 0U;
   80f6c:	2200      	movs	r2, #0
   80f6e:	4b05      	ldr	r3, [pc, #20]	; (80f84 <_ZL17usb_reset_handlerv+0x30>)
   80f70:	f8c3 2230 	str.w	r2, [r3, #560]	; 0x230
    UOTGHS->UOTGHS_DEVICR = UOTGHS_DEVICR_EORSTC;
   80f74:	2308      	movs	r3, #8
   80f76:	60a3      	str	r3, [r4, #8]
   80f78:	bd10      	pop	{r4, pc}
   80f7a:	bf00      	nop
   80f7c:	400ac000 	.word	0x400ac000
   80f80:	00080efd 	.word	0x00080efd
   80f84:	200008b4 	.word	0x200008b4

00080f88 <_ZL9cdc_setupRK8UsbSetup>:
{
   80f88:	b500      	push	{lr}
   80f8a:	b083      	sub	sp, #12
    if (setup.bmRequestType == REQUEST_DEVICETOHOST_CLASS_INTERFACE)
   80f8c:	7803      	ldrb	r3, [r0, #0]
   80f8e:	2ba1      	cmp	r3, #161	; 0xa1
   80f90:	d005      	beq.n	80f9e <_ZL9cdc_setupRK8UsbSetup+0x16>
    if (setup.bmRequestType == REQUEST_HOSTTODEVICE_CLASS_INTERFACE)
   80f92:	2b21      	cmp	r3, #33	; 0x21
   80f94:	d01f      	beq.n	80fd6 <_ZL9cdc_setupRK8UsbSetup+0x4e>
    return 0U;
   80f96:	2000      	movs	r0, #0
}
   80f98:	b003      	add	sp, #12
   80f9a:	f85d fb04 	ldr.w	pc, [sp], #4
        if (setup.bRequest == CDC_GET_LINE_CODING)
   80f9e:	7842      	ldrb	r2, [r0, #1]
   80fa0:	2a21      	cmp	r2, #33	; 0x21
   80fa2:	d1f6      	bne.n	80f92 <_ZL9cdc_setupRK8UsbSetup+0xa>
            line_info.dwDTERate = g_line_info.dwDTERate;
   80fa4:	4b2b      	ldr	r3, [pc, #172]	; (81054 <_ZL9cdc_setupRK8UsbSetup+0xcc>)
   80fa6:	681a      	ldr	r2, [r3, #0]
   80fa8:	9200      	str	r2, [sp, #0]
            line_info.bCharFormat = g_line_info.bCharFormat;
   80faa:	791a      	ldrb	r2, [r3, #4]
   80fac:	f88d 2004 	strb.w	r2, [sp, #4]
            line_info.bParityType = g_line_info.bParityType;
   80fb0:	795a      	ldrb	r2, [r3, #5]
   80fb2:	f88d 2005 	strb.w	r2, [sp, #5]
            line_info.bDataBits = g_line_info.bDataBits;
   80fb6:	799a      	ldrb	r2, [r3, #6]
   80fb8:	f88d 2006 	strb.w	r2, [sp, #6]
            line_info.lineState = g_line_info.lineState;
   80fbc:	79db      	ldrb	r3, [r3, #7]
   80fbe:	f88d 3007 	strb.w	r3, [sp, #7]
            return (usb_send_control(&line_info, 7U) == 7U) ? 1U : 0U;
   80fc2:	2107      	movs	r1, #7
   80fc4:	4668      	mov	r0, sp
   80fc6:	4b24      	ldr	r3, [pc, #144]	; (81058 <_ZL9cdc_setupRK8UsbSetup+0xd0>)
   80fc8:	4798      	blx	r3
   80fca:	2807      	cmp	r0, #7
   80fcc:	d001      	beq.n	80fd2 <_ZL9cdc_setupRK8UsbSetup+0x4a>
   80fce:	2000      	movs	r0, #0
   80fd0:	e7e2      	b.n	80f98 <_ZL9cdc_setupRK8UsbSetup+0x10>
   80fd2:	2001      	movs	r0, #1
   80fd4:	e7e0      	b.n	80f98 <_ZL9cdc_setupRK8UsbSetup+0x10>
        if (setup.bRequest == CDC_SET_LINE_CODING)
   80fd6:	7843      	ldrb	r3, [r0, #1]
   80fd8:	2b20      	cmp	r3, #32
   80fda:	d005      	beq.n	80fe8 <_ZL9cdc_setupRK8UsbSetup+0x60>
        if (setup.bRequest == CDC_SET_CONTROL_LINE_STATE)
   80fdc:	2b22      	cmp	r3, #34	; 0x22
   80fde:	d019      	beq.n	81014 <_ZL9cdc_setupRK8UsbSetup+0x8c>
        if (setup.bRequest == CDC_SEND_BREAK)
   80fe0:	2b23      	cmp	r3, #35	; 0x23
   80fe2:	d02e      	beq.n	81042 <_ZL9cdc_setupRK8UsbSetup+0xba>
    return 0U;
   80fe4:	2000      	movs	r0, #0
   80fe6:	e7d7      	b.n	80f98 <_ZL9cdc_setupRK8UsbSetup+0x10>
            if (usb_recv_control(&line_info, 7U) != 7U)
   80fe8:	2107      	movs	r1, #7
   80fea:	4668      	mov	r0, sp
   80fec:	4b1b      	ldr	r3, [pc, #108]	; (8105c <_ZL9cdc_setupRK8UsbSetup+0xd4>)
   80fee:	4798      	blx	r3
   80ff0:	2807      	cmp	r0, #7
   80ff2:	d001      	beq.n	80ff8 <_ZL9cdc_setupRK8UsbSetup+0x70>
                return 0U;
   80ff4:	2000      	movs	r0, #0
   80ff6:	e7cf      	b.n	80f98 <_ZL9cdc_setupRK8UsbSetup+0x10>
            g_line_info.dwDTERate = line_info.dwDTERate;
   80ff8:	4b16      	ldr	r3, [pc, #88]	; (81054 <_ZL9cdc_setupRK8UsbSetup+0xcc>)
   80ffa:	9a00      	ldr	r2, [sp, #0]
   80ffc:	601a      	str	r2, [r3, #0]
            g_line_info.bCharFormat = line_info.bCharFormat;
   80ffe:	f89d 2004 	ldrb.w	r2, [sp, #4]
   81002:	711a      	strb	r2, [r3, #4]
            g_line_info.bParityType = line_info.bParityType;
   81004:	f89d 2005 	ldrb.w	r2, [sp, #5]
   81008:	715a      	strb	r2, [r3, #5]
            g_line_info.bDataBits = line_info.bDataBits;
   8100a:	f89d 2006 	ldrb.w	r2, [sp, #6]
   8100e:	719a      	strb	r2, [r3, #6]
            return 1U;
   81010:	2001      	movs	r0, #1
   81012:	e7c1      	b.n	80f98 <_ZL9cdc_setupRK8UsbSetup+0x10>
            g_line_info.lineState = setup.wValueL;
   81014:	7882      	ldrb	r2, [r0, #2]
   81016:	4b0f      	ldr	r3, [pc, #60]	; (81054 <_ZL9cdc_setupRK8UsbSetup+0xcc>)
   81018:	71da      	strb	r2, [r3, #7]
            if (g_line_info.dwDTERate == 1200U)
   8101a:	681b      	ldr	r3, [r3, #0]
   8101c:	f5b3 6f96 	cmp.w	r3, #1200	; 0x4b0
   81020:	d001      	beq.n	81026 <_ZL9cdc_setupRK8UsbSetup+0x9e>
            return 1U;
   81022:	2001      	movs	r0, #1
   81024:	e7b8      	b.n	80f98 <_ZL9cdc_setupRK8UsbSetup+0x10>
                if ((g_line_info.lineState & CDC_LINESTATE_DTR) == 0U)
   81026:	4b0b      	ldr	r3, [pc, #44]	; (81054 <_ZL9cdc_setupRK8UsbSetup+0xcc>)
   81028:	79db      	ldrb	r3, [r3, #7]
   8102a:	f013 0f01 	tst.w	r3, #1
   8102e:	d104      	bne.n	8103a <_ZL9cdc_setupRK8UsbSetup+0xb2>
                    sam3x_bootloader_request(USB_BOOTLOADER_DELAY_MS);
   81030:	20fa      	movs	r0, #250	; 0xfa
   81032:	4b0b      	ldr	r3, [pc, #44]	; (81060 <_ZL9cdc_setupRK8UsbSetup+0xd8>)
   81034:	4798      	blx	r3
            return 1U;
   81036:	2001      	movs	r0, #1
   81038:	e7ae      	b.n	80f98 <_ZL9cdc_setupRK8UsbSetup+0x10>
                    sam3x_bootloader_cancel();
   8103a:	4b0a      	ldr	r3, [pc, #40]	; (81064 <_ZL9cdc_setupRK8UsbSetup+0xdc>)
   8103c:	4798      	blx	r3
            return 1U;
   8103e:	2001      	movs	r0, #1
   81040:	e7aa      	b.n	80f98 <_ZL9cdc_setupRK8UsbSetup+0x10>
            g_break_value = static_cast<int32_t>((static_cast<uint16_t>(setup.wValueH) << 8) | setup.wValueL);
   81042:	78c2      	ldrb	r2, [r0, #3]
   81044:	7883      	ldrb	r3, [r0, #2]
   81046:	ea43 2302 	orr.w	r3, r3, r2, lsl #8
   8104a:	4a02      	ldr	r2, [pc, #8]	; (81054 <_ZL9cdc_setupRK8UsbSetup+0xcc>)
   8104c:	6093      	str	r3, [r2, #8]
            return 1U;
   8104e:	2001      	movs	r0, #1
   81050:	e7a2      	b.n	80f98 <_ZL9cdc_setupRK8UsbSetup+0x10>
   81052:	bf00      	nop
   81054:	20000040 	.word	0x20000040
   81058:	00080c69 	.word	0x00080c69
   8105c:	00080c31 	.word	0x00080c31
   81060:	00080545 	.word	0x00080545
   81064:	00080555 	.word	0x00080555

00081068 <_ZL17usb_setup_handlerv>:
}

static void usb_setup_handler(void)
{
   81068:	b510      	push	{r4, lr}
   8106a:	b082      	sub	sp, #8
    UsbSetup setup;

    if (usb_received_setup() == 0U)
   8106c:	4b47      	ldr	r3, [pc, #284]	; (8118c <_ZL17usb_setup_handlerv+0x124>)
   8106e:	4798      	blx	r3
   81070:	b908      	cbnz	r0, 81076 <_ZL17usb_setup_handlerv+0xe>
    }
    else
    {
        usb_stall();
    }
}
   81072:	b002      	add	sp, #8
   81074:	bd10      	pop	{r4, pc}
    usb_recv(EP0, reinterpret_cast<uint8_t*>(&setup), sizeof(setup));
   81076:	2208      	movs	r2, #8
   81078:	4669      	mov	r1, sp
   8107a:	2000      	movs	r0, #0
   8107c:	4b44      	ldr	r3, [pc, #272]	; (81190 <_ZL17usb_setup_handlerv+0x128>)
   8107e:	4798      	blx	r3
    usb_clear_setup();
   81080:	4b44      	ldr	r3, [pc, #272]	; (81194 <_ZL17usb_setup_handlerv+0x12c>)
   81082:	4798      	blx	r3
    if ((setup.bmRequestType & REQUEST_DEVICETOHOST) != 0U)
   81084:	f99d 3000 	ldrsb.w	r3, [sp]
   81088:	2b00      	cmp	r3, #0
   8108a:	db1d      	blt.n	810c8 <_ZL17usb_setup_handlerv+0x60>
        usb_clear_in();
   8108c:	4b42      	ldr	r3, [pc, #264]	; (81198 <_ZL17usb_setup_handlerv+0x130>)
   8108e:	4798      	blx	r3
    if ((setup.bmRequestType & REQUEST_TYPE) == REQUEST_STANDARD)
   81090:	f89d 2000 	ldrb.w	r2, [sp]
   81094:	f012 0f60 	tst.w	r2, #96	; 0x60
   81098:	d169      	bne.n	8116e <_ZL17usb_setup_handlerv+0x106>
        const uint8_t request = setup.bRequest;
   8109a:	f89d 3001 	ldrb.w	r3, [sp, #1]
        if (request == GET_STATUS)
   8109e:	b1c3      	cbz	r3, 810d2 <_ZL17usb_setup_handlerv+0x6a>
        else if ((request == CLEAR_FEATURE) || (request == SET_FEATURE))
   810a0:	2b01      	cmp	r3, #1
   810a2:	d01f      	beq.n	810e4 <_ZL17usb_setup_handlerv+0x7c>
   810a4:	2b03      	cmp	r3, #3
   810a6:	d01d      	beq.n	810e4 <_ZL17usb_setup_handlerv+0x7c>
        else if (request == SET_ADDRESS)
   810a8:	2b05      	cmp	r3, #5
   810aa:	d021      	beq.n	810f0 <_ZL17usb_setup_handlerv+0x88>
        else if (request == GET_DESCRIPTOR)
   810ac:	2b06      	cmp	r3, #6
   810ae:	d031      	beq.n	81114 <_ZL17usb_setup_handlerv+0xac>
        else if (request == SET_DESCRIPTOR)
   810b0:	2b07      	cmp	r3, #7
   810b2:	d065      	beq.n	81180 <_ZL17usb_setup_handlerv+0x118>
        else if (request == GET_CONFIGURATION)
   810b4:	2b08      	cmp	r3, #8
   810b6:	d033      	beq.n	81120 <_ZL17usb_setup_handlerv+0xb8>
        else if (request == SET_CONFIGURATION)
   810b8:	2b09      	cmp	r3, #9
   810ba:	d03a      	beq.n	81132 <_ZL17usb_setup_handlerv+0xca>
        else if (request == GET_INTERFACE)
   810bc:	2b0a      	cmp	r3, #10
   810be:	d046      	beq.n	8114e <_ZL17usb_setup_handlerv+0xe6>
        else if (request == SET_INTERFACE)
   810c0:	2b0b      	cmp	r3, #11
   810c2:	d04d      	beq.n	81160 <_ZL17usb_setup_handlerv+0xf8>
            ok = 0U;
   810c4:	2000      	movs	r0, #0
   810c6:	e055      	b.n	81174 <_ZL17usb_setup_handlerv+0x10c>
        (void)usb_wait_for_flag(&UOTGHS->UOTGHS_DEVEPTISR[EP0], UOTGHS_DEVEPTISR_TXINI);
   810c8:	2101      	movs	r1, #1
   810ca:	4834      	ldr	r0, [pc, #208]	; (8119c <_ZL17usb_setup_handlerv+0x134>)
   810cc:	4b34      	ldr	r3, [pc, #208]	; (811a0 <_ZL17usb_setup_handlerv+0x138>)
   810ce:	4798      	blx	r3
   810d0:	e7de      	b.n	81090 <_ZL17usb_setup_handlerv+0x28>
            usb_send8(EP0, 0U);
   810d2:	2100      	movs	r1, #0
   810d4:	4608      	mov	r0, r1
   810d6:	4c33      	ldr	r4, [pc, #204]	; (811a4 <_ZL17usb_setup_handlerv+0x13c>)
   810d8:	47a0      	blx	r4
            usb_send8(EP0, 0U);
   810da:	2100      	movs	r1, #0
   810dc:	4608      	mov	r0, r1
   810de:	47a0      	blx	r4
    uint8_t ok = 1U;
   810e0:	2001      	movs	r0, #1
   810e2:	e047      	b.n	81174 <_ZL17usb_setup_handlerv+0x10c>
            usb_send8(EP0, 0U);
   810e4:	2100      	movs	r1, #0
   810e6:	4608      	mov	r0, r1
   810e8:	4b2e      	ldr	r3, [pc, #184]	; (811a4 <_ZL17usb_setup_handlerv+0x13c>)
   810ea:	4798      	blx	r3
    uint8_t ok = 1U;
   810ec:	2001      	movs	r0, #1
            usb_send8(EP0, 0U);
   810ee:	e041      	b.n	81174 <_ZL17usb_setup_handlerv+0x10c>
            (void)usb_wait_for_flag(&UOTGHS->UOTGHS_DEVEPTISR[EP0], UOTGHS_DEVEPTISR_TXINI);
   810f0:	2101      	movs	r1, #1
   810f2:	482a      	ldr	r0, [pc, #168]	; (8119c <_ZL17usb_setup_handlerv+0x134>)
   810f4:	4b2a      	ldr	r3, [pc, #168]	; (811a0 <_ZL17usb_setup_handlerv+0x138>)
   810f6:	4798      	blx	r3
            UOTGHS->UOTGHS_DEVCTRL = (UOTGHS->UOTGHS_DEVCTRL & ~UOTGHS_DEVCTRL_UADD_Msk)
   810f8:	492b      	ldr	r1, [pc, #172]	; (811a8 <_ZL17usb_setup_handlerv+0x140>)
   810fa:	680b      	ldr	r3, [r1, #0]
   810fc:	f023 037f 	bic.w	r3, r3, #127	; 0x7f
                                   | UOTGHS_DEVCTRL_UADD(setup.wValueL)
   81100:	f89d 2002 	ldrb.w	r2, [sp, #2]
   81104:	f002 027f 	and.w	r2, r2, #127	; 0x7f
   81108:	4313      	orrs	r3, r2
                                   | UOTGHS_DEVCTRL_ADDEN;
   8110a:	f043 0380 	orr.w	r3, r3, #128	; 0x80
            UOTGHS->UOTGHS_DEVCTRL = (UOTGHS->UOTGHS_DEVCTRL & ~UOTGHS_DEVCTRL_UADD_Msk)
   8110e:	600b      	str	r3, [r1, #0]
    uint8_t ok = 1U;
   81110:	2001      	movs	r0, #1
   81112:	e02f      	b.n	81174 <_ZL17usb_setup_handlerv+0x10c>
            ok = (usb_send_descriptor(setup) > 0U) ? 1U : 0U;
   81114:	4668      	mov	r0, sp
   81116:	4b25      	ldr	r3, [pc, #148]	; (811ac <_ZL17usb_setup_handlerv+0x144>)
   81118:	4798      	blx	r3
   8111a:	b378      	cbz	r0, 8117c <_ZL17usb_setup_handlerv+0x114>
   8111c:	2001      	movs	r0, #1
   8111e:	e029      	b.n	81174 <_ZL17usb_setup_handlerv+0x10c>
            usb_send8(EP0, static_cast<uint8_t>(g_usb_configuration));
   81120:	4b23      	ldr	r3, [pc, #140]	; (811b0 <_ZL17usb_setup_handlerv+0x148>)
   81122:	f8d3 1230 	ldr.w	r1, [r3, #560]	; 0x230
   81126:	b2c9      	uxtb	r1, r1
   81128:	2000      	movs	r0, #0
   8112a:	4b1e      	ldr	r3, [pc, #120]	; (811a4 <_ZL17usb_setup_handlerv+0x13c>)
   8112c:	4798      	blx	r3
    uint8_t ok = 1U;
   8112e:	2001      	movs	r0, #1
   81130:	e020      	b.n	81174 <_ZL17usb_setup_handlerv+0x10c>
            if (REQUEST_DEVICE == (setup.bmRequestType & REQUEST_RECIPIENT))
   81132:	f012 0f1f 	tst.w	r2, #31
   81136:	d001      	beq.n	8113c <_ZL17usb_setup_handlerv+0xd4>
                ok = 0U;
   81138:	2000      	movs	r0, #0
   8113a:	e01b      	b.n	81174 <_ZL17usb_setup_handlerv+0x10c>
                usb_init_endpoints();
   8113c:	4b1d      	ldr	r3, [pc, #116]	; (811b4 <_ZL17usb_setup_handlerv+0x14c>)
   8113e:	4798      	blx	r3
                g_usb_configuration = setup.wValueL;
   81140:	f89d 2002 	ldrb.w	r2, [sp, #2]
   81144:	4b1a      	ldr	r3, [pc, #104]	; (811b0 <_ZL17usb_setup_handlerv+0x148>)
   81146:	f8c3 2230 	str.w	r2, [r3, #560]	; 0x230
    uint8_t ok = 1U;
   8114a:	2001      	movs	r0, #1
   8114c:	e012      	b.n	81174 <_ZL17usb_setup_handlerv+0x10c>
            usb_send8(EP0, static_cast<uint8_t>(g_usb_set_interface));
   8114e:	4b18      	ldr	r3, [pc, #96]	; (811b0 <_ZL17usb_setup_handlerv+0x148>)
   81150:	f8d3 1234 	ldr.w	r1, [r3, #564]	; 0x234
   81154:	b2c9      	uxtb	r1, r1
   81156:	2000      	movs	r0, #0
   81158:	4b12      	ldr	r3, [pc, #72]	; (811a4 <_ZL17usb_setup_handlerv+0x13c>)
   8115a:	4798      	blx	r3
    uint8_t ok = 1U;
   8115c:	2001      	movs	r0, #1
   8115e:	e009      	b.n	81174 <_ZL17usb_setup_handlerv+0x10c>
            g_usb_set_interface = setup.wValueL;
   81160:	f89d 2002 	ldrb.w	r2, [sp, #2]
   81164:	4b12      	ldr	r3, [pc, #72]	; (811b0 <_ZL17usb_setup_handlerv+0x148>)
   81166:	f8c3 2234 	str.w	r2, [r3, #564]	; 0x234
    uint8_t ok = 1U;
   8116a:	2001      	movs	r0, #1
   8116c:	e002      	b.n	81174 <_ZL17usb_setup_handlerv+0x10c>
        ok = cdc_setup(setup);
   8116e:	4668      	mov	r0, sp
   81170:	4b11      	ldr	r3, [pc, #68]	; (811b8 <_ZL17usb_setup_handlerv+0x150>)
   81172:	4798      	blx	r3
    if (ok != 0U)
   81174:	b130      	cbz	r0, 81184 <_ZL17usb_setup_handlerv+0x11c>
        usb_clear_in();
   81176:	4b08      	ldr	r3, [pc, #32]	; (81198 <_ZL17usb_setup_handlerv+0x130>)
   81178:	4798      	blx	r3
   8117a:	e77a      	b.n	81072 <_ZL17usb_setup_handlerv+0xa>
            ok = (usb_send_descriptor(setup) > 0U) ? 1U : 0U;
   8117c:	2000      	movs	r0, #0
   8117e:	e7f9      	b.n	81174 <_ZL17usb_setup_handlerv+0x10c>
            ok = 0U;
   81180:	2000      	movs	r0, #0
   81182:	e7f7      	b.n	81174 <_ZL17usb_setup_handlerv+0x10c>
        usb_stall();
   81184:	4b0d      	ldr	r3, [pc, #52]	; (811bc <_ZL17usb_setup_handlerv+0x154>)
   81186:	4798      	blx	r3
   81188:	e773      	b.n	81072 <_ZL17usb_setup_handlerv+0xa>
   8118a:	bf00      	nop
   8118c:	00080c21 	.word	0x00080c21
   81190:	00080aad 	.word	0x00080aad
   81194:	00080bf9 	.word	0x00080bf9
   81198:	00080bd1 	.word	0x00080bd1
   8119c:	400ac130 	.word	0x400ac130
   811a0:	00080935 	.word	0x00080935
   811a4:	00080ae9 	.word	0x00080ae9
   811a8:	400ac000 	.word	0x400ac000
   811ac:	00080d71 	.word	0x00080d71
   811b0:	200008b4 	.word	0x200008b4
   811b4:	00080efd 	.word	0x00080efd
   811b8:	00080f89 	.word	0x00080f89
   811bc:	00080c11 	.word	0x00080c11

000811c0 <_ZL21usb_interrupt_handlerv>:

static void usb_interrupt_handler(void)
{
   811c0:	b510      	push	{r4, lr}
    const uint32_t status = UOTGHS->UOTGHS_DEVISR;
   811c2:	4b0d      	ldr	r3, [pc, #52]	; (811f8 <_ZL21usb_interrupt_handlerv+0x38>)
   811c4:	685c      	ldr	r4, [r3, #4]

#ifdef UOTGHS_DEVISR_EORST
    if ((status & UOTGHS_DEVISR_EORST) != 0U)
   811c6:	f014 0f08 	tst.w	r4, #8
   811ca:	d10c      	bne.n	811e6 <_ZL21usb_interrupt_handlerv+0x26>
        usb_reset_handler();
    }
#endif

#ifdef UOTGHS_DEVISR_PEP_2
    if ((status & UOTGHS_DEVISR_PEP_2) != 0U)
   811cc:	f414 4f80 	tst.w	r4, #16384	; 0x4000
   811d0:	d005      	beq.n	811de <_ZL21usb_interrupt_handlerv+0x1e>
    {
        if ((UOTGHS->UOTGHS_DEVEPTISR[CDC_RX] & UOTGHS_DEVEPTISR_RXOUTI) != 0U)
   811d2:	4b09      	ldr	r3, [pc, #36]	; (811f8 <_ZL21usb_interrupt_handlerv+0x38>)
   811d4:	f8d3 3138 	ldr.w	r3, [r3, #312]	; 0x138
   811d8:	f013 0f02 	tst.w	r3, #2
   811dc:	d106      	bne.n	811ec <_ZL21usb_interrupt_handlerv+0x2c>
        }
    }
#endif

#ifdef UOTGHS_DEVISR_PEP_0
    if ((status & UOTGHS_DEVISR_PEP_0) != 0U)
   811de:	f414 5f80 	tst.w	r4, #4096	; 0x1000
   811e2:	d106      	bne.n	811f2 <_ZL21usb_interrupt_handlerv+0x32>
   811e4:	bd10      	pop	{r4, pc}
        usb_reset_handler();
   811e6:	4b05      	ldr	r3, [pc, #20]	; (811fc <_ZL21usb_interrupt_handlerv+0x3c>)
   811e8:	4798      	blx	r3
   811ea:	e7ef      	b.n	811cc <_ZL21usb_interrupt_handlerv+0xc>
            usb_ring_accept();
   811ec:	4b04      	ldr	r3, [pc, #16]	; (81200 <_ZL21usb_interrupt_handlerv+0x40>)
   811ee:	4798      	blx	r3
   811f0:	e7f5      	b.n	811de <_ZL21usb_interrupt_handlerv+0x1e>
    {
        usb_setup_handler();
   811f2:	4b04      	ldr	r3, [pc, #16]	; (81204 <_ZL21usb_interrupt_handlerv+0x44>)
   811f4:	4798      	blx	r3
    }
#endif
}
   811f6:	e7f5      	b.n	811e4 <_ZL21usb_interrupt_handlerv+0x24>
   811f8:	400ac000 	.word	0x400ac000
   811fc:	00080f55 	.word	0x00080f55
   81200:	00080e45 	.word	0x00080e45
   81204:	00081069 	.word	0x00081069

00081208 <UOTGHS_Handler>:

extern "C" void UOTGHS_Handler(void)
{
   81208:	b508      	push	{r3, lr}
    usb_interrupt_handler();
   8120a:	4b01      	ldr	r3, [pc, #4]	; (81210 <UOTGHS_Handler+0x8>)
   8120c:	4798      	blx	r3
   8120e:	bd08      	pop	{r3, pc}
   81210:	000811c1 	.word	0x000811c1

00081214 <_Z17hal_usb_cdc_beginv>:
}

void hal_usb_cdc_begin(void)
{
   81214:	b538      	push	{r3, r4, r5, lr}
    if (g_usb_initialized == 0U)
   81216:	4b1a      	ldr	r3, [pc, #104]	; (81280 <_Z17hal_usb_cdc_beginv+0x6c>)
   81218:	f8d3 3238 	ldr.w	r3, [r3, #568]	; 0x238
   8121c:	bb4b      	cbnz	r3, 81272 <_Z17hal_usb_cdc_beginv+0x5e>
   8121e:	2200      	movs	r2, #0
    {
        for (uint32_t i = 0U; i < USB_ENDPOINT_COUNT; ++i)
   81220:	2a03      	cmp	r2, #3
   81222:	d807      	bhi.n	81234 <_Z17hal_usb_cdc_beginv+0x20>
        {
            g_send_fifo_ptr[i] = 0U;
   81224:	4b16      	ldr	r3, [pc, #88]	; (81280 <_Z17hal_usb_cdc_beginv+0x6c>)
   81226:	eb03 0382 	add.w	r3, r3, r2, lsl #2
   8122a:	2100      	movs	r1, #0
   8122c:	6159      	str	r1, [r3, #20]
            g_recv_fifo_ptr[i] = 0U;
   8122e:	6059      	str	r1, [r3, #4]
        for (uint32_t i = 0U; i < USB_ENDPOINT_COUNT; ++i)
   81230:	3201      	adds	r2, #1
   81232:	e7f5      	b.n	81220 <_Z17hal_usb_cdc_beginv+0xc>
        }

        g_rx_head = 0U;
   81234:	4c12      	ldr	r4, [pc, #72]	; (81280 <_Z17hal_usb_cdc_beginv+0x6c>)
   81236:	2500      	movs	r5, #0
   81238:	62a5      	str	r5, [r4, #40]	; 0x28
        g_rx_tail = 0U;
   8123a:	62e5      	str	r5, [r4, #44]	; 0x2c
        g_usb_error = 0U;
   8123c:	6025      	str	r5, [r4, #0]
        g_usb_configuration = 0U;
   8123e:	f8c4 5230 	str.w	r5, [r4, #560]	; 0x230

        usb_enable_clocks();
   81242:	4b10      	ldr	r3, [pc, #64]	; (81284 <_Z17hal_usb_cdc_beginv+0x70>)
   81244:	4798      	blx	r3
        usb_force_device_mode();
   81246:	4b10      	ldr	r3, [pc, #64]	; (81288 <_Z17hal_usb_cdc_beginv+0x74>)
   81248:	4798      	blx	r3
        usb_enable_pad_and_clock();
   8124a:	4b10      	ldr	r3, [pc, #64]	; (8128c <_Z17hal_usb_cdc_beginv+0x78>)
   8124c:	4798      	blx	r3
    NVIC->IP[((uint32_t)IRQn)]               = (uint8_t)((priority << (8U - __NVIC_PRIO_BITS)) & (uint32_t)0xFFUL);
   8124e:	4b10      	ldr	r3, [pc, #64]	; (81290 <_Z17hal_usb_cdc_beginv+0x7c>)
   81250:	f883 5328 	strb.w	r5, [r3, #808]	; 0x328
    NVIC->ISER[(((uint32_t)IRQn) >> 5UL)] = (uint32_t)(1UL << (((uint32_t)IRQn) & 0x1FUL));
   81254:	f44f 7280 	mov.w	r2, #256	; 0x100
   81258:	605a      	str	r2, [r3, #4]

        NVIC_SetPriority(UOTGHS_IRQn, 0U);
        NVIC_EnableIRQ(UOTGHS_IRQn);

#ifdef UOTGHS_DEVIER_EORSTES
        UOTGHS->UOTGHS_DEVIER = UOTGHS_DEVIER_EORSTES;
   8125a:	4b0e      	ldr	r3, [pc, #56]	; (81294 <_Z17hal_usb_cdc_beginv+0x80>)
   8125c:	2208      	movs	r2, #8
   8125e:	619a      	str	r2, [r3, #24]
#endif
#ifdef UOTGHS_DEVIER_PEP_0
        UOTGHS->UOTGHS_DEVIER = UOTGHS_DEVIER_PEP_0;
   81260:	f44f 5280 	mov.w	r2, #4096	; 0x1000
   81264:	619a      	str	r2, [r3, #24]
#endif
#ifdef UOTGHS_DEVIER_PEP_2
        UOTGHS->UOTGHS_DEVIER = UOTGHS_DEVIER_PEP_2;
   81266:	f44f 4280 	mov.w	r2, #16384	; 0x4000
   8126a:	619a      	str	r2, [r3, #24]
#endif

        g_usb_initialized = 1U;
   8126c:	2301      	movs	r3, #1
   8126e:	f8c4 3238 	str.w	r3, [r4, #568]	; 0x238
    }

    UOTGHS->UOTGHS_DEVCTRL &= ~UOTGHS_DEVCTRL_DETACH;
   81272:	4a08      	ldr	r2, [pc, #32]	; (81294 <_Z17hal_usb_cdc_beginv+0x80>)
   81274:	6813      	ldr	r3, [r2, #0]
   81276:	f423 7380 	bic.w	r3, r3, #256	; 0x100
   8127a:	6013      	str	r3, [r2, #0]
   8127c:	bd38      	pop	{r3, r4, r5, pc}
   8127e:	bf00      	nop
   81280:	200008b4 	.word	0x200008b4
   81284:	00080985 	.word	0x00080985
   81288:	000809b1 	.word	0x000809b1
   8128c:	000809d1 	.word	0x000809d1
   81290:	e000e100 	.word	0xe000e100
   81294:	400ac000 	.word	0x400ac000

00081298 <_Z18hal_usb_cdc_openedv>:
    return (g_usb_configuration != 0U) ? 1U : 0U;
}

uint8_t hal_usb_cdc_opened(void)
{
    return ((g_line_info.lineState & (CDC_LINESTATE_DTR | CDC_LINESTATE_RTS)) != 0U) ? 1U : 0U;
   81298:	4b04      	ldr	r3, [pc, #16]	; (812ac <_Z18hal_usb_cdc_openedv+0x14>)
   8129a:	79db      	ldrb	r3, [r3, #7]
   8129c:	f013 0f03 	tst.w	r3, #3
   812a0:	d101      	bne.n	812a6 <_Z18hal_usb_cdc_openedv+0xe>
   812a2:	2000      	movs	r0, #0
}
   812a4:	4770      	bx	lr
    return ((g_line_info.lineState & (CDC_LINESTATE_DTR | CDC_LINESTATE_RTS)) != 0U) ? 1U : 0U;
   812a6:	2001      	movs	r0, #1
   812a8:	4770      	bx	lr
   812aa:	bf00      	nop
   812ac:	20000040 	.word	0x20000040

000812b0 <_Z17hal_usb_cdc_writePKhj>:
    return g_rx_buffer[g_rx_tail];
}

size_t hal_usb_cdc_write(const uint8_t* buffer, size_t size)
{
    if ((buffer == 0) || (size == 0U))
   812b0:	b1c0      	cbz	r0, 812e4 <_Z17hal_usb_cdc_writePKhj+0x34>
{
   812b2:	b538      	push	{r3, r4, r5, lr}
   812b4:	4605      	mov	r5, r0
    if ((buffer == 0) || (size == 0U))
   812b6:	b1b9      	cbz	r1, 812e8 <_Z17hal_usb_cdc_writePKhj+0x38>
   812b8:	460c      	mov	r4, r1
    {
        return 0U;
    }

    if ((g_usb_configuration == 0U) || (hal_usb_cdc_opened() == 0U))
   812ba:	4b0c      	ldr	r3, [pc, #48]	; (812ec <_Z17hal_usb_cdc_writePKhj+0x3c>)
   812bc:	f8d3 3230 	ldr.w	r3, [r3, #560]	; 0x230
   812c0:	b91b      	cbnz	r3, 812ca <_Z17hal_usb_cdc_writePKhj+0x1a>
   812c2:	2301      	movs	r3, #1
   812c4:	b143      	cbz	r3, 812d8 <_Z17hal_usb_cdc_writePKhj+0x28>
    {
        return 0U;
   812c6:	2000      	movs	r0, #0
    }

    const uint32_t written = usb_send(CDC_TX, buffer, static_cast<uint32_t>(size));

    return static_cast<size_t>(written);
}
   812c8:	bd38      	pop	{r3, r4, r5, pc}
    if ((g_usb_configuration == 0U) || (hal_usb_cdc_opened() == 0U))
   812ca:	4b09      	ldr	r3, [pc, #36]	; (812f0 <_Z17hal_usb_cdc_writePKhj+0x40>)
   812cc:	4798      	blx	r3
   812ce:	b108      	cbz	r0, 812d4 <_Z17hal_usb_cdc_writePKhj+0x24>
   812d0:	2300      	movs	r3, #0
   812d2:	e7f7      	b.n	812c4 <_Z17hal_usb_cdc_writePKhj+0x14>
   812d4:	2301      	movs	r3, #1
   812d6:	e7f5      	b.n	812c4 <_Z17hal_usb_cdc_writePKhj+0x14>
    const uint32_t written = usb_send(CDC_TX, buffer, static_cast<uint32_t>(size));
   812d8:	4622      	mov	r2, r4
   812da:	4629      	mov	r1, r5
   812dc:	2003      	movs	r0, #3
   812de:	4b05      	ldr	r3, [pc, #20]	; (812f4 <_Z17hal_usb_cdc_writePKhj+0x44>)
   812e0:	4798      	blx	r3
    return static_cast<size_t>(written);
   812e2:	bd38      	pop	{r3, r4, r5, pc}
        return 0U;
   812e4:	2000      	movs	r0, #0
   812e6:	4770      	bx	lr
   812e8:	4608      	mov	r0, r1
   812ea:	bd38      	pop	{r3, r4, r5, pc}
   812ec:	200008b4 	.word	0x200008b4
   812f0:	00081299 	.word	0x00081299
   812f4:	00080b0d 	.word	0x00080b0d

000812f8 <_Z41__static_initialization_and_destruction_0ii>:
}

uint8_t EthernetClass::linkStatus(void)
{
    return w5500.linkStatus();
}
   812f8:	2801      	cmp	r0, #1
   812fa:	d000      	beq.n	812fe <_Z41__static_initialization_and_destruction_0ii+0x6>
   812fc:	4770      	bx	lr
   812fe:	b508      	push	{r3, lr}
   81300:	f64f 73ff 	movw	r3, #65535	; 0xffff
   81304:	4299      	cmp	r1, r3
   81306:	d000      	beq.n	8130a <_Z41__static_initialization_and_destruction_0ii+0x12>
   81308:	bd08      	pop	{r3, pc}
class EthernetServer;

/**
 * @brief Ethernet-интерфейс проекта.
 */
class EthernetClass
   8130a:	4802      	ldr	r0, [pc, #8]	; (81314 <_Z41__static_initialization_and_destruction_0ii+0x1c>)
   8130c:	4b02      	ldr	r3, [pc, #8]	; (81318 <_Z41__static_initialization_and_destruction_0ii+0x20>)
   8130e:	4798      	blx	r3
   81310:	e7fa      	b.n	81308 <_Z41__static_initialization_and_destruction_0ii+0x10>
   81312:	bf00      	nop
   81314:	20000af0 	.word	0x20000af0
   81318:	00081331 	.word	0x00081331

0008131c <_GLOBAL__sub_I__ZN13EthernetClass6_stateE>:
   8131c:	b508      	push	{r3, lr}
   8131e:	f64f 71ff 	movw	r1, #65535	; 0xffff
   81322:	2001      	movs	r0, #1
   81324:	4b01      	ldr	r3, [pc, #4]	; (8132c <_GLOBAL__sub_I__ZN13EthernetClass6_stateE+0x10>)
   81326:	4798      	blx	r3
   81328:	bd08      	pop	{r3, pc}
   8132a:	bf00      	nop
   8132c:	000812f9 	.word	0x000812f9

00081330 <_ZN9IPAddressC1Ev>:

const IPAddress INADDR_NONE(0U, 0U, 0U, 0U);

IPAddress::IPAddress()
{
    address_.dword = 0U;
   81330:	2200      	movs	r2, #0
   81332:	6002      	str	r2, [r0, #0]
}
   81334:	4770      	bx	lr

00081336 <_ZN9IPAddressC1Ehhhh>:

IPAddress::IPAddress(uint8_t first, uint8_t second, uint8_t third, uint8_t fourth)
   81336:	b410      	push	{r4}
{
    address_.bytes[0] = first;
   81338:	7001      	strb	r1, [r0, #0]
    address_.bytes[1] = second;
   8133a:	7042      	strb	r2, [r0, #1]
    address_.bytes[2] = third;
   8133c:	7083      	strb	r3, [r0, #2]
    address_.bytes[3] = fourth;
   8133e:	f89d 3004 	ldrb.w	r3, [sp, #4]
   81342:	70c3      	strb	r3, [r0, #3]
}
   81344:	bc10      	pop	{r4}
   81346:	4770      	bx	lr

00081348 <_Z41__static_initialization_and_destruction_0ii>:
    written += printer.print('.');
    written += printer.print(address_.bytes[2], DEC);
    written += printer.print('.');
    written += printer.print(address_.bytes[3], DEC);
    return written;
}
   81348:	2801      	cmp	r0, #1
   8134a:	d000      	beq.n	8134e <_Z41__static_initialization_and_destruction_0ii+0x6>
   8134c:	4770      	bx	lr
   8134e:	f64f 73ff 	movw	r3, #65535	; 0xffff
   81352:	4299      	cmp	r1, r3
   81354:	d1fa      	bne.n	8134c <_Z41__static_initialization_and_destruction_0ii+0x4>
   81356:	b510      	push	{r4, lr}
   81358:	b082      	sub	sp, #8
const IPAddress INADDR_NONE(0U, 0U, 0U, 0U);
   8135a:	2100      	movs	r1, #0
   8135c:	9100      	str	r1, [sp, #0]
   8135e:	460b      	mov	r3, r1
   81360:	460a      	mov	r2, r1
   81362:	4802      	ldr	r0, [pc, #8]	; (8136c <_Z41__static_initialization_and_destruction_0ii+0x24>)
   81364:	4c02      	ldr	r4, [pc, #8]	; (81370 <_Z41__static_initialization_and_destruction_0ii+0x28>)
   81366:	47a0      	blx	r4
}
   81368:	b002      	add	sp, #8
   8136a:	bd10      	pop	{r4, pc}
   8136c:	20000b0c 	.word	0x20000b0c
   81370:	00081337 	.word	0x00081337

00081374 <_GLOBAL__sub_I_INADDR_NONE>:
   81374:	b508      	push	{r3, lr}
   81376:	f64f 71ff 	movw	r1, #65535	; 0xffff
   8137a:	2001      	movs	r0, #1
   8137c:	4b01      	ldr	r3, [pc, #4]	; (81384 <_GLOBAL__sub_I_INADDR_NONE+0x10>)
   8137e:	4798      	blx	r3
   81380:	bd08      	pop	{r3, pc}
   81382:	bf00      	nop
   81384:	00081349 	.word	0x00081349

00081388 <_ZN10W5500ClassC1Ev>:
}

W5500Class w5500;

W5500Class::W5500Class()
    : slave_select_(10U)
   81388:	230a      	movs	r3, #10
   8138a:	7003      	strb	r3, [r0, #0]
{
}
   8138c:	4770      	bx	lr
	...

00081390 <_Z41__static_initialization_and_destruction_0ii>:
    writeSn8(socket, address, static_cast<uint8_t>(value >> 8));
    writeSn8(socket, static_cast<uint16_t>(address + 1U), static_cast<uint8_t>(value & 0xFFU));
}

void W5500Class::readSnBuffer(SOCKET socket, uint16_t address, uint8_t* buffer, uint16_t length) { (void)read(address, socket_register_read_control(socket), buffer, length); }
void W5500Class::writeSnBuffer(SOCKET socket, uint16_t address, const uint8_t* buffer, uint16_t length) { (void)write(address, socket_register_write_control(socket), buffer, length); }
   81390:	2801      	cmp	r0, #1
   81392:	d000      	beq.n	81396 <_Z41__static_initialization_and_destruction_0ii+0x6>
   81394:	4770      	bx	lr
   81396:	b508      	push	{r3, lr}
   81398:	f64f 73ff 	movw	r3, #65535	; 0xffff
   8139c:	4299      	cmp	r1, r3
   8139e:	d000      	beq.n	813a2 <_Z41__static_initialization_and_destruction_0ii+0x12>
   813a0:	bd08      	pop	{r3, pc}
W5500Class w5500;
   813a2:	4802      	ldr	r0, [pc, #8]	; (813ac <_Z41__static_initialization_and_destruction_0ii+0x1c>)
   813a4:	4b02      	ldr	r3, [pc, #8]	; (813b0 <_Z41__static_initialization_and_destruction_0ii+0x20>)
   813a6:	4798      	blx	r3
void W5500Class::writeSnBuffer(SOCKET socket, uint16_t address, const uint8_t* buffer, uint16_t length) { (void)write(address, socket_register_write_control(socket), buffer, length); }
   813a8:	e7fa      	b.n	813a0 <_Z41__static_initialization_and_destruction_0ii+0x10>
   813aa:	bf00      	nop
   813ac:	20000b10 	.word	0x20000b10
   813b0:	00081389 	.word	0x00081389

000813b4 <_GLOBAL__sub_I_w5500>:
   813b4:	b508      	push	{r3, lr}
   813b6:	f64f 71ff 	movw	r1, #65535	; 0xffff
   813ba:	2001      	movs	r0, #1
   813bc:	4b01      	ldr	r3, [pc, #4]	; (813c4 <_GLOBAL__sub_I_w5500+0x10>)
   813be:	4798      	blx	r3
   813c0:	bd08      	pop	{r3, pc}
   813c2:	bf00      	nop
   813c4:	00081391 	.word	0x00081391

000813c8 <main>:

#include "app/app.hpp"
#include "hal/sam3x_tick.hpp"

int main(void)
{
   813c8:	b508      	push	{r3, lr}
    hal_tick_init();
   813ca:	4b03      	ldr	r3, [pc, #12]	; (813d8 <main+0x10>)
   813cc:	4798      	blx	r3

    setup();
   813ce:	4b03      	ldr	r3, [pc, #12]	; (813dc <main+0x14>)
   813d0:	4798      	blx	r3

    for (;;)
    {
        loop();
   813d2:	4b03      	ldr	r3, [pc, #12]	; (813e0 <main+0x18>)
   813d4:	4798      	blx	r3
   813d6:	e7fc      	b.n	813d2 <main+0xa>
   813d8:	00080719 	.word	0x00080719
   813dc:	00080161 	.word	0x00080161
   813e0:	000801cd 	.word	0x000801cd

000813e4 <_Z7pinModemm>:

#include "platform.hpp"
#include "../hal/sam3x_gpio.hpp"

void pinMode(uint32_t pin, uint32_t mode)
{
   813e4:	b508      	push	{r3, lr}
    HalGpioMode gpio_mode = HAL_GPIO_INPUT;

    if (mode == OUTPUT)
   813e6:	2901      	cmp	r1, #1
   813e8:	d005      	beq.n	813f6 <_Z7pinModemm+0x12>
    {
        gpio_mode = HAL_GPIO_OUTPUT;
    }
    else if (mode == INPUT_PULLUP)
   813ea:	2902      	cmp	r1, #2
   813ec:	d000      	beq.n	813f0 <_Z7pinModemm+0xc>
    {
        gpio_mode = HAL_GPIO_INPUT_PULLUP;
    }
    else
    {
        gpio_mode = HAL_GPIO_INPUT;
   813ee:	2100      	movs	r1, #0
    }

    hal_gpio_configure(pin, gpio_mode);
   813f0:	4b02      	ldr	r3, [pc, #8]	; (813fc <_Z7pinModemm+0x18>)
   813f2:	4798      	blx	r3
   813f4:	bd08      	pop	{r3, pc}
        gpio_mode = HAL_GPIO_OUTPUT;
   813f6:	2101      	movs	r1, #1
   813f8:	e7fa      	b.n	813f0 <_Z7pinModemm+0xc>
   813fa:	bf00      	nop
   813fc:	000804c5 	.word	0x000804c5

00081400 <_Z12digitalWritemm>:
}

void digitalWrite(uint32_t pin, uint32_t value)
{
   81400:	b508      	push	{r3, lr}
    hal_gpio_write(pin, value);
   81402:	4b01      	ldr	r3, [pc, #4]	; (81408 <_Z12digitalWritemm+0x8>)
   81404:	4798      	blx	r3
   81406:	bd08      	pop	{r3, pc}
   81408:	00080519 	.word	0x00080519

0008140c <_ZN10SerialPortD1Ev>:
#include "../hal/sam3x_uart.hpp"

/**
 * @brief Аппаратный последовательный порт.
 */
class SerialPort : public Print
   8140c:	4770      	bx	lr
	...

00081410 <_Z41__static_initialization_and_destruction_0ii>:
#include "platform.hpp"

SerialPort Serial(HAL_UART_PORT_0);
SerialPort Serial1(HAL_UART_PORT_1);
SerialPort Serial2(HAL_UART_PORT_2);
SerialPort Serial3(HAL_UART_PORT_3);
   81410:	2801      	cmp	r0, #1
   81412:	d000      	beq.n	81416 <_Z41__static_initialization_and_destruction_0ii+0x6>
   81414:	4770      	bx	lr
   81416:	e92d 43f8 	stmdb	sp!, {r3, r4, r5, r6, r7, r8, r9, lr}
   8141a:	f64f 73ff 	movw	r3, #65535	; 0xffff
   8141e:	4299      	cmp	r1, r3
   81420:	d001      	beq.n	81426 <_Z41__static_initialization_and_destruction_0ii+0x16>
   81422:	e8bd 83f8 	ldmia.w	sp!, {r3, r4, r5, r6, r7, r8, r9, pc}
SerialPort Serial(HAL_UART_PORT_0);
   81426:	4c14      	ldr	r4, [pc, #80]	; (81478 <_Z41__static_initialization_and_destruction_0ii+0x68>)
   81428:	2100      	movs	r1, #0
   8142a:	4620      	mov	r0, r4
   8142c:	4e13      	ldr	r6, [pc, #76]	; (8147c <_Z41__static_initialization_and_destruction_0ii+0x6c>)
   8142e:	47b0      	blx	r6
   81430:	4f13      	ldr	r7, [pc, #76]	; (81480 <_Z41__static_initialization_and_destruction_0ii+0x70>)
   81432:	f8df 8054 	ldr.w	r8, [pc, #84]	; 81488 <_Z41__static_initialization_and_destruction_0ii+0x78>
   81436:	463a      	mov	r2, r7
   81438:	4641      	mov	r1, r8
   8143a:	4620      	mov	r0, r4
   8143c:	4d11      	ldr	r5, [pc, #68]	; (81484 <_Z41__static_initialization_and_destruction_0ii+0x74>)
   8143e:	47a8      	blx	r5
SerialPort Serial1(HAL_UART_PORT_1);
   81440:	f104 0908 	add.w	r9, r4, #8
   81444:	2101      	movs	r1, #1
   81446:	4648      	mov	r0, r9
   81448:	47b0      	blx	r6
   8144a:	463a      	mov	r2, r7
   8144c:	4641      	mov	r1, r8
   8144e:	4648      	mov	r0, r9
   81450:	47a8      	blx	r5
SerialPort Serial2(HAL_UART_PORT_2);
   81452:	f104 0910 	add.w	r9, r4, #16
   81456:	2102      	movs	r1, #2
   81458:	4648      	mov	r0, r9
   8145a:	47b0      	blx	r6
   8145c:	463a      	mov	r2, r7
   8145e:	4641      	mov	r1, r8
   81460:	4648      	mov	r0, r9
   81462:	47a8      	blx	r5
SerialPort Serial3(HAL_UART_PORT_3);
   81464:	3418      	adds	r4, #24
   81466:	2103      	movs	r1, #3
   81468:	4620      	mov	r0, r4
   8146a:	47b0      	blx	r6
   8146c:	463a      	mov	r2, r7
   8146e:	4641      	mov	r1, r8
   81470:	4620      	mov	r0, r4
   81472:	47a8      	blx	r5
   81474:	e7d5      	b.n	81422 <_Z41__static_initialization_and_destruction_0ii+0x12>
   81476:	bf00      	nop
   81478:	20000b14 	.word	0x20000b14
   8147c:	0008156d 	.word	0x0008156d
   81480:	20000034 	.word	0x20000034
   81484:	000816f5 	.word	0x000816f5
   81488:	0008140d 	.word	0x0008140d

0008148c <_ZN10SerialPortD0Ev>:
   8148c:	b510      	push	{r4, lr}
   8148e:	4604      	mov	r4, r0
   81490:	2108      	movs	r1, #8
   81492:	4b02      	ldr	r3, [pc, #8]	; (8149c <_ZN10SerialPortD0Ev+0x10>)
   81494:	4798      	blx	r3
   81496:	4620      	mov	r0, r4
   81498:	bd10      	pop	{r4, pc}
   8149a:	bf00      	nop
   8149c:	00081701 	.word	0x00081701

000814a0 <_GLOBAL__sub_I_Serial>:
   814a0:	b508      	push	{r3, lr}
   814a2:	f64f 71ff 	movw	r1, #65535	; 0xffff
   814a6:	2001      	movs	r0, #1
   814a8:	4b01      	ldr	r3, [pc, #4]	; (814b0 <_GLOBAL__sub_I_Serial+0x10>)
   814aa:	4798      	blx	r3
   814ac:	bd08      	pop	{r3, pc}
   814ae:	bf00      	nop
   814b0:	00081411 	.word	0x00081411

000814b4 <_Z41__static_initialization_and_destruction_0ii>:
 * @brief Глобальный SPI master проекта.
 */

#include "platform.hpp"

SPIClass SPI;
   814b4:	2801      	cmp	r0, #1
   814b6:	d000      	beq.n	814ba <_Z41__static_initialization_and_destruction_0ii+0x6>
   814b8:	4770      	bx	lr
   814ba:	b508      	push	{r3, lr}
   814bc:	f64f 73ff 	movw	r3, #65535	; 0xffff
   814c0:	4299      	cmp	r1, r3
   814c2:	d000      	beq.n	814c6 <_Z41__static_initialization_and_destruction_0ii+0x12>
   814c4:	bd08      	pop	{r3, pc}
   814c6:	4802      	ldr	r0, [pc, #8]	; (814d0 <_Z41__static_initialization_and_destruction_0ii+0x1c>)
   814c8:	4b02      	ldr	r3, [pc, #8]	; (814d4 <_Z41__static_initialization_and_destruction_0ii+0x20>)
   814ca:	4798      	blx	r3
   814cc:	e7fa      	b.n	814c4 <_Z41__static_initialization_and_destruction_0ii+0x10>
   814ce:	bf00      	nop
   814d0:	20000b34 	.word	0x20000b34
   814d4:	000815d1 	.word	0x000815d1

000814d8 <_GLOBAL__sub_I_SPI>:
   814d8:	b508      	push	{r3, lr}
   814da:	f64f 71ff 	movw	r1, #65535	; 0xffff
   814de:	2001      	movs	r0, #1
   814e0:	4b01      	ldr	r3, [pc, #4]	; (814e8 <_GLOBAL__sub_I_SPI+0x10>)
   814e2:	4798      	blx	r3
   814e4:	bd08      	pop	{r3, pc}
   814e6:	bf00      	nop
   814e8:	000814b5 	.word	0x000814b5

000814ec <_Z5delaym>:
{
    return hal_micros();
}

void delay(uint32_t ms)
{
   814ec:	b508      	push	{r3, lr}
    hal_delay_ms(ms);
   814ee:	4b01      	ldr	r3, [pc, #4]	; (814f4 <_Z5delaym+0x8>)
   814f0:	4798      	blx	r3
   814f2:	bd08      	pop	{r3, pc}
   814f4:	00080781 	.word	0x00080781

000814f8 <_ZN13UsbSerialPortD1Ev>:
#include "print.hpp"

/**
 * @brief USB CDC-порт приложения.
 */
class UsbSerialPort : public Print
   814f8:	4770      	bx	lr
	...

000814fc <_Z41__static_initialization_and_destruction_0ii>:
 * @brief Глобальный USB CDC-порт проекта.
 */

#include "platform.hpp"

UsbSerialPort SerialUSB;
   814fc:	2801      	cmp	r0, #1
   814fe:	d000      	beq.n	81502 <_Z41__static_initialization_and_destruction_0ii+0x6>
   81500:	4770      	bx	lr
   81502:	b508      	push	{r3, lr}
   81504:	f64f 73ff 	movw	r3, #65535	; 0xffff
   81508:	4299      	cmp	r1, r3
   8150a:	d000      	beq.n	8150e <_Z41__static_initialization_and_destruction_0ii+0x12>
   8150c:	bd08      	pop	{r3, pc}
   8150e:	4a03      	ldr	r2, [pc, #12]	; (8151c <_Z41__static_initialization_and_destruction_0ii+0x20>)
   81510:	4903      	ldr	r1, [pc, #12]	; (81520 <_Z41__static_initialization_and_destruction_0ii+0x24>)
   81512:	4804      	ldr	r0, [pc, #16]	; (81524 <_Z41__static_initialization_and_destruction_0ii+0x28>)
   81514:	4b04      	ldr	r3, [pc, #16]	; (81528 <_Z41__static_initialization_and_destruction_0ii+0x2c>)
   81516:	4798      	blx	r3
   81518:	e7f8      	b.n	8150c <_Z41__static_initialization_and_destruction_0ii+0x10>
   8151a:	bf00      	nop
   8151c:	20000034 	.word	0x20000034
   81520:	000814f9 	.word	0x000814f9
   81524:	2000004c 	.word	0x2000004c
   81528:	000816f5 	.word	0x000816f5

0008152c <_ZN13UsbSerialPortD0Ev>:
   8152c:	b510      	push	{r4, lr}
   8152e:	4604      	mov	r4, r0
   81530:	2104      	movs	r1, #4
   81532:	4b02      	ldr	r3, [pc, #8]	; (8153c <_ZN13UsbSerialPortD0Ev+0x10>)
   81534:	4798      	blx	r3
   81536:	4620      	mov	r0, r4
   81538:	bd10      	pop	{r4, pc}
   8153a:	bf00      	nop
   8153c:	00081701 	.word	0x00081701

00081540 <_GLOBAL__sub_I_SerialUSB>:
   81540:	b508      	push	{r3, lr}
   81542:	f64f 71ff 	movw	r1, #65535	; 0xffff
   81546:	2001      	movs	r0, #1
   81548:	4b01      	ldr	r3, [pc, #4]	; (81550 <_GLOBAL__sub_I_SerialUSB+0x10>)
   8154a:	4798      	blx	r3
   8154c:	bd08      	pop	{r3, pc}
   8154e:	bf00      	nop
   81550:	000814fd 	.word	0x000814fd

00081554 <_ZN10SerialPort5writeEh>:
{
    hal_uart_flush(port_id_);
}

size_t SerialPort::write(uint8_t value)
{
   81554:	b508      	push	{r3, lr}
    if (initialized_ == 0U)
   81556:	7943      	ldrb	r3, [r0, #5]
   81558:	b90b      	cbnz	r3, 8155e <_ZN10SerialPort5writeEh+0xa>
    {
        return 0U;
   8155a:	2000      	movs	r0, #0
    }

    hal_uart_write(port_id_, value);
    return 1U;
}
   8155c:	bd08      	pop	{r3, pc}
    hal_uart_write(port_id_, value);
   8155e:	7900      	ldrb	r0, [r0, #4]
   81560:	4b01      	ldr	r3, [pc, #4]	; (81568 <_ZN10SerialPort5writeEh+0x14>)
   81562:	4798      	blx	r3
    return 1U;
   81564:	2001      	movs	r0, #1
   81566:	bd08      	pop	{r3, pc}
   81568:	000808f1 	.word	0x000808f1

0008156c <_ZN10SerialPortC1E9HalUartId>:
      initialized_(0U)
   8156c:	4a02      	ldr	r2, [pc, #8]	; (81578 <_ZN10SerialPortC1E9HalUartId+0xc>)
   8156e:	6002      	str	r2, [r0, #0]
   81570:	7101      	strb	r1, [r0, #4]
   81572:	2200      	movs	r2, #0
   81574:	7142      	strb	r2, [r0, #5]
}
   81576:	4770      	bx	lr
   81578:	00082428 	.word	0x00082428

0008157c <_ZNK10SerialPort13convert_frameEm>:
    return (initialized_ != 0U);
}

HalUartFrame SerialPort::convert_frame(uint32_t frame) const
{
    if (frame == SERIAL_8O1)
   8157c:	2901      	cmp	r1, #1
   8157e:	d005      	beq.n	8158c <_ZNK10SerialPort13convert_frameEm+0x10>
    {
        return HAL_UART_FRAME_8O1;
    }

    if (frame == SERIAL_8E1)
   81580:	2902      	cmp	r1, #2
   81582:	d001      	beq.n	81588 <_ZNK10SerialPort13convert_frameEm+0xc>
    {
        return HAL_UART_FRAME_8E1;
    }

    return HAL_UART_FRAME_8N1;
   81584:	2000      	movs	r0, #0
}
   81586:	4770      	bx	lr
        return HAL_UART_FRAME_8E1;
   81588:	2002      	movs	r0, #2
   8158a:	4770      	bx	lr
        return HAL_UART_FRAME_8O1;
   8158c:	2001      	movs	r0, #1
   8158e:	4770      	bx	lr

00081590 <_ZN10SerialPort5beginEmm>:
{
   81590:	b570      	push	{r4, r5, r6, lr}
   81592:	4604      	mov	r4, r0
   81594:	460e      	mov	r6, r1
    hal_uart_begin(port_id_, baudrate, convert_frame(frame));
   81596:	7905      	ldrb	r5, [r0, #4]
   81598:	4611      	mov	r1, r2
   8159a:	4b05      	ldr	r3, [pc, #20]	; (815b0 <_ZN10SerialPort5beginEmm+0x20>)
   8159c:	4798      	blx	r3
   8159e:	4602      	mov	r2, r0
   815a0:	4631      	mov	r1, r6
   815a2:	4628      	mov	r0, r5
   815a4:	4b03      	ldr	r3, [pc, #12]	; (815b4 <_ZN10SerialPort5beginEmm+0x24>)
   815a6:	4798      	blx	r3
    initialized_ = 1U;
   815a8:	2301      	movs	r3, #1
   815aa:	7163      	strb	r3, [r4, #5]
   815ac:	bd70      	pop	{r4, r5, r6, pc}
   815ae:	bf00      	nop
   815b0:	0008157d 	.word	0x0008157d
   815b4:	0008086d 	.word	0x0008086d

000815b8 <_ZN11SPISettingsC1Ev>:
}

SPISettings::SPISettings()
    : clock_hz_(PLATFORM_SPI_DEFAULT_CLOCK_HZ),
      bit_order_(MSBFIRST),
      data_mode_(SPI_MODE0)
   815b8:	4a02      	ldr	r2, [pc, #8]	; (815c4 <_ZN11SPISettingsC1Ev+0xc>)
   815ba:	6002      	str	r2, [r0, #0]
   815bc:	2200      	movs	r2, #0
   815be:	7102      	strb	r2, [r0, #4]
   815c0:	7142      	strb	r2, [r0, #5]
{
}
   815c2:	4770      	bx	lr
   815c4:	003d0900 	.word	0x003d0900

000815c8 <_ZNK11SPISettings8clock_hzEv>:
}

uint32_t SPISettings::clock_hz(void) const
{
    return clock_hz_;
}
   815c8:	6800      	ldr	r0, [r0, #0]
   815ca:	4770      	bx	lr

000815cc <_ZNK11SPISettings9data_modeEv>:
}

uint8_t SPISettings::data_mode(void) const
{
    return data_mode_;
}
   815cc:	7940      	ldrb	r0, [r0, #5]
   815ce:	4770      	bx	lr

000815d0 <_ZN8SPIClassC1Ev>:

SPIClass::SPIClass()
   815d0:	b510      	push	{r4, lr}
   815d2:	4604      	mov	r4, r0
    : settings_(),
      initialized_(0U)
   815d4:	4b02      	ldr	r3, [pc, #8]	; (815e0 <_ZN8SPIClassC1Ev+0x10>)
   815d6:	4798      	blx	r3
   815d8:	2300      	movs	r3, #0
   815da:	7223      	strb	r3, [r4, #8]
{
}
   815dc:	4620      	mov	r0, r4
   815de:	bd10      	pop	{r4, pc}
   815e0:	000815b9 	.word	0x000815b9

000815e4 <_ZNK8SPIClass17convert_data_modeEh>:
    return (bit_order == LSBFIRST) ? HAL_SPI_LSB_FIRST : HAL_SPI_MSB_FIRST;
}

HalSpiMode SPIClass::convert_data_mode(uint8_t data_mode) const
{
    switch (data_mode)
   815e4:	2902      	cmp	r1, #2
   815e6:	d009      	beq.n	815fc <_ZNK8SPIClass17convert_data_modeEh+0x18>
   815e8:	2903      	cmp	r1, #3
   815ea:	d005      	beq.n	815f8 <_ZNK8SPIClass17convert_data_modeEh+0x14>
   815ec:	2901      	cmp	r1, #1
   815ee:	d001      	beq.n	815f4 <_ZNK8SPIClass17convert_data_modeEh+0x10>
        case SPI_MODE3:
            return HAL_SPI_MODE_3;

        case SPI_MODE0:
        default:
            return HAL_SPI_MODE_0;
   815f0:	2000      	movs	r0, #0
   815f2:	4770      	bx	lr
            return HAL_SPI_MODE_1;
   815f4:	2001      	movs	r0, #1
   815f6:	4770      	bx	lr
            return HAL_SPI_MODE_3;
   815f8:	2003      	movs	r0, #3
   815fa:	4770      	bx	lr
            return HAL_SPI_MODE_2;
   815fc:	2002      	movs	r0, #2
    }
}
   815fe:	4770      	bx	lr

00081600 <_ZNK8SPIClass15make_hal_configERK11SPISettings>:
{
   81600:	b570      	push	{r4, r5, r6, lr}
   81602:	4604      	mov	r4, r0
   81604:	460e      	mov	r6, r1
   81606:	4615      	mov	r5, r2
    config.clock_hz = settings.clock_hz();
   81608:	4610      	mov	r0, r2
   8160a:	4b07      	ldr	r3, [pc, #28]	; (81628 <_ZNK8SPIClass15make_hal_configERK11SPISettings+0x28>)
   8160c:	4798      	blx	r3
   8160e:	6020      	str	r0, [r4, #0]
    config.bit_order = HAL_SPI_MSB_FIRST;
   81610:	2300      	movs	r3, #0
   81612:	7123      	strb	r3, [r4, #4]
    config.mode = convert_data_mode(settings.data_mode());
   81614:	4628      	mov	r0, r5
   81616:	4b05      	ldr	r3, [pc, #20]	; (8162c <_ZNK8SPIClass15make_hal_configERK11SPISettings+0x2c>)
   81618:	4798      	blx	r3
   8161a:	4601      	mov	r1, r0
   8161c:	4630      	mov	r0, r6
   8161e:	4b04      	ldr	r3, [pc, #16]	; (81630 <_ZNK8SPIClass15make_hal_configERK11SPISettings+0x30>)
   81620:	4798      	blx	r3
   81622:	7160      	strb	r0, [r4, #5]
}
   81624:	4620      	mov	r0, r4
   81626:	bd70      	pop	{r4, r5, r6, pc}
   81628:	000815c9 	.word	0x000815c9
   8162c:	000815cd 	.word	0x000815cd
   81630:	000815e5 	.word	0x000815e5

00081634 <_ZN8SPIClass22apply_current_settingsEv>:

void SPIClass::apply_current_settings(void)
{
   81634:	b500      	push	{lr}
   81636:	b083      	sub	sp, #12
   81638:	4601      	mov	r1, r0
    const HalSpiConfig config = make_hal_config(settings_);
   8163a:	4602      	mov	r2, r0
   8163c:	4668      	mov	r0, sp
   8163e:	4b04      	ldr	r3, [pc, #16]	; (81650 <_ZN8SPIClass22apply_current_settingsEv+0x1c>)
   81640:	4798      	blx	r3
    hal_spi_configure(config);
   81642:	4668      	mov	r0, sp
   81644:	4b03      	ldr	r3, [pc, #12]	; (81654 <_ZN8SPIClass22apply_current_settingsEv+0x20>)
   81646:	4798      	blx	r3
}
   81648:	b003      	add	sp, #12
   8164a:	f85d fb04 	ldr.w	pc, [sp], #4
   8164e:	bf00      	nop
   81650:	00081601 	.word	0x00081601
   81654:	00080651 	.word	0x00080651

00081658 <_ZN8SPIClass5beginEv>:
{
   81658:	b510      	push	{r4, lr}
   8165a:	4604      	mov	r4, r0
    hal_spi_begin();
   8165c:	4b03      	ldr	r3, [pc, #12]	; (8166c <_ZN8SPIClass5beginEv+0x14>)
   8165e:	4798      	blx	r3
    apply_current_settings();
   81660:	4620      	mov	r0, r4
   81662:	4b03      	ldr	r3, [pc, #12]	; (81670 <_ZN8SPIClass5beginEv+0x18>)
   81664:	4798      	blx	r3
    initialized_ = 1U;
   81666:	2301      	movs	r3, #1
   81668:	7223      	strb	r3, [r4, #8]
   8166a:	bd10      	pop	{r4, pc}
   8166c:	00080679 	.word	0x00080679
   81670:	00081635 	.word	0x00081635

00081674 <platform_get_stack_pointer>:

static char* platform_get_stack_pointer(void)
{
    register char* stack_pointer __asm("sp");
    return stack_pointer;
}
   81674:	4668      	mov	r0, sp
   81676:	4770      	bx	lr

00081678 <_sbrk>:

void* _sbrk(ptrdiff_t increment)
{
   81678:	b538      	push	{r3, r4, r5, lr}
    char* previous_heap_end;
    char* next_heap_end;
    char* stack_pointer;

    if (g_heap_end == 0)
   8167a:	4b0c      	ldr	r3, [pc, #48]	; (816ac <_sbrk+0x34>)
   8167c:	681b      	ldr	r3, [r3, #0]
   8167e:	b153      	cbz	r3, 81696 <_sbrk+0x1e>
    {
        g_heap_end = &_end;
    }

    previous_heap_end = g_heap_end;
   81680:	4b0a      	ldr	r3, [pc, #40]	; (816ac <_sbrk+0x34>)
   81682:	681d      	ldr	r5, [r3, #0]
    next_heap_end = g_heap_end + increment;
   81684:	182c      	adds	r4, r5, r0
    stack_pointer = platform_get_stack_pointer();
   81686:	4b0a      	ldr	r3, [pc, #40]	; (816b0 <_sbrk+0x38>)
   81688:	4798      	blx	r3

    if (next_heap_end >= stack_pointer)
   8168a:	4284      	cmp	r4, r0
   8168c:	d207      	bcs.n	8169e <_sbrk+0x26>
    {
        errno = ENOMEM;
        return (void*)-1;
    }

    g_heap_end = next_heap_end;
   8168e:	4b07      	ldr	r3, [pc, #28]	; (816ac <_sbrk+0x34>)
   81690:	601c      	str	r4, [r3, #0]

    return previous_heap_end;
   81692:	4628      	mov	r0, r5
}
   81694:	bd38      	pop	{r3, r4, r5, pc}
        g_heap_end = &_end;
   81696:	4a07      	ldr	r2, [pc, #28]	; (816b4 <_sbrk+0x3c>)
   81698:	4b04      	ldr	r3, [pc, #16]	; (816ac <_sbrk+0x34>)
   8169a:	601a      	str	r2, [r3, #0]
   8169c:	e7f0      	b.n	81680 <_sbrk+0x8>
        errno = ENOMEM;
   8169e:	4b06      	ldr	r3, [pc, #24]	; (816b8 <_sbrk+0x40>)
   816a0:	4798      	blx	r3
   816a2:	230c      	movs	r3, #12
   816a4:	6003      	str	r3, [r0, #0]
        return (void*)-1;
   816a6:	f04f 30ff 	mov.w	r0, #4294967295
   816aa:	bd38      	pop	{r3, r4, r5, pc}
   816ac:	20000b40 	.word	0x20000b40
   816b0:	00081675 	.word	0x00081675
   816b4:	200011a0 	.word	0x200011a0
   816b8:	00081715 	.word	0x00081715

000816bc <_ZN13UsbSerialPort5beginEmm>:
    (void)baudrate;
    hal_usb_cdc_begin();
}

void UsbSerialPort::begin(uint32_t baudrate, uint32_t frame)
{
   816bc:	b508      	push	{r3, lr}
    (void)baudrate;
    (void)frame;
    hal_usb_cdc_begin();
   816be:	4b01      	ldr	r3, [pc, #4]	; (816c4 <_ZN13UsbSerialPort5beginEmm+0x8>)
   816c0:	4798      	blx	r3
   816c2:	bd08      	pop	{r3, pc}
   816c4:	00081215 	.word	0x00081215

000816c8 <_ZN13UsbSerialPort5writeEPKhj>:
{
    return write(&value, 1U);
}

size_t UsbSerialPort::write(const uint8_t* buffer, size_t size)
{
   816c8:	b508      	push	{r3, lr}
   816ca:	4608      	mov	r0, r1
    return hal_usb_cdc_write(buffer, size);
   816cc:	4611      	mov	r1, r2
   816ce:	4b01      	ldr	r3, [pc, #4]	; (816d4 <_ZN13UsbSerialPort5writeEPKhj+0xc>)
   816d0:	4798      	blx	r3
}
   816d2:	bd08      	pop	{r3, pc}
   816d4:	000812b1 	.word	0x000812b1

000816d8 <_ZN13UsbSerialPort5writeEh>:
{
   816d8:	b500      	push	{lr}
   816da:	b083      	sub	sp, #12
   816dc:	ab02      	add	r3, sp, #8
   816de:	f803 1d01 	strb.w	r1, [r3, #-1]!
    return write(&value, 1U);
   816e2:	2201      	movs	r2, #1
   816e4:	4619      	mov	r1, r3
   816e6:	4b02      	ldr	r3, [pc, #8]	; (816f0 <_ZN13UsbSerialPort5writeEh+0x18>)
   816e8:	4798      	blx	r3
}
   816ea:	b003      	add	sp, #12
   816ec:	f85d fb04 	ldr.w	pc, [sp], #4
   816f0:	000816c9 	.word	0x000816c9

000816f4 <__aeabi_atexit>:
   816f4:	460b      	mov	r3, r1
   816f6:	4601      	mov	r1, r0
   816f8:	4618      	mov	r0, r3
   816fa:	f000 b805 	b.w	81708 <__cxa_atexit>
   816fe:	bf00      	nop

00081700 <_ZdlPvj>:
   81700:	f000 b800 	b.w	81704 <_ZdlPv>

00081704 <_ZdlPv>:
   81704:	f000 b83c 	b.w	81780 <free>

00081708 <__cxa_atexit>:
   81708:	4613      	mov	r3, r2
   8170a:	460a      	mov	r2, r1
   8170c:	4601      	mov	r1, r0
   8170e:	2002      	movs	r0, #2
   81710:	f000 bb74 	b.w	81dfc <__register_exitproc>

00081714 <__errno>:
   81714:	4b01      	ldr	r3, [pc, #4]	; (8171c <__errno+0x8>)
   81716:	6818      	ldr	r0, [r3, #0]
   81718:	4770      	bx	lr
   8171a:	bf00      	nop
   8171c:	20000050 	.word	0x20000050

00081720 <__libc_init_array>:
   81720:	b570      	push	{r4, r5, r6, lr}
   81722:	4e0f      	ldr	r6, [pc, #60]	; (81760 <__libc_init_array+0x40>)
   81724:	4d0f      	ldr	r5, [pc, #60]	; (81764 <__libc_init_array+0x44>)
   81726:	1b76      	subs	r6, r6, r5
   81728:	10b6      	asrs	r6, r6, #2
   8172a:	bf18      	it	ne
   8172c:	2400      	movne	r4, #0
   8172e:	d005      	beq.n	8173c <__libc_init_array+0x1c>
   81730:	3401      	adds	r4, #1
   81732:	f855 3b04 	ldr.w	r3, [r5], #4
   81736:	4798      	blx	r3
   81738:	42a6      	cmp	r6, r4
   8173a:	d1f9      	bne.n	81730 <__libc_init_array+0x10>
   8173c:	4e0a      	ldr	r6, [pc, #40]	; (81768 <__libc_init_array+0x48>)
   8173e:	4d0b      	ldr	r5, [pc, #44]	; (8176c <__libc_init_array+0x4c>)
   81740:	f000 fe84 	bl	8244c <_init>
   81744:	1b76      	subs	r6, r6, r5
   81746:	10b6      	asrs	r6, r6, #2
   81748:	bf18      	it	ne
   8174a:	2400      	movne	r4, #0
   8174c:	d006      	beq.n	8175c <__libc_init_array+0x3c>
   8174e:	3401      	adds	r4, #1
   81750:	f855 3b04 	ldr.w	r3, [r5], #4
   81754:	4798      	blx	r3
   81756:	42a6      	cmp	r6, r4
   81758:	d1f9      	bne.n	8174e <__libc_init_array+0x2e>
   8175a:	bd70      	pop	{r4, r5, r6, pc}
   8175c:	bd70      	pop	{r4, r5, r6, pc}
   8175e:	bf00      	nop
   81760:	00082458 	.word	0x00082458
   81764:	00082458 	.word	0x00082458
   81768:	00082478 	.word	0x00082478
   8176c:	00082458 	.word	0x00082458

00081770 <malloc>:
   81770:	4b02      	ldr	r3, [pc, #8]	; (8177c <malloc+0xc>)
   81772:	4601      	mov	r1, r0
   81774:	6818      	ldr	r0, [r3, #0]
   81776:	f000 b80b 	b.w	81790 <_malloc_r>
   8177a:	bf00      	nop
   8177c:	20000050 	.word	0x20000050

00081780 <free>:
   81780:	4b02      	ldr	r3, [pc, #8]	; (8178c <free+0xc>)
   81782:	4601      	mov	r1, r0
   81784:	6818      	ldr	r0, [r3, #0]
   81786:	f000 bc15 	b.w	81fb4 <_free_r>
   8178a:	bf00      	nop
   8178c:	20000050 	.word	0x20000050

00081790 <_malloc_r>:
   81790:	e92d 4ff0 	stmdb	sp!, {r4, r5, r6, r7, r8, r9, sl, fp, lr}
   81794:	f101 060b 	add.w	r6, r1, #11
   81798:	2e16      	cmp	r6, #22
   8179a:	b083      	sub	sp, #12
   8179c:	4605      	mov	r5, r0
   8179e:	f240 809e 	bls.w	818de <_malloc_r+0x14e>
   817a2:	f036 0607 	bics.w	r6, r6, #7
   817a6:	f100 80bd 	bmi.w	81924 <_malloc_r+0x194>
   817aa:	42b1      	cmp	r1, r6
   817ac:	f200 80ba 	bhi.w	81924 <_malloc_r+0x194>
   817b0:	f000 fb06 	bl	81dc0 <__malloc_lock>
   817b4:	f5b6 7ffc 	cmp.w	r6, #504	; 0x1f8
   817b8:	f0c0 8285 	bcc.w	81cc6 <_malloc_r+0x536>
   817bc:	0a73      	lsrs	r3, r6, #9
   817be:	f000 80b8 	beq.w	81932 <_malloc_r+0x1a2>
   817c2:	2b04      	cmp	r3, #4
   817c4:	f200 816c 	bhi.w	81aa0 <_malloc_r+0x310>
   817c8:	09b3      	lsrs	r3, r6, #6
   817ca:	f103 0039 	add.w	r0, r3, #57	; 0x39
   817ce:	f103 0e38 	add.w	lr, r3, #56	; 0x38
   817d2:	00c1      	lsls	r1, r0, #3
   817d4:	4fb8      	ldr	r7, [pc, #736]	; (81ab8 <_malloc_r+0x328>)
   817d6:	4439      	add	r1, r7
   817d8:	684c      	ldr	r4, [r1, #4]
   817da:	3908      	subs	r1, #8
   817dc:	42a1      	cmp	r1, r4
   817de:	d106      	bne.n	817ee <_malloc_r+0x5e>
   817e0:	e00c      	b.n	817fc <_malloc_r+0x6c>
   817e2:	2a00      	cmp	r2, #0
   817e4:	f280 80ab 	bge.w	8193e <_malloc_r+0x1ae>
   817e8:	68e4      	ldr	r4, [r4, #12]
   817ea:	42a1      	cmp	r1, r4
   817ec:	d006      	beq.n	817fc <_malloc_r+0x6c>
   817ee:	6863      	ldr	r3, [r4, #4]
   817f0:	f023 0303 	bic.w	r3, r3, #3
   817f4:	1b9a      	subs	r2, r3, r6
   817f6:	2a0f      	cmp	r2, #15
   817f8:	ddf3      	ble.n	817e2 <_malloc_r+0x52>
   817fa:	4670      	mov	r0, lr
   817fc:	693c      	ldr	r4, [r7, #16]
   817fe:	f8df e2cc 	ldr.w	lr, [pc, #716]	; 81acc <_malloc_r+0x33c>
   81802:	4574      	cmp	r4, lr
   81804:	f000 819e 	beq.w	81b44 <_malloc_r+0x3b4>
   81808:	6863      	ldr	r3, [r4, #4]
   8180a:	f023 0303 	bic.w	r3, r3, #3
   8180e:	1b9a      	subs	r2, r3, r6
   81810:	2a0f      	cmp	r2, #15
   81812:	f300 8183 	bgt.w	81b1c <_malloc_r+0x38c>
   81816:	2a00      	cmp	r2, #0
   81818:	f8c7 e014 	str.w	lr, [r7, #20]
   8181c:	f8c7 e010 	str.w	lr, [r7, #16]
   81820:	f280 8091 	bge.w	81946 <_malloc_r+0x1b6>
   81824:	f5b3 7f00 	cmp.w	r3, #512	; 0x200
   81828:	f080 8154 	bcs.w	81ad4 <_malloc_r+0x344>
   8182c:	2201      	movs	r2, #1
   8182e:	08db      	lsrs	r3, r3, #3
   81830:	6879      	ldr	r1, [r7, #4]
   81832:	ea4f 0ca3 	mov.w	ip, r3, asr #2
   81836:	4413      	add	r3, r2
   81838:	f857 8033 	ldr.w	r8, [r7, r3, lsl #3]
   8183c:	fa02 f20c 	lsl.w	r2, r2, ip
   81840:	eb07 0cc3 	add.w	ip, r7, r3, lsl #3
   81844:	430a      	orrs	r2, r1
   81846:	f1ac 0108 	sub.w	r1, ip, #8
   8184a:	60e1      	str	r1, [r4, #12]
   8184c:	f8c4 8008 	str.w	r8, [r4, #8]
   81850:	607a      	str	r2, [r7, #4]
   81852:	f847 4033 	str.w	r4, [r7, r3, lsl #3]
   81856:	f8c8 400c 	str.w	r4, [r8, #12]
   8185a:	2401      	movs	r4, #1
   8185c:	1083      	asrs	r3, r0, #2
   8185e:	409c      	lsls	r4, r3
   81860:	4294      	cmp	r4, r2
   81862:	d87d      	bhi.n	81960 <_malloc_r+0x1d0>
   81864:	4214      	tst	r4, r2
   81866:	d106      	bne.n	81876 <_malloc_r+0xe6>
   81868:	f020 0003 	bic.w	r0, r0, #3
   8186c:	0064      	lsls	r4, r4, #1
   8186e:	4214      	tst	r4, r2
   81870:	f100 0004 	add.w	r0, r0, #4
   81874:	d0fa      	beq.n	8186c <_malloc_r+0xdc>
   81876:	eb07 09c0 	add.w	r9, r7, r0, lsl #3
   8187a:	46cc      	mov	ip, r9
   8187c:	4680      	mov	r8, r0
   8187e:	f8dc 300c 	ldr.w	r3, [ip, #12]
   81882:	459c      	cmp	ip, r3
   81884:	d107      	bne.n	81896 <_malloc_r+0x106>
   81886:	e15f      	b.n	81b48 <_malloc_r+0x3b8>
   81888:	2a00      	cmp	r2, #0
   8188a:	f280 816d 	bge.w	81b68 <_malloc_r+0x3d8>
   8188e:	68db      	ldr	r3, [r3, #12]
   81890:	459c      	cmp	ip, r3
   81892:	f000 8159 	beq.w	81b48 <_malloc_r+0x3b8>
   81896:	6859      	ldr	r1, [r3, #4]
   81898:	f021 0103 	bic.w	r1, r1, #3
   8189c:	1b8a      	subs	r2, r1, r6
   8189e:	2a0f      	cmp	r2, #15
   818a0:	ddf2      	ble.n	81888 <_malloc_r+0xf8>
   818a2:	68dc      	ldr	r4, [r3, #12]
   818a4:	f8d3 c008 	ldr.w	ip, [r3, #8]
   818a8:	f046 0801 	orr.w	r8, r6, #1
   818ac:	4628      	mov	r0, r5
   818ae:	441e      	add	r6, r3
   818b0:	f042 0501 	orr.w	r5, r2, #1
   818b4:	f8c3 8004 	str.w	r8, [r3, #4]
   818b8:	f8cc 400c 	str.w	r4, [ip, #12]
   818bc:	f8c4 c008 	str.w	ip, [r4, #8]
   818c0:	617e      	str	r6, [r7, #20]
   818c2:	613e      	str	r6, [r7, #16]
   818c4:	f8c6 e00c 	str.w	lr, [r6, #12]
   818c8:	f8c6 e008 	str.w	lr, [r6, #8]
   818cc:	6075      	str	r5, [r6, #4]
   818ce:	505a      	str	r2, [r3, r1]
   818d0:	9300      	str	r3, [sp, #0]
   818d2:	f000 fa7b 	bl	81dcc <__malloc_unlock>
   818d6:	9b00      	ldr	r3, [sp, #0]
   818d8:	f103 0408 	add.w	r4, r3, #8
   818dc:	e01e      	b.n	8191c <_malloc_r+0x18c>
   818de:	2910      	cmp	r1, #16
   818e0:	d820      	bhi.n	81924 <_malloc_r+0x194>
   818e2:	f000 fa6d 	bl	81dc0 <__malloc_lock>
   818e6:	2610      	movs	r6, #16
   818e8:	2318      	movs	r3, #24
   818ea:	2002      	movs	r0, #2
   818ec:	4f72      	ldr	r7, [pc, #456]	; (81ab8 <_malloc_r+0x328>)
   818ee:	443b      	add	r3, r7
   818f0:	685c      	ldr	r4, [r3, #4]
   818f2:	f1a3 0208 	sub.w	r2, r3, #8
   818f6:	4294      	cmp	r4, r2
   818f8:	f000 812f 	beq.w	81b5a <_malloc_r+0x3ca>
   818fc:	6863      	ldr	r3, [r4, #4]
   818fe:	68e1      	ldr	r1, [r4, #12]
   81900:	f023 0303 	bic.w	r3, r3, #3
   81904:	4423      	add	r3, r4
   81906:	685a      	ldr	r2, [r3, #4]
   81908:	68a6      	ldr	r6, [r4, #8]
   8190a:	f042 0201 	orr.w	r2, r2, #1
   8190e:	60f1      	str	r1, [r6, #12]
   81910:	4628      	mov	r0, r5
   81912:	608e      	str	r6, [r1, #8]
   81914:	605a      	str	r2, [r3, #4]
   81916:	f000 fa59 	bl	81dcc <__malloc_unlock>
   8191a:	3408      	adds	r4, #8
   8191c:	4620      	mov	r0, r4
   8191e:	b003      	add	sp, #12
   81920:	e8bd 8ff0 	ldmia.w	sp!, {r4, r5, r6, r7, r8, r9, sl, fp, pc}
   81924:	2400      	movs	r4, #0
   81926:	230c      	movs	r3, #12
   81928:	4620      	mov	r0, r4
   8192a:	602b      	str	r3, [r5, #0]
   8192c:	b003      	add	sp, #12
   8192e:	e8bd 8ff0 	ldmia.w	sp!, {r4, r5, r6, r7, r8, r9, sl, fp, pc}
   81932:	2040      	movs	r0, #64	; 0x40
   81934:	f44f 7100 	mov.w	r1, #512	; 0x200
   81938:	f04f 0e3f 	mov.w	lr, #63	; 0x3f
   8193c:	e74a      	b.n	817d4 <_malloc_r+0x44>
   8193e:	4423      	add	r3, r4
   81940:	685a      	ldr	r2, [r3, #4]
   81942:	68e1      	ldr	r1, [r4, #12]
   81944:	e7e0      	b.n	81908 <_malloc_r+0x178>
   81946:	4423      	add	r3, r4
   81948:	685a      	ldr	r2, [r3, #4]
   8194a:	4628      	mov	r0, r5
   8194c:	f042 0201 	orr.w	r2, r2, #1
   81950:	605a      	str	r2, [r3, #4]
   81952:	3408      	adds	r4, #8
   81954:	f000 fa3a 	bl	81dcc <__malloc_unlock>
   81958:	4620      	mov	r0, r4
   8195a:	b003      	add	sp, #12
   8195c:	e8bd 8ff0 	ldmia.w	sp!, {r4, r5, r6, r7, r8, r9, sl, fp, pc}
   81960:	68bc      	ldr	r4, [r7, #8]
   81962:	6863      	ldr	r3, [r4, #4]
   81964:	f023 0803 	bic.w	r8, r3, #3
   81968:	45b0      	cmp	r8, r6
   8196a:	d304      	bcc.n	81976 <_malloc_r+0x1e6>
   8196c:	eba8 0306 	sub.w	r3, r8, r6
   81970:	2b0f      	cmp	r3, #15
   81972:	f300 8085 	bgt.w	81a80 <_malloc_r+0x2f0>
   81976:	f8df 9158 	ldr.w	r9, [pc, #344]	; 81ad0 <_malloc_r+0x340>
   8197a:	4b50      	ldr	r3, [pc, #320]	; (81abc <_malloc_r+0x32c>)
   8197c:	f8d9 2000 	ldr.w	r2, [r9]
   81980:	681b      	ldr	r3, [r3, #0]
   81982:	3201      	adds	r2, #1
   81984:	4433      	add	r3, r6
   81986:	eb04 0a08 	add.w	sl, r4, r8
   8198a:	f000 8154 	beq.w	81c36 <_malloc_r+0x4a6>
   8198e:	f503 5380 	add.w	r3, r3, #4096	; 0x1000
   81992:	330f      	adds	r3, #15
   81994:	f423 6b7f 	bic.w	fp, r3, #4080	; 0xff0
   81998:	f02b 0b0f 	bic.w	fp, fp, #15
   8199c:	4659      	mov	r1, fp
   8199e:	4628      	mov	r0, r5
   819a0:	f000 fa1a 	bl	81dd8 <_sbrk_r>
   819a4:	1c41      	adds	r1, r0, #1
   819a6:	4602      	mov	r2, r0
   819a8:	f000 80fb 	beq.w	81ba2 <_malloc_r+0x412>
   819ac:	4582      	cmp	sl, r0
   819ae:	f200 80f6 	bhi.w	81b9e <_malloc_r+0x40e>
   819b2:	4b43      	ldr	r3, [pc, #268]	; (81ac0 <_malloc_r+0x330>)
   819b4:	6819      	ldr	r1, [r3, #0]
   819b6:	4459      	add	r1, fp
   819b8:	6019      	str	r1, [r3, #0]
   819ba:	f000 814c 	beq.w	81c56 <_malloc_r+0x4c6>
   819be:	f8d9 0000 	ldr.w	r0, [r9]
   819c2:	3001      	adds	r0, #1
   819c4:	bf1b      	ittet	ne
   819c6:	eba2 0a0a 	subne.w	sl, r2, sl
   819ca:	4451      	addne	r1, sl
   819cc:	f8c9 2000 	streq.w	r2, [r9]
   819d0:	6019      	strne	r1, [r3, #0]
   819d2:	f012 0107 	ands.w	r1, r2, #7
   819d6:	f000 8114 	beq.w	81c02 <_malloc_r+0x472>
   819da:	f1c1 0008 	rsb	r0, r1, #8
   819de:	f5c1 5180 	rsb	r1, r1, #4096	; 0x1000
   819e2:	4402      	add	r2, r0
   819e4:	3108      	adds	r1, #8
   819e6:	eb02 090b 	add.w	r9, r2, fp
   819ea:	f3c9 090b 	ubfx	r9, r9, #0, #12
   819ee:	eba1 0909 	sub.w	r9, r1, r9
   819f2:	4649      	mov	r1, r9
   819f4:	4628      	mov	r0, r5
   819f6:	9301      	str	r3, [sp, #4]
   819f8:	9200      	str	r2, [sp, #0]
   819fa:	f000 f9ed 	bl	81dd8 <_sbrk_r>
   819fe:	1c43      	adds	r3, r0, #1
   81a00:	e89d 000c 	ldmia.w	sp, {r2, r3}
   81a04:	f000 8142 	beq.w	81c8c <_malloc_r+0x4fc>
   81a08:	1a80      	subs	r0, r0, r2
   81a0a:	4448      	add	r0, r9
   81a0c:	f040 0001 	orr.w	r0, r0, #1
   81a10:	6819      	ldr	r1, [r3, #0]
   81a12:	42bc      	cmp	r4, r7
   81a14:	4449      	add	r1, r9
   81a16:	60ba      	str	r2, [r7, #8]
   81a18:	6019      	str	r1, [r3, #0]
   81a1a:	6050      	str	r0, [r2, #4]
   81a1c:	d017      	beq.n	81a4e <_malloc_r+0x2be>
   81a1e:	f1b8 0f0f 	cmp.w	r8, #15
   81a22:	f240 80fa 	bls.w	81c1a <_malloc_r+0x48a>
   81a26:	f04f 0c05 	mov.w	ip, #5
   81a2a:	6862      	ldr	r2, [r4, #4]
   81a2c:	f1a8 000c 	sub.w	r0, r8, #12
   81a30:	f020 0007 	bic.w	r0, r0, #7
   81a34:	f002 0201 	and.w	r2, r2, #1
   81a38:	eb04 0e00 	add.w	lr, r4, r0
   81a3c:	4302      	orrs	r2, r0
   81a3e:	280f      	cmp	r0, #15
   81a40:	6062      	str	r2, [r4, #4]
   81a42:	f8ce c004 	str.w	ip, [lr, #4]
   81a46:	f8ce c008 	str.w	ip, [lr, #8]
   81a4a:	f200 8116 	bhi.w	81c7a <_malloc_r+0x4ea>
   81a4e:	4b1d      	ldr	r3, [pc, #116]	; (81ac4 <_malloc_r+0x334>)
   81a50:	68bc      	ldr	r4, [r7, #8]
   81a52:	681a      	ldr	r2, [r3, #0]
   81a54:	4291      	cmp	r1, r2
   81a56:	bf88      	it	hi
   81a58:	6019      	strhi	r1, [r3, #0]
   81a5a:	4b1b      	ldr	r3, [pc, #108]	; (81ac8 <_malloc_r+0x338>)
   81a5c:	681a      	ldr	r2, [r3, #0]
   81a5e:	4291      	cmp	r1, r2
   81a60:	6862      	ldr	r2, [r4, #4]
   81a62:	bf88      	it	hi
   81a64:	6019      	strhi	r1, [r3, #0]
   81a66:	f022 0203 	bic.w	r2, r2, #3
   81a6a:	4296      	cmp	r6, r2
   81a6c:	eba2 0306 	sub.w	r3, r2, r6
   81a70:	d801      	bhi.n	81a76 <_malloc_r+0x2e6>
   81a72:	2b0f      	cmp	r3, #15
   81a74:	dc04      	bgt.n	81a80 <_malloc_r+0x2f0>
   81a76:	4628      	mov	r0, r5
   81a78:	f000 f9a8 	bl	81dcc <__malloc_unlock>
   81a7c:	2400      	movs	r4, #0
   81a7e:	e74d      	b.n	8191c <_malloc_r+0x18c>
   81a80:	f046 0201 	orr.w	r2, r6, #1
   81a84:	f043 0301 	orr.w	r3, r3, #1
   81a88:	4426      	add	r6, r4
   81a8a:	6062      	str	r2, [r4, #4]
   81a8c:	4628      	mov	r0, r5
   81a8e:	60be      	str	r6, [r7, #8]
   81a90:	3408      	adds	r4, #8
   81a92:	6073      	str	r3, [r6, #4]
   81a94:	f000 f99a 	bl	81dcc <__malloc_unlock>
   81a98:	4620      	mov	r0, r4
   81a9a:	b003      	add	sp, #12
   81a9c:	e8bd 8ff0 	ldmia.w	sp!, {r4, r5, r6, r7, r8, r9, sl, fp, pc}
   81aa0:	2b14      	cmp	r3, #20
   81aa2:	d970      	bls.n	81b86 <_malloc_r+0x3f6>
   81aa4:	2b54      	cmp	r3, #84	; 0x54
   81aa6:	f200 80a2 	bhi.w	81bee <_malloc_r+0x45e>
   81aaa:	0b33      	lsrs	r3, r6, #12
   81aac:	f103 006f 	add.w	r0, r3, #111	; 0x6f
   81ab0:	f103 0e6e 	add.w	lr, r3, #110	; 0x6e
   81ab4:	00c1      	lsls	r1, r0, #3
   81ab6:	e68d      	b.n	817d4 <_malloc_r+0x44>
   81ab8:	20000480 	.word	0x20000480
   81abc:	20000b74 	.word	0x20000b74
   81ac0:	20000b44 	.word	0x20000b44
   81ac4:	20000b6c 	.word	0x20000b6c
   81ac8:	20000b70 	.word	0x20000b70
   81acc:	20000488 	.word	0x20000488
   81ad0:	20000888 	.word	0x20000888
   81ad4:	0a5a      	lsrs	r2, r3, #9
   81ad6:	2a04      	cmp	r2, #4
   81ad8:	d95b      	bls.n	81b92 <_malloc_r+0x402>
   81ada:	2a14      	cmp	r2, #20
   81adc:	f200 80ae 	bhi.w	81c3c <_malloc_r+0x4ac>
   81ae0:	f102 015c 	add.w	r1, r2, #92	; 0x5c
   81ae4:	00c9      	lsls	r1, r1, #3
   81ae6:	325b      	adds	r2, #91	; 0x5b
   81ae8:	eb07 0c01 	add.w	ip, r7, r1
   81aec:	5879      	ldr	r1, [r7, r1]
   81aee:	f1ac 0c08 	sub.w	ip, ip, #8
   81af2:	458c      	cmp	ip, r1
   81af4:	f000 8088 	beq.w	81c08 <_malloc_r+0x478>
   81af8:	684a      	ldr	r2, [r1, #4]
   81afa:	f022 0203 	bic.w	r2, r2, #3
   81afe:	4293      	cmp	r3, r2
   81b00:	d273      	bcs.n	81bea <_malloc_r+0x45a>
   81b02:	6889      	ldr	r1, [r1, #8]
   81b04:	458c      	cmp	ip, r1
   81b06:	d1f7      	bne.n	81af8 <_malloc_r+0x368>
   81b08:	f8dc 300c 	ldr.w	r3, [ip, #12]
   81b0c:	687a      	ldr	r2, [r7, #4]
   81b0e:	60e3      	str	r3, [r4, #12]
   81b10:	f8c4 c008 	str.w	ip, [r4, #8]
   81b14:	609c      	str	r4, [r3, #8]
   81b16:	f8cc 400c 	str.w	r4, [ip, #12]
   81b1a:	e69e      	b.n	8185a <_malloc_r+0xca>
   81b1c:	f046 0c01 	orr.w	ip, r6, #1
   81b20:	f042 0101 	orr.w	r1, r2, #1
   81b24:	4426      	add	r6, r4
   81b26:	f8c4 c004 	str.w	ip, [r4, #4]
   81b2a:	4628      	mov	r0, r5
   81b2c:	617e      	str	r6, [r7, #20]
   81b2e:	613e      	str	r6, [r7, #16]
   81b30:	f8c6 e00c 	str.w	lr, [r6, #12]
   81b34:	f8c6 e008 	str.w	lr, [r6, #8]
   81b38:	6071      	str	r1, [r6, #4]
   81b3a:	50e2      	str	r2, [r4, r3]
   81b3c:	f000 f946 	bl	81dcc <__malloc_unlock>
   81b40:	3408      	adds	r4, #8
   81b42:	e6eb      	b.n	8191c <_malloc_r+0x18c>
   81b44:	687a      	ldr	r2, [r7, #4]
   81b46:	e688      	b.n	8185a <_malloc_r+0xca>
   81b48:	f108 0801 	add.w	r8, r8, #1
   81b4c:	f018 0f03 	tst.w	r8, #3
   81b50:	f10c 0c08 	add.w	ip, ip, #8
   81b54:	f47f ae93 	bne.w	8187e <_malloc_r+0xee>
   81b58:	e02d      	b.n	81bb6 <_malloc_r+0x426>
   81b5a:	68dc      	ldr	r4, [r3, #12]
   81b5c:	42a3      	cmp	r3, r4
   81b5e:	bf08      	it	eq
   81b60:	3002      	addeq	r0, #2
   81b62:	f43f ae4b 	beq.w	817fc <_malloc_r+0x6c>
   81b66:	e6c9      	b.n	818fc <_malloc_r+0x16c>
   81b68:	461c      	mov	r4, r3
   81b6a:	4419      	add	r1, r3
   81b6c:	684a      	ldr	r2, [r1, #4]
   81b6e:	68db      	ldr	r3, [r3, #12]
   81b70:	f854 6f08 	ldr.w	r6, [r4, #8]!
   81b74:	f042 0201 	orr.w	r2, r2, #1
   81b78:	604a      	str	r2, [r1, #4]
   81b7a:	4628      	mov	r0, r5
   81b7c:	60f3      	str	r3, [r6, #12]
   81b7e:	609e      	str	r6, [r3, #8]
   81b80:	f000 f924 	bl	81dcc <__malloc_unlock>
   81b84:	e6ca      	b.n	8191c <_malloc_r+0x18c>
   81b86:	f103 005c 	add.w	r0, r3, #92	; 0x5c
   81b8a:	f103 0e5b 	add.w	lr, r3, #91	; 0x5b
   81b8e:	00c1      	lsls	r1, r0, #3
   81b90:	e620      	b.n	817d4 <_malloc_r+0x44>
   81b92:	099a      	lsrs	r2, r3, #6
   81b94:	f102 0139 	add.w	r1, r2, #57	; 0x39
   81b98:	00c9      	lsls	r1, r1, #3
   81b9a:	3238      	adds	r2, #56	; 0x38
   81b9c:	e7a4      	b.n	81ae8 <_malloc_r+0x358>
   81b9e:	42bc      	cmp	r4, r7
   81ba0:	d054      	beq.n	81c4c <_malloc_r+0x4bc>
   81ba2:	68bc      	ldr	r4, [r7, #8]
   81ba4:	6862      	ldr	r2, [r4, #4]
   81ba6:	f022 0203 	bic.w	r2, r2, #3
   81baa:	e75e      	b.n	81a6a <_malloc_r+0x2da>
   81bac:	f859 3908 	ldr.w	r3, [r9], #-8
   81bb0:	4599      	cmp	r9, r3
   81bb2:	f040 8086 	bne.w	81cc2 <_malloc_r+0x532>
   81bb6:	f010 0f03 	tst.w	r0, #3
   81bba:	f100 30ff 	add.w	r0, r0, #4294967295
   81bbe:	d1f5      	bne.n	81bac <_malloc_r+0x41c>
   81bc0:	687b      	ldr	r3, [r7, #4]
   81bc2:	ea23 0304 	bic.w	r3, r3, r4
   81bc6:	607b      	str	r3, [r7, #4]
   81bc8:	0064      	lsls	r4, r4, #1
   81bca:	429c      	cmp	r4, r3
   81bcc:	f63f aec8 	bhi.w	81960 <_malloc_r+0x1d0>
   81bd0:	2c00      	cmp	r4, #0
   81bd2:	f43f aec5 	beq.w	81960 <_malloc_r+0x1d0>
   81bd6:	421c      	tst	r4, r3
   81bd8:	4640      	mov	r0, r8
   81bda:	f47f ae4c 	bne.w	81876 <_malloc_r+0xe6>
   81bde:	0064      	lsls	r4, r4, #1
   81be0:	421c      	tst	r4, r3
   81be2:	f100 0004 	add.w	r0, r0, #4
   81be6:	d0fa      	beq.n	81bde <_malloc_r+0x44e>
   81be8:	e645      	b.n	81876 <_malloc_r+0xe6>
   81bea:	468c      	mov	ip, r1
   81bec:	e78c      	b.n	81b08 <_malloc_r+0x378>
   81bee:	f5b3 7faa 	cmp.w	r3, #340	; 0x154
   81bf2:	d815      	bhi.n	81c20 <_malloc_r+0x490>
   81bf4:	0bf3      	lsrs	r3, r6, #15
   81bf6:	f103 0078 	add.w	r0, r3, #120	; 0x78
   81bfa:	f103 0e77 	add.w	lr, r3, #119	; 0x77
   81bfe:	00c1      	lsls	r1, r0, #3
   81c00:	e5e8      	b.n	817d4 <_malloc_r+0x44>
   81c02:	f44f 5180 	mov.w	r1, #4096	; 0x1000
   81c06:	e6ee      	b.n	819e6 <_malloc_r+0x256>
   81c08:	2101      	movs	r1, #1
   81c0a:	687b      	ldr	r3, [r7, #4]
   81c0c:	1092      	asrs	r2, r2, #2
   81c0e:	fa01 f202 	lsl.w	r2, r1, r2
   81c12:	431a      	orrs	r2, r3
   81c14:	607a      	str	r2, [r7, #4]
   81c16:	4663      	mov	r3, ip
   81c18:	e779      	b.n	81b0e <_malloc_r+0x37e>
   81c1a:	2301      	movs	r3, #1
   81c1c:	6053      	str	r3, [r2, #4]
   81c1e:	e72a      	b.n	81a76 <_malloc_r+0x2e6>
   81c20:	f240 5254 	movw	r2, #1364	; 0x554
   81c24:	4293      	cmp	r3, r2
   81c26:	d822      	bhi.n	81c6e <_malloc_r+0x4de>
   81c28:	0cb3      	lsrs	r3, r6, #18
   81c2a:	f103 007d 	add.w	r0, r3, #125	; 0x7d
   81c2e:	f103 0e7c 	add.w	lr, r3, #124	; 0x7c
   81c32:	00c1      	lsls	r1, r0, #3
   81c34:	e5ce      	b.n	817d4 <_malloc_r+0x44>
   81c36:	f103 0b10 	add.w	fp, r3, #16
   81c3a:	e6af      	b.n	8199c <_malloc_r+0x20c>
   81c3c:	2a54      	cmp	r2, #84	; 0x54
   81c3e:	d829      	bhi.n	81c94 <_malloc_r+0x504>
   81c40:	0b1a      	lsrs	r2, r3, #12
   81c42:	f102 016f 	add.w	r1, r2, #111	; 0x6f
   81c46:	00c9      	lsls	r1, r1, #3
   81c48:	326e      	adds	r2, #110	; 0x6e
   81c4a:	e74d      	b.n	81ae8 <_malloc_r+0x358>
   81c4c:	4b20      	ldr	r3, [pc, #128]	; (81cd0 <_malloc_r+0x540>)
   81c4e:	6819      	ldr	r1, [r3, #0]
   81c50:	4459      	add	r1, fp
   81c52:	6019      	str	r1, [r3, #0]
   81c54:	e6b3      	b.n	819be <_malloc_r+0x22e>
   81c56:	f3ca 000b 	ubfx	r0, sl, #0, #12
   81c5a:	2800      	cmp	r0, #0
   81c5c:	f47f aeaf 	bne.w	819be <_malloc_r+0x22e>
   81c60:	eb08 030b 	add.w	r3, r8, fp
   81c64:	68ba      	ldr	r2, [r7, #8]
   81c66:	f043 0301 	orr.w	r3, r3, #1
   81c6a:	6053      	str	r3, [r2, #4]
   81c6c:	e6ef      	b.n	81a4e <_malloc_r+0x2be>
   81c6e:	207f      	movs	r0, #127	; 0x7f
   81c70:	f44f 717e 	mov.w	r1, #1016	; 0x3f8
   81c74:	f04f 0e7e 	mov.w	lr, #126	; 0x7e
   81c78:	e5ac      	b.n	817d4 <_malloc_r+0x44>
   81c7a:	f104 0108 	add.w	r1, r4, #8
   81c7e:	4628      	mov	r0, r5
   81c80:	9300      	str	r3, [sp, #0]
   81c82:	f000 f997 	bl	81fb4 <_free_r>
   81c86:	9b00      	ldr	r3, [sp, #0]
   81c88:	6819      	ldr	r1, [r3, #0]
   81c8a:	e6e0      	b.n	81a4e <_malloc_r+0x2be>
   81c8c:	2001      	movs	r0, #1
   81c8e:	f04f 0900 	mov.w	r9, #0
   81c92:	e6bd      	b.n	81a10 <_malloc_r+0x280>
   81c94:	f5b2 7faa 	cmp.w	r2, #340	; 0x154
   81c98:	d805      	bhi.n	81ca6 <_malloc_r+0x516>
   81c9a:	0bda      	lsrs	r2, r3, #15
   81c9c:	f102 0178 	add.w	r1, r2, #120	; 0x78
   81ca0:	00c9      	lsls	r1, r1, #3
   81ca2:	3277      	adds	r2, #119	; 0x77
   81ca4:	e720      	b.n	81ae8 <_malloc_r+0x358>
   81ca6:	f240 5154 	movw	r1, #1364	; 0x554
   81caa:	428a      	cmp	r2, r1
   81cac:	d805      	bhi.n	81cba <_malloc_r+0x52a>
   81cae:	0c9a      	lsrs	r2, r3, #18
   81cb0:	f102 017d 	add.w	r1, r2, #125	; 0x7d
   81cb4:	00c9      	lsls	r1, r1, #3
   81cb6:	327c      	adds	r2, #124	; 0x7c
   81cb8:	e716      	b.n	81ae8 <_malloc_r+0x358>
   81cba:	f44f 717e 	mov.w	r1, #1016	; 0x3f8
   81cbe:	227e      	movs	r2, #126	; 0x7e
   81cc0:	e712      	b.n	81ae8 <_malloc_r+0x358>
   81cc2:	687b      	ldr	r3, [r7, #4]
   81cc4:	e780      	b.n	81bc8 <_malloc_r+0x438>
   81cc6:	08f0      	lsrs	r0, r6, #3
   81cc8:	f106 0308 	add.w	r3, r6, #8
   81ccc:	e60e      	b.n	818ec <_malloc_r+0x15c>
   81cce:	bf00      	nop
   81cd0:	20000b44 	.word	0x20000b44

00081cd4 <memcpy>:
   81cd4:	4684      	mov	ip, r0
   81cd6:	ea41 0300 	orr.w	r3, r1, r0
   81cda:	f013 0303 	ands.w	r3, r3, #3
   81cde:	d149      	bne.n	81d74 <memcpy+0xa0>
   81ce0:	3a40      	subs	r2, #64	; 0x40
   81ce2:	d323      	bcc.n	81d2c <memcpy+0x58>
   81ce4:	680b      	ldr	r3, [r1, #0]
   81ce6:	6003      	str	r3, [r0, #0]
   81ce8:	684b      	ldr	r3, [r1, #4]
   81cea:	6043      	str	r3, [r0, #4]
   81cec:	688b      	ldr	r3, [r1, #8]
   81cee:	6083      	str	r3, [r0, #8]
   81cf0:	68cb      	ldr	r3, [r1, #12]
   81cf2:	60c3      	str	r3, [r0, #12]
   81cf4:	690b      	ldr	r3, [r1, #16]
   81cf6:	6103      	str	r3, [r0, #16]
   81cf8:	694b      	ldr	r3, [r1, #20]
   81cfa:	6143      	str	r3, [r0, #20]
   81cfc:	698b      	ldr	r3, [r1, #24]
   81cfe:	6183      	str	r3, [r0, #24]
   81d00:	69cb      	ldr	r3, [r1, #28]
   81d02:	61c3      	str	r3, [r0, #28]
   81d04:	6a0b      	ldr	r3, [r1, #32]
   81d06:	6203      	str	r3, [r0, #32]
   81d08:	6a4b      	ldr	r3, [r1, #36]	; 0x24
   81d0a:	6243      	str	r3, [r0, #36]	; 0x24
   81d0c:	6a8b      	ldr	r3, [r1, #40]	; 0x28
   81d0e:	6283      	str	r3, [r0, #40]	; 0x28
   81d10:	6acb      	ldr	r3, [r1, #44]	; 0x2c
   81d12:	62c3      	str	r3, [r0, #44]	; 0x2c
   81d14:	6b0b      	ldr	r3, [r1, #48]	; 0x30
   81d16:	6303      	str	r3, [r0, #48]	; 0x30
   81d18:	6b4b      	ldr	r3, [r1, #52]	; 0x34
   81d1a:	6343      	str	r3, [r0, #52]	; 0x34
   81d1c:	6b8b      	ldr	r3, [r1, #56]	; 0x38
   81d1e:	6383      	str	r3, [r0, #56]	; 0x38
   81d20:	6bcb      	ldr	r3, [r1, #60]	; 0x3c
   81d22:	63c3      	str	r3, [r0, #60]	; 0x3c
   81d24:	3040      	adds	r0, #64	; 0x40
   81d26:	3140      	adds	r1, #64	; 0x40
   81d28:	3a40      	subs	r2, #64	; 0x40
   81d2a:	d2db      	bcs.n	81ce4 <memcpy+0x10>
   81d2c:	3230      	adds	r2, #48	; 0x30
   81d2e:	d30b      	bcc.n	81d48 <memcpy+0x74>
   81d30:	680b      	ldr	r3, [r1, #0]
   81d32:	6003      	str	r3, [r0, #0]
   81d34:	684b      	ldr	r3, [r1, #4]
   81d36:	6043      	str	r3, [r0, #4]
   81d38:	688b      	ldr	r3, [r1, #8]
   81d3a:	6083      	str	r3, [r0, #8]
   81d3c:	68cb      	ldr	r3, [r1, #12]
   81d3e:	60c3      	str	r3, [r0, #12]
   81d40:	3010      	adds	r0, #16
   81d42:	3110      	adds	r1, #16
   81d44:	3a10      	subs	r2, #16
   81d46:	d2f3      	bcs.n	81d30 <memcpy+0x5c>
   81d48:	320c      	adds	r2, #12
   81d4a:	d305      	bcc.n	81d58 <memcpy+0x84>
   81d4c:	f851 3b04 	ldr.w	r3, [r1], #4
   81d50:	f840 3b04 	str.w	r3, [r0], #4
   81d54:	3a04      	subs	r2, #4
   81d56:	d2f9      	bcs.n	81d4c <memcpy+0x78>
   81d58:	3204      	adds	r2, #4
   81d5a:	d008      	beq.n	81d6e <memcpy+0x9a>
   81d5c:	07d2      	lsls	r2, r2, #31
   81d5e:	bf1c      	itt	ne
   81d60:	f811 3b01 	ldrbne.w	r3, [r1], #1
   81d64:	f800 3b01 	strbne.w	r3, [r0], #1
   81d68:	d301      	bcc.n	81d6e <memcpy+0x9a>
   81d6a:	880b      	ldrh	r3, [r1, #0]
   81d6c:	8003      	strh	r3, [r0, #0]
   81d6e:	4660      	mov	r0, ip
   81d70:	4770      	bx	lr
   81d72:	bf00      	nop
   81d74:	2a08      	cmp	r2, #8
   81d76:	d313      	bcc.n	81da0 <memcpy+0xcc>
   81d78:	078b      	lsls	r3, r1, #30
   81d7a:	d0b1      	beq.n	81ce0 <memcpy+0xc>
   81d7c:	f010 0303 	ands.w	r3, r0, #3
   81d80:	d0ae      	beq.n	81ce0 <memcpy+0xc>
   81d82:	f1c3 0304 	rsb	r3, r3, #4
   81d86:	1ad2      	subs	r2, r2, r3
   81d88:	07db      	lsls	r3, r3, #31
   81d8a:	bf1c      	itt	ne
   81d8c:	f811 3b01 	ldrbne.w	r3, [r1], #1
   81d90:	f800 3b01 	strbne.w	r3, [r0], #1
   81d94:	d3a4      	bcc.n	81ce0 <memcpy+0xc>
   81d96:	f831 3b02 	ldrh.w	r3, [r1], #2
   81d9a:	f820 3b02 	strh.w	r3, [r0], #2
   81d9e:	e79f      	b.n	81ce0 <memcpy+0xc>
   81da0:	3a04      	subs	r2, #4
   81da2:	d3d9      	bcc.n	81d58 <memcpy+0x84>
   81da4:	3a01      	subs	r2, #1
   81da6:	f811 3b01 	ldrb.w	r3, [r1], #1
   81daa:	f800 3b01 	strb.w	r3, [r0], #1
   81dae:	d2f9      	bcs.n	81da4 <memcpy+0xd0>
   81db0:	780b      	ldrb	r3, [r1, #0]
   81db2:	7003      	strb	r3, [r0, #0]
   81db4:	784b      	ldrb	r3, [r1, #1]
   81db6:	7043      	strb	r3, [r0, #1]
   81db8:	788b      	ldrb	r3, [r1, #2]
   81dba:	7083      	strb	r3, [r0, #2]
   81dbc:	4660      	mov	r0, ip
   81dbe:	4770      	bx	lr

00081dc0 <__malloc_lock>:
   81dc0:	4801      	ldr	r0, [pc, #4]	; (81dc8 <__malloc_lock+0x8>)
   81dc2:	f000 b9dd 	b.w	82180 <__retarget_lock_acquire_recursive>
   81dc6:	bf00      	nop
   81dc8:	20000b88 	.word	0x20000b88

00081dcc <__malloc_unlock>:
   81dcc:	4801      	ldr	r0, [pc, #4]	; (81dd4 <__malloc_unlock+0x8>)
   81dce:	f000 b9d9 	b.w	82184 <__retarget_lock_release_recursive>
   81dd2:	bf00      	nop
   81dd4:	20000b88 	.word	0x20000b88

00081dd8 <_sbrk_r>:
   81dd8:	b538      	push	{r3, r4, r5, lr}
   81dda:	2300      	movs	r3, #0
   81ddc:	4c06      	ldr	r4, [pc, #24]	; (81df8 <_sbrk_r+0x20>)
   81dde:	4605      	mov	r5, r0
   81de0:	4608      	mov	r0, r1
   81de2:	6023      	str	r3, [r4, #0]
   81de4:	f7ff fc48 	bl	81678 <_sbrk>
   81de8:	1c43      	adds	r3, r0, #1
   81dea:	d000      	beq.n	81dee <_sbrk_r+0x16>
   81dec:	bd38      	pop	{r3, r4, r5, pc}
   81dee:	6823      	ldr	r3, [r4, #0]
   81df0:	2b00      	cmp	r3, #0
   81df2:	d0fb      	beq.n	81dec <_sbrk_r+0x14>
   81df4:	602b      	str	r3, [r5, #0]
   81df6:	bd38      	pop	{r3, r4, r5, pc}
   81df8:	20000b9c 	.word	0x20000b9c

00081dfc <__register_exitproc>:
   81dfc:	e92d 43f8 	stmdb	sp!, {r3, r4, r5, r6, r7, r8, r9, lr}
   81e00:	4d2c      	ldr	r5, [pc, #176]	; (81eb4 <__register_exitproc+0xb8>)
   81e02:	4606      	mov	r6, r0
   81e04:	6828      	ldr	r0, [r5, #0]
   81e06:	4698      	mov	r8, r3
   81e08:	460f      	mov	r7, r1
   81e0a:	4691      	mov	r9, r2
   81e0c:	f000 f9b8 	bl	82180 <__retarget_lock_acquire_recursive>
   81e10:	4b29      	ldr	r3, [pc, #164]	; (81eb8 <__register_exitproc+0xbc>)
   81e12:	681c      	ldr	r4, [r3, #0]
   81e14:	f8d4 3148 	ldr.w	r3, [r4, #328]	; 0x148
   81e18:	2b00      	cmp	r3, #0
   81e1a:	d03e      	beq.n	81e9a <__register_exitproc+0x9e>
   81e1c:	685a      	ldr	r2, [r3, #4]
   81e1e:	2a1f      	cmp	r2, #31
   81e20:	dc1c      	bgt.n	81e5c <__register_exitproc+0x60>
   81e22:	f102 0e01 	add.w	lr, r2, #1
   81e26:	b176      	cbz	r6, 81e46 <__register_exitproc+0x4a>
   81e28:	2101      	movs	r1, #1
   81e2a:	eb03 0482 	add.w	r4, r3, r2, lsl #2
   81e2e:	f8c4 9088 	str.w	r9, [r4, #136]	; 0x88
   81e32:	f8d3 0188 	ldr.w	r0, [r3, #392]	; 0x188
   81e36:	4091      	lsls	r1, r2
   81e38:	4308      	orrs	r0, r1
   81e3a:	2e02      	cmp	r6, #2
   81e3c:	f8c3 0188 	str.w	r0, [r3, #392]	; 0x188
   81e40:	f8c4 8108 	str.w	r8, [r4, #264]	; 0x108
   81e44:	d023      	beq.n	81e8e <__register_exitproc+0x92>
   81e46:	3202      	adds	r2, #2
   81e48:	f8c3 e004 	str.w	lr, [r3, #4]
   81e4c:	6828      	ldr	r0, [r5, #0]
   81e4e:	f843 7022 	str.w	r7, [r3, r2, lsl #2]
   81e52:	f000 f997 	bl	82184 <__retarget_lock_release_recursive>
   81e56:	2000      	movs	r0, #0
   81e58:	e8bd 83f8 	ldmia.w	sp!, {r3, r4, r5, r6, r7, r8, r9, pc}
   81e5c:	4b17      	ldr	r3, [pc, #92]	; (81ebc <__register_exitproc+0xc0>)
   81e5e:	b30b      	cbz	r3, 81ea4 <__register_exitproc+0xa8>
   81e60:	f44f 70c8 	mov.w	r0, #400	; 0x190
   81e64:	f7ff fc84 	bl	81770 <malloc>
   81e68:	4603      	mov	r3, r0
   81e6a:	b1d8      	cbz	r0, 81ea4 <__register_exitproc+0xa8>
   81e6c:	2000      	movs	r0, #0
   81e6e:	f8d4 1148 	ldr.w	r1, [r4, #328]	; 0x148
   81e72:	f04f 0e01 	mov.w	lr, #1
   81e76:	6058      	str	r0, [r3, #4]
   81e78:	6019      	str	r1, [r3, #0]
   81e7a:	4602      	mov	r2, r0
   81e7c:	f8c4 3148 	str.w	r3, [r4, #328]	; 0x148
   81e80:	f8c3 0188 	str.w	r0, [r3, #392]	; 0x188
   81e84:	f8c3 018c 	str.w	r0, [r3, #396]	; 0x18c
   81e88:	2e00      	cmp	r6, #0
   81e8a:	d0dc      	beq.n	81e46 <__register_exitproc+0x4a>
   81e8c:	e7cc      	b.n	81e28 <__register_exitproc+0x2c>
   81e8e:	f8d3 018c 	ldr.w	r0, [r3, #396]	; 0x18c
   81e92:	4301      	orrs	r1, r0
   81e94:	f8c3 118c 	str.w	r1, [r3, #396]	; 0x18c
   81e98:	e7d5      	b.n	81e46 <__register_exitproc+0x4a>
   81e9a:	f504 73a6 	add.w	r3, r4, #332	; 0x14c
   81e9e:	f8c4 3148 	str.w	r3, [r4, #328]	; 0x148
   81ea2:	e7bb      	b.n	81e1c <__register_exitproc+0x20>
   81ea4:	6828      	ldr	r0, [r5, #0]
   81ea6:	f000 f96d 	bl	82184 <__retarget_lock_release_recursive>
   81eaa:	f04f 30ff 	mov.w	r0, #4294967295
   81eae:	e8bd 83f8 	ldmia.w	sp!, {r3, r4, r5, r6, r7, r8, r9, pc}
   81eb2:	bf00      	nop
   81eb4:	20000890 	.word	0x20000890
   81eb8:	00082448 	.word	0x00082448
   81ebc:	00081771 	.word	0x00081771

00081ec0 <register_fini>:
   81ec0:	4b02      	ldr	r3, [pc, #8]	; (81ecc <register_fini+0xc>)
   81ec2:	b113      	cbz	r3, 81eca <register_fini+0xa>
   81ec4:	4802      	ldr	r0, [pc, #8]	; (81ed0 <register_fini+0x10>)
   81ec6:	f000 b805 	b.w	81ed4 <atexit>
   81eca:	4770      	bx	lr
   81ecc:	00000000 	.word	0x00000000
   81ed0:	00081ee1 	.word	0x00081ee1

00081ed4 <atexit>:
   81ed4:	2300      	movs	r3, #0
   81ed6:	4601      	mov	r1, r0
   81ed8:	461a      	mov	r2, r3
   81eda:	4618      	mov	r0, r3
   81edc:	f7ff bf8e 	b.w	81dfc <__register_exitproc>

00081ee0 <__libc_fini_array>:
   81ee0:	b538      	push	{r3, r4, r5, lr}
   81ee2:	4c0a      	ldr	r4, [pc, #40]	; (81f0c <__libc_fini_array+0x2c>)
   81ee4:	4d0a      	ldr	r5, [pc, #40]	; (81f10 <__libc_fini_array+0x30>)
   81ee6:	1b64      	subs	r4, r4, r5
   81ee8:	10a4      	asrs	r4, r4, #2
   81eea:	d00a      	beq.n	81f02 <__libc_fini_array+0x22>
   81eec:	f104 4380 	add.w	r3, r4, #1073741824	; 0x40000000
   81ef0:	3b01      	subs	r3, #1
   81ef2:	eb05 0583 	add.w	r5, r5, r3, lsl #2
   81ef6:	3c01      	subs	r4, #1
   81ef8:	f855 3904 	ldr.w	r3, [r5], #-4
   81efc:	4798      	blx	r3
   81efe:	2c00      	cmp	r4, #0
   81f00:	d1f9      	bne.n	81ef6 <__libc_fini_array+0x16>
   81f02:	e8bd 4038 	ldmia.w	sp!, {r3, r4, r5, lr}
   81f06:	f000 bab7 	b.w	82478 <_fini>
   81f0a:	bf00      	nop
   81f0c:	00082488 	.word	0x00082488
   81f10:	00082484 	.word	0x00082484

00081f14 <_malloc_trim_r>:
   81f14:	b5f8      	push	{r3, r4, r5, r6, r7, lr}
   81f16:	460c      	mov	r4, r1
   81f18:	4f23      	ldr	r7, [pc, #140]	; (81fa8 <_malloc_trim_r+0x94>)
   81f1a:	4606      	mov	r6, r0
   81f1c:	f7ff ff50 	bl	81dc0 <__malloc_lock>
   81f20:	68bb      	ldr	r3, [r7, #8]
   81f22:	f5c4 617e 	rsb	r1, r4, #4064	; 0xfe0
   81f26:	685d      	ldr	r5, [r3, #4]
   81f28:	310f      	adds	r1, #15
   81f2a:	f025 0503 	bic.w	r5, r5, #3
   81f2e:	4429      	add	r1, r5
   81f30:	f421 617f 	bic.w	r1, r1, #4080	; 0xff0
   81f34:	f021 010f 	bic.w	r1, r1, #15
   81f38:	f5a1 5480 	sub.w	r4, r1, #4096	; 0x1000
   81f3c:	f5b4 5f80 	cmp.w	r4, #4096	; 0x1000
   81f40:	db07      	blt.n	81f52 <_malloc_trim_r+0x3e>
   81f42:	2100      	movs	r1, #0
   81f44:	4630      	mov	r0, r6
   81f46:	f7ff ff47 	bl	81dd8 <_sbrk_r>
   81f4a:	68bb      	ldr	r3, [r7, #8]
   81f4c:	442b      	add	r3, r5
   81f4e:	4298      	cmp	r0, r3
   81f50:	d004      	beq.n	81f5c <_malloc_trim_r+0x48>
   81f52:	4630      	mov	r0, r6
   81f54:	f7ff ff3a 	bl	81dcc <__malloc_unlock>
   81f58:	2000      	movs	r0, #0
   81f5a:	bdf8      	pop	{r3, r4, r5, r6, r7, pc}
   81f5c:	4261      	negs	r1, r4
   81f5e:	4630      	mov	r0, r6
   81f60:	f7ff ff3a 	bl	81dd8 <_sbrk_r>
   81f64:	3001      	adds	r0, #1
   81f66:	d00d      	beq.n	81f84 <_malloc_trim_r+0x70>
   81f68:	4b10      	ldr	r3, [pc, #64]	; (81fac <_malloc_trim_r+0x98>)
   81f6a:	68ba      	ldr	r2, [r7, #8]
   81f6c:	6819      	ldr	r1, [r3, #0]
   81f6e:	1b2d      	subs	r5, r5, r4
   81f70:	f045 0501 	orr.w	r5, r5, #1
   81f74:	4630      	mov	r0, r6
   81f76:	1b09      	subs	r1, r1, r4
   81f78:	6055      	str	r5, [r2, #4]
   81f7a:	6019      	str	r1, [r3, #0]
   81f7c:	f7ff ff26 	bl	81dcc <__malloc_unlock>
   81f80:	2001      	movs	r0, #1
   81f82:	bdf8      	pop	{r3, r4, r5, r6, r7, pc}
   81f84:	2100      	movs	r1, #0
   81f86:	4630      	mov	r0, r6
   81f88:	f7ff ff26 	bl	81dd8 <_sbrk_r>
   81f8c:	68ba      	ldr	r2, [r7, #8]
   81f8e:	1a83      	subs	r3, r0, r2
   81f90:	2b0f      	cmp	r3, #15
   81f92:	ddde      	ble.n	81f52 <_malloc_trim_r+0x3e>
   81f94:	4c06      	ldr	r4, [pc, #24]	; (81fb0 <_malloc_trim_r+0x9c>)
   81f96:	4905      	ldr	r1, [pc, #20]	; (81fac <_malloc_trim_r+0x98>)
   81f98:	6824      	ldr	r4, [r4, #0]
   81f9a:	f043 0301 	orr.w	r3, r3, #1
   81f9e:	1b00      	subs	r0, r0, r4
   81fa0:	6053      	str	r3, [r2, #4]
   81fa2:	6008      	str	r0, [r1, #0]
   81fa4:	e7d5      	b.n	81f52 <_malloc_trim_r+0x3e>
   81fa6:	bf00      	nop
   81fa8:	20000480 	.word	0x20000480
   81fac:	20000b44 	.word	0x20000b44
   81fb0:	20000888 	.word	0x20000888

00081fb4 <_free_r>:
   81fb4:	2900      	cmp	r1, #0
   81fb6:	d044      	beq.n	82042 <_free_r+0x8e>
   81fb8:	e92d 41f0 	stmdb	sp!, {r4, r5, r6, r7, r8, lr}
   81fbc:	460d      	mov	r5, r1
   81fbe:	4680      	mov	r8, r0
   81fc0:	f7ff fefe 	bl	81dc0 <__malloc_lock>
   81fc4:	f855 7c04 	ldr.w	r7, [r5, #-4]
   81fc8:	4969      	ldr	r1, [pc, #420]	; (82170 <_free_r+0x1bc>)
   81fca:	f1a5 0408 	sub.w	r4, r5, #8
   81fce:	f027 0301 	bic.w	r3, r7, #1
   81fd2:	18e2      	adds	r2, r4, r3
   81fd4:	688e      	ldr	r6, [r1, #8]
   81fd6:	6850      	ldr	r0, [r2, #4]
   81fd8:	42b2      	cmp	r2, r6
   81fda:	f020 0003 	bic.w	r0, r0, #3
   81fde:	d05e      	beq.n	8209e <_free_r+0xea>
   81fe0:	07fe      	lsls	r6, r7, #31
   81fe2:	6050      	str	r0, [r2, #4]
   81fe4:	d40b      	bmi.n	81ffe <_free_r+0x4a>
   81fe6:	f855 7c08 	ldr.w	r7, [r5, #-8]
   81fea:	f101 0e08 	add.w	lr, r1, #8
   81fee:	1be4      	subs	r4, r4, r7
   81ff0:	68a5      	ldr	r5, [r4, #8]
   81ff2:	443b      	add	r3, r7
   81ff4:	4575      	cmp	r5, lr
   81ff6:	d06d      	beq.n	820d4 <_free_r+0x120>
   81ff8:	68e7      	ldr	r7, [r4, #12]
   81ffa:	60ef      	str	r7, [r5, #12]
   81ffc:	60bd      	str	r5, [r7, #8]
   81ffe:	1815      	adds	r5, r2, r0
   82000:	686d      	ldr	r5, [r5, #4]
   82002:	07ed      	lsls	r5, r5, #31
   82004:	d53e      	bpl.n	82084 <_free_r+0xd0>
   82006:	f043 0201 	orr.w	r2, r3, #1
   8200a:	6062      	str	r2, [r4, #4]
   8200c:	50e3      	str	r3, [r4, r3]
   8200e:	f5b3 7f00 	cmp.w	r3, #512	; 0x200
   82012:	d217      	bcs.n	82044 <_free_r+0x90>
   82014:	2201      	movs	r2, #1
   82016:	08db      	lsrs	r3, r3, #3
   82018:	1098      	asrs	r0, r3, #2
   8201a:	684d      	ldr	r5, [r1, #4]
   8201c:	4413      	add	r3, r2
   8201e:	f851 7033 	ldr.w	r7, [r1, r3, lsl #3]
   82022:	4082      	lsls	r2, r0
   82024:	eb01 00c3 	add.w	r0, r1, r3, lsl #3
   82028:	432a      	orrs	r2, r5
   8202a:	3808      	subs	r0, #8
   8202c:	60e0      	str	r0, [r4, #12]
   8202e:	60a7      	str	r7, [r4, #8]
   82030:	604a      	str	r2, [r1, #4]
   82032:	f841 4033 	str.w	r4, [r1, r3, lsl #3]
   82036:	60fc      	str	r4, [r7, #12]
   82038:	4640      	mov	r0, r8
   8203a:	e8bd 41f0 	ldmia.w	sp!, {r4, r5, r6, r7, r8, lr}
   8203e:	f7ff bec5 	b.w	81dcc <__malloc_unlock>
   82042:	4770      	bx	lr
   82044:	0a5a      	lsrs	r2, r3, #9
   82046:	2a04      	cmp	r2, #4
   82048:	d852      	bhi.n	820f0 <_free_r+0x13c>
   8204a:	099a      	lsrs	r2, r3, #6
   8204c:	f102 0739 	add.w	r7, r2, #57	; 0x39
   82050:	00ff      	lsls	r7, r7, #3
   82052:	f102 0538 	add.w	r5, r2, #56	; 0x38
   82056:	19c8      	adds	r0, r1, r7
   82058:	59ca      	ldr	r2, [r1, r7]
   8205a:	3808      	subs	r0, #8
   8205c:	4290      	cmp	r0, r2
   8205e:	d04f      	beq.n	82100 <_free_r+0x14c>
   82060:	6851      	ldr	r1, [r2, #4]
   82062:	f021 0103 	bic.w	r1, r1, #3
   82066:	428b      	cmp	r3, r1
   82068:	d232      	bcs.n	820d0 <_free_r+0x11c>
   8206a:	6892      	ldr	r2, [r2, #8]
   8206c:	4290      	cmp	r0, r2
   8206e:	d1f7      	bne.n	82060 <_free_r+0xac>
   82070:	68c3      	ldr	r3, [r0, #12]
   82072:	60a0      	str	r0, [r4, #8]
   82074:	60e3      	str	r3, [r4, #12]
   82076:	609c      	str	r4, [r3, #8]
   82078:	60c4      	str	r4, [r0, #12]
   8207a:	4640      	mov	r0, r8
   8207c:	e8bd 41f0 	ldmia.w	sp!, {r4, r5, r6, r7, r8, lr}
   82080:	f7ff bea4 	b.w	81dcc <__malloc_unlock>
   82084:	6895      	ldr	r5, [r2, #8]
   82086:	4f3b      	ldr	r7, [pc, #236]	; (82174 <_free_r+0x1c0>)
   82088:	4403      	add	r3, r0
   8208a:	42bd      	cmp	r5, r7
   8208c:	d040      	beq.n	82110 <_free_r+0x15c>
   8208e:	68d0      	ldr	r0, [r2, #12]
   82090:	f043 0201 	orr.w	r2, r3, #1
   82094:	60e8      	str	r0, [r5, #12]
   82096:	6085      	str	r5, [r0, #8]
   82098:	6062      	str	r2, [r4, #4]
   8209a:	50e3      	str	r3, [r4, r3]
   8209c:	e7b7      	b.n	8200e <_free_r+0x5a>
   8209e:	07ff      	lsls	r7, r7, #31
   820a0:	4403      	add	r3, r0
   820a2:	d407      	bmi.n	820b4 <_free_r+0x100>
   820a4:	f855 5c08 	ldr.w	r5, [r5, #-8]
   820a8:	1b64      	subs	r4, r4, r5
   820aa:	68e2      	ldr	r2, [r4, #12]
   820ac:	68a0      	ldr	r0, [r4, #8]
   820ae:	442b      	add	r3, r5
   820b0:	60c2      	str	r2, [r0, #12]
   820b2:	6090      	str	r0, [r2, #8]
   820b4:	4a30      	ldr	r2, [pc, #192]	; (82178 <_free_r+0x1c4>)
   820b6:	f043 0001 	orr.w	r0, r3, #1
   820ba:	6812      	ldr	r2, [r2, #0]
   820bc:	6060      	str	r0, [r4, #4]
   820be:	4293      	cmp	r3, r2
   820c0:	608c      	str	r4, [r1, #8]
   820c2:	d3b9      	bcc.n	82038 <_free_r+0x84>
   820c4:	4b2d      	ldr	r3, [pc, #180]	; (8217c <_free_r+0x1c8>)
   820c6:	4640      	mov	r0, r8
   820c8:	6819      	ldr	r1, [r3, #0]
   820ca:	f7ff ff23 	bl	81f14 <_malloc_trim_r>
   820ce:	e7b3      	b.n	82038 <_free_r+0x84>
   820d0:	4610      	mov	r0, r2
   820d2:	e7cd      	b.n	82070 <_free_r+0xbc>
   820d4:	1811      	adds	r1, r2, r0
   820d6:	6849      	ldr	r1, [r1, #4]
   820d8:	07c9      	lsls	r1, r1, #31
   820da:	d444      	bmi.n	82166 <_free_r+0x1b2>
   820dc:	6891      	ldr	r1, [r2, #8]
   820de:	4403      	add	r3, r0
   820e0:	68d2      	ldr	r2, [r2, #12]
   820e2:	f043 0001 	orr.w	r0, r3, #1
   820e6:	60ca      	str	r2, [r1, #12]
   820e8:	6091      	str	r1, [r2, #8]
   820ea:	6060      	str	r0, [r4, #4]
   820ec:	50e3      	str	r3, [r4, r3]
   820ee:	e7a3      	b.n	82038 <_free_r+0x84>
   820f0:	2a14      	cmp	r2, #20
   820f2:	d816      	bhi.n	82122 <_free_r+0x16e>
   820f4:	f102 075c 	add.w	r7, r2, #92	; 0x5c
   820f8:	00ff      	lsls	r7, r7, #3
   820fa:	f102 055b 	add.w	r5, r2, #91	; 0x5b
   820fe:	e7aa      	b.n	82056 <_free_r+0xa2>
   82100:	2301      	movs	r3, #1
   82102:	10aa      	asrs	r2, r5, #2
   82104:	684d      	ldr	r5, [r1, #4]
   82106:	4093      	lsls	r3, r2
   82108:	432b      	orrs	r3, r5
   8210a:	604b      	str	r3, [r1, #4]
   8210c:	4603      	mov	r3, r0
   8210e:	e7b0      	b.n	82072 <_free_r+0xbe>
   82110:	f043 0201 	orr.w	r2, r3, #1
   82114:	614c      	str	r4, [r1, #20]
   82116:	610c      	str	r4, [r1, #16]
   82118:	60e5      	str	r5, [r4, #12]
   8211a:	60a5      	str	r5, [r4, #8]
   8211c:	6062      	str	r2, [r4, #4]
   8211e:	50e3      	str	r3, [r4, r3]
   82120:	e78a      	b.n	82038 <_free_r+0x84>
   82122:	2a54      	cmp	r2, #84	; 0x54
   82124:	d806      	bhi.n	82134 <_free_r+0x180>
   82126:	0b1a      	lsrs	r2, r3, #12
   82128:	f102 076f 	add.w	r7, r2, #111	; 0x6f
   8212c:	00ff      	lsls	r7, r7, #3
   8212e:	f102 056e 	add.w	r5, r2, #110	; 0x6e
   82132:	e790      	b.n	82056 <_free_r+0xa2>
   82134:	f5b2 7faa 	cmp.w	r2, #340	; 0x154
   82138:	d806      	bhi.n	82148 <_free_r+0x194>
   8213a:	0bda      	lsrs	r2, r3, #15
   8213c:	f102 0778 	add.w	r7, r2, #120	; 0x78
   82140:	00ff      	lsls	r7, r7, #3
   82142:	f102 0577 	add.w	r5, r2, #119	; 0x77
   82146:	e786      	b.n	82056 <_free_r+0xa2>
   82148:	f240 5054 	movw	r0, #1364	; 0x554
   8214c:	4282      	cmp	r2, r0
   8214e:	d806      	bhi.n	8215e <_free_r+0x1aa>
   82150:	0c9a      	lsrs	r2, r3, #18
   82152:	f102 077d 	add.w	r7, r2, #125	; 0x7d
   82156:	00ff      	lsls	r7, r7, #3
   82158:	f102 057c 	add.w	r5, r2, #124	; 0x7c
   8215c:	e77b      	b.n	82056 <_free_r+0xa2>
   8215e:	f44f 777e 	mov.w	r7, #1016	; 0x3f8
   82162:	257e      	movs	r5, #126	; 0x7e
   82164:	e777      	b.n	82056 <_free_r+0xa2>
   82166:	f043 0101 	orr.w	r1, r3, #1
   8216a:	6061      	str	r1, [r4, #4]
   8216c:	6013      	str	r3, [r2, #0]
   8216e:	e763      	b.n	82038 <_free_r+0x84>
   82170:	20000480 	.word	0x20000480
   82174:	20000488 	.word	0x20000488
   82178:	2000088c 	.word	0x2000088c
   8217c:	20000b74 	.word	0x20000b74

00082180 <__retarget_lock_acquire_recursive>:
   82180:	4770      	bx	lr
   82182:	bf00      	nop

00082184 <__retarget_lock_release_recursive>:
   82184:	4770      	bx	lr
   82186:	bf00      	nop

00082188 <_ZL11g_gpio_pins>:
   82188:	0002 0000 1000 400e 0000 0200 000c 0000     .......@........
   82198:	0003 0000 1200 400e 0000 1000 000d 0000     .......@........
   821a8:	0005 0000 1200 400e 0000 0200 000d 0000     .......@........
   821b8:	0006 0000 1200 400e 0000 0100 000d 0000     .......@........
   821c8:	0007 0000 1200 400e 0000 0080 000d 0000     .......@........
   821d8:	0008 0000 1200 400e 0000 0040 000d 0000     .......@..@.....
   821e8:	0009 0000 1200 400e 0000 0020 000d 0000     .......@.. .....
   821f8:	000a 0000 1200 400e 0000 2000 000d 0000     .......@... ....
   82208:	0017 0000 0e00 400e 4000 0000 000b 0000     .......@.@......
   82218:	0018 0000 0e00 400e 8000 0000 000b 0000     .......@........
   82228:	0028 0000 1200 400e 0100 0000 000d 0000     (......@........
   82238:	0029 0000 1200 400e 0200 0000 000d 0000     )......@........
   82248:	002d 0000 1200 400e 0000 0004 000d 0000     -......@........
   82258:	0030 0000 1200 400e 8000 0000 000d 0000     0......@........
   82268:	0036 0000 0e00 400e 0000 0001 000b 0000     6......@........
   82278:	003d 0000 0e00 400e 0004 0000 000b 0000     =......@........

00082288 <_ZL12g_uart_ports>:
   82288:	0000 0000 0800 400e 0000 0000 0008 0000     .......@........
   82298:	0e00 400e 0100 0000 000b 0000 0000 0000     ...@............
   822a8:	0e00 400e 0200 0000 000b 0000 0000 0000     ...@............
   822b8:	0001 0000 0000 0000 8000 4009 0011 0000     ...........@....
   822c8:	0e00 400e 0400 0000 000b 0000 0000 0000     ...@............
   822d8:	0e00 400e 0800 0000 000b 0000 0000 0000     ...@............
   822e8:	0001 0000 0000 0000 c000 4009 0012 0000     ...........@....
   822f8:	0e00 400e 1000 0000 000b 0000 0000 0000     ...@............
   82308:	0e00 400e 2000 0000 000b 0000 0000 0000     ...@. ..........
   82318:	0001 0000 0000 0000 4000 400a 0014 0000     .........@.@....
   82328:	1400 400e 0020 0000 000e 0000 0001 0000     ...@ ...........
   82338:	1400 400e 0010 0000 000e 0000 0001 0000     ...@............

00082348 <_ZZL28usb_send_language_descriptorvE19language_descriptor>:
   82348:	0304 0409                                   ....

0008234c <_ZL28g_cdc_other_speed_descriptor>:
   8234c:	0b08 0200 0202 0001 0409 0000 0201 0002     ................
   8235c:	0500 0024 0110 2405 0101 0401 0224 0506     ..$....$....$...
   8236c:	0624 0100 0507 0381 0010 0910 0104 0200     $...............
   8237c:	000a 0000 0507 0283 0040 0700 0205 4002     ........@......@
   8238c:	0000 0000                                   ....

00082390 <_ZL16g_cdc_descriptor>:
   82390:	0b08 0200 0202 0001 0409 0000 0201 0002     ................
   823a0:	0500 0024 0110 2405 0101 0401 0224 0506     ..$....$....$...
   823b0:	0624 0100 0507 0381 0010 0910 0104 0200     $...............
   823c0:	000a 0000 0507 0283 0200 0700 0205 0002     ................
   823d0:	0002 0000                                   ....

000823d4 <_ZL23g_device_descriptor_iad>:
   823d4:	0112 0200 02ef 4001 2341 003e 0100 0201     .......@A#>.....
   823e4:	0103 0000                                   ....

000823e8 <_ZL19g_device_descriptor>:
   823e8:	0112 0200 0000 4000 2341 003e 0100 0201     .......@A#>.....
   823f8:	0103 0000                                   ....

000823fc <_ZL18g_device_qualifier>:
   823fc:	060a 0200 0000 4000 0001 0000 4749 5341     .......@....IGAS
   8240c:	0000 0000 434c 2050 6142 6973 0063 0000     ....LCP Basic...
   8241c:	434c 0050                                   LCP.

00082420 <_ZTV10SerialPort>:
	...
   82428:	140d 0008 148d 0008 1555 0008               ........U...

00082434 <_ZTV13UsbSerialPort>:
	...
   8243c:	14f9 0008 152d 0008 16d9 0008               ....-.......

00082448 <_global_impure_ptr>:
   82448:	0058 2000                                   X.. 

0008244c <_init>:
   8244c:	b5f8      	push	{r3, r4, r5, r6, r7, lr}
   8244e:	bf00      	nop
   82450:	bcf8      	pop	{r3, r4, r5, r6, r7}
   82452:	bc08      	pop	{r3}
   82454:	469e      	mov	lr, r3
   82456:	4770      	bx	lr

00082458 <__init_array_start>:
   82458:	00081ec1 	.word	0x00081ec1

0008245c <__frame_dummy_init_array_entry>:
   8245c:	00080119 0008131d 00081375 000813b5     ........u.......
   8246c:	000814a1 000814d9 00081541              ........A...

00082478 <_fini>:
   82478:	b5f8      	push	{r3, r4, r5, r6, r7, lr}
   8247a:	bf00      	nop
   8247c:	bcf8      	pop	{r3, r4, r5, r6, r7}
   8247e:	bc08      	pop	{r3}
   82480:	469e      	mov	lr, r3
   82482:	4770      	bx	lr

00082484 <__fini_array_start>:
   82484:	000800f5 	.word	0x000800f5

Disassembly of section .relocate:

20000000 <_ZL28sam3x_enter_samba_bootloaderv>:
  \details Disables IRQ interrupts by setting the I-bit in the CPSR.
           Can only be executed in Privileged modes.
 */
__STATIC_FORCEINLINE void __disable_irq(void)
{
  __ASM volatile ("cpsid i" : : : "memory");
20000000:	b672      	cpsid	i
    while ((EFC0->EEFC_FSR & EEFC_FSR_FRDY) == 0U)
20000002:	4b08      	ldr	r3, [pc, #32]	; (20000024 <_ZL28sam3x_enter_samba_bootloaderv+0x24>)
20000004:	689b      	ldr	r3, [r3, #8]
20000006:	f013 0f01 	tst.w	r3, #1
2000000a:	d0fa      	beq.n	20000002 <_ZL28sam3x_enter_samba_bootloaderv+0x2>
    EFC0->EEFC_FCR = ((EEFC_FCMD_CGPB & 0xFFU) << 0U)
2000000c:	4a06      	ldr	r2, [pc, #24]	; (20000028 <_ZL28sam3x_enter_samba_bootloaderv+0x28>)
2000000e:	4b05      	ldr	r3, [pc, #20]	; (20000024 <_ZL28sam3x_enter_samba_bootloaderv+0x24>)
20000010:	605a      	str	r2, [r3, #4]
    while ((EFC0->EEFC_FSR & EEFC_FSR_FRDY) == 0U)
20000012:	4b04      	ldr	r3, [pc, #16]	; (20000024 <_ZL28sam3x_enter_samba_bootloaderv+0x24>)
20000014:	689b      	ldr	r3, [r3, #8]
20000016:	f013 0f01 	tst.w	r3, #1
2000001a:	d0fa      	beq.n	20000012 <_ZL28sam3x_enter_samba_bootloaderv+0x12>
    RSTC->RSTC_CR = ((RSTC_KEY_VALUE & 0xFFU) << 24U)
2000001c:	4a03      	ldr	r2, [pc, #12]	; (2000002c <_ZL28sam3x_enter_samba_bootloaderv+0x2c>)
2000001e:	4b04      	ldr	r3, [pc, #16]	; (20000030 <_ZL28sam3x_enter_samba_bootloaderv+0x30>)
20000020:	601a      	str	r2, [r3, #0]
20000022:	e7fe      	b.n	20000022 <_ZL28sam3x_enter_samba_bootloaderv+0x22>
20000024:	400e0a00 	.word	0x400e0a00
20000028:	5a00010c 	.word	0x5a00010c
2000002c:	a5000005 	.word	0xa5000005
20000030:	400e1a00 	.word	0x400e1a00

20000034 <__dso_handle>:
20000034:	00000000                                ....

20000038 <SystemCoreClock>:
20000038:	003d0900                                ..=.

2000003c <_ZL18g_bootloader_ticks>:
2000003c:	ffffffff                                ....

20000040 <_ZL11g_line_info>:
20000040:	0000e100 00080000                       ........

20000048 <_ZL13g_break_value>:
20000048:	ffffffff                                ....

2000004c <SerialUSB>:
2000004c:	0008243c                                <$..

20000050 <_impure_ptr>:
20000050:	20000058 00000000                       X.. ....

20000058 <impure_data>:
20000058:	00000000 20000344 200003ac 20000414     ....D.. ... ... 
	...
20000100:	00000001 00000000 abcd330e e66d1234     .........3..4.m.
20000110:	0005deec 0000000b 00000000 00000000     ................
	...

20000480 <__malloc_av_>:
	...
20000488:	20000480 20000480 20000488 20000488     ... ... ... ... 
20000498:	20000490 20000490 20000498 20000498     ... ... ... ... 
200004a8:	200004a0 200004a0 200004a8 200004a8     ... ... ... ... 
200004b8:	200004b0 200004b0 200004b8 200004b8     ... ... ... ... 
200004c8:	200004c0 200004c0 200004c8 200004c8     ... ... ... ... 
200004d8:	200004d0 200004d0 200004d8 200004d8     ... ... ... ... 
200004e8:	200004e0 200004e0 200004e8 200004e8     ... ... ... ... 
200004f8:	200004f0 200004f0 200004f8 200004f8     ... ... ... ... 
20000508:	20000500 20000500 20000508 20000508     ... ... ... ... 
20000518:	20000510 20000510 20000518 20000518     ... ... ... ... 
20000528:	20000520 20000520 20000528 20000528      ..  .. (.. (.. 
20000538:	20000530 20000530 20000538 20000538     0.. 0.. 8.. 8.. 
20000548:	20000540 20000540 20000548 20000548     @.. @.. H.. H.. 
20000558:	20000550 20000550 20000558 20000558     P.. P.. X.. X.. 
20000568:	20000560 20000560 20000568 20000568     `.. `.. h.. h.. 
20000578:	20000570 20000570 20000578 20000578     p.. p.. x.. x.. 
20000588:	20000580 20000580 20000588 20000588     ... ... ... ... 
20000598:	20000590 20000590 20000598 20000598     ... ... ... ... 
200005a8:	200005a0 200005a0 200005a8 200005a8     ... ... ... ... 
200005b8:	200005b0 200005b0 200005b8 200005b8     ... ... ... ... 
200005c8:	200005c0 200005c0 200005c8 200005c8     ... ... ... ... 
200005d8:	200005d0 200005d0 200005d8 200005d8     ... ... ... ... 
200005e8:	200005e0 200005e0 200005e8 200005e8     ... ... ... ... 
200005f8:	200005f0 200005f0 200005f8 200005f8     ... ... ... ... 
20000608:	20000600 20000600 20000608 20000608     ... ... ... ... 
20000618:	20000610 20000610 20000618 20000618     ... ... ... ... 
20000628:	20000620 20000620 20000628 20000628      ..  .. (.. (.. 
20000638:	20000630 20000630 20000638 20000638     0.. 0.. 8.. 8.. 
20000648:	20000640 20000640 20000648 20000648     @.. @.. H.. H.. 
20000658:	20000650 20000650 20000658 20000658     P.. P.. X.. X.. 
20000668:	20000660 20000660 20000668 20000668     `.. `.. h.. h.. 
20000678:	20000670 20000670 20000678 20000678     p.. p.. x.. x.. 
20000688:	20000680 20000680 20000688 20000688     ... ... ... ... 
20000698:	20000690 20000690 20000698 20000698     ... ... ... ... 
200006a8:	200006a0 200006a0 200006a8 200006a8     ... ... ... ... 
200006b8:	200006b0 200006b0 200006b8 200006b8     ... ... ... ... 
200006c8:	200006c0 200006c0 200006c8 200006c8     ... ... ... ... 
200006d8:	200006d0 200006d0 200006d8 200006d8     ... ... ... ... 
200006e8:	200006e0 200006e0 200006e8 200006e8     ... ... ... ... 
200006f8:	200006f0 200006f0 200006f8 200006f8     ... ... ... ... 
20000708:	20000700 20000700 20000708 20000708     ... ... ... ... 
20000718:	20000710 20000710 20000718 20000718     ... ... ... ... 
20000728:	20000720 20000720 20000728 20000728      ..  .. (.. (.. 
20000738:	20000730 20000730 20000738 20000738     0.. 0.. 8.. 8.. 
20000748:	20000740 20000740 20000748 20000748     @.. @.. H.. H.. 
20000758:	20000750 20000750 20000758 20000758     P.. P.. X.. X.. 
20000768:	20000760 20000760 20000768 20000768     `.. `.. h.. h.. 
20000778:	20000770 20000770 20000778 20000778     p.. p.. x.. x.. 
20000788:	20000780 20000780 20000788 20000788     ... ... ... ... 
20000798:	20000790 20000790 20000798 20000798     ... ... ... ... 
200007a8:	200007a0 200007a0 200007a8 200007a8     ... ... ... ... 
200007b8:	200007b0 200007b0 200007b8 200007b8     ... ... ... ... 
200007c8:	200007c0 200007c0 200007c8 200007c8     ... ... ... ... 
200007d8:	200007d0 200007d0 200007d8 200007d8     ... ... ... ... 
200007e8:	200007e0 200007e0 200007e8 200007e8     ... ... ... ... 
200007f8:	200007f0 200007f0 200007f8 200007f8     ... ... ... ... 
20000808:	20000800 20000800 20000808 20000808     ... ... ... ... 
20000818:	20000810 20000810 20000818 20000818     ... ... ... ... 
20000828:	20000820 20000820 20000828 20000828      ..  .. (.. (.. 
20000838:	20000830 20000830 20000838 20000838     0.. 0.. 8.. 8.. 
20000848:	20000840 20000840 20000848 20000848     @.. @.. H.. H.. 
20000858:	20000850 20000850 20000858 20000858     P.. P.. X.. X.. 
20000868:	20000860 20000860 20000868 20000868     `.. `.. h.. h.. 
20000878:	20000870 20000870 20000878 20000878     p.. p.. x.. x.. 

20000888 <__malloc_sbrk_base>:
20000888:	ffffffff                                ....

2000088c <__malloc_trim_threshold>:
2000088c:	00020000                                ....

20000890 <__atexit_recursive_mutex>:
20000890:	20000b78                                x.. 
