
LCP_Basic.elf:     file format elf32-littlearm

Sections:
Idx Name          Size      VMA       LMA       File off  Algn
  0 .text         00001bc8  00080000  00080000  00010000  2**2
                  CONTENTS, ALLOC, LOAD, READONLY, CODE
  1 .ARM.exidx    00000008  00081bc8  00081bc8  00011bc8  2**2
                  CONTENTS, ALLOC, LOAD, READONLY, DATA
  2 .relocate     00000854  20000000  00081bd0  00020000  2**3
                  CONTENTS, ALLOC, LOAD, DATA
  3 .bss          000000d4  20000854  00082424  00020854  2**2
                  ALLOC
  4 .stack        00000400  20000928  000824f8  00020854  2**0
                  ALLOC
  5 .heap         00000200  20000d28  000828f8  00020854  2**0
                  ALLOC
  6 .ARM.attributes 00000029  00000000  00000000  00020854  2**0
                  CONTENTS, READONLY
  7 .comment      00000059  00000000  00000000  0002087d  2**0
                  CONTENTS, READONLY
  8 .debug_info   00013b8b  00000000  00000000  000208d6  2**0
                  CONTENTS, READONLY, DEBUGGING
  9 .debug_abbrev 00003549  00000000  00000000  00034461  2**0
                  CONTENTS, READONLY, DEBUGGING
 10 .debug_loc    0000577a  00000000  00000000  000379aa  2**0
                  CONTENTS, READONLY, DEBUGGING
 11 .debug_aranges 000008e0  00000000  00000000  0003d124  2**0
                  CONTENTS, READONLY, DEBUGGING
 12 .debug_ranges 000007c0  00000000  00000000  0003da04  2**0
                  CONTENTS, READONLY, DEBUGGING
 13 .debug_macro  000140c2  00000000  00000000  0003e1c4  2**0
                  CONTENTS, READONLY, DEBUGGING
 14 .debug_line   00006667  00000000  00000000  00052286  2**0
                  CONTENTS, READONLY, DEBUGGING
 15 .debug_str    00058a6b  00000000  00000000  000588ed  2**0
                  CONTENTS, READONLY, DEBUGGING
 16 .debug_frame  00001ab8  00000000  00000000  000b1358  2**2
                  CONTENTS, READONLY, DEBUGGING

Disassembly of section .text:

00080000 <exception_table>:
   80000:	28 0d 00 20 25 03 08 00 21 03 08 00 21 03 08 00     (.. %...!...!...
   80010:	21 03 08 00 21 03 08 00 21 03 08 00 00 00 00 00     !...!...!.......
	...
   8002c:	21 03 08 00 21 03 08 00 00 00 00 00 21 03 08 00     !...!.......!...
   8003c:	11 07 08 00 21 03 08 00 21 03 08 00 21 03 08 00     ....!...!...!...
   8004c:	21 03 08 00 21 03 08 00 21 03 08 00 21 03 08 00     !...!...!...!...
   8005c:	21 03 08 00 21 03 08 00 21 03 08 00 00 00 00 00     !...!...!.......
   8006c:	21 03 08 00 21 03 08 00 21 03 08 00 21 03 08 00     !...!...!...!...
	...
   80084:	21 03 08 00 21 03 08 00 21 03 08 00 21 03 08 00     !...!...!...!...
   80094:	21 03 08 00 21 03 08 00 21 03 08 00 21 03 08 00     !...!...!...!...
   800a4:	00 00 00 00 21 03 08 00 21 03 08 00 21 03 08 00     ....!...!...!...
   800b4:	21 03 08 00 21 03 08 00 21 03 08 00 21 03 08 00     !...!...!...!...
   800c4:	21 03 08 00 21 03 08 00 21 03 08 00 21 03 08 00     !...!...!...!...
   800d4:	21 03 08 00 21 03 08 00 21 03 08 00 21 03 08 00     !...!...!...!...
   800e4:	21 03 08 00 21 03 08 00 21 03 08 00 21 03 08 00     !...!...!...!...

000800f4 <__do_global_dtors_aux>:
   800f4:	b510      	push	{r4, lr}
   800f6:	4c05      	ldr	r4, [pc, #20]	; (8010c <__do_global_dtors_aux+0x18>)
   800f8:	7823      	ldrb	r3, [r4, #0]
   800fa:	b933      	cbnz	r3, 8010a <__do_global_dtors_aux+0x16>
   800fc:	4b04      	ldr	r3, [pc, #16]	; (80110 <__do_global_dtors_aux+0x1c>)
   800fe:	b113      	cbz	r3, 80106 <__do_global_dtors_aux+0x12>
   80100:	4804      	ldr	r0, [pc, #16]	; (80114 <__do_global_dtors_aux+0x20>)
   80102:	f3af 8000 	nop.w
   80106:	2301      	movs	r3, #1
   80108:	7023      	strb	r3, [r4, #0]
   8010a:	bd10      	pop	{r4, pc}
   8010c:	20000854 	.word	0x20000854
   80110:	00000000 	.word	0x00000000
   80114:	00081bd0 	.word	0x00081bd0

00080118 <frame_dummy>:
   80118:	4b0c      	ldr	r3, [pc, #48]	; (8014c <frame_dummy+0x34>)
   8011a:	b143      	cbz	r3, 8012e <frame_dummy+0x16>
   8011c:	480c      	ldr	r0, [pc, #48]	; (80150 <frame_dummy+0x38>)
   8011e:	b510      	push	{r4, lr}
   80120:	490c      	ldr	r1, [pc, #48]	; (80154 <frame_dummy+0x3c>)
   80122:	f3af 8000 	nop.w
   80126:	480c      	ldr	r0, [pc, #48]	; (80158 <frame_dummy+0x40>)
   80128:	6803      	ldr	r3, [r0, #0]
   8012a:	b923      	cbnz	r3, 80136 <frame_dummy+0x1e>
   8012c:	bd10      	pop	{r4, pc}
   8012e:	480a      	ldr	r0, [pc, #40]	; (80158 <frame_dummy+0x40>)
   80130:	6803      	ldr	r3, [r0, #0]
   80132:	b933      	cbnz	r3, 80142 <frame_dummy+0x2a>
   80134:	4770      	bx	lr
   80136:	4b09      	ldr	r3, [pc, #36]	; (8015c <frame_dummy+0x44>)
   80138:	2b00      	cmp	r3, #0
   8013a:	d0f7      	beq.n	8012c <frame_dummy+0x14>
   8013c:	e8bd 4010 	ldmia.w	sp!, {r4, lr}
   80140:	4718      	bx	r3
   80142:	4b06      	ldr	r3, [pc, #24]	; (8015c <frame_dummy+0x44>)
   80144:	2b00      	cmp	r3, #0
   80146:	d0f5      	beq.n	80134 <frame_dummy+0x1c>
   80148:	4718      	bx	r3
   8014a:	bf00      	nop
   8014c:	00000000 	.word	0x00000000
   80150:	00081bd0 	.word	0x00081bd0
   80154:	20000858 	.word	0x20000858
   80158:	00081bd0 	.word	0x00081bd0
   8015c:	00000000 	.word	0x00000000

00080160 <_Z5setupv>:
#include "../libs/SC16IS7xx/SC16IS7xx.h"

static SpiUartDevice UARTX;

void setup(void)
{
   80160:	b570      	push	{r4, r5, r6, lr}
   80162:	b082      	sub	sp, #8
	lcp_board_init_gpio();
   80164:	4b18      	ldr	r3, [pc, #96]	; (801c8 <_Z5setupv+0x68>)
   80166:	4798      	blx	r3

	Serial.begin(9600U, SERIAL_8N1);
   80168:	2200      	movs	r2, #0
   8016a:	f44f 5116 	mov.w	r1, #9600	; 0x2580
   8016e:	4817      	ldr	r0, [pc, #92]	; (801cc <_Z5setupv+0x6c>)
   80170:	4c17      	ldr	r4, [pc, #92]	; (801d0 <_Z5setupv+0x70>)
   80172:	47a0      	blx	r4
	Serial1.begin(9600U, SERIAL_8N1);
   80174:	2200      	movs	r2, #0
   80176:	f44f 5116 	mov.w	r1, #9600	; 0x2580
   8017a:	4816      	ldr	r0, [pc, #88]	; (801d4 <_Z5setupv+0x74>)
   8017c:	47a0      	blx	r4
	Serial2.begin(9600U, SERIAL_8N1);
   8017e:	2200      	movs	r2, #0
   80180:	f44f 5116 	mov.w	r1, #9600	; 0x2580
   80184:	4814      	ldr	r0, [pc, #80]	; (801d8 <_Z5setupv+0x78>)
   80186:	47a0      	blx	r4
	Serial3.begin(9600U, SERIAL_8N1);
   80188:	2200      	movs	r2, #0
   8018a:	f44f 5116 	mov.w	r1, #9600	; 0x2580
   8018e:	4813      	ldr	r0, [pc, #76]	; (801dc <_Z5setupv+0x7c>)
   80190:	47a0      	blx	r4

	SerialUSB.begin(115200U, SERIAL_8N1);
   80192:	2200      	movs	r2, #0
   80194:	f44f 31e1 	mov.w	r1, #115200	; 0x1c200
   80198:	4811      	ldr	r0, [pc, #68]	; (801e0 <_Z5setupv+0x80>)
   8019a:	4b12      	ldr	r3, [pc, #72]	; (801e4 <_Z5setupv+0x84>)
   8019c:	4798      	blx	r3

	SPI.begin();
   8019e:	4812      	ldr	r0, [pc, #72]	; (801e8 <_Z5setupv+0x88>)
   801a0:	4b12      	ldr	r3, [pc, #72]	; (801ec <_Z5setupv+0x8c>)
   801a2:	4798      	blx	r3

	UARTX.begin(9600UL, 0U, LCP_PIN_UART1_CS, CH_A);
   801a4:	4d12      	ldr	r5, [pc, #72]	; (801f0 <_Z5setupv+0x90>)
   801a6:	2400      	movs	r4, #0
   801a8:	9400      	str	r4, [sp, #0]
   801aa:	2303      	movs	r3, #3
   801ac:	4622      	mov	r2, r4
   801ae:	f44f 5116 	mov.w	r1, #9600	; 0x2580
   801b2:	4628      	mov	r0, r5
   801b4:	4e0f      	ldr	r6, [pc, #60]	; (801f4 <_Z5setupv+0x94>)
   801b6:	47b0      	blx	r6

	const boolean sc16_connected = UARTX.uartConnected(LCP_PIN_UART1_CS, CH_A);
   801b8:	4622      	mov	r2, r4
   801ba:	2103      	movs	r1, #3
   801bc:	4628      	mov	r0, r5
   801be:	4b0e      	ldr	r3, [pc, #56]	; (801f8 <_Z5setupv+0x98>)
   801c0:	4798      	blx	r3
	(void)sc16_connected;
}
   801c2:	b002      	add	sp, #8
   801c4:	bd70      	pop	{r4, r5, r6, pc}
   801c6:	bf00      	nop
   801c8:	0008020d 	.word	0x0008020d
   801cc:	2000089c 	.word	0x2000089c
   801d0:	00080e3d 	.word	0x00080e3d
   801d4:	200008a4 	.word	0x200008a4
   801d8:	200008ac 	.word	0x200008ac
   801dc:	200008b4 	.word	0x200008b4
   801e0:	20000008 	.word	0x20000008
   801e4:	00080e65 	.word	0x00080e65
   801e8:	200008bc 	.word	0x200008bc
   801ec:	00080f7d 	.word	0x00080f7d
   801f0:	20000870 	.word	0x20000870
   801f4:	00080c89 	.word	0x00080c89
   801f8:	00080c29 	.word	0x00080c29

000801fc <_Z4loopv>:

void loop(void)
{
   801fc:	b508      	push	{r3, lr}
	delay(1U);
   801fe:	2001      	movs	r0, #1
   80200:	4b01      	ldr	r3, [pc, #4]	; (80208 <_Z4loopv+0xc>)
   80202:	4798      	blx	r3
   80204:	bd08      	pop	{r3, pc}
   80206:	bf00      	nop
   80208:	00080de9 	.word	0x00080de9

0008020c <_Z19lcp_board_init_gpiov>:
 */

#include "lcp_board.hpp"

void lcp_board_init_gpio(void)
{
   8020c:	b538      	push	{r3, r4, r5, lr}
    pinMode(LCP_PIN_WIZ_INT, INPUT);
   8020e:	2100      	movs	r1, #0
   80210:	2002      	movs	r0, #2
   80212:	4d40      	ldr	r5, [pc, #256]	; (80314 <_Z19lcp_board_init_gpiov+0x108>)
   80214:	47a8      	blx	r5

    pinMode(LCP_PIN_UART1_CS, OUTPUT);
   80216:	2101      	movs	r1, #1
   80218:	2003      	movs	r0, #3
   8021a:	47a8      	blx	r5
    pinMode(LCP_PIN_UART2_CS, OUTPUT);
   8021c:	2101      	movs	r1, #1
   8021e:	2005      	movs	r0, #5
   80220:	47a8      	blx	r5
    pinMode(LCP_PIN_UART3_CS, OUTPUT);
   80222:	2101      	movs	r1, #1
   80224:	2006      	movs	r0, #6
   80226:	47a8      	blx	r5

    pinMode(LCP_PIN_MICROSD_CS, OUTPUT);
   80228:	2101      	movs	r1, #1
   8022a:	2017      	movs	r0, #23
   8022c:	47a8      	blx	r5
    pinMode(LCP_PIN_ETH1_CS, OUTPUT);
   8022e:	2101      	movs	r1, #1
   80230:	200a      	movs	r0, #10
   80232:	47a8      	blx	r5
    pinMode(LCP_PIN_ETH2_CS, OUTPUT);
   80234:	2101      	movs	r1, #1
   80236:	2030      	movs	r0, #48	; 0x30
   80238:	47a8      	blx	r5

    pinMode(LCP_PIN_X2X_LED, OUTPUT);
   8023a:	2101      	movs	r1, #1
   8023c:	2018      	movs	r0, #24
   8023e:	47a8      	blx	r5
    pinMode(LCP_PIN_PLC_OK, OUTPUT);
   80240:	2101      	movs	r1, #1
   80242:	2028      	movs	r0, #40	; 0x28
   80244:	47a8      	blx	r5
    pinMode(LCP_PIN_SD_OK, OUTPUT);
   80246:	2101      	movs	r1, #1
   80248:	2029      	movs	r0, #41	; 0x29
   8024a:	47a8      	blx	r5
    pinMode(LCP_PIN_X2X_TRANSMIT, OUTPUT);
   8024c:	2101      	movs	r1, #1
   8024e:	202d      	movs	r0, #45	; 0x2d
   80250:	47a8      	blx	r5

    pinMode(LCP_PIN_A0, OUTPUT);
   80252:	2101      	movs	r1, #1
   80254:	2036      	movs	r0, #54	; 0x36
   80256:	47a8      	blx	r5
    pinMode(LCP_PIN_A7, OUTPUT);
   80258:	2101      	movs	r1, #1
   8025a:	203d      	movs	r0, #61	; 0x3d
   8025c:	47a8      	blx	r5

    digitalWrite(LCP_PIN_A7, LOW);
   8025e:	2100      	movs	r1, #0
   80260:	203d      	movs	r0, #61	; 0x3d
   80262:	4c2d      	ldr	r4, [pc, #180]	; (80318 <_Z19lcp_board_init_gpiov+0x10c>)
   80264:	47a0      	blx	r4
    digitalWrite(LCP_PIN_A0, HIGH);
   80266:	2101      	movs	r1, #1
   80268:	2036      	movs	r0, #54	; 0x36
   8026a:	47a0      	blx	r4

    digitalWrite(LCP_PIN_X2X_LED, LOW);
   8026c:	2100      	movs	r1, #0
   8026e:	2018      	movs	r0, #24
   80270:	47a0      	blx	r4

    digitalWrite(LCP_PIN_UART1_CS, HIGH);
   80272:	2101      	movs	r1, #1
   80274:	2003      	movs	r0, #3
   80276:	47a0      	blx	r4
    digitalWrite(LCP_PIN_UART2_CS, HIGH);
   80278:	2101      	movs	r1, #1
   8027a:	2005      	movs	r0, #5
   8027c:	47a0      	blx	r4
    digitalWrite(LCP_PIN_UART3_CS, HIGH);
   8027e:	2101      	movs	r1, #1
   80280:	2006      	movs	r0, #6
   80282:	47a0      	blx	r4

    digitalWrite(LCP_PIN_MICROSD_CS, HIGH);
   80284:	2101      	movs	r1, #1
   80286:	2017      	movs	r0, #23
   80288:	47a0      	blx	r4
    digitalWrite(LCP_PIN_ETH1_CS, HIGH);
   8028a:	2101      	movs	r1, #1
   8028c:	200a      	movs	r0, #10
   8028e:	47a0      	blx	r4
    digitalWrite(LCP_PIN_ETH2_CS, HIGH);
   80290:	2101      	movs	r1, #1
   80292:	2030      	movs	r0, #48	; 0x30
   80294:	47a0      	blx	r4

    digitalWrite(LCP_PIN_X2X_TRANSMIT, LOW);
   80296:	2100      	movs	r1, #0
   80298:	202d      	movs	r0, #45	; 0x2d
   8029a:	47a0      	blx	r4

    pinMode(LCP_PIN_RS485_DE_0, OUTPUT);
   8029c:	2101      	movs	r1, #1
   8029e:	202d      	movs	r0, #45	; 0x2d
   802a0:	47a8      	blx	r5
    pinMode(LCP_PIN_RS485_DE_1, OUTPUT);
   802a2:	2101      	movs	r1, #1
   802a4:	2007      	movs	r0, #7
   802a6:	47a8      	blx	r5
    pinMode(LCP_PIN_RS485_DE_2, OUTPUT);
   802a8:	2101      	movs	r1, #1
   802aa:	2008      	movs	r0, #8
   802ac:	47a8      	blx	r5
    pinMode(LCP_PIN_RS485_DE_3, OUTPUT);
   802ae:	2101      	movs	r1, #1
   802b0:	2009      	movs	r0, #9
   802b2:	47a8      	blx	r5

    digitalWrite(LCP_PIN_RS485_DE_0, LCP_RS485_RECEIVE);
   802b4:	2100      	movs	r1, #0
   802b6:	202d      	movs	r0, #45	; 0x2d
   802b8:	47a0      	blx	r4
    digitalWrite(LCP_PIN_RS485_DE_1, LCP_RS485_RECEIVE);
   802ba:	2100      	movs	r1, #0
   802bc:	2007      	movs	r0, #7
   802be:	47a0      	blx	r4
    digitalWrite(LCP_PIN_RS485_DE_2, LCP_RS485_RECEIVE);
   802c0:	2100      	movs	r1, #0
   802c2:	2008      	movs	r0, #8
   802c4:	47a0      	blx	r4
    digitalWrite(LCP_PIN_RS485_DE_3, LCP_RS485_RECEIVE);
   802c6:	2100      	movs	r1, #0
   802c8:	2009      	movs	r0, #9
   802ca:	47a0      	blx	r4

    delay(100U);
   802cc:	2064      	movs	r0, #100	; 0x64
   802ce:	4d13      	ldr	r5, [pc, #76]	; (8031c <_Z19lcp_board_init_gpiov+0x110>)
   802d0:	47a8      	blx	r5
    digitalWrite(LCP_PIN_RS485_DE_0, LCP_RS485_TRANSMIT);
   802d2:	2101      	movs	r1, #1
   802d4:	202d      	movs	r0, #45	; 0x2d
   802d6:	47a0      	blx	r4

    delay(100U);
   802d8:	2064      	movs	r0, #100	; 0x64
   802da:	47a8      	blx	r5
    digitalWrite(LCP_PIN_RS485_DE_1, LCP_RS485_TRANSMIT);
   802dc:	2101      	movs	r1, #1
   802de:	2007      	movs	r0, #7
   802e0:	47a0      	blx	r4

    delay(100U);
   802e2:	2064      	movs	r0, #100	; 0x64
   802e4:	47a8      	blx	r5
    digitalWrite(LCP_PIN_RS485_DE_2, LCP_RS485_TRANSMIT);
   802e6:	2101      	movs	r1, #1
   802e8:	2008      	movs	r0, #8
   802ea:	47a0      	blx	r4

    delay(100U);
   802ec:	2064      	movs	r0, #100	; 0x64
   802ee:	47a8      	blx	r5
    digitalWrite(LCP_PIN_RS485_DE_3, LCP_RS485_TRANSMIT);
   802f0:	2101      	movs	r1, #1
   802f2:	2009      	movs	r0, #9
   802f4:	47a0      	blx	r4

    delay(100U);
   802f6:	2064      	movs	r0, #100	; 0x64
   802f8:	47a8      	blx	r5
    digitalWrite(LCP_PIN_RS485_DE_0, LCP_RS485_RECEIVE);
   802fa:	2100      	movs	r1, #0
   802fc:	202d      	movs	r0, #45	; 0x2d
   802fe:	47a0      	blx	r4
    digitalWrite(LCP_PIN_RS485_DE_1, LCP_RS485_RECEIVE);
   80300:	2100      	movs	r1, #0
   80302:	2007      	movs	r0, #7
   80304:	47a0      	blx	r4
    digitalWrite(LCP_PIN_RS485_DE_2, LCP_RS485_RECEIVE);
   80306:	2100      	movs	r1, #0
   80308:	2008      	movs	r0, #8
   8030a:	47a0      	blx	r4
    digitalWrite(LCP_PIN_RS485_DE_3, LCP_RS485_RECEIVE);
   8030c:	2100      	movs	r1, #0
   8030e:	2009      	movs	r0, #9
   80310:	47a0      	blx	r4
   80312:	bd38      	pop	{r3, r4, r5, pc}
   80314:	00080cbd 	.word	0x00080cbd
   80318:	00080cd9 	.word	0x00080cd9
   8031c:	00080de9 	.word	0x00080de9

00080320 <Dummy_Handler>:

/**
 * \brief Default interrupt handler for unused IRQs.
 */
void Dummy_Handler(void)
{
   80320:	e7fe      	b.n	80320 <Dummy_Handler>
	...

00080324 <Reset_Handler>:
{
   80324:	b508      	push	{r3, lr}
        if (pSrc != pDest) {
   80326:	4b11      	ldr	r3, [pc, #68]	; (8036c <Reset_Handler+0x48>)
   80328:	4a11      	ldr	r2, [pc, #68]	; (80370 <Reset_Handler+0x4c>)
   8032a:	429a      	cmp	r2, r3
   8032c:	d009      	beq.n	80342 <Reset_Handler+0x1e>
   8032e:	4b0f      	ldr	r3, [pc, #60]	; (8036c <Reset_Handler+0x48>)
   80330:	4a0f      	ldr	r2, [pc, #60]	; (80370 <Reset_Handler+0x4c>)
   80332:	e003      	b.n	8033c <Reset_Handler+0x18>
                        *pDest++ = *pSrc++;
   80334:	6811      	ldr	r1, [r2, #0]
   80336:	6019      	str	r1, [r3, #0]
   80338:	3304      	adds	r3, #4
   8033a:	3204      	adds	r2, #4
                for (; pDest < &_erelocate;) {
   8033c:	490d      	ldr	r1, [pc, #52]	; (80374 <Reset_Handler+0x50>)
   8033e:	428b      	cmp	r3, r1
   80340:	d3f8      	bcc.n	80334 <Reset_Handler+0x10>
                        *pDest++ = *pSrc++;
   80342:	4b0d      	ldr	r3, [pc, #52]	; (80378 <Reset_Handler+0x54>)
   80344:	e002      	b.n	8034c <Reset_Handler+0x28>
                *pDest++ = 0;
   80346:	2200      	movs	r2, #0
   80348:	601a      	str	r2, [r3, #0]
   8034a:	3304      	adds	r3, #4
        for (pDest = &_szero; pDest < &_ezero;) {
   8034c:	4a0b      	ldr	r2, [pc, #44]	; (8037c <Reset_Handler+0x58>)
   8034e:	4293      	cmp	r3, r2
   80350:	d3f9      	bcc.n	80346 <Reset_Handler+0x22>
        SCB->VTOR = ((uint32_t) pSrc & SCB_VTOR_TBLOFF_Msk);
   80352:	4b0b      	ldr	r3, [pc, #44]	; (80380 <Reset_Handler+0x5c>)
   80354:	f023 4360 	bic.w	r3, r3, #3758096384	; 0xe0000000
   80358:	f023 037f 	bic.w	r3, r3, #127	; 0x7f
   8035c:	4a09      	ldr	r2, [pc, #36]	; (80384 <Reset_Handler+0x60>)
   8035e:	6093      	str	r3, [r2, #8]
        __libc_init_array();
   80360:	4b09      	ldr	r3, [pc, #36]	; (80388 <Reset_Handler+0x64>)
   80362:	4798      	blx	r3
        main();
   80364:	4b09      	ldr	r3, [pc, #36]	; (8038c <Reset_Handler+0x68>)
   80366:	4798      	blx	r3
   80368:	e7fe      	b.n	80368 <Reset_Handler+0x44>
   8036a:	bf00      	nop
   8036c:	20000000 	.word	0x20000000
   80370:	00081bd0 	.word	0x00081bd0
   80374:	20000854 	.word	0x20000854
   80378:	20000854 	.word	0x20000854
   8037c:	20000928 	.word	0x20000928
   80380:	00080000 	.word	0x00080000
   80384:	e000ed00 	.word	0xe000ed00
   80388:	00081029 	.word	0x00081029
   8038c:	00080ca1 	.word	0x00080ca1

00080390 <SystemCoreClockUpdate>:
}

void SystemCoreClockUpdate( void )
{
  /* Determine clock frequency according to clock register values */
  switch ( PMC->PMC_MCKR & PMC_MCKR_CSS_Msk )
   80390:	4b3e      	ldr	r3, [pc, #248]	; (8048c <SystemCoreClockUpdate+0xfc>)
   80392:	6b1b      	ldr	r3, [r3, #48]	; 0x30
   80394:	f003 0303 	and.w	r3, r3, #3
   80398:	2b03      	cmp	r3, #3
   8039a:	d83f      	bhi.n	8041c <SystemCoreClockUpdate+0x8c>
   8039c:	e8df f003 	tbb	[pc, r3]
   803a0:	2d2d1102 	.word	0x2d2d1102
  {
    case PMC_MCKR_CSS_SLOW_CLK: /* Slow clock */
      if (SUPC->SUPC_SR & SUPC_SR_OSCSEL)
   803a4:	4b3a      	ldr	r3, [pc, #232]	; (80490 <SystemCoreClockUpdate+0x100>)
   803a6:	695b      	ldr	r3, [r3, #20]
   803a8:	f013 0f80 	tst.w	r3, #128	; 0x80
   803ac:	d004      	beq.n	803b8 <SystemCoreClockUpdate+0x28>
      {
        SystemCoreClock = CHIP_FREQ_XTAL_32K;
   803ae:	f44f 4200 	mov.w	r2, #32768	; 0x8000
   803b2:	4b38      	ldr	r3, [pc, #224]	; (80494 <SystemCoreClockUpdate+0x104>)
   803b4:	601a      	str	r2, [r3, #0]
   803b6:	e031      	b.n	8041c <SystemCoreClockUpdate+0x8c>
      }
      else
      {
        SystemCoreClock = CHIP_FREQ_SLCK_RC;
   803b8:	f44f 42fa 	mov.w	r2, #32000	; 0x7d00
   803bc:	4b35      	ldr	r3, [pc, #212]	; (80494 <SystemCoreClockUpdate+0x104>)
   803be:	601a      	str	r2, [r3, #0]
   803c0:	e02c      	b.n	8041c <SystemCoreClockUpdate+0x8c>
      }
    break;

    case PMC_MCKR_CSS_MAIN_CLK: /* Main clock */
      if (PMC->CKGR_MOR & CKGR_MOR_MOSCSEL)
   803c2:	4b32      	ldr	r3, [pc, #200]	; (8048c <SystemCoreClockUpdate+0xfc>)
   803c4:	6a1b      	ldr	r3, [r3, #32]
   803c6:	f013 7f80 	tst.w	r3, #16777216	; 0x1000000
   803ca:	d003      	beq.n	803d4 <SystemCoreClockUpdate+0x44>
      {
        SystemCoreClock = CHIP_FREQ_XTAL_12M;
   803cc:	4a32      	ldr	r2, [pc, #200]	; (80498 <SystemCoreClockUpdate+0x108>)
   803ce:	4b31      	ldr	r3, [pc, #196]	; (80494 <SystemCoreClockUpdate+0x104>)
   803d0:	601a      	str	r2, [r3, #0]
   803d2:	e023      	b.n	8041c <SystemCoreClockUpdate+0x8c>
      }
      else
      {
        SystemCoreClock = CHIP_FREQ_MAINCK_RC_4MHZ;
   803d4:	4a31      	ldr	r2, [pc, #196]	; (8049c <SystemCoreClockUpdate+0x10c>)
   803d6:	4b2f      	ldr	r3, [pc, #188]	; (80494 <SystemCoreClockUpdate+0x104>)
   803d8:	601a      	str	r2, [r3, #0]

        switch (PMC->CKGR_MOR & CKGR_MOR_MOSCRCF_Msk)
   803da:	4b2c      	ldr	r3, [pc, #176]	; (8048c <SystemCoreClockUpdate+0xfc>)
   803dc:	6a1b      	ldr	r3, [r3, #32]
   803de:	f003 0370 	and.w	r3, r3, #112	; 0x70
   803e2:	2b10      	cmp	r3, #16
   803e4:	d005      	beq.n	803f2 <SystemCoreClockUpdate+0x62>
   803e6:	2b20      	cmp	r3, #32
   803e8:	d118      	bne.n	8041c <SystemCoreClockUpdate+0x8c>
          case CKGR_MOR_MOSCRCF_8_MHz:
            SystemCoreClock *= 2U;
          break;

          case CKGR_MOR_MOSCRCF_12_MHz:
            SystemCoreClock *= 3U;
   803ea:	4a2b      	ldr	r2, [pc, #172]	; (80498 <SystemCoreClockUpdate+0x108>)
   803ec:	4b29      	ldr	r3, [pc, #164]	; (80494 <SystemCoreClockUpdate+0x104>)
   803ee:	601a      	str	r2, [r3, #0]
          break;
   803f0:	e014      	b.n	8041c <SystemCoreClockUpdate+0x8c>
            SystemCoreClock *= 2U;
   803f2:	4a2b      	ldr	r2, [pc, #172]	; (804a0 <SystemCoreClockUpdate+0x110>)
   803f4:	4b27      	ldr	r3, [pc, #156]	; (80494 <SystemCoreClockUpdate+0x104>)
   803f6:	601a      	str	r2, [r3, #0]
          break;
   803f8:	e010      	b.n	8041c <SystemCoreClockUpdate+0x8c>
      }
    break;

    case PMC_MCKR_CSS_PLLA_CLK: /* PLLA clock */
    case PMC_MCKR_CSS_UPLL_CLK: /* UPLL clock */
      if ( PMC->CKGR_MOR & CKGR_MOR_MOSCSEL )
   803fa:	4b24      	ldr	r3, [pc, #144]	; (8048c <SystemCoreClockUpdate+0xfc>)
   803fc:	6a1b      	ldr	r3, [r3, #32]
   803fe:	f013 7f80 	tst.w	r3, #16777216	; 0x1000000
   80402:	d01a      	beq.n	8043a <SystemCoreClockUpdate+0xaa>
      {
        SystemCoreClock = CHIP_FREQ_XTAL_12M;
   80404:	4a24      	ldr	r2, [pc, #144]	; (80498 <SystemCoreClockUpdate+0x108>)
   80406:	4b23      	ldr	r3, [pc, #140]	; (80494 <SystemCoreClockUpdate+0x104>)
   80408:	601a      	str	r2, [r3, #0]

          default:
          break;
        }
      }
      if ( (PMC->PMC_MCKR & PMC_MCKR_CSS_Msk) == PMC_MCKR_CSS_PLLA_CLK )
   8040a:	4b20      	ldr	r3, [pc, #128]	; (8048c <SystemCoreClockUpdate+0xfc>)
   8040c:	6b1b      	ldr	r3, [r3, #48]	; 0x30
   8040e:	f003 0303 	and.w	r3, r3, #3
   80412:	2b02      	cmp	r3, #2
   80414:	d024      	beq.n	80460 <SystemCoreClockUpdate+0xd0>
        SystemCoreClock *= ((((PMC->CKGR_PLLAR) & CKGR_PLLAR_MULA_Msk) >> CKGR_PLLAR_MULA_Pos) + 1U);
        SystemCoreClock /= ((((PMC->CKGR_PLLAR) & CKGR_PLLAR_DIVA_Msk) >> CKGR_PLLAR_DIVA_Pos));
      }
      else
      {
        SystemCoreClock = CHIP_FREQ_UTMIPLL / 2U;
   80416:	4a23      	ldr	r2, [pc, #140]	; (804a4 <SystemCoreClockUpdate+0x114>)
   80418:	4b1e      	ldr	r3, [pc, #120]	; (80494 <SystemCoreClockUpdate+0x104>)
   8041a:	601a      	str	r2, [r3, #0]
      }
    break;
  }

  if ( (PMC->PMC_MCKR & PMC_MCKR_PRES_Msk) == PMC_MCKR_PRES_CLK_3 )
   8041c:	4b1b      	ldr	r3, [pc, #108]	; (8048c <SystemCoreClockUpdate+0xfc>)
   8041e:	6b1b      	ldr	r3, [r3, #48]	; 0x30
   80420:	f003 0370 	and.w	r3, r3, #112	; 0x70
   80424:	2b70      	cmp	r3, #112	; 0x70
   80426:	d029      	beq.n	8047c <SystemCoreClockUpdate+0xec>
  {
    SystemCoreClock /= 3U;
  }
  else
  {
    SystemCoreClock >>= ((PMC->PMC_MCKR & PMC_MCKR_PRES_Msk) >> PMC_MCKR_PRES_Pos);
   80428:	4b18      	ldr	r3, [pc, #96]	; (8048c <SystemCoreClockUpdate+0xfc>)
   8042a:	6b1a      	ldr	r2, [r3, #48]	; 0x30
   8042c:	f3c2 1202 	ubfx	r2, r2, #4, #3
   80430:	4918      	ldr	r1, [pc, #96]	; (80494 <SystemCoreClockUpdate+0x104>)
   80432:	680b      	ldr	r3, [r1, #0]
   80434:	40d3      	lsrs	r3, r2
   80436:	600b      	str	r3, [r1, #0]
   80438:	4770      	bx	lr
        SystemCoreClock = CHIP_FREQ_MAINCK_RC_4MHZ;
   8043a:	4a18      	ldr	r2, [pc, #96]	; (8049c <SystemCoreClockUpdate+0x10c>)
   8043c:	4b15      	ldr	r3, [pc, #84]	; (80494 <SystemCoreClockUpdate+0x104>)
   8043e:	601a      	str	r2, [r3, #0]
        switch ( PMC->CKGR_MOR & CKGR_MOR_MOSCRCF_Msk )
   80440:	4b12      	ldr	r3, [pc, #72]	; (8048c <SystemCoreClockUpdate+0xfc>)
   80442:	6a1b      	ldr	r3, [r3, #32]
   80444:	f003 0370 	and.w	r3, r3, #112	; 0x70
   80448:	2b10      	cmp	r3, #16
   8044a:	d005      	beq.n	80458 <SystemCoreClockUpdate+0xc8>
   8044c:	2b20      	cmp	r3, #32
   8044e:	d1dc      	bne.n	8040a <SystemCoreClockUpdate+0x7a>
            SystemCoreClock *= 3U;
   80450:	4a11      	ldr	r2, [pc, #68]	; (80498 <SystemCoreClockUpdate+0x108>)
   80452:	4b10      	ldr	r3, [pc, #64]	; (80494 <SystemCoreClockUpdate+0x104>)
   80454:	601a      	str	r2, [r3, #0]
          break;
   80456:	e7d8      	b.n	8040a <SystemCoreClockUpdate+0x7a>
            SystemCoreClock *= 2U;
   80458:	4a11      	ldr	r2, [pc, #68]	; (804a0 <SystemCoreClockUpdate+0x110>)
   8045a:	4b0e      	ldr	r3, [pc, #56]	; (80494 <SystemCoreClockUpdate+0x104>)
   8045c:	601a      	str	r2, [r3, #0]
          break;
   8045e:	e7d4      	b.n	8040a <SystemCoreClockUpdate+0x7a>
        SystemCoreClock *= ((((PMC->CKGR_PLLAR) & CKGR_PLLAR_MULA_Msk) >> CKGR_PLLAR_MULA_Pos) + 1U);
   80460:	480a      	ldr	r0, [pc, #40]	; (8048c <SystemCoreClockUpdate+0xfc>)
   80462:	6a82      	ldr	r2, [r0, #40]	; 0x28
   80464:	f3c2 420a 	ubfx	r2, r2, #16, #11
   80468:	490a      	ldr	r1, [pc, #40]	; (80494 <SystemCoreClockUpdate+0x104>)
   8046a:	680b      	ldr	r3, [r1, #0]
   8046c:	fb02 3303 	mla	r3, r2, r3, r3
        SystemCoreClock /= ((((PMC->CKGR_PLLAR) & CKGR_PLLAR_DIVA_Msk) >> CKGR_PLLAR_DIVA_Pos));
   80470:	6a82      	ldr	r2, [r0, #40]	; 0x28
   80472:	b2d2      	uxtb	r2, r2
   80474:	fbb3 f3f2 	udiv	r3, r3, r2
   80478:	600b      	str	r3, [r1, #0]
   8047a:	e7cf      	b.n	8041c <SystemCoreClockUpdate+0x8c>
    SystemCoreClock /= 3U;
   8047c:	4a05      	ldr	r2, [pc, #20]	; (80494 <SystemCoreClockUpdate+0x104>)
   8047e:	6813      	ldr	r3, [r2, #0]
   80480:	4909      	ldr	r1, [pc, #36]	; (804a8 <SystemCoreClockUpdate+0x118>)
   80482:	fba1 1303 	umull	r1, r3, r1, r3
   80486:	085b      	lsrs	r3, r3, #1
   80488:	6013      	str	r3, [r2, #0]
   8048a:	4770      	bx	lr
   8048c:	400e0600 	.word	0x400e0600
   80490:	400e1a10 	.word	0x400e1a10
   80494:	20000004 	.word	0x20000004
   80498:	00b71b00 	.word	0x00b71b00
   8049c:	003d0900 	.word	0x003d0900
   804a0:	007a1200 	.word	0x007a1200
   804a4:	0e4e1c00 	.word	0x0e4e1c00
   804a8:	aaaaaaab 	.word	0xaaaaaaab

000804ac <_ZL17hal_gpio_find_pinm>:

static const HalGpioPinDescription* hal_gpio_find_pin(uint32_t pin_id)
{
    const uint32_t count = sizeof(g_gpio_pins) / sizeof(g_gpio_pins[0]);

    for (uint32_t index = 0U; index < count; ++index)
   804ac:	2300      	movs	r3, #0
   804ae:	2b0f      	cmp	r3, #15
   804b0:	d809      	bhi.n	804c6 <_ZL17hal_gpio_find_pinm+0x1a>
    {
        if (g_gpio_pins[index].pin_id == pin_id)
   804b2:	011a      	lsls	r2, r3, #4
   804b4:	4905      	ldr	r1, [pc, #20]	; (804cc <_ZL17hal_gpio_find_pinm+0x20>)
   804b6:	588a      	ldr	r2, [r1, r2]
   804b8:	4282      	cmp	r2, r0
   804ba:	d001      	beq.n	804c0 <_ZL17hal_gpio_find_pinm+0x14>
    for (uint32_t index = 0U; index < count; ++index)
   804bc:	3301      	adds	r3, #1
   804be:	e7f6      	b.n	804ae <_ZL17hal_gpio_find_pinm+0x2>
        {
            return &g_gpio_pins[index];
   804c0:	eb01 1003 	add.w	r0, r1, r3, lsl #4
   804c4:	4770      	bx	lr
        }
    }

    return 0;
   804c6:	2000      	movs	r0, #0
}
   804c8:	4770      	bx	lr
   804ca:	bf00      	nop
   804cc:	000819a4 	.word	0x000819a4

000804d0 <_ZL21hal_gpio_enable_clockm>:

static void hal_gpio_enable_clock(uint32_t peripheral_id)
{
    if (peripheral_id < 32U)
   804d0:	281f      	cmp	r0, #31
   804d2:	d907      	bls.n	804e4 <_ZL21hal_gpio_enable_clockm+0x14>
    {
        PMC->PMC_PCER0 = (1UL << peripheral_id);
    }
    else
    {
        PMC->PMC_PCER1 = (1UL << (peripheral_id - 32U));
   804d4:	3820      	subs	r0, #32
   804d6:	2301      	movs	r3, #1
   804d8:	fa03 f000 	lsl.w	r0, r3, r0
   804dc:	4b04      	ldr	r3, [pc, #16]	; (804f0 <_ZL21hal_gpio_enable_clockm+0x20>)
   804de:	f8c3 0100 	str.w	r0, [r3, #256]	; 0x100
   804e2:	4770      	bx	lr
        PMC->PMC_PCER0 = (1UL << peripheral_id);
   804e4:	2301      	movs	r3, #1
   804e6:	fa03 f000 	lsl.w	r0, r3, r0
   804ea:	4b01      	ldr	r3, [pc, #4]	; (804f0 <_ZL21hal_gpio_enable_clockm+0x20>)
   804ec:	6118      	str	r0, [r3, #16]
   804ee:	4770      	bx	lr
   804f0:	400e0600 	.word	0x400e0600

000804f4 <_Z18hal_gpio_configurem11HalGpioMode>:
    }
}

void hal_gpio_configure(uint32_t pin_id, HalGpioMode mode)
{
   804f4:	b538      	push	{r3, r4, r5, lr}
   804f6:	460d      	mov	r5, r1
    const HalGpioPinDescription* pin = hal_gpio_find_pin(pin_id);
   804f8:	4b11      	ldr	r3, [pc, #68]	; (80540 <_Z18hal_gpio_configurem11HalGpioMode+0x4c>)
   804fa:	4798      	blx	r3

    if (pin == 0)
   804fc:	b198      	cbz	r0, 80526 <_Z18hal_gpio_configurem11HalGpioMode+0x32>
   804fe:	4604      	mov	r4, r0
    {
        return;
    }

    hal_gpio_enable_clock(pin->peripheral_id);
   80500:	68c0      	ldr	r0, [r0, #12]
   80502:	4b10      	ldr	r3, [pc, #64]	; (80544 <_Z18hal_gpio_configurem11HalGpioMode+0x50>)
   80504:	4798      	blx	r3

    pin->port->PIO_PER = pin->mask;
   80506:	6863      	ldr	r3, [r4, #4]
   80508:	68a2      	ldr	r2, [r4, #8]
   8050a:	601a      	str	r2, [r3, #0]
    pin->port->PIO_IDR = pin->mask;
   8050c:	6863      	ldr	r3, [r4, #4]
   8050e:	68a2      	ldr	r2, [r4, #8]
   80510:	645a      	str	r2, [r3, #68]	; 0x44

    if (mode == HAL_GPIO_OUTPUT)
   80512:	2d01      	cmp	r5, #1
   80514:	d008      	beq.n	80528 <_Z18hal_gpio_configurem11HalGpioMode+0x34>
        pin->port->PIO_PUDR = pin->mask;
        pin->port->PIO_OER = pin->mask;
    }
    else
    {
        pin->port->PIO_ODR = pin->mask;
   80516:	6863      	ldr	r3, [r4, #4]
   80518:	68a2      	ldr	r2, [r4, #8]
   8051a:	615a      	str	r2, [r3, #20]

        if (mode == HAL_GPIO_INPUT_PULLUP)
   8051c:	2d02      	cmp	r5, #2
   8051e:	d00a      	beq.n	80536 <_Z18hal_gpio_configurem11HalGpioMode+0x42>
        {
            pin->port->PIO_PUER = pin->mask;
        }
        else
        {
            pin->port->PIO_PUDR = pin->mask;
   80520:	6863      	ldr	r3, [r4, #4]
   80522:	68a2      	ldr	r2, [r4, #8]
   80524:	661a      	str	r2, [r3, #96]	; 0x60
   80526:	bd38      	pop	{r3, r4, r5, pc}
        pin->port->PIO_PUDR = pin->mask;
   80528:	6863      	ldr	r3, [r4, #4]
   8052a:	68a2      	ldr	r2, [r4, #8]
   8052c:	661a      	str	r2, [r3, #96]	; 0x60
        pin->port->PIO_OER = pin->mask;
   8052e:	6863      	ldr	r3, [r4, #4]
   80530:	68a2      	ldr	r2, [r4, #8]
   80532:	611a      	str	r2, [r3, #16]
   80534:	bd38      	pop	{r3, r4, r5, pc}
            pin->port->PIO_PUER = pin->mask;
   80536:	6863      	ldr	r3, [r4, #4]
   80538:	68a2      	ldr	r2, [r4, #8]
   8053a:	665a      	str	r2, [r3, #100]	; 0x64
   8053c:	bd38      	pop	{r3, r4, r5, pc}
   8053e:	bf00      	nop
   80540:	000804ad 	.word	0x000804ad
   80544:	000804d1 	.word	0x000804d1

00080548 <_Z14hal_gpio_writemm>:
        }
    }
}

void hal_gpio_write(uint32_t pin_id, uint32_t value)
{
   80548:	b538      	push	{r3, r4, r5, lr}
   8054a:	460d      	mov	r5, r1
    const HalGpioPinDescription* pin = hal_gpio_find_pin(pin_id);
   8054c:	4b07      	ldr	r3, [pc, #28]	; (8056c <_Z14hal_gpio_writemm+0x24>)
   8054e:	4798      	blx	r3

    if (pin == 0)
   80550:	b138      	cbz	r0, 80562 <_Z14hal_gpio_writemm+0x1a>
   80552:	4604      	mov	r4, r0
    {
        return;
    }

    hal_gpio_enable_clock(pin->peripheral_id);
   80554:	68c0      	ldr	r0, [r0, #12]
   80556:	4b06      	ldr	r3, [pc, #24]	; (80570 <_Z14hal_gpio_writemm+0x28>)
   80558:	4798      	blx	r3

    if (value != 0U)
   8055a:	b91d      	cbnz	r5, 80564 <_Z14hal_gpio_writemm+0x1c>
    {
        pin->port->PIO_SODR = pin->mask;
    }
    else
    {
        pin->port->PIO_CODR = pin->mask;
   8055c:	6863      	ldr	r3, [r4, #4]
   8055e:	68a2      	ldr	r2, [r4, #8]
   80560:	635a      	str	r2, [r3, #52]	; 0x34
   80562:	bd38      	pop	{r3, r4, r5, pc}
        pin->port->PIO_SODR = pin->mask;
   80564:	6863      	ldr	r3, [r4, #4]
   80566:	68a2      	ldr	r2, [r4, #8]
   80568:	631a      	str	r2, [r3, #48]	; 0x30
   8056a:	bd38      	pop	{r3, r4, r5, pc}
   8056c:	000804ad 	.word	0x000804ad
   80570:	000804d1 	.word	0x000804d1

00080574 <_ZL27hal_enable_peripheral_clockm>:
static const uint32_t HAL_SPI_DEFAULT_CLOCK_HZ = 4000000U;
static const uint32_t HAL_SPI_PCS_VALUE = 0x0EU;

static void hal_enable_peripheral_clock(uint32_t peripheral_id)
{
    if (peripheral_id < 32U)
   80574:	281f      	cmp	r0, #31
   80576:	d907      	bls.n	80588 <_ZL27hal_enable_peripheral_clockm+0x14>
    {
        PMC->PMC_PCER0 = (1UL << peripheral_id);
    }
    else
    {
        PMC->PMC_PCER1 = (1UL << (peripheral_id - 32U));
   80578:	3820      	subs	r0, #32
   8057a:	2301      	movs	r3, #1
   8057c:	fa03 f000 	lsl.w	r0, r3, r0
   80580:	4b04      	ldr	r3, [pc, #16]	; (80594 <_ZL27hal_enable_peripheral_clockm+0x20>)
   80582:	f8c3 0100 	str.w	r0, [r3, #256]	; 0x100
   80586:	4770      	bx	lr
        PMC->PMC_PCER0 = (1UL << peripheral_id);
   80588:	2301      	movs	r3, #1
   8058a:	fa03 f000 	lsl.w	r0, r3, r0
   8058e:	4b01      	ldr	r3, [pc, #4]	; (80594 <_ZL27hal_enable_peripheral_clockm+0x20>)
   80590:	6118      	str	r0, [r3, #16]
   80592:	4770      	bx	lr
   80594:	400e0600 	.word	0x400e0600

00080598 <_ZL21hal_spi_configure_pinP3Piommh>:
    }
}

static void hal_spi_configure_pin(Pio* port, uint32_t mask, uint32_t pio_id, uint8_t peripheral_b)
{
   80598:	b570      	push	{r4, r5, r6, lr}
   8059a:	4604      	mov	r4, r0
   8059c:	460d      	mov	r5, r1
   8059e:	461e      	mov	r6, r3
    hal_enable_peripheral_clock(pio_id);
   805a0:	4610      	mov	r0, r2
   805a2:	4b07      	ldr	r3, [pc, #28]	; (805c0 <_ZL21hal_spi_configure_pinP3Piommh+0x28>)
   805a4:	4798      	blx	r3

    port->PIO_IDR = mask;
   805a6:	6465      	str	r5, [r4, #68]	; 0x44
    port->PIO_PUDR = mask;
   805a8:	6625      	str	r5, [r4, #96]	; 0x60

    if (peripheral_b != 0U)
   805aa:	b92e      	cbnz	r6, 805b8 <_ZL21hal_spi_configure_pinP3Piommh+0x20>
    {
        port->PIO_ABSR |= mask;
    }
    else
    {
        port->PIO_ABSR &= ~mask;
   805ac:	6f23      	ldr	r3, [r4, #112]	; 0x70
   805ae:	ea23 0305 	bic.w	r3, r3, r5
   805b2:	6723      	str	r3, [r4, #112]	; 0x70
    }

    port->PIO_PDR = mask;
   805b4:	6065      	str	r5, [r4, #4]
   805b6:	bd70      	pop	{r4, r5, r6, pc}
        port->PIO_ABSR |= mask;
   805b8:	6f23      	ldr	r3, [r4, #112]	; 0x70
   805ba:	432b      	orrs	r3, r5
   805bc:	6723      	str	r3, [r4, #112]	; 0x70
   805be:	e7f9      	b.n	805b4 <_ZL21hal_spi_configure_pinP3Piommh+0x1c>
   805c0:	00080575 	.word	0x00080575

000805c4 <_ZL19hal_spi_get_divisorm>:
}

static uint32_t hal_spi_get_divisor(uint32_t clock_hz)
{
    if (clock_hz == 0U)
   805c4:	4603      	mov	r3, r0
   805c6:	b900      	cbnz	r0, 805ca <_ZL19hal_spi_get_divisorm+0x6>
    {
        clock_hz = HAL_SPI_DEFAULT_CLOCK_HZ;
   805c8:	4b06      	ldr	r3, [pc, #24]	; (805e4 <_ZL19hal_spi_get_divisorm+0x20>)
    }

    uint32_t divisor = (SystemCoreClock + clock_hz - 1U) / clock_hz;
   805ca:	4a07      	ldr	r2, [pc, #28]	; (805e8 <_ZL19hal_spi_get_divisorm+0x24>)
   805cc:	6810      	ldr	r0, [r2, #0]
   805ce:	4418      	add	r0, r3
   805d0:	3801      	subs	r0, #1
   805d2:	fbb0 f0f3 	udiv	r0, r0, r3

    if (divisor == 0U)
   805d6:	b900      	cbnz	r0, 805da <_ZL19hal_spi_get_divisorm+0x16>
    {
        divisor = 1U;
   805d8:	2001      	movs	r0, #1
    }

    if (divisor > 255U)
   805da:	28ff      	cmp	r0, #255	; 0xff
   805dc:	d900      	bls.n	805e0 <_ZL19hal_spi_get_divisorm+0x1c>
    {
        divisor = 255U;
   805de:	20ff      	movs	r0, #255	; 0xff
    }

    return divisor;
}
   805e0:	4770      	bx	lr
   805e2:	bf00      	nop
   805e4:	003d0900 	.word	0x003d0900
   805e8:	20000004 	.word	0x20000004

000805ec <_ZL21hal_spi_get_mode_bits10HalSpiMode>:

static uint32_t hal_spi_get_mode_bits(HalSpiMode mode)
{
    switch (mode)
   805ec:	2802      	cmp	r0, #2
   805ee:	d009      	beq.n	80604 <_ZL21hal_spi_get_mode_bits10HalSpiMode+0x18>
   805f0:	2803      	cmp	r0, #3
   805f2:	d005      	beq.n	80600 <_ZL21hal_spi_get_mode_bits10HalSpiMode+0x14>
   805f4:	2801      	cmp	r0, #1
   805f6:	d001      	beq.n	805fc <_ZL21hal_spi_get_mode_bits10HalSpiMode+0x10>
        case HAL_SPI_MODE_3:
            return SPI_CSR_CPOL;

        case HAL_SPI_MODE_0:
        default:
            return SPI_CSR_NCPHA;
   805f8:	2002      	movs	r0, #2
   805fa:	4770      	bx	lr
            return 0U;
   805fc:	2000      	movs	r0, #0
   805fe:	4770      	bx	lr
            return SPI_CSR_CPOL;
   80600:	2001      	movs	r0, #1
   80602:	4770      	bx	lr
            return SPI_CSR_CPOL | SPI_CSR_NCPHA;
   80604:	2003      	movs	r0, #3
    }
}
   80606:	4770      	bx	lr

00080608 <_ZL16hal_spi_flush_rxv>:

static void hal_spi_flush_rx(void)
{
    while ((SPI0->SPI_SR & SPI_SR_RDRF) != 0U)
   80608:	4b08      	ldr	r3, [pc, #32]	; (8062c <_ZL16hal_spi_flush_rxv+0x24>)
   8060a:	691b      	ldr	r3, [r3, #16]
   8060c:	f013 0f01 	tst.w	r3, #1
   80610:	d00a      	beq.n	80628 <_ZL16hal_spi_flush_rxv+0x20>
{
   80612:	b082      	sub	sp, #8
    {
        volatile uint32_t value = SPI0->SPI_RDR;
   80614:	4b05      	ldr	r3, [pc, #20]	; (8062c <_ZL16hal_spi_flush_rxv+0x24>)
   80616:	689b      	ldr	r3, [r3, #8]
   80618:	9301      	str	r3, [sp, #4]
        (void)value;
   8061a:	9b01      	ldr	r3, [sp, #4]
    while ((SPI0->SPI_SR & SPI_SR_RDRF) != 0U)
   8061c:	4b03      	ldr	r3, [pc, #12]	; (8062c <_ZL16hal_spi_flush_rxv+0x24>)
   8061e:	691b      	ldr	r3, [r3, #16]
   80620:	f013 0f01 	tst.w	r3, #1
   80624:	d1f6      	bne.n	80614 <_ZL16hal_spi_flush_rxv+0xc>
    }
}
   80626:	b002      	add	sp, #8
   80628:	4770      	bx	lr
   8062a:	bf00      	nop
   8062c:	40008000 	.word	0x40008000

00080630 <_Z17hal_spi_configureRK12HalSpiConfig>:
{
    SPI0->SPI_CR = SPI_CR_SPIDIS;
}

void hal_spi_configure(const HalSpiConfig& config)
{
   80630:	b538      	push	{r3, r4, r5, lr}
   80632:	4605      	mov	r5, r0
    const uint32_t divisor = hal_spi_get_divisor(config.clock_hz);
   80634:	6800      	ldr	r0, [r0, #0]
   80636:	4b05      	ldr	r3, [pc, #20]	; (8064c <_Z17hal_spi_configureRK12HalSpiConfig+0x1c>)
   80638:	4798      	blx	r3

    const uint32_t csr = SPI_CSR_BITS_8_BIT
                       | SPI_CSR_SCBR(divisor)
   8063a:	0200      	lsls	r0, r0, #8
   8063c:	b284      	uxth	r4, r0
                       | hal_spi_get_mode_bits(config.mode);
   8063e:	7968      	ldrb	r0, [r5, #5]
   80640:	4b03      	ldr	r3, [pc, #12]	; (80650 <_Z17hal_spi_configureRK12HalSpiConfig+0x20>)
   80642:	4798      	blx	r3
   80644:	4320      	orrs	r0, r4

    SPI0->SPI_CSR[0] = csr;
   80646:	4b03      	ldr	r3, [pc, #12]	; (80654 <_Z17hal_spi_configureRK12HalSpiConfig+0x24>)
   80648:	6318      	str	r0, [r3, #48]	; 0x30
   8064a:	bd38      	pop	{r3, r4, r5, pc}
   8064c:	000805c5 	.word	0x000805c5
   80650:	000805ed 	.word	0x000805ed
   80654:	40008000 	.word	0x40008000

00080658 <_Z13hal_spi_beginv>:
{
   80658:	b530      	push	{r4, r5, lr}
   8065a:	b083      	sub	sp, #12
    SystemCoreClockUpdate();
   8065c:	4b17      	ldr	r3, [pc, #92]	; (806bc <_Z13hal_spi_beginv+0x64>)
   8065e:	4798      	blx	r3
    hal_enable_peripheral_clock(ID_SPI0);
   80660:	2018      	movs	r0, #24
   80662:	4b17      	ldr	r3, [pc, #92]	; (806c0 <_Z13hal_spi_beginv+0x68>)
   80664:	4798      	blx	r3
    hal_spi_configure_pin(PIOA, (1UL << 25), ID_PIOA, 0U);
   80666:	4d17      	ldr	r5, [pc, #92]	; (806c4 <_Z13hal_spi_beginv+0x6c>)
   80668:	2300      	movs	r3, #0
   8066a:	220b      	movs	r2, #11
   8066c:	f04f 7100 	mov.w	r1, #33554432	; 0x2000000
   80670:	4628      	mov	r0, r5
   80672:	4c15      	ldr	r4, [pc, #84]	; (806c8 <_Z13hal_spi_beginv+0x70>)
   80674:	47a0      	blx	r4
    hal_spi_configure_pin(PIOA, (1UL << 26), ID_PIOA, 0U);
   80676:	2300      	movs	r3, #0
   80678:	220b      	movs	r2, #11
   8067a:	f04f 6180 	mov.w	r1, #67108864	; 0x4000000
   8067e:	4628      	mov	r0, r5
   80680:	47a0      	blx	r4
    hal_spi_configure_pin(PIOA, (1UL << 27), ID_PIOA, 0U);
   80682:	2300      	movs	r3, #0
   80684:	220b      	movs	r2, #11
   80686:	f04f 6100 	mov.w	r1, #134217728	; 0x8000000
   8068a:	4628      	mov	r0, r5
   8068c:	47a0      	blx	r4
    SPI0->SPI_CR = SPI_CR_SWRST;
   8068e:	4c0f      	ldr	r4, [pc, #60]	; (806cc <_Z13hal_spi_beginv+0x74>)
   80690:	2380      	movs	r3, #128	; 0x80
   80692:	6023      	str	r3, [r4, #0]
    SPI0->SPI_CR = SPI_CR_SWRST;
   80694:	6023      	str	r3, [r4, #0]
    SPI0->SPI_MR = SPI_MR_MSTR
   80696:	4b0e      	ldr	r3, [pc, #56]	; (806d0 <_Z13hal_spi_beginv+0x78>)
   80698:	6063      	str	r3, [r4, #4]
    default_config.clock_hz = HAL_SPI_DEFAULT_CLOCK_HZ;
   8069a:	4b0e      	ldr	r3, [pc, #56]	; (806d4 <_Z13hal_spi_beginv+0x7c>)
   8069c:	9300      	str	r3, [sp, #0]
    default_config.bit_order = HAL_SPI_MSB_FIRST;
   8069e:	2300      	movs	r3, #0
   806a0:	f88d 3004 	strb.w	r3, [sp, #4]
    default_config.mode = HAL_SPI_MODE_0;
   806a4:	f88d 3005 	strb.w	r3, [sp, #5]
    hal_spi_configure(default_config);
   806a8:	4668      	mov	r0, sp
   806aa:	4b0b      	ldr	r3, [pc, #44]	; (806d8 <_Z13hal_spi_beginv+0x80>)
   806ac:	4798      	blx	r3
    hal_spi_flush_rx();
   806ae:	4b0b      	ldr	r3, [pc, #44]	; (806dc <_Z13hal_spi_beginv+0x84>)
   806b0:	4798      	blx	r3
    SPI0->SPI_CR = SPI_CR_SPIEN;
   806b2:	2301      	movs	r3, #1
   806b4:	6023      	str	r3, [r4, #0]
}
   806b6:	b003      	add	sp, #12
   806b8:	bd30      	pop	{r4, r5, pc}
   806ba:	bf00      	nop
   806bc:	00080391 	.word	0x00080391
   806c0:	00080575 	.word	0x00080575
   806c4:	400e0e00 	.word	0x400e0e00
   806c8:	00080599 	.word	0x00080599
   806cc:	40008000 	.word	0x40008000
   806d0:	000e0011 	.word	0x000e0011
   806d4:	003d0900 	.word	0x003d0900
   806d8:	00080631 	.word	0x00080631
   806dc:	00080609 	.word	0x00080609

000806e0 <_Z16hal_spi_transferh>:
}

uint8_t hal_spi_transfer(uint8_t value)
{
    while ((SPI0->SPI_SR & SPI_SR_TDRE) == 0U)
   806e0:	4b0a      	ldr	r3, [pc, #40]	; (8070c <_Z16hal_spi_transferh+0x2c>)
   806e2:	691b      	ldr	r3, [r3, #16]
   806e4:	f013 0f02 	tst.w	r3, #2
   806e8:	d101      	bne.n	806ee <_Z16hal_spi_transferh+0xe>
    {
        __asm__ volatile ("nop");
   806ea:	bf00      	nop
    while ((SPI0->SPI_SR & SPI_SR_TDRE) == 0U)
   806ec:	e7f8      	b.n	806e0 <_Z16hal_spi_transferh>
    }

    SPI0->SPI_TDR = (static_cast<uint32_t>(value) & SPI_TDR_TD_Msk)
                  | SPI_TDR_PCS(HAL_SPI_PCS_VALUE);
   806ee:	f440 2060 	orr.w	r0, r0, #917504	; 0xe0000
    SPI0->SPI_TDR = (static_cast<uint32_t>(value) & SPI_TDR_TD_Msk)
   806f2:	4b06      	ldr	r3, [pc, #24]	; (8070c <_Z16hal_spi_transferh+0x2c>)
   806f4:	60d8      	str	r0, [r3, #12]

    while ((SPI0->SPI_SR & SPI_SR_RDRF) == 0U)
   806f6:	4b05      	ldr	r3, [pc, #20]	; (8070c <_Z16hal_spi_transferh+0x2c>)
   806f8:	691b      	ldr	r3, [r3, #16]
   806fa:	f013 0f01 	tst.w	r3, #1
   806fe:	d101      	bne.n	80704 <_Z16hal_spi_transferh+0x24>
    {
        __asm__ volatile ("nop");
   80700:	bf00      	nop
    while ((SPI0->SPI_SR & SPI_SR_RDRF) == 0U)
   80702:	e7f8      	b.n	806f6 <_Z16hal_spi_transferh+0x16>
    }

    return static_cast<uint8_t>(SPI0->SPI_RDR & SPI_RDR_RD_Msk);
   80704:	4b01      	ldr	r3, [pc, #4]	; (8070c <_Z16hal_spi_transferh+0x2c>)
   80706:	6898      	ldr	r0, [r3, #8]
}
   80708:	b2c0      	uxtb	r0, r0
   8070a:	4770      	bx	lr
   8070c:	40008000 	.word	0x40008000

00080710 <SysTick_Handler>:
 *
 * Обработчик увеличивает миллисекундный счётчик системного времени.
 */
extern "C" void SysTick_Handler(void)
{
    ++g_ms_ticks;
   80710:	4a02      	ldr	r2, [pc, #8]	; (8071c <SysTick_Handler+0xc>)
   80712:	6813      	ldr	r3, [r2, #0]
   80714:	3301      	adds	r3, #1
   80716:	6013      	str	r3, [r2, #0]
   80718:	4770      	bx	lr
   8071a:	bf00      	nop
   8071c:	20000874 	.word	0x20000874

00080720 <_Z13hal_tick_initv>:
}

void hal_tick_init(void)
{
   80720:	b508      	push	{r3, lr}
    SystemCoreClockUpdate();
   80722:	4b11      	ldr	r3, [pc, #68]	; (80768 <_Z13hal_tick_initv+0x48>)
   80724:	4798      	blx	r3

    const uint32_t ticks_per_ms = SystemCoreClock / 1000U;
   80726:	4b11      	ldr	r3, [pc, #68]	; (8076c <_Z13hal_tick_initv+0x4c>)
   80728:	681b      	ldr	r3, [r3, #0]
   8072a:	4a11      	ldr	r2, [pc, #68]	; (80770 <_Z13hal_tick_initv+0x50>)
   8072c:	fba2 2303 	umull	r2, r3, r2, r3

    if ((ticks_per_ms == 0U) || (SysTick_Config(ticks_per_ms) != 0U))
   80730:	099b      	lsrs	r3, r3, #6
   80732:	d013      	beq.n	8075c <_Z13hal_tick_initv+0x3c>
           function <b>SysTick_Config</b> is not included. In this case, the file <b><i>device</i>.h</b>
           must contain a vendor-specific implementation of this function.
 */
__STATIC_INLINE uint32_t SysTick_Config(uint32_t ticks)
{
  if ((ticks - 1UL) > SysTick_LOAD_RELOAD_Msk)
   80734:	3b01      	subs	r3, #1
   80736:	f1b3 7f80 	cmp.w	r3, #16777216	; 0x1000000
   8073a:	d20a      	bcs.n	80752 <_Z13hal_tick_initv+0x32>
  {
    return (1UL);                                                   /* Reload value impossible */
  }

  SysTick->LOAD  = (uint32_t)(ticks - 1UL);                         /* set reload register */
   8073c:	4a0d      	ldr	r2, [pc, #52]	; (80774 <_Z13hal_tick_initv+0x54>)
   8073e:	6053      	str	r3, [r2, #4]
    SCB->SHP[(((uint32_t)IRQn) & 0xFUL)-4UL] = (uint8_t)((priority << (8U - __NVIC_PRIO_BITS)) & (uint32_t)0xFFUL);
   80740:	21f0      	movs	r1, #240	; 0xf0
   80742:	4b0d      	ldr	r3, [pc, #52]	; (80778 <_Z13hal_tick_initv+0x58>)
   80744:	f883 1023 	strb.w	r1, [r3, #35]	; 0x23
  NVIC_SetPriority (SysTick_IRQn, (1UL << __NVIC_PRIO_BITS) - 1UL); /* set Priority for Systick Interrupt */
  SysTick->VAL   = 0UL;                                             /* Load the SysTick Counter Value */
   80748:	2300      	movs	r3, #0
   8074a:	6093      	str	r3, [r2, #8]
  SysTick->CTRL  = SysTick_CTRL_CLKSOURCE_Msk |
   8074c:	2107      	movs	r1, #7
   8074e:	6011      	str	r1, [r2, #0]
   80750:	e000      	b.n	80754 <_Z13hal_tick_initv+0x34>
    return (1UL);                                                   /* Reload value impossible */
   80752:	2301      	movs	r3, #1
   80754:	b923      	cbnz	r3, 80760 <_Z13hal_tick_initv+0x40>
   80756:	b12b      	cbz	r3, 80764 <_Z13hal_tick_initv+0x44>
    __asm__ volatile ("nop");
   80758:	bf00      	nop
   8075a:	e7fd      	b.n	80758 <_Z13hal_tick_initv+0x38>
    if ((ticks_per_ms == 0U) || (SysTick_Config(ticks_per_ms) != 0U))
   8075c:	2301      	movs	r3, #1
   8075e:	e7fa      	b.n	80756 <_Z13hal_tick_initv+0x36>
   80760:	2301      	movs	r3, #1
   80762:	e7f8      	b.n	80756 <_Z13hal_tick_initv+0x36>
   80764:	bd08      	pop	{r3, pc}
   80766:	bf00      	nop
   80768:	00080391 	.word	0x00080391
   8076c:	20000004 	.word	0x20000004
   80770:	10624dd3 	.word	0x10624dd3
   80774:	e000e010 	.word	0xe000e010
   80778:	e000ed00 	.word	0xe000ed00

0008077c <_Z10hal_millisv>:
    }
}

uint32_t hal_millis(void)
{
    return g_ms_ticks;
   8077c:	4b01      	ldr	r3, [pc, #4]	; (80784 <_Z10hal_millisv+0x8>)
   8077e:	6818      	ldr	r0, [r3, #0]
}
   80780:	4770      	bx	lr
   80782:	bf00      	nop
   80784:	20000874 	.word	0x20000874

00080788 <_Z12hal_delay_msm>:

    return (ms * 1000U) + (elapsed_cycles / cycles_per_us);
}

void hal_delay_ms(uint32_t ms)
{
   80788:	b538      	push	{r3, r4, r5, lr}
   8078a:	4605      	mov	r5, r0
    const uint32_t started = hal_millis();
   8078c:	4b05      	ldr	r3, [pc, #20]	; (807a4 <_Z12hal_delay_msm+0x1c>)
   8078e:	4798      	blx	r3
   80790:	4604      	mov	r4, r0

    while ((uint32_t)(hal_millis() - started) < ms)
   80792:	4b04      	ldr	r3, [pc, #16]	; (807a4 <_Z12hal_delay_msm+0x1c>)
   80794:	4798      	blx	r3
   80796:	1b00      	subs	r0, r0, r4
   80798:	42a8      	cmp	r0, r5
   8079a:	d201      	bcs.n	807a0 <_Z12hal_delay_msm+0x18>
    __asm__ volatile ("nop");
   8079c:	bf00      	nop
   8079e:	e7f8      	b.n	80792 <_Z12hal_delay_msm+0xa>
   807a0:	bd38      	pop	{r3, r4, r5, pc}
   807a2:	bf00      	nop
   807a4:	0008077d 	.word	0x0008077d

000807a8 <_ZL23hal_uart_get_descriptor9HalUartId>:
static const HalUartDescriptor* hal_uart_get_descriptor(HalUartId port_id)
{
    const uint32_t index = static_cast<uint32_t>(port_id);
    const uint32_t count = sizeof(g_uart_ports) / sizeof(g_uart_ports[0]);

    if (index >= count)
   807a8:	2803      	cmp	r0, #3
   807aa:	d805      	bhi.n	807b8 <_ZL23hal_uart_get_descriptor9HalUartId+0x10>
    {
        return 0;
    }

    return &g_uart_ports[index];
   807ac:	eb00 0040 	add.w	r0, r0, r0, lsl #1
   807b0:	0103      	lsls	r3, r0, #4
   807b2:	4802      	ldr	r0, [pc, #8]	; (807bc <_ZL23hal_uart_get_descriptor9HalUartId+0x14>)
   807b4:	4418      	add	r0, r3
   807b6:	4770      	bx	lr
        return 0;
   807b8:	2000      	movs	r0, #0
}
   807ba:	4770      	bx	lr
   807bc:	00081aa4 	.word	0x00081aa4

000807c0 <_ZL27hal_enable_peripheral_clockm>:

static void hal_enable_peripheral_clock(uint32_t peripheral_id)
{
    if (peripheral_id < 32U)
   807c0:	281f      	cmp	r0, #31
   807c2:	d907      	bls.n	807d4 <_ZL27hal_enable_peripheral_clockm+0x14>
    {
        PMC->PMC_PCER0 = (1UL << peripheral_id);
    }
    else
    {
        PMC->PMC_PCER1 = (1UL << (peripheral_id - 32U));
   807c4:	3820      	subs	r0, #32
   807c6:	2301      	movs	r3, #1
   807c8:	fa03 f000 	lsl.w	r0, r3, r0
   807cc:	4b04      	ldr	r3, [pc, #16]	; (807e0 <_ZL27hal_enable_peripheral_clockm+0x20>)
   807ce:	f8c3 0100 	str.w	r0, [r3, #256]	; 0x100
   807d2:	4770      	bx	lr
        PMC->PMC_PCER0 = (1UL << peripheral_id);
   807d4:	2301      	movs	r3, #1
   807d6:	fa03 f000 	lsl.w	r0, r3, r0
   807da:	4b01      	ldr	r3, [pc, #4]	; (807e0 <_ZL27hal_enable_peripheral_clockm+0x20>)
   807dc:	6118      	str	r0, [r3, #16]
   807de:	4770      	bx	lr
   807e0:	400e0600 	.word	0x400e0600

000807e4 <_ZL22hal_uart_configure_pinRK10HalUartPin>:
    }
}

static void hal_uart_configure_pin(const HalUartPin& pin)
{
   807e4:	b510      	push	{r4, lr}
   807e6:	4604      	mov	r4, r0
    hal_enable_peripheral_clock(pin.pio_id);
   807e8:	6880      	ldr	r0, [r0, #8]
   807ea:	4b0d      	ldr	r3, [pc, #52]	; (80820 <_ZL22hal_uart_configure_pinRK10HalUartPin+0x3c>)
   807ec:	4798      	blx	r3

    pin.port->PIO_IDR = pin.mask;
   807ee:	6823      	ldr	r3, [r4, #0]
   807f0:	6862      	ldr	r2, [r4, #4]
   807f2:	645a      	str	r2, [r3, #68]	; 0x44
    pin.port->PIO_PUDR = pin.mask;
   807f4:	6823      	ldr	r3, [r4, #0]
   807f6:	6862      	ldr	r2, [r4, #4]
   807f8:	661a      	str	r2, [r3, #96]	; 0x60

    if (pin.peripheral_b != 0U)
   807fa:	7b23      	ldrb	r3, [r4, #12]
   807fc:	b94b      	cbnz	r3, 80812 <_ZL22hal_uart_configure_pinRK10HalUartPin+0x2e>
    {
        pin.port->PIO_ABSR |= pin.mask;
    }
    else
    {
        pin.port->PIO_ABSR &= ~pin.mask;
   807fe:	6822      	ldr	r2, [r4, #0]
   80800:	6f13      	ldr	r3, [r2, #112]	; 0x70
   80802:	6861      	ldr	r1, [r4, #4]
   80804:	ea23 0301 	bic.w	r3, r3, r1
   80808:	6713      	str	r3, [r2, #112]	; 0x70
    }

    pin.port->PIO_PDR = pin.mask;
   8080a:	6823      	ldr	r3, [r4, #0]
   8080c:	6862      	ldr	r2, [r4, #4]
   8080e:	605a      	str	r2, [r3, #4]
   80810:	bd10      	pop	{r4, pc}
        pin.port->PIO_ABSR |= pin.mask;
   80812:	6822      	ldr	r2, [r4, #0]
   80814:	6f13      	ldr	r3, [r2, #112]	; 0x70
   80816:	6861      	ldr	r1, [r4, #4]
   80818:	430b      	orrs	r3, r1
   8081a:	6713      	str	r3, [r2, #112]	; 0x70
   8081c:	e7f5      	b.n	8080a <_ZL22hal_uart_configure_pinRK10HalUartPin+0x26>
   8081e:	bf00      	nop
   80820:	000807c1 	.word	0x000807c1

00080824 <_ZL24hal_uart_get_uart_parity12HalUartFrame>:
}

static uint32_t hal_uart_get_uart_parity(HalUartFrame frame)
{
    switch (frame)
   80824:	2801      	cmp	r0, #1
   80826:	d004      	beq.n	80832 <_ZL24hal_uart_get_uart_parity12HalUartFrame+0xe>
   80828:	2802      	cmp	r0, #2
   8082a:	d005      	beq.n	80838 <_ZL24hal_uart_get_uart_parity12HalUartFrame+0x14>
        case HAL_UART_FRAME_8E1:
            return UART_MR_PAR_EVEN;

        case HAL_UART_FRAME_8N1:
        default:
            return UART_MR_PAR_NO;
   8082c:	f44f 6000 	mov.w	r0, #2048	; 0x800
   80830:	4770      	bx	lr
            return UART_MR_PAR_ODD;
   80832:	f44f 7000 	mov.w	r0, #512	; 0x200
   80836:	4770      	bx	lr
            return UART_MR_PAR_EVEN;
   80838:	2000      	movs	r0, #0
    }
}
   8083a:	4770      	bx	lr

0008083c <_ZL25hal_uart_get_usart_parity12HalUartFrame>:

static uint32_t hal_uart_get_usart_parity(HalUartFrame frame)
{
    switch (frame)
   8083c:	2801      	cmp	r0, #1
   8083e:	d004      	beq.n	8084a <_ZL25hal_uart_get_usart_parity12HalUartFrame+0xe>
   80840:	2802      	cmp	r0, #2
   80842:	d005      	beq.n	80850 <_ZL25hal_uart_get_usart_parity12HalUartFrame+0x14>
        case HAL_UART_FRAME_8E1:
            return US_MR_PAR_EVEN;

        case HAL_UART_FRAME_8N1:
        default:
            return US_MR_PAR_NO;
   80844:	f44f 6000 	mov.w	r0, #2048	; 0x800
   80848:	4770      	bx	lr
            return US_MR_PAR_ODD;
   8084a:	f44f 7000 	mov.w	r0, #512	; 0x200
   8084e:	4770      	bx	lr
            return US_MR_PAR_EVEN;
   80850:	2000      	movs	r0, #0
    }
}
   80852:	4770      	bx	lr

00080854 <_ZL25hal_uart_get_baud_divisorm>:

static uint32_t hal_uart_get_baud_divisor(uint32_t baudrate)
{
    if (baudrate == 0U)
   80854:	4603      	mov	r3, r0
   80856:	b140      	cbz	r0, 8086a <_ZL25hal_uart_get_baud_divisorm+0x16>
    {
        return 1U;
    }

    uint32_t divisor = SystemCoreClock / (16U * baudrate);
   80858:	4a05      	ldr	r2, [pc, #20]	; (80870 <_ZL25hal_uart_get_baud_divisorm+0x1c>)
   8085a:	6810      	ldr	r0, [r2, #0]
   8085c:	011b      	lsls	r3, r3, #4
   8085e:	fbb0 f0f3 	udiv	r0, r0, r3

    if (divisor == 0U)
   80862:	b908      	cbnz	r0, 80868 <_ZL25hal_uart_get_baud_divisorm+0x14>
    {
        divisor = 1U;
   80864:	2001      	movs	r0, #1
    }

    return divisor;
}
   80866:	4770      	bx	lr
   80868:	4770      	bx	lr
        return 1U;
   8086a:	2001      	movs	r0, #1
   8086c:	4770      	bx	lr
   8086e:	bf00      	nop
   80870:	20000004 	.word	0x20000004

00080874 <_Z14hal_uart_begin9HalUartIdm12HalUartFrame>:

void hal_uart_begin(HalUartId port_id, uint32_t baudrate, HalUartFrame frame)
{
   80874:	b5f8      	push	{r3, r4, r5, r6, r7, lr}
   80876:	460f      	mov	r7, r1
   80878:	4616      	mov	r6, r2
    const HalUartDescriptor* descriptor = hal_uart_get_descriptor(port_id);
   8087a:	4b19      	ldr	r3, [pc, #100]	; (808e0 <_Z14hal_uart_begin9HalUartIdm12HalUartFrame+0x6c>)
   8087c:	4798      	blx	r3

    if (descriptor == 0)
   8087e:	b1f8      	cbz	r0, 808c0 <_Z14hal_uart_begin9HalUartIdm12HalUartFrame+0x4c>
   80880:	4604      	mov	r4, r0
    {
        return;
    }

    hal_uart_configure_pin(descriptor->rx);
   80882:	3010      	adds	r0, #16
   80884:	4d17      	ldr	r5, [pc, #92]	; (808e4 <_Z14hal_uart_begin9HalUartIdm12HalUartFrame+0x70>)
   80886:	47a8      	blx	r5
    hal_uart_configure_pin(descriptor->tx);
   80888:	f104 0020 	add.w	r0, r4, #32
   8088c:	47a8      	blx	r5
    hal_enable_peripheral_clock(descriptor->peripheral_id);
   8088e:	68e0      	ldr	r0, [r4, #12]
   80890:	4b15      	ldr	r3, [pc, #84]	; (808e8 <_Z14hal_uart_begin9HalUartIdm12HalUartFrame+0x74>)
   80892:	4798      	blx	r3

    const uint32_t baud_divisor = hal_uart_get_baud_divisor(baudrate);
   80894:	4638      	mov	r0, r7
   80896:	4b15      	ldr	r3, [pc, #84]	; (808ec <_Z14hal_uart_begin9HalUartIdm12HalUartFrame+0x78>)
   80898:	4798      	blx	r3
   8089a:	4605      	mov	r5, r0

    if (descriptor->type == HAL_UART_PERIPHERAL_UART)
   8089c:	7823      	ldrb	r3, [r4, #0]
   8089e:	b183      	cbz	r3, 808c2 <_Z14hal_uart_begin9HalUartIdm12HalUartFrame+0x4e>
        uart->UART_BRGR = baud_divisor;
        uart->UART_CR = UART_CR_RXEN | UART_CR_TXEN;
    }
    else
    {
        Usart* usart = descriptor->usart;
   808a0:	68a4      	ldr	r4, [r4, #8]

        usart->US_CR = US_CR_RSTRX | US_CR_RSTTX | US_CR_RXDIS | US_CR_TXDIS | US_CR_RSTSTA;
   808a2:	f44f 73d6 	mov.w	r3, #428	; 0x1ac
   808a6:	6023      	str	r3, [r4, #0]
        usart->US_IDR = 0xFFFFFFFFU;
   808a8:	f04f 33ff 	mov.w	r3, #4294967295
   808ac:	60e3      	str	r3, [r4, #12]
        usart->US_MR = US_MR_USART_MODE_NORMAL
                     | US_MR_USCLKS_MCK
                     | US_MR_CHRL_8_BIT
                     | hal_uart_get_usart_parity(frame)
   808ae:	4630      	mov	r0, r6
   808b0:	4b0f      	ldr	r3, [pc, #60]	; (808f0 <_Z14hal_uart_begin9HalUartIdm12HalUartFrame+0x7c>)
   808b2:	4798      	blx	r3
   808b4:	f040 00c0 	orr.w	r0, r0, #192	; 0xc0
        usart->US_MR = US_MR_USART_MODE_NORMAL
   808b8:	6060      	str	r0, [r4, #4]
                     | US_MR_NBSTOP_1_BIT
                     | US_MR_CHMODE_NORMAL;
        usart->US_BRGR = baud_divisor;
   808ba:	6225      	str	r5, [r4, #32]
        usart->US_CR = US_CR_RXEN | US_CR_TXEN;
   808bc:	2350      	movs	r3, #80	; 0x50
   808be:	6023      	str	r3, [r4, #0]
   808c0:	bdf8      	pop	{r3, r4, r5, r6, r7, pc}
        Uart* uart = descriptor->uart;
   808c2:	6864      	ldr	r4, [r4, #4]
        uart->UART_CR = UART_CR_RSTRX | UART_CR_RSTTX | UART_CR_RXDIS | UART_CR_TXDIS;
   808c4:	23ac      	movs	r3, #172	; 0xac
   808c6:	6023      	str	r3, [r4, #0]
        uart->UART_IDR = 0xFFFFFFFFU;
   808c8:	f04f 33ff 	mov.w	r3, #4294967295
   808cc:	60e3      	str	r3, [r4, #12]
        uart->UART_MR = hal_uart_get_uart_parity(frame);
   808ce:	4630      	mov	r0, r6
   808d0:	4b08      	ldr	r3, [pc, #32]	; (808f4 <_Z14hal_uart_begin9HalUartIdm12HalUartFrame+0x80>)
   808d2:	4798      	blx	r3
   808d4:	6060      	str	r0, [r4, #4]
        uart->UART_BRGR = baud_divisor;
   808d6:	6225      	str	r5, [r4, #32]
        uart->UART_CR = UART_CR_RXEN | UART_CR_TXEN;
   808d8:	2350      	movs	r3, #80	; 0x50
   808da:	6023      	str	r3, [r4, #0]
   808dc:	bdf8      	pop	{r3, r4, r5, r6, r7, pc}
   808de:	bf00      	nop
   808e0:	000807a9 	.word	0x000807a9
   808e4:	000807e5 	.word	0x000807e5
   808e8:	000807c1 	.word	0x000807c1
   808ec:	00080855 	.word	0x00080855
   808f0:	0008083d 	.word	0x0008083d
   808f4:	00080825 	.word	0x00080825

000808f8 <_Z14hal_uart_write9HalUartIdh>:

    return static_cast<int>(descriptor->usart->US_RHR & 0xFFU);
}

void hal_uart_write(HalUartId port_id, uint8_t value)
{
   808f8:	b510      	push	{r4, lr}
   808fa:	460c      	mov	r4, r1
    const HalUartDescriptor* descriptor = hal_uart_get_descriptor(port_id);
   808fc:	4b0b      	ldr	r3, [pc, #44]	; (8092c <_Z14hal_uart_write9HalUartIdh+0x34>)
   808fe:	4798      	blx	r3

    if (descriptor == 0)
   80900:	b198      	cbz	r0, 8092a <_Z14hal_uart_write9HalUartIdh+0x32>
   80902:	4603      	mov	r3, r0
    {
        return;
    }

    if (descriptor->type == HAL_UART_PERIPHERAL_UART)
   80904:	7802      	ldrb	r2, [r0, #0]
   80906:	b942      	cbnz	r2, 8091a <_Z14hal_uart_write9HalUartIdh+0x22>
    {
        while ((descriptor->uart->UART_SR & UART_SR_TXRDY) == 0U)
   80908:	685a      	ldr	r2, [r3, #4]
   8090a:	6951      	ldr	r1, [r2, #20]
   8090c:	f011 0f02 	tst.w	r1, #2
   80910:	d101      	bne.n	80916 <_Z14hal_uart_write9HalUartIdh+0x1e>
        {
            __asm__ volatile ("nop");
   80912:	bf00      	nop
        while ((descriptor->uart->UART_SR & UART_SR_TXRDY) == 0U)
   80914:	e7f8      	b.n	80908 <_Z14hal_uart_write9HalUartIdh+0x10>
        }

        descriptor->uart->UART_THR = value;
   80916:	61d4      	str	r4, [r2, #28]
   80918:	bd10      	pop	{r4, pc}
    }
    else
    {
        while ((descriptor->usart->US_CSR & US_CSR_TXRDY) == 0U)
   8091a:	689a      	ldr	r2, [r3, #8]
   8091c:	6951      	ldr	r1, [r2, #20]
   8091e:	f011 0f02 	tst.w	r1, #2
   80922:	d101      	bne.n	80928 <_Z14hal_uart_write9HalUartIdh+0x30>
        {
            __asm__ volatile ("nop");
   80924:	bf00      	nop
        while ((descriptor->usart->US_CSR & US_CSR_TXRDY) == 0U)
   80926:	e7f8      	b.n	8091a <_Z14hal_uart_write9HalUartIdh+0x22>
        }

        descriptor->usart->US_THR = value;
   80928:	61d4      	str	r4, [r2, #28]
   8092a:	bd10      	pop	{r4, pc}
   8092c:	000807a9 	.word	0x000807a9

00080930 <_Z41__static_initialization_and_destruction_0ii>:
}

uint8_t EthernetClass::linkStatus(void)
{
    return w5500.linkStatus();
}
   80930:	2801      	cmp	r0, #1
   80932:	d000      	beq.n	80936 <_Z41__static_initialization_and_destruction_0ii+0x6>
   80934:	4770      	bx	lr
   80936:	b508      	push	{r3, lr}
   80938:	f64f 73ff 	movw	r3, #65535	; 0xffff
   8093c:	4299      	cmp	r1, r3
   8093e:	d000      	beq.n	80942 <_Z41__static_initialization_and_destruction_0ii+0x12>
   80940:	bd08      	pop	{r3, pc}
class EthernetServer;

/**
 * @brief Ethernet-интерфейс проекта.
 */
class EthernetClass
   80942:	4802      	ldr	r0, [pc, #8]	; (8094c <_Z41__static_initialization_and_destruction_0ii+0x1c>)
   80944:	4b02      	ldr	r3, [pc, #8]	; (80950 <_Z41__static_initialization_and_destruction_0ii+0x20>)
   80946:	4798      	blx	r3
   80948:	e7fa      	b.n	80940 <_Z41__static_initialization_and_destruction_0ii+0x10>
   8094a:	bf00      	nop
   8094c:	20000878 	.word	0x20000878
   80950:	00080969 	.word	0x00080969

00080954 <_GLOBAL__sub_I__ZN13EthernetClass6_stateE>:
   80954:	b508      	push	{r3, lr}
   80956:	f64f 71ff 	movw	r1, #65535	; 0xffff
   8095a:	2001      	movs	r0, #1
   8095c:	4b01      	ldr	r3, [pc, #4]	; (80964 <_GLOBAL__sub_I__ZN13EthernetClass6_stateE+0x10>)
   8095e:	4798      	blx	r3
   80960:	bd08      	pop	{r3, pc}
   80962:	bf00      	nop
   80964:	00080931 	.word	0x00080931

00080968 <_ZN9IPAddressC1Ev>:

const IPAddress INADDR_NONE(0U, 0U, 0U, 0U);

IPAddress::IPAddress()
{
    address_.dword = 0U;
   80968:	2200      	movs	r2, #0
   8096a:	6002      	str	r2, [r0, #0]
}
   8096c:	4770      	bx	lr

0008096e <_ZN9IPAddressC1Ehhhh>:

IPAddress::IPAddress(uint8_t first, uint8_t second, uint8_t third, uint8_t fourth)
   8096e:	b410      	push	{r4}
{
    address_.bytes[0] = first;
   80970:	7001      	strb	r1, [r0, #0]
    address_.bytes[1] = second;
   80972:	7042      	strb	r2, [r0, #1]
    address_.bytes[2] = third;
   80974:	7083      	strb	r3, [r0, #2]
    address_.bytes[3] = fourth;
   80976:	f89d 3004 	ldrb.w	r3, [sp, #4]
   8097a:	70c3      	strb	r3, [r0, #3]
}
   8097c:	bc10      	pop	{r4}
   8097e:	4770      	bx	lr

00080980 <_Z41__static_initialization_and_destruction_0ii>:
    written += printer.print('.');
    written += printer.print(address_.bytes[2], DEC);
    written += printer.print('.');
    written += printer.print(address_.bytes[3], DEC);
    return written;
}
   80980:	2801      	cmp	r0, #1
   80982:	d000      	beq.n	80986 <_Z41__static_initialization_and_destruction_0ii+0x6>
   80984:	4770      	bx	lr
   80986:	f64f 73ff 	movw	r3, #65535	; 0xffff
   8098a:	4299      	cmp	r1, r3
   8098c:	d1fa      	bne.n	80984 <_Z41__static_initialization_and_destruction_0ii+0x4>
   8098e:	b510      	push	{r4, lr}
   80990:	b082      	sub	sp, #8
const IPAddress INADDR_NONE(0U, 0U, 0U, 0U);
   80992:	2100      	movs	r1, #0
   80994:	9100      	str	r1, [sp, #0]
   80996:	460b      	mov	r3, r1
   80998:	460a      	mov	r2, r1
   8099a:	4802      	ldr	r0, [pc, #8]	; (809a4 <_Z41__static_initialization_and_destruction_0ii+0x24>)
   8099c:	4c02      	ldr	r4, [pc, #8]	; (809a8 <_Z41__static_initialization_and_destruction_0ii+0x28>)
   8099e:	47a0      	blx	r4
}
   809a0:	b002      	add	sp, #8
   809a2:	bd10      	pop	{r4, pc}
   809a4:	20000894 	.word	0x20000894
   809a8:	0008096f 	.word	0x0008096f

000809ac <_GLOBAL__sub_I_INADDR_NONE>:
   809ac:	b508      	push	{r3, lr}
   809ae:	f64f 71ff 	movw	r1, #65535	; 0xffff
   809b2:	2001      	movs	r0, #1
   809b4:	4b01      	ldr	r3, [pc, #4]	; (809bc <_GLOBAL__sub_I_INADDR_NONE+0x10>)
   809b6:	4798      	blx	r3
   809b8:	bd08      	pop	{r3, pc}
   809ba:	bf00      	nop
   809bc:	00080981 	.word	0x00080981

000809c0 <_ZN10W5500ClassC1Ev>:
}

W5500Class w5500;

W5500Class::W5500Class()
    : slave_select_(10U)
   809c0:	230a      	movs	r3, #10
   809c2:	7003      	strb	r3, [r0, #0]
{
}
   809c4:	4770      	bx	lr
	...

000809c8 <_Z41__static_initialization_and_destruction_0ii>:
    writeSn8(socket, address, static_cast<uint8_t>(value >> 8));
    writeSn8(socket, static_cast<uint16_t>(address + 1U), static_cast<uint8_t>(value & 0xFFU));
}

void W5500Class::readSnBuffer(SOCKET socket, uint16_t address, uint8_t* buffer, uint16_t length) { (void)read(address, socket_register_read_control(socket), buffer, length); }
void W5500Class::writeSnBuffer(SOCKET socket, uint16_t address, const uint8_t* buffer, uint16_t length) { (void)write(address, socket_register_write_control(socket), buffer, length); }
   809c8:	2801      	cmp	r0, #1
   809ca:	d000      	beq.n	809ce <_Z41__static_initialization_and_destruction_0ii+0x6>
   809cc:	4770      	bx	lr
   809ce:	b508      	push	{r3, lr}
   809d0:	f64f 73ff 	movw	r3, #65535	; 0xffff
   809d4:	4299      	cmp	r1, r3
   809d6:	d000      	beq.n	809da <_Z41__static_initialization_and_destruction_0ii+0x12>
   809d8:	bd08      	pop	{r3, pc}
W5500Class w5500;
   809da:	4802      	ldr	r0, [pc, #8]	; (809e4 <_Z41__static_initialization_and_destruction_0ii+0x1c>)
   809dc:	4b02      	ldr	r3, [pc, #8]	; (809e8 <_Z41__static_initialization_and_destruction_0ii+0x20>)
   809de:	4798      	blx	r3
void W5500Class::writeSnBuffer(SOCKET socket, uint16_t address, const uint8_t* buffer, uint16_t length) { (void)write(address, socket_register_write_control(socket), buffer, length); }
   809e0:	e7fa      	b.n	809d8 <_Z41__static_initialization_and_destruction_0ii+0x10>
   809e2:	bf00      	nop
   809e4:	20000898 	.word	0x20000898
   809e8:	000809c1 	.word	0x000809c1

000809ec <_GLOBAL__sub_I_w5500>:
   809ec:	b508      	push	{r3, lr}
   809ee:	f64f 71ff 	movw	r1, #65535	; 0xffff
   809f2:	2001      	movs	r0, #1
   809f4:	4b01      	ldr	r3, [pc, #4]	; (809fc <_GLOBAL__sub_I_w5500+0x10>)
   809f6:	4798      	blx	r3
   809f8:	bd08      	pop	{r3, pc}
   809fa:	bf00      	nop
   809fc:	000809c9 	.word	0x000809c9

00080a00 <_ZL13sc16_low_bytem>:
static const byte SC16_RS485_AUTOCONTROL = static_cast<byte>(EFCR_ENABLE_RTS | EFCR_INVERSION | EFCR_MULTIDROP);

static byte sc16_low_byte(uint32_t value)
{
    return static_cast<byte>(value & 0xFFU);
}
   80a00:	b2c0      	uxtb	r0, r0
   80a02:	4770      	bx	lr

00080a04 <_ZL14sc16_high_bytem>:

static byte sc16_high_byte(uint32_t value)
{
    return static_cast<byte>((value >> 8) & 0xFFU);
}
   80a04:	f3c0 2007 	ubfx	r0, r0, #8, #8
   80a08:	4770      	bx	lr

00080a0a <_ZL17sc16_baud_divisorm>:

static uint32_t sc16_baud_divisor(uint32_t baudrate)
{
    if (baudrate == 0U)
   80a0a:	4603      	mov	r3, r0
   80a0c:	b908      	cbnz	r0, 80a12 <_ZL17sc16_baud_divisorm+0x8>
    {
        baudrate = BAUD_RATE_DEFAULT;
   80a0e:	f44f 5316 	mov.w	r3, #9600	; 0x2580
    }

    return (SC16_XTAL_FREQUENCY / SC16_PRESCALER) / (baudrate * 16UL);
   80a12:	011b      	lsls	r3, r3, #4
}
   80a14:	f44f 0061 	mov.w	r0, #14745600	; 0xe10000
   80a18:	fbb0 f0f3 	udiv	r0, r0, r3
   80a1c:	4770      	bx	lr

00080a1e <_ZL12sc16_addresshh>:

static byte sc16_address(byte registerAddress, uint8_t channel)
{
    return static_cast<byte>(registerAddress | static_cast<byte>(channel << 1));
   80a1e:	0049      	lsls	r1, r1, #1
   80a20:	b2c9      	uxtb	r1, r1
}
   80a22:	4308      	orrs	r0, r1
   80a24:	4770      	bx	lr
	...

00080a28 <_ZN13SpiUartDevice8deselectEh>:
{
    initUart(baudrate, parityMode, chip_select, channel);
}

void SpiUartDevice::deselect(byte chip_select)
{
   80a28:	b508      	push	{r3, lr}
   80a2a:	4608      	mov	r0, r1
    digitalWrite(chip_select, HIGH);
   80a2c:	2101      	movs	r1, #1
   80a2e:	4b01      	ldr	r3, [pc, #4]	; (80a34 <_ZN13SpiUartDevice8deselectEh+0xc>)
   80a30:	4798      	blx	r3
   80a32:	bd08      	pop	{r3, pc}
   80a34:	00080cd9 	.word	0x00080cd9

00080a38 <_ZN13SpiUartDevice6selectEh>:
}

void SpiUartDevice::select(byte chip_select)
{
   80a38:	b508      	push	{r3, lr}
   80a3a:	4608      	mov	r0, r1
    digitalWrite(chip_select, LOW);
   80a3c:	2100      	movs	r1, #0
   80a3e:	4b01      	ldr	r3, [pc, #4]	; (80a44 <_ZN13SpiUartDevice6selectEh+0xc>)
   80a40:	4798      	blx	r3
   80a42:	bd08      	pop	{r3, pc}
   80a44:	00080cd9 	.word	0x00080cd9

00080a48 <_ZN13SpiUartDevice13writeRegisterEhhhh>:

    return (readRegister(SC16_REG_SPR, chip_select, channel) == test_value);
}

void SpiUartDevice::writeRegister(byte registerAddress, byte data, byte chip_select, uint8_t channel)
{
   80a48:	e92d 41f0 	stmdb	sp!, {r4, r5, r6, r7, r8, lr}
   80a4c:	b082      	sub	sp, #8
   80a4e:	4605      	mov	r5, r0
   80a50:	460f      	mov	r7, r1
   80a52:	4690      	mov	r8, r2
   80a54:	461e      	mov	r6, r3
    SPI.beginTransaction(SPISettings(SC16_SPI_CLOCK_HZ, MSBFIRST, SPI_MODE0));
   80a56:	2300      	movs	r3, #0
   80a58:	461a      	mov	r2, r3
   80a5a:	4911      	ldr	r1, [pc, #68]	; (80aa0 <_ZN13SpiUartDevice13writeRegisterEhhhh+0x58>)
   80a5c:	4668      	mov	r0, sp
   80a5e:	4c11      	ldr	r4, [pc, #68]	; (80aa4 <_ZN13SpiUartDevice13writeRegisterEhhhh+0x5c>)
   80a60:	47a0      	blx	r4
   80a62:	4c11      	ldr	r4, [pc, #68]	; (80aa8 <_ZN13SpiUartDevice13writeRegisterEhhhh+0x60>)
   80a64:	4669      	mov	r1, sp
   80a66:	4620      	mov	r0, r4
   80a68:	4b10      	ldr	r3, [pc, #64]	; (80aac <_ZN13SpiUartDevice13writeRegisterEhhhh+0x64>)
   80a6a:	4798      	blx	r3

    select(chip_select);
   80a6c:	4631      	mov	r1, r6
   80a6e:	4628      	mov	r0, r5
   80a70:	4b0f      	ldr	r3, [pc, #60]	; (80ab0 <_ZN13SpiUartDevice13writeRegisterEhhhh+0x68>)
   80a72:	4798      	blx	r3
    SPI.transfer(sc16_address(registerAddress, channel));
   80a74:	f89d 1020 	ldrb.w	r1, [sp, #32]
   80a78:	4638      	mov	r0, r7
   80a7a:	4b0e      	ldr	r3, [pc, #56]	; (80ab4 <_ZN13SpiUartDevice13writeRegisterEhhhh+0x6c>)
   80a7c:	4798      	blx	r3
   80a7e:	4601      	mov	r1, r0
   80a80:	4620      	mov	r0, r4
   80a82:	4f0d      	ldr	r7, [pc, #52]	; (80ab8 <_ZN13SpiUartDevice13writeRegisterEhhhh+0x70>)
   80a84:	47b8      	blx	r7
    SPI.transfer(data);
   80a86:	4641      	mov	r1, r8
   80a88:	4620      	mov	r0, r4
   80a8a:	47b8      	blx	r7
    deselect(chip_select);
   80a8c:	4631      	mov	r1, r6
   80a8e:	4628      	mov	r0, r5
   80a90:	4b0a      	ldr	r3, [pc, #40]	; (80abc <_ZN13SpiUartDevice13writeRegisterEhhhh+0x74>)
   80a92:	4798      	blx	r3

    SPI.endTransaction();
   80a94:	4620      	mov	r0, r4
   80a96:	4b0a      	ldr	r3, [pc, #40]	; (80ac0 <_ZN13SpiUartDevice13writeRegisterEhhhh+0x78>)
   80a98:	4798      	blx	r3
}
   80a9a:	b002      	add	sp, #8
   80a9c:	e8bd 81f0 	ldmia.w	sp!, {r4, r5, r6, r7, r8, pc}
   80aa0:	003d0900 	.word	0x003d0900
   80aa4:	00080ea1 	.word	0x00080ea1
   80aa8:	200008bc 	.word	0x200008bc
   80aac:	00080f99 	.word	0x00080f99
   80ab0:	00080a39 	.word	0x00080a39
   80ab4:	00080a1f 	.word	0x00080a1f
   80ab8:	00080ed1 	.word	0x00080ed1
   80abc:	00080a29 	.word	0x00080a29
   80ac0:	00080ecd 	.word	0x00080ecd

00080ac4 <_ZN13SpiUartDevice11setBaudRateEmhh>:
{
   80ac4:	e92d 41f0 	stmdb	sp!, {r4, r5, r6, r7, r8, lr}
   80ac8:	b082      	sub	sp, #8
   80aca:	4605      	mov	r5, r0
   80acc:	4616      	mov	r6, r2
   80ace:	461f      	mov	r7, r3
    const uint32_t divisor = sc16_baud_divisor(baudrate);
   80ad0:	4608      	mov	r0, r1
   80ad2:	4b0f      	ldr	r3, [pc, #60]	; (80b10 <_ZN13SpiUartDevice11setBaudRateEmhh+0x4c>)
   80ad4:	4798      	blx	r3
   80ad6:	4680      	mov	r8, r0
    writeRegister(SC16_REG_LCR, LCR_ENABLE_DIVISOR_LATCH, chip_select, channel);
   80ad8:	9700      	str	r7, [sp, #0]
   80ada:	4633      	mov	r3, r6
   80adc:	2280      	movs	r2, #128	; 0x80
   80ade:	2118      	movs	r1, #24
   80ae0:	4628      	mov	r0, r5
   80ae2:	4c0c      	ldr	r4, [pc, #48]	; (80b14 <_ZN13SpiUartDevice11setBaudRateEmhh+0x50>)
   80ae4:	47a0      	blx	r4
    writeRegister(SC16_REG_DLL, sc16_low_byte(divisor), chip_select, channel);
   80ae6:	4640      	mov	r0, r8
   80ae8:	4b0b      	ldr	r3, [pc, #44]	; (80b18 <_ZN13SpiUartDevice11setBaudRateEmhh+0x54>)
   80aea:	4798      	blx	r3
   80aec:	9700      	str	r7, [sp, #0]
   80aee:	4633      	mov	r3, r6
   80af0:	4602      	mov	r2, r0
   80af2:	2100      	movs	r1, #0
   80af4:	4628      	mov	r0, r5
   80af6:	47a0      	blx	r4
    writeRegister(SC16_REG_DLM, sc16_high_byte(divisor), chip_select, channel);
   80af8:	4640      	mov	r0, r8
   80afa:	4b08      	ldr	r3, [pc, #32]	; (80b1c <_ZN13SpiUartDevice11setBaudRateEmhh+0x58>)
   80afc:	4798      	blx	r3
   80afe:	9700      	str	r7, [sp, #0]
   80b00:	4633      	mov	r3, r6
   80b02:	4602      	mov	r2, r0
   80b04:	2108      	movs	r1, #8
   80b06:	4628      	mov	r0, r5
   80b08:	47a0      	blx	r4
}
   80b0a:	b002      	add	sp, #8
   80b0c:	e8bd 81f0 	ldmia.w	sp!, {r4, r5, r6, r7, r8, pc}
   80b10:	00080a0b 	.word	0x00080a0b
   80b14:	00080a49 	.word	0x00080a49
   80b18:	00080a01 	.word	0x00080a01
   80b1c:	00080a05 	.word	0x00080a05

00080b20 <_ZN13SpiUartDevice13configureUartEmhhh>:
{
   80b20:	e92d 41f0 	stmdb	sp!, {r4, r5, r6, r7, r8, lr}
   80b24:	b082      	sub	sp, #8
   80b26:	4606      	mov	r6, r0
   80b28:	4617      	mov	r7, r2
   80b2a:	461c      	mov	r4, r3
   80b2c:	f89d 5020 	ldrb.w	r5, [sp, #32]
    setBaudRate(baudrate, chip_select, channel);
   80b30:	462b      	mov	r3, r5
   80b32:	4622      	mov	r2, r4
   80b34:	f8df 8068 	ldr.w	r8, [pc, #104]	; 80ba0 <_ZN13SpiUartDevice13configureUartEmhhh+0x80>
   80b38:	47c0      	blx	r8
    if (parityMode == 1U)
   80b3a:	2f01      	cmp	r7, #1
   80b3c:	d01e      	beq.n	80b7c <_ZN13SpiUartDevice13configureUartEmhhh+0x5c>
    else if (parityMode == 2U)
   80b3e:	2f02      	cmp	r7, #2
   80b40:	d024      	beq.n	80b8c <_ZN13SpiUartDevice13configureUartEmhhh+0x6c>
        writeRegister(SC16_REG_LCR, SC16_DATA_FORMAT_8N1, chip_select, channel);
   80b42:	9500      	str	r5, [sp, #0]
   80b44:	4623      	mov	r3, r4
   80b46:	2203      	movs	r2, #3
   80b48:	2118      	movs	r1, #24
   80b4a:	4630      	mov	r0, r6
   80b4c:	4f13      	ldr	r7, [pc, #76]	; (80b9c <_ZN13SpiUartDevice13configureUartEmhhh+0x7c>)
   80b4e:	47b8      	blx	r7
    writeRegister(SC16_REG_EFCR, SC16_RS485_AUTOCONTROL, chip_select, channel);
   80b50:	9500      	str	r5, [sp, #0]
   80b52:	4623      	mov	r3, r4
   80b54:	2231      	movs	r2, #49	; 0x31
   80b56:	2178      	movs	r1, #120	; 0x78
   80b58:	4630      	mov	r0, r6
   80b5a:	4f10      	ldr	r7, [pc, #64]	; (80b9c <_ZN13SpiUartDevice13configureUartEmhhh+0x7c>)
   80b5c:	47b8      	blx	r7
                  channel);
   80b5e:	9500      	str	r5, [sp, #0]
   80b60:	4623      	mov	r3, r4
   80b62:	2206      	movs	r2, #6
   80b64:	2110      	movs	r1, #16
   80b66:	4630      	mov	r0, r6
   80b68:	47b8      	blx	r7
    writeRegister(SC16_REG_FCR, FCR_ENABLE_FIFO, chip_select, channel);
   80b6a:	9500      	str	r5, [sp, #0]
   80b6c:	4623      	mov	r3, r4
   80b6e:	2201      	movs	r2, #1
   80b70:	2110      	movs	r1, #16
   80b72:	4630      	mov	r0, r6
   80b74:	47b8      	blx	r7
}
   80b76:	b002      	add	sp, #8
   80b78:	e8bd 81f0 	ldmia.w	sp!, {r4, r5, r6, r7, r8, pc}
                      channel);
   80b7c:	9500      	str	r5, [sp, #0]
   80b7e:	4623      	mov	r3, r4
   80b80:	220b      	movs	r2, #11
   80b82:	2118      	movs	r1, #24
   80b84:	4630      	mov	r0, r6
   80b86:	4f05      	ldr	r7, [pc, #20]	; (80b9c <_ZN13SpiUartDevice13configureUartEmhhh+0x7c>)
   80b88:	47b8      	blx	r7
   80b8a:	e7e1      	b.n	80b50 <_ZN13SpiUartDevice13configureUartEmhhh+0x30>
                      channel);
   80b8c:	9500      	str	r5, [sp, #0]
   80b8e:	4623      	mov	r3, r4
   80b90:	221b      	movs	r2, #27
   80b92:	2118      	movs	r1, #24
   80b94:	4630      	mov	r0, r6
   80b96:	4f01      	ldr	r7, [pc, #4]	; (80b9c <_ZN13SpiUartDevice13configureUartEmhhh+0x7c>)
   80b98:	47b8      	blx	r7
   80b9a:	e7d9      	b.n	80b50 <_ZN13SpiUartDevice13configureUartEmhhh+0x30>
   80b9c:	00080a49 	.word	0x00080a49
   80ba0:	00080ac5 	.word	0x00080ac5

00080ba4 <_ZN13SpiUartDevice12readRegisterEhhh>:

byte SpiUartDevice::readRegister(byte registerAddress, byte chip_select, uint8_t channel)
{
   80ba4:	e92d 41f0 	stmdb	sp!, {r4, r5, r6, r7, r8, lr}
   80ba8:	b082      	sub	sp, #8
   80baa:	4605      	mov	r5, r0
   80bac:	460f      	mov	r7, r1
   80bae:	4616      	mov	r6, r2
   80bb0:	4698      	mov	r8, r3
    static const byte dummy = 0xFFU;

    SPI.beginTransaction(SPISettings(SC16_SPI_CLOCK_HZ, MSBFIRST, SPI_MODE0));
   80bb2:	2300      	movs	r3, #0
   80bb4:	461a      	mov	r2, r3
   80bb6:	4913      	ldr	r1, [pc, #76]	; (80c04 <_ZN13SpiUartDevice12readRegisterEhhh+0x60>)
   80bb8:	4668      	mov	r0, sp
   80bba:	4c13      	ldr	r4, [pc, #76]	; (80c08 <_ZN13SpiUartDevice12readRegisterEhhh+0x64>)
   80bbc:	47a0      	blx	r4
   80bbe:	4c13      	ldr	r4, [pc, #76]	; (80c0c <_ZN13SpiUartDevice12readRegisterEhhh+0x68>)
   80bc0:	4669      	mov	r1, sp
   80bc2:	4620      	mov	r0, r4
   80bc4:	4b12      	ldr	r3, [pc, #72]	; (80c10 <_ZN13SpiUartDevice12readRegisterEhhh+0x6c>)
   80bc6:	4798      	blx	r3

    select(chip_select);
   80bc8:	4631      	mov	r1, r6
   80bca:	4628      	mov	r0, r5
   80bcc:	4b11      	ldr	r3, [pc, #68]	; (80c14 <_ZN13SpiUartDevice12readRegisterEhhh+0x70>)
   80bce:	4798      	blx	r3
    SPI.transfer(static_cast<byte>(SC16_SPI_READ | sc16_address(registerAddress, channel)));
   80bd0:	4641      	mov	r1, r8
   80bd2:	4638      	mov	r0, r7
   80bd4:	4b10      	ldr	r3, [pc, #64]	; (80c18 <_ZN13SpiUartDevice12readRegisterEhhh+0x74>)
   80bd6:	4798      	blx	r3
   80bd8:	f060 017f 	orn	r1, r0, #127	; 0x7f
   80bdc:	b2c9      	uxtb	r1, r1
   80bde:	4620      	mov	r0, r4
   80be0:	4f0e      	ldr	r7, [pc, #56]	; (80c1c <_ZN13SpiUartDevice12readRegisterEhhh+0x78>)
   80be2:	47b8      	blx	r7
    const byte result = SPI.transfer(dummy);
   80be4:	21ff      	movs	r1, #255	; 0xff
   80be6:	4620      	mov	r0, r4
   80be8:	47b8      	blx	r7
   80bea:	4607      	mov	r7, r0
    deselect(chip_select);
   80bec:	4631      	mov	r1, r6
   80bee:	4628      	mov	r0, r5
   80bf0:	4b0b      	ldr	r3, [pc, #44]	; (80c20 <_ZN13SpiUartDevice12readRegisterEhhh+0x7c>)
   80bf2:	4798      	blx	r3

    SPI.endTransaction();
   80bf4:	4620      	mov	r0, r4
   80bf6:	4b0b      	ldr	r3, [pc, #44]	; (80c24 <_ZN13SpiUartDevice12readRegisterEhhh+0x80>)
   80bf8:	4798      	blx	r3

    return result;
}
   80bfa:	4638      	mov	r0, r7
   80bfc:	b002      	add	sp, #8
   80bfe:	e8bd 81f0 	ldmia.w	sp!, {r4, r5, r6, r7, r8, pc}
   80c02:	bf00      	nop
   80c04:	003d0900 	.word	0x003d0900
   80c08:	00080ea1 	.word	0x00080ea1
   80c0c:	200008bc 	.word	0x200008bc
   80c10:	00080f99 	.word	0x00080f99
   80c14:	00080a39 	.word	0x00080a39
   80c18:	00080a1f 	.word	0x00080a1f
   80c1c:	00080ed1 	.word	0x00080ed1
   80c20:	00080a29 	.word	0x00080a29
   80c24:	00080ecd 	.word	0x00080ecd

00080c28 <_ZN13SpiUartDevice13uartConnectedEhh>:
{
   80c28:	b5f0      	push	{r4, r5, r6, r7, lr}
   80c2a:	b083      	sub	sp, #12
   80c2c:	4606      	mov	r6, r0
   80c2e:	460c      	mov	r4, r1
   80c30:	4615      	mov	r5, r2
    writeRegister(SC16_REG_SPR, test_value, chip_select, channel);
   80c32:	9200      	str	r2, [sp, #0]
   80c34:	460b      	mov	r3, r1
   80c36:	2255      	movs	r2, #85	; 0x55
   80c38:	2138      	movs	r1, #56	; 0x38
   80c3a:	4f07      	ldr	r7, [pc, #28]	; (80c58 <_ZN13SpiUartDevice13uartConnectedEhh+0x30>)
   80c3c:	47b8      	blx	r7
    return (readRegister(SC16_REG_SPR, chip_select, channel) == test_value);
   80c3e:	462b      	mov	r3, r5
   80c40:	4622      	mov	r2, r4
   80c42:	2138      	movs	r1, #56	; 0x38
   80c44:	4630      	mov	r0, r6
   80c46:	4c05      	ldr	r4, [pc, #20]	; (80c5c <_ZN13SpiUartDevice13uartConnectedEhh+0x34>)
   80c48:	47a0      	blx	r4
}
   80c4a:	2855      	cmp	r0, #85	; 0x55
   80c4c:	bf14      	ite	ne
   80c4e:	2000      	movne	r0, #0
   80c50:	2001      	moveq	r0, #1
   80c52:	b003      	add	sp, #12
   80c54:	bdf0      	pop	{r4, r5, r6, r7, pc}
   80c56:	bf00      	nop
   80c58:	00080a49 	.word	0x00080a49
   80c5c:	00080ba5 	.word	0x00080ba5

00080c60 <_ZN13SpiUartDevice8initUartEmhhh>:
{
   80c60:	b5f0      	push	{r4, r5, r6, r7, lr}
   80c62:	b083      	sub	sp, #12
   80c64:	4605      	mov	r5, r0
   80c66:	461e      	mov	r6, r3
   80c68:	f89d 4020 	ldrb.w	r4, [sp, #32]
    configureUart(baudrate, parityMode, chip_select, channel);
   80c6c:	9400      	str	r4, [sp, #0]
   80c6e:	4f04      	ldr	r7, [pc, #16]	; (80c80 <_ZN13SpiUartDevice8initUartEmhhh+0x20>)
   80c70:	47b8      	blx	r7
    (void)uartConnected(chip_select, channel);
   80c72:	4622      	mov	r2, r4
   80c74:	4631      	mov	r1, r6
   80c76:	4628      	mov	r0, r5
   80c78:	4b02      	ldr	r3, [pc, #8]	; (80c84 <_ZN13SpiUartDevice8initUartEmhhh+0x24>)
   80c7a:	4798      	blx	r3
}
   80c7c:	b003      	add	sp, #12
   80c7e:	bdf0      	pop	{r4, r5, r6, r7, pc}
   80c80:	00080b21 	.word	0x00080b21
   80c84:	00080c29 	.word	0x00080c29

00080c88 <_ZN13SpiUartDevice5beginEmhhh>:
{
   80c88:	b510      	push	{r4, lr}
   80c8a:	b082      	sub	sp, #8
    initUart(baudrate, parityMode, chip_select, channel);
   80c8c:	f89d 4010 	ldrb.w	r4, [sp, #16]
   80c90:	9400      	str	r4, [sp, #0]
   80c92:	4c02      	ldr	r4, [pc, #8]	; (80c9c <_ZN13SpiUartDevice5beginEmhhh+0x14>)
   80c94:	47a0      	blx	r4
}
   80c96:	b002      	add	sp, #8
   80c98:	bd10      	pop	{r4, pc}
   80c9a:	bf00      	nop
   80c9c:	00080c61 	.word	0x00080c61

00080ca0 <main>:

#include "app/app.hpp"
#include "hal/sam3x_tick.hpp"

int main(void)
{
   80ca0:	b508      	push	{r3, lr}
    hal_tick_init();
   80ca2:	4b03      	ldr	r3, [pc, #12]	; (80cb0 <main+0x10>)
   80ca4:	4798      	blx	r3

    setup();
   80ca6:	4b03      	ldr	r3, [pc, #12]	; (80cb4 <main+0x14>)
   80ca8:	4798      	blx	r3

    for (;;)
    {
        loop();
   80caa:	4b03      	ldr	r3, [pc, #12]	; (80cb8 <main+0x18>)
   80cac:	4798      	blx	r3
   80cae:	e7fc      	b.n	80caa <main+0xa>
   80cb0:	00080721 	.word	0x00080721
   80cb4:	00080161 	.word	0x00080161
   80cb8:	000801fd 	.word	0x000801fd

00080cbc <_Z7pinModemm>:

#include "platform.hpp"
#include "../hal/sam3x_gpio.hpp"

void pinMode(uint32_t pin, uint32_t mode)
{
   80cbc:	b508      	push	{r3, lr}
    HalGpioMode gpio_mode = HAL_GPIO_INPUT;

    if (mode == OUTPUT)
   80cbe:	2901      	cmp	r1, #1
   80cc0:	d005      	beq.n	80cce <_Z7pinModemm+0x12>
    {
        gpio_mode = HAL_GPIO_OUTPUT;
    }
    else if (mode == INPUT_PULLUP)
   80cc2:	2902      	cmp	r1, #2
   80cc4:	d000      	beq.n	80cc8 <_Z7pinModemm+0xc>
    {
        gpio_mode = HAL_GPIO_INPUT_PULLUP;
    }
    else
    {
        gpio_mode = HAL_GPIO_INPUT;
   80cc6:	2100      	movs	r1, #0
    }

    hal_gpio_configure(pin, gpio_mode);
   80cc8:	4b02      	ldr	r3, [pc, #8]	; (80cd4 <_Z7pinModemm+0x18>)
   80cca:	4798      	blx	r3
   80ccc:	bd08      	pop	{r3, pc}
        gpio_mode = HAL_GPIO_OUTPUT;
   80cce:	2101      	movs	r1, #1
   80cd0:	e7fa      	b.n	80cc8 <_Z7pinModemm+0xc>
   80cd2:	bf00      	nop
   80cd4:	000804f5 	.word	0x000804f5

00080cd8 <_Z12digitalWritemm>:
}

void digitalWrite(uint32_t pin, uint32_t value)
{
   80cd8:	b508      	push	{r3, lr}
    hal_gpio_write(pin, value);
   80cda:	4b01      	ldr	r3, [pc, #4]	; (80ce0 <_Z12digitalWritemm+0x8>)
   80cdc:	4798      	blx	r3
   80cde:	bd08      	pop	{r3, pc}
   80ce0:	00080549 	.word	0x00080549

00080ce4 <_ZN10SerialPortD1Ev>:
#include "../hal/sam3x_uart.hpp"

/**
 * @brief Аппаратный последовательный порт.
 */
class SerialPort : public Print
   80ce4:	4770      	bx	lr

00080ce6 <_ZN13UsbSerialPortD1Ev>:
 * @brief Служебный USB-порт без доступа к USB-контроллеру.
 *
 * Класс сохраняет интерфейс последовательного порта и не выполняет операций
 * с USB-периферией. Все операции неблокирующие.
 */
class UsbSerialPort : public Print
   80ce6:	4770      	bx	lr

00080ce8 <_Z41__static_initialization_and_destruction_0ii>:
SerialPort Serial(HAL_UART_PORT_0);
SerialPort Serial1(HAL_UART_PORT_1);
SerialPort Serial2(HAL_UART_PORT_2);
SerialPort Serial3(HAL_UART_PORT_3);

UsbSerialPort SerialUSB;
   80ce8:	2801      	cmp	r0, #1
   80cea:	d000      	beq.n	80cee <_Z41__static_initialization_and_destruction_0ii+0x6>
   80cec:	4770      	bx	lr
   80cee:	e92d 43f8 	stmdb	sp!, {r3, r4, r5, r6, r7, r8, r9, lr}
   80cf2:	f64f 73ff 	movw	r3, #65535	; 0xffff
   80cf6:	4299      	cmp	r1, r3
   80cf8:	d001      	beq.n	80cfe <_Z41__static_initialization_and_destruction_0ii+0x16>
   80cfa:	e8bd 83f8 	ldmia.w	sp!, {r3, r4, r5, r6, r7, r8, r9, pc}
SerialPort Serial(HAL_UART_PORT_0);
   80cfe:	4c16      	ldr	r4, [pc, #88]	; (80d58 <_Z41__static_initialization_and_destruction_0ii+0x70>)
   80d00:	2100      	movs	r1, #0
   80d02:	4620      	mov	r0, r4
   80d04:	4f15      	ldr	r7, [pc, #84]	; (80d5c <_Z41__static_initialization_and_destruction_0ii+0x74>)
   80d06:	47b8      	blx	r7
   80d08:	4e15      	ldr	r6, [pc, #84]	; (80d60 <_Z41__static_initialization_and_destruction_0ii+0x78>)
   80d0a:	f8df 8064 	ldr.w	r8, [pc, #100]	; 80d70 <_Z41__static_initialization_and_destruction_0ii+0x88>
   80d0e:	4632      	mov	r2, r6
   80d10:	4641      	mov	r1, r8
   80d12:	4620      	mov	r0, r4
   80d14:	4d13      	ldr	r5, [pc, #76]	; (80d64 <_Z41__static_initialization_and_destruction_0ii+0x7c>)
   80d16:	47a8      	blx	r5
SerialPort Serial1(HAL_UART_PORT_1);
   80d18:	f104 0908 	add.w	r9, r4, #8
   80d1c:	2101      	movs	r1, #1
   80d1e:	4648      	mov	r0, r9
   80d20:	47b8      	blx	r7
   80d22:	4632      	mov	r2, r6
   80d24:	4641      	mov	r1, r8
   80d26:	4648      	mov	r0, r9
   80d28:	47a8      	blx	r5
SerialPort Serial2(HAL_UART_PORT_2);
   80d2a:	f104 0910 	add.w	r9, r4, #16
   80d2e:	2102      	movs	r1, #2
   80d30:	4648      	mov	r0, r9
   80d32:	47b8      	blx	r7
   80d34:	4632      	mov	r2, r6
   80d36:	4641      	mov	r1, r8
   80d38:	4648      	mov	r0, r9
   80d3a:	47a8      	blx	r5
SerialPort Serial3(HAL_UART_PORT_3);
   80d3c:	3418      	adds	r4, #24
   80d3e:	2103      	movs	r1, #3
   80d40:	4620      	mov	r0, r4
   80d42:	47b8      	blx	r7
   80d44:	4632      	mov	r2, r6
   80d46:	4641      	mov	r1, r8
   80d48:	4620      	mov	r0, r4
   80d4a:	47a8      	blx	r5
UsbSerialPort SerialUSB;
   80d4c:	4632      	mov	r2, r6
   80d4e:	4906      	ldr	r1, [pc, #24]	; (80d68 <_Z41__static_initialization_and_destruction_0ii+0x80>)
   80d50:	4806      	ldr	r0, [pc, #24]	; (80d6c <_Z41__static_initialization_and_destruction_0ii+0x84>)
   80d52:	47a8      	blx	r5
   80d54:	e7d1      	b.n	80cfa <_Z41__static_initialization_and_destruction_0ii+0x12>
   80d56:	bf00      	nop
   80d58:	2000089c 	.word	0x2000089c
   80d5c:	00080e19 	.word	0x00080e19
   80d60:	20000000 	.word	0x20000000
   80d64:	00080ffd 	.word	0x00080ffd
   80d68:	00080ce7 	.word	0x00080ce7
   80d6c:	20000008 	.word	0x20000008
   80d70:	00080ce5 	.word	0x00080ce5

00080d74 <_ZN10SerialPortD0Ev>:
class SerialPort : public Print
   80d74:	b510      	push	{r4, lr}
   80d76:	4604      	mov	r4, r0
   80d78:	2108      	movs	r1, #8
   80d7a:	4b02      	ldr	r3, [pc, #8]	; (80d84 <_ZN10SerialPortD0Ev+0x10>)
   80d7c:	4798      	blx	r3
   80d7e:	4620      	mov	r0, r4
   80d80:	bd10      	pop	{r4, pc}
   80d82:	bf00      	nop
   80d84:	00081009 	.word	0x00081009

00080d88 <_ZN13UsbSerialPortD0Ev>:
class UsbSerialPort : public Print
   80d88:	b510      	push	{r4, lr}
   80d8a:	4604      	mov	r4, r0
   80d8c:	2108      	movs	r1, #8
   80d8e:	4b02      	ldr	r3, [pc, #8]	; (80d98 <_ZN13UsbSerialPortD0Ev+0x10>)
   80d90:	4798      	blx	r3
   80d92:	4620      	mov	r0, r4
   80d94:	bd10      	pop	{r4, pc}
   80d96:	bf00      	nop
   80d98:	00081009 	.word	0x00081009

00080d9c <_GLOBAL__sub_I_Serial>:
   80d9c:	b508      	push	{r3, lr}
   80d9e:	f64f 71ff 	movw	r1, #65535	; 0xffff
   80da2:	2001      	movs	r0, #1
   80da4:	4b01      	ldr	r3, [pc, #4]	; (80dac <_GLOBAL__sub_I_Serial+0x10>)
   80da6:	4798      	blx	r3
   80da8:	bd08      	pop	{r3, pc}
   80daa:	bf00      	nop
   80dac:	00080ce9 	.word	0x00080ce9

00080db0 <_Z41__static_initialization_and_destruction_0ii>:
 * @brief Глобальный SPI master проекта.
 */

#include "platform.hpp"

SPIClass SPI;
   80db0:	2801      	cmp	r0, #1
   80db2:	d000      	beq.n	80db6 <_Z41__static_initialization_and_destruction_0ii+0x6>
   80db4:	4770      	bx	lr
   80db6:	b508      	push	{r3, lr}
   80db8:	f64f 73ff 	movw	r3, #65535	; 0xffff
   80dbc:	4299      	cmp	r1, r3
   80dbe:	d000      	beq.n	80dc2 <_Z41__static_initialization_and_destruction_0ii+0x12>
   80dc0:	bd08      	pop	{r3, pc}
   80dc2:	4802      	ldr	r0, [pc, #8]	; (80dcc <_Z41__static_initialization_and_destruction_0ii+0x1c>)
   80dc4:	4b02      	ldr	r3, [pc, #8]	; (80dd0 <_Z41__static_initialization_and_destruction_0ii+0x20>)
   80dc6:	4798      	blx	r3
   80dc8:	e7fa      	b.n	80dc0 <_Z41__static_initialization_and_destruction_0ii+0x10>
   80dca:	bf00      	nop
   80dcc:	200008bc 	.word	0x200008bc
   80dd0:	00080eb9 	.word	0x00080eb9

00080dd4 <_GLOBAL__sub_I_SPI>:
   80dd4:	b508      	push	{r3, lr}
   80dd6:	f64f 71ff 	movw	r1, #65535	; 0xffff
   80dda:	2001      	movs	r0, #1
   80ddc:	4b01      	ldr	r3, [pc, #4]	; (80de4 <_GLOBAL__sub_I_SPI+0x10>)
   80dde:	4798      	blx	r3
   80de0:	bd08      	pop	{r3, pc}
   80de2:	bf00      	nop
   80de4:	00080db1 	.word	0x00080db1

00080de8 <_Z5delaym>:
{
    return hal_micros();
}

void delay(uint32_t ms)
{
   80de8:	b508      	push	{r3, lr}
    hal_delay_ms(ms);
   80dea:	4b01      	ldr	r3, [pc, #4]	; (80df0 <_Z5delaym+0x8>)
   80dec:	4798      	blx	r3
   80dee:	bd08      	pop	{r3, pc}
   80df0:	00080789 	.word	0x00080789

00080df4 <_ZN13UsbSerialPort5writeEh>:

size_t UsbSerialPort::write(uint8_t value)
{
    (void)value;

    if (enabled_ == 0U)
   80df4:	7903      	ldrb	r3, [r0, #4]
   80df6:	b10b      	cbz	r3, 80dfc <_ZN13UsbSerialPort5writeEh+0x8>
    {
        return 0U;
    }

    return 1U;
   80df8:	2001      	movs	r0, #1
}
   80dfa:	4770      	bx	lr
        return 0U;
   80dfc:	2000      	movs	r0, #0
   80dfe:	4770      	bx	lr

00080e00 <_ZN10SerialPort5writeEh>:
{
   80e00:	b508      	push	{r3, lr}
    if (initialized_ == 0U)
   80e02:	7943      	ldrb	r3, [r0, #5]
   80e04:	b90b      	cbnz	r3, 80e0a <_ZN10SerialPort5writeEh+0xa>
        return 0U;
   80e06:	2000      	movs	r0, #0
}
   80e08:	bd08      	pop	{r3, pc}
    hal_uart_write(port_id_, value);
   80e0a:	7900      	ldrb	r0, [r0, #4]
   80e0c:	4b01      	ldr	r3, [pc, #4]	; (80e14 <_ZN10SerialPort5writeEh+0x14>)
   80e0e:	4798      	blx	r3
    return 1U;
   80e10:	2001      	movs	r0, #1
   80e12:	bd08      	pop	{r3, pc}
   80e14:	000808f9 	.word	0x000808f9

00080e18 <_ZN10SerialPortC1E9HalUartId>:
      initialized_(0U)
   80e18:	4a02      	ldr	r2, [pc, #8]	; (80e24 <_ZN10SerialPortC1E9HalUartId+0xc>)
   80e1a:	6002      	str	r2, [r0, #0]
   80e1c:	7101      	strb	r1, [r0, #4]
   80e1e:	2200      	movs	r2, #0
   80e20:	7142      	strb	r2, [r0, #5]
}
   80e22:	4770      	bx	lr
   80e24:	00081b6c 	.word	0x00081b6c

00080e28 <_ZNK10SerialPort13convert_frameEm>:
    if (frame == SERIAL_8O1)
   80e28:	2901      	cmp	r1, #1
   80e2a:	d005      	beq.n	80e38 <_ZNK10SerialPort13convert_frameEm+0x10>
    if (frame == SERIAL_8E1)
   80e2c:	2902      	cmp	r1, #2
   80e2e:	d001      	beq.n	80e34 <_ZNK10SerialPort13convert_frameEm+0xc>
    return HAL_UART_FRAME_8N1;
   80e30:	2000      	movs	r0, #0
}
   80e32:	4770      	bx	lr
        return HAL_UART_FRAME_8E1;
   80e34:	2002      	movs	r0, #2
   80e36:	4770      	bx	lr
        return HAL_UART_FRAME_8O1;
   80e38:	2001      	movs	r0, #1
   80e3a:	4770      	bx	lr

00080e3c <_ZN10SerialPort5beginEmm>:
{
   80e3c:	b570      	push	{r4, r5, r6, lr}
   80e3e:	4604      	mov	r4, r0
   80e40:	460e      	mov	r6, r1
    hal_uart_begin(port_id_, baudrate, convert_frame(frame));
   80e42:	7905      	ldrb	r5, [r0, #4]
   80e44:	4611      	mov	r1, r2
   80e46:	4b05      	ldr	r3, [pc, #20]	; (80e5c <_ZN10SerialPort5beginEmm+0x20>)
   80e48:	4798      	blx	r3
   80e4a:	4602      	mov	r2, r0
   80e4c:	4631      	mov	r1, r6
   80e4e:	4628      	mov	r0, r5
   80e50:	4b03      	ldr	r3, [pc, #12]	; (80e60 <_ZN10SerialPort5beginEmm+0x24>)
   80e52:	4798      	blx	r3
    initialized_ = 1U;
   80e54:	2301      	movs	r3, #1
   80e56:	7163      	strb	r3, [r4, #5]
   80e58:	bd70      	pop	{r4, r5, r6, pc}
   80e5a:	bf00      	nop
   80e5c:	00080e29 	.word	0x00080e29
   80e60:	00080875 	.word	0x00080875

00080e64 <_ZN13UsbSerialPort5beginEmm>:
    enabled_ = 1U;
   80e64:	2301      	movs	r3, #1
   80e66:	7103      	strb	r3, [r0, #4]
   80e68:	4770      	bx	lr

00080e6a <_ZL21platform_reverse_bitsh>:
static const uint32_t PLATFORM_SPI_CORE_CLOCK_HZ = 84000000U;
static const uint32_t PLATFORM_SPI_DEFAULT_CLOCK_HZ = 4000000U;

static uint8_t platform_reverse_bits(uint8_t value)
{
    value = static_cast<uint8_t>(((value & 0xF0U) >> 4) | ((value & 0x0FU) << 4));
   80e6a:	0903      	lsrs	r3, r0, #4
   80e6c:	ea43 1000 	orr.w	r0, r3, r0, lsl #4
   80e70:	b2c0      	uxtb	r0, r0
    value = static_cast<uint8_t>(((value & 0xCCU) >> 2) | ((value & 0x33U) << 2));
   80e72:	0883      	lsrs	r3, r0, #2
   80e74:	f003 0333 	and.w	r3, r3, #51	; 0x33
   80e78:	0080      	lsls	r0, r0, #2
   80e7a:	f000 00cc 	and.w	r0, r0, #204	; 0xcc
   80e7e:	4303      	orrs	r3, r0
    value = static_cast<uint8_t>(((value & 0xAAU) >> 1) | ((value & 0x55U) << 1));
   80e80:	0858      	lsrs	r0, r3, #1
   80e82:	f000 0055 	and.w	r0, r0, #85	; 0x55
   80e86:	005b      	lsls	r3, r3, #1
   80e88:	f003 03aa 	and.w	r3, r3, #170	; 0xaa
    return value;
}
   80e8c:	4318      	orrs	r0, r3
   80e8e:	4770      	bx	lr

00080e90 <_ZN11SPISettingsC1Ev>:

SPISettings::SPISettings()
    : clock_hz_(PLATFORM_SPI_DEFAULT_CLOCK_HZ),
      bit_order_(MSBFIRST),
      data_mode_(SPI_MODE0)
   80e90:	4a02      	ldr	r2, [pc, #8]	; (80e9c <_ZN11SPISettingsC1Ev+0xc>)
   80e92:	6002      	str	r2, [r0, #0]
   80e94:	2200      	movs	r2, #0
   80e96:	7102      	strb	r2, [r0, #4]
   80e98:	7142      	strb	r2, [r0, #5]
{
}
   80e9a:	4770      	bx	lr
   80e9c:	003d0900 	.word	0x003d0900

00080ea0 <_ZN11SPISettingsC1Emhh>:

SPISettings::SPISettings(uint32_t clock_hz, uint8_t bit_order, uint8_t data_mode)
   80ea0:	b410      	push	{r4}
    : clock_hz_(clock_hz),
      bit_order_(bit_order),
      data_mode_(data_mode)
   80ea2:	6001      	str	r1, [r0, #0]
   80ea4:	7102      	strb	r2, [r0, #4]
   80ea6:	7143      	strb	r3, [r0, #5]
{
}
   80ea8:	bc10      	pop	{r4}
   80eaa:	4770      	bx	lr

00080eac <_ZNK11SPISettings8clock_hzEv>:

uint32_t SPISettings::clock_hz(void) const
{
    return clock_hz_;
}
   80eac:	6800      	ldr	r0, [r0, #0]
   80eae:	4770      	bx	lr

00080eb0 <_ZNK11SPISettings9bit_orderEv>:

uint8_t SPISettings::bit_order(void) const
{
    return bit_order_;
}
   80eb0:	7900      	ldrb	r0, [r0, #4]
   80eb2:	4770      	bx	lr

00080eb4 <_ZNK11SPISettings9data_modeEv>:

uint8_t SPISettings::data_mode(void) const
{
    return data_mode_;
}
   80eb4:	7940      	ldrb	r0, [r0, #5]
   80eb6:	4770      	bx	lr

00080eb8 <_ZN8SPIClassC1Ev>:

SPIClass::SPIClass()
   80eb8:	b510      	push	{r4, lr}
   80eba:	4604      	mov	r4, r0
    : settings_(),
      initialized_(0U)
   80ebc:	4b02      	ldr	r3, [pc, #8]	; (80ec8 <_ZN8SPIClassC1Ev+0x10>)
   80ebe:	4798      	blx	r3
   80ec0:	2300      	movs	r3, #0
   80ec2:	7223      	strb	r3, [r4, #8]
{
}
   80ec4:	4620      	mov	r0, r4
   80ec6:	bd10      	pop	{r4, pc}
   80ec8:	00080e91 	.word	0x00080e91

00080ecc <_ZN8SPIClass14endTransactionEv>:
        apply_current_settings();
    }
}

void SPIClass::endTransaction(void)
{
   80ecc:	4770      	bx	lr
	...

00080ed0 <_ZN8SPIClass8transferEh>:
}

uint8_t SPIClass::transfer(uint8_t value)
{
   80ed0:	4603      	mov	r3, r0
    if (initialized_ == 0U)
   80ed2:	7a00      	ldrb	r0, [r0, #8]
   80ed4:	b188      	cbz	r0, 80efa <_ZN8SPIClass8transferEh+0x2a>
{
   80ed6:	b510      	push	{r4, lr}
   80ed8:	460c      	mov	r4, r1
   80eda:	4618      	mov	r0, r3
    {
        return 0U;
    }

    if (settings_.bit_order() == LSBFIRST)
   80edc:	4b07      	ldr	r3, [pc, #28]	; (80efc <_ZN8SPIClass8transferEh+0x2c>)
   80ede:	4798      	blx	r3
   80ee0:	2801      	cmp	r0, #1
   80ee2:	d003      	beq.n	80eec <_ZN8SPIClass8transferEh+0x1c>
        const uint8_t tx_value = platform_reverse_bits(value);
        const uint8_t rx_value = hal_spi_transfer(tx_value);
        return platform_reverse_bits(rx_value);
    }

    return hal_spi_transfer(value);
   80ee4:	4620      	mov	r0, r4
   80ee6:	4b06      	ldr	r3, [pc, #24]	; (80f00 <_ZN8SPIClass8transferEh+0x30>)
   80ee8:	4798      	blx	r3
}
   80eea:	bd10      	pop	{r4, pc}
        const uint8_t tx_value = platform_reverse_bits(value);
   80eec:	4620      	mov	r0, r4
   80eee:	4c05      	ldr	r4, [pc, #20]	; (80f04 <_ZN8SPIClass8transferEh+0x34>)
   80ef0:	47a0      	blx	r4
        const uint8_t rx_value = hal_spi_transfer(tx_value);
   80ef2:	4b03      	ldr	r3, [pc, #12]	; (80f00 <_ZN8SPIClass8transferEh+0x30>)
   80ef4:	4798      	blx	r3
        return platform_reverse_bits(rx_value);
   80ef6:	47a0      	blx	r4
   80ef8:	bd10      	pop	{r4, pc}
}
   80efa:	4770      	bx	lr
   80efc:	00080eb1 	.word	0x00080eb1
   80f00:	000806e1 	.word	0x000806e1
   80f04:	00080e6b 	.word	0x00080e6b

00080f08 <_ZNK8SPIClass17convert_data_modeEh>:
    return (bit_order == LSBFIRST) ? HAL_SPI_LSB_FIRST : HAL_SPI_MSB_FIRST;
}

HalSpiMode SPIClass::convert_data_mode(uint8_t data_mode) const
{
    switch (data_mode)
   80f08:	2902      	cmp	r1, #2
   80f0a:	d009      	beq.n	80f20 <_ZNK8SPIClass17convert_data_modeEh+0x18>
   80f0c:	2903      	cmp	r1, #3
   80f0e:	d005      	beq.n	80f1c <_ZNK8SPIClass17convert_data_modeEh+0x14>
   80f10:	2901      	cmp	r1, #1
   80f12:	d001      	beq.n	80f18 <_ZNK8SPIClass17convert_data_modeEh+0x10>
        case SPI_MODE3:
            return HAL_SPI_MODE_3;

        case SPI_MODE0:
        default:
            return HAL_SPI_MODE_0;
   80f14:	2000      	movs	r0, #0
   80f16:	4770      	bx	lr
            return HAL_SPI_MODE_1;
   80f18:	2001      	movs	r0, #1
   80f1a:	4770      	bx	lr
            return HAL_SPI_MODE_3;
   80f1c:	2003      	movs	r0, #3
   80f1e:	4770      	bx	lr
            return HAL_SPI_MODE_2;
   80f20:	2002      	movs	r0, #2
    }
}
   80f22:	4770      	bx	lr

00080f24 <_ZNK8SPIClass15make_hal_configERK11SPISettings>:
{
   80f24:	b570      	push	{r4, r5, r6, lr}
   80f26:	4604      	mov	r4, r0
   80f28:	460e      	mov	r6, r1
   80f2a:	4615      	mov	r5, r2
    config.clock_hz = settings.clock_hz();
   80f2c:	4610      	mov	r0, r2
   80f2e:	4b07      	ldr	r3, [pc, #28]	; (80f4c <_ZNK8SPIClass15make_hal_configERK11SPISettings+0x28>)
   80f30:	4798      	blx	r3
   80f32:	6020      	str	r0, [r4, #0]
    config.bit_order = HAL_SPI_MSB_FIRST;
   80f34:	2300      	movs	r3, #0
   80f36:	7123      	strb	r3, [r4, #4]
    config.mode = convert_data_mode(settings.data_mode());
   80f38:	4628      	mov	r0, r5
   80f3a:	4b05      	ldr	r3, [pc, #20]	; (80f50 <_ZNK8SPIClass15make_hal_configERK11SPISettings+0x2c>)
   80f3c:	4798      	blx	r3
   80f3e:	4601      	mov	r1, r0
   80f40:	4630      	mov	r0, r6
   80f42:	4b04      	ldr	r3, [pc, #16]	; (80f54 <_ZNK8SPIClass15make_hal_configERK11SPISettings+0x30>)
   80f44:	4798      	blx	r3
   80f46:	7160      	strb	r0, [r4, #5]
}
   80f48:	4620      	mov	r0, r4
   80f4a:	bd70      	pop	{r4, r5, r6, pc}
   80f4c:	00080ead 	.word	0x00080ead
   80f50:	00080eb5 	.word	0x00080eb5
   80f54:	00080f09 	.word	0x00080f09

00080f58 <_ZN8SPIClass22apply_current_settingsEv>:

void SPIClass::apply_current_settings(void)
{
   80f58:	b500      	push	{lr}
   80f5a:	b083      	sub	sp, #12
   80f5c:	4601      	mov	r1, r0
    const HalSpiConfig config = make_hal_config(settings_);
   80f5e:	4602      	mov	r2, r0
   80f60:	4668      	mov	r0, sp
   80f62:	4b04      	ldr	r3, [pc, #16]	; (80f74 <_ZN8SPIClass22apply_current_settingsEv+0x1c>)
   80f64:	4798      	blx	r3
    hal_spi_configure(config);
   80f66:	4668      	mov	r0, sp
   80f68:	4b03      	ldr	r3, [pc, #12]	; (80f78 <_ZN8SPIClass22apply_current_settingsEv+0x20>)
   80f6a:	4798      	blx	r3
}
   80f6c:	b003      	add	sp, #12
   80f6e:	f85d fb04 	ldr.w	pc, [sp], #4
   80f72:	bf00      	nop
   80f74:	00080f25 	.word	0x00080f25
   80f78:	00080631 	.word	0x00080631

00080f7c <_ZN8SPIClass5beginEv>:
{
   80f7c:	b510      	push	{r4, lr}
   80f7e:	4604      	mov	r4, r0
    hal_spi_begin();
   80f80:	4b03      	ldr	r3, [pc, #12]	; (80f90 <_ZN8SPIClass5beginEv+0x14>)
   80f82:	4798      	blx	r3
    apply_current_settings();
   80f84:	4620      	mov	r0, r4
   80f86:	4b03      	ldr	r3, [pc, #12]	; (80f94 <_ZN8SPIClass5beginEv+0x18>)
   80f88:	4798      	blx	r3
    initialized_ = 1U;
   80f8a:	2301      	movs	r3, #1
   80f8c:	7223      	strb	r3, [r4, #8]
   80f8e:	bd10      	pop	{r4, pc}
   80f90:	00080659 	.word	0x00080659
   80f94:	00080f59 	.word	0x00080f59

00080f98 <_ZN8SPIClass16beginTransactionERK11SPISettings>:
{
   80f98:	b508      	push	{r3, lr}
    settings_ = settings;
   80f9a:	680b      	ldr	r3, [r1, #0]
   80f9c:	6003      	str	r3, [r0, #0]
   80f9e:	888b      	ldrh	r3, [r1, #4]
   80fa0:	8083      	strh	r3, [r0, #4]
    if (initialized_ != 0U)
   80fa2:	7a03      	ldrb	r3, [r0, #8]
   80fa4:	b903      	cbnz	r3, 80fa8 <_ZN8SPIClass16beginTransactionERK11SPISettings+0x10>
   80fa6:	bd08      	pop	{r3, pc}
        apply_current_settings();
   80fa8:	4b01      	ldr	r3, [pc, #4]	; (80fb0 <_ZN8SPIClass16beginTransactionERK11SPISettings+0x18>)
   80faa:	4798      	blx	r3
}
   80fac:	e7fb      	b.n	80fa6 <_ZN8SPIClass16beginTransactionERK11SPISettings+0xe>
   80fae:	bf00      	nop
   80fb0:	00080f59 	.word	0x00080f59

00080fb4 <platform_get_stack_pointer>:

static char* platform_get_stack_pointer(void)
{
    register char* stack_pointer __asm("sp");
    return stack_pointer;
}
   80fb4:	4668      	mov	r0, sp
   80fb6:	4770      	bx	lr

00080fb8 <_sbrk>:

void* _sbrk(ptrdiff_t increment)
{
   80fb8:	b538      	push	{r3, r4, r5, lr}
    char* previous_heap_end;
    char* next_heap_end;
    char* stack_pointer;

    if (g_heap_end == 0)
   80fba:	4b0c      	ldr	r3, [pc, #48]	; (80fec <_sbrk+0x34>)
   80fbc:	681b      	ldr	r3, [r3, #0]
   80fbe:	b153      	cbz	r3, 80fd6 <_sbrk+0x1e>
    {
        g_heap_end = &_end;
    }

    previous_heap_end = g_heap_end;
   80fc0:	4b0a      	ldr	r3, [pc, #40]	; (80fec <_sbrk+0x34>)
   80fc2:	681d      	ldr	r5, [r3, #0]
    next_heap_end = g_heap_end + increment;
   80fc4:	182c      	adds	r4, r5, r0
    stack_pointer = platform_get_stack_pointer();
   80fc6:	4b0a      	ldr	r3, [pc, #40]	; (80ff0 <_sbrk+0x38>)
   80fc8:	4798      	blx	r3

    if (next_heap_end >= stack_pointer)
   80fca:	4284      	cmp	r4, r0
   80fcc:	d207      	bcs.n	80fde <_sbrk+0x26>
    {
        errno = ENOMEM;
        return (void*)-1;
    }

    g_heap_end = next_heap_end;
   80fce:	4b07      	ldr	r3, [pc, #28]	; (80fec <_sbrk+0x34>)
   80fd0:	601c      	str	r4, [r3, #0]

    return previous_heap_end;
   80fd2:	4628      	mov	r0, r5
}
   80fd4:	bd38      	pop	{r3, r4, r5, pc}
        g_heap_end = &_end;
   80fd6:	4a07      	ldr	r2, [pc, #28]	; (80ff4 <_sbrk+0x3c>)
   80fd8:	4b04      	ldr	r3, [pc, #16]	; (80fec <_sbrk+0x34>)
   80fda:	601a      	str	r2, [r3, #0]
   80fdc:	e7f0      	b.n	80fc0 <_sbrk+0x8>
        errno = ENOMEM;
   80fde:	4b06      	ldr	r3, [pc, #24]	; (80ff8 <_sbrk+0x40>)
   80fe0:	4798      	blx	r3
   80fe2:	230c      	movs	r3, #12
   80fe4:	6003      	str	r3, [r0, #0]
        return (void*)-1;
   80fe6:	f04f 30ff 	mov.w	r0, #4294967295
   80fea:	bd38      	pop	{r3, r4, r5, pc}
   80fec:	200008c8 	.word	0x200008c8
   80ff0:	00080fb5 	.word	0x00080fb5
   80ff4:	20000f28 	.word	0x20000f28
   80ff8:	0008101d 	.word	0x0008101d

00080ffc <__aeabi_atexit>:
   80ffc:	460b      	mov	r3, r1
   80ffe:	4601      	mov	r1, r0
   81000:	4618      	mov	r0, r3
   81002:	f000 b805 	b.w	81010 <__cxa_atexit>
   81006:	bf00      	nop

00081008 <_ZdlPvj>:
   81008:	f000 b800 	b.w	8100c <_ZdlPv>

0008100c <_ZdlPv>:
   8100c:	f000 b83c 	b.w	81088 <free>

00081010 <__cxa_atexit>:
   81010:	4613      	mov	r3, r2
   81012:	460a      	mov	r2, r1
   81014:	4601      	mov	r1, r0
   81016:	2002      	movs	r0, #2
   81018:	f000 bafe 	b.w	81618 <__register_exitproc>

0008101c <__errno>:
   8101c:	4b01      	ldr	r3, [pc, #4]	; (81024 <__errno+0x8>)
   8101e:	6818      	ldr	r0, [r3, #0]
   81020:	4770      	bx	lr
   81022:	bf00      	nop
   81024:	20000010 	.word	0x20000010

00081028 <__libc_init_array>:
   81028:	b570      	push	{r4, r5, r6, lr}
   8102a:	4e0f      	ldr	r6, [pc, #60]	; (81068 <__libc_init_array+0x40>)
   8102c:	4d0f      	ldr	r5, [pc, #60]	; (8106c <__libc_init_array+0x44>)
   8102e:	1b76      	subs	r6, r6, r5
   81030:	10b6      	asrs	r6, r6, #2
   81032:	bf18      	it	ne
   81034:	2400      	movne	r4, #0
   81036:	d005      	beq.n	81044 <__libc_init_array+0x1c>
   81038:	3401      	adds	r4, #1
   8103a:	f855 3b04 	ldr.w	r3, [r5], #4
   8103e:	4798      	blx	r3
   81040:	42a6      	cmp	r6, r4
   81042:	d1f9      	bne.n	81038 <__libc_init_array+0x10>
   81044:	4e0a      	ldr	r6, [pc, #40]	; (81070 <__libc_init_array+0x48>)
   81046:	4d0b      	ldr	r5, [pc, #44]	; (81074 <__libc_init_array+0x4c>)
   81048:	f000 fda2 	bl	81b90 <_init>
   8104c:	1b76      	subs	r6, r6, r5
   8104e:	10b6      	asrs	r6, r6, #2
   81050:	bf18      	it	ne
   81052:	2400      	movne	r4, #0
   81054:	d006      	beq.n	81064 <__libc_init_array+0x3c>
   81056:	3401      	adds	r4, #1
   81058:	f855 3b04 	ldr.w	r3, [r5], #4
   8105c:	4798      	blx	r3
   8105e:	42a6      	cmp	r6, r4
   81060:	d1f9      	bne.n	81056 <__libc_init_array+0x2e>
   81062:	bd70      	pop	{r4, r5, r6, pc}
   81064:	bd70      	pop	{r4, r5, r6, pc}
   81066:	bf00      	nop
   81068:	00081b9c 	.word	0x00081b9c
   8106c:	00081b9c 	.word	0x00081b9c
   81070:	00081bb8 	.word	0x00081bb8
   81074:	00081b9c 	.word	0x00081b9c

00081078 <malloc>:
   81078:	4b02      	ldr	r3, [pc, #8]	; (81084 <malloc+0xc>)
   8107a:	4601      	mov	r1, r0
   8107c:	6818      	ldr	r0, [r3, #0]
   8107e:	f000 b80b 	b.w	81098 <_malloc_r>
   81082:	bf00      	nop
   81084:	20000010 	.word	0x20000010

00081088 <free>:
   81088:	4b02      	ldr	r3, [pc, #8]	; (81094 <free+0xc>)
   8108a:	4601      	mov	r1, r0
   8108c:	6818      	ldr	r0, [r3, #0]
   8108e:	f000 bb9f 	b.w	817d0 <_free_r>
   81092:	bf00      	nop
   81094:	20000010 	.word	0x20000010

00081098 <_malloc_r>:
   81098:	e92d 4ff0 	stmdb	sp!, {r4, r5, r6, r7, r8, r9, sl, fp, lr}
   8109c:	f101 060b 	add.w	r6, r1, #11
   810a0:	2e16      	cmp	r6, #22
   810a2:	b083      	sub	sp, #12
   810a4:	4605      	mov	r5, r0
   810a6:	f240 809e 	bls.w	811e6 <_malloc_r+0x14e>
   810aa:	f036 0607 	bics.w	r6, r6, #7
   810ae:	f100 80bd 	bmi.w	8122c <_malloc_r+0x194>
   810b2:	42b1      	cmp	r1, r6
   810b4:	f200 80ba 	bhi.w	8122c <_malloc_r+0x194>
   810b8:	f000 fa90 	bl	815dc <__malloc_lock>
   810bc:	f5b6 7ffc 	cmp.w	r6, #504	; 0x1f8
   810c0:	f0c0 8285 	bcc.w	815ce <_malloc_r+0x536>
   810c4:	0a73      	lsrs	r3, r6, #9
   810c6:	f000 80b8 	beq.w	8123a <_malloc_r+0x1a2>
   810ca:	2b04      	cmp	r3, #4
   810cc:	f200 816c 	bhi.w	813a8 <_malloc_r+0x310>
   810d0:	09b3      	lsrs	r3, r6, #6
   810d2:	f103 0039 	add.w	r0, r3, #57	; 0x39
   810d6:	f103 0e38 	add.w	lr, r3, #56	; 0x38
   810da:	00c1      	lsls	r1, r0, #3
   810dc:	4fb8      	ldr	r7, [pc, #736]	; (813c0 <_malloc_r+0x328>)
   810de:	4439      	add	r1, r7
   810e0:	684c      	ldr	r4, [r1, #4]
   810e2:	3908      	subs	r1, #8
   810e4:	42a1      	cmp	r1, r4
   810e6:	d106      	bne.n	810f6 <_malloc_r+0x5e>
   810e8:	e00c      	b.n	81104 <_malloc_r+0x6c>
   810ea:	2a00      	cmp	r2, #0
   810ec:	f280 80ab 	bge.w	81246 <_malloc_r+0x1ae>
   810f0:	68e4      	ldr	r4, [r4, #12]
   810f2:	42a1      	cmp	r1, r4
   810f4:	d006      	beq.n	81104 <_malloc_r+0x6c>
   810f6:	6863      	ldr	r3, [r4, #4]
   810f8:	f023 0303 	bic.w	r3, r3, #3
   810fc:	1b9a      	subs	r2, r3, r6
   810fe:	2a0f      	cmp	r2, #15
   81100:	ddf3      	ble.n	810ea <_malloc_r+0x52>
   81102:	4670      	mov	r0, lr
   81104:	693c      	ldr	r4, [r7, #16]
   81106:	f8df e2cc 	ldr.w	lr, [pc, #716]	; 813d4 <_malloc_r+0x33c>
   8110a:	4574      	cmp	r4, lr
   8110c:	f000 819e 	beq.w	8144c <_malloc_r+0x3b4>
   81110:	6863      	ldr	r3, [r4, #4]
   81112:	f023 0303 	bic.w	r3, r3, #3
   81116:	1b9a      	subs	r2, r3, r6
   81118:	2a0f      	cmp	r2, #15
   8111a:	f300 8183 	bgt.w	81424 <_malloc_r+0x38c>
   8111e:	2a00      	cmp	r2, #0
   81120:	f8c7 e014 	str.w	lr, [r7, #20]
   81124:	f8c7 e010 	str.w	lr, [r7, #16]
   81128:	f280 8091 	bge.w	8124e <_malloc_r+0x1b6>
   8112c:	f5b3 7f00 	cmp.w	r3, #512	; 0x200
   81130:	f080 8154 	bcs.w	813dc <_malloc_r+0x344>
   81134:	2201      	movs	r2, #1
   81136:	08db      	lsrs	r3, r3, #3
   81138:	6879      	ldr	r1, [r7, #4]
   8113a:	ea4f 0ca3 	mov.w	ip, r3, asr #2
   8113e:	4413      	add	r3, r2
   81140:	f857 8033 	ldr.w	r8, [r7, r3, lsl #3]
   81144:	fa02 f20c 	lsl.w	r2, r2, ip
   81148:	eb07 0cc3 	add.w	ip, r7, r3, lsl #3
   8114c:	430a      	orrs	r2, r1
   8114e:	f1ac 0108 	sub.w	r1, ip, #8
   81152:	60e1      	str	r1, [r4, #12]
   81154:	f8c4 8008 	str.w	r8, [r4, #8]
   81158:	607a      	str	r2, [r7, #4]
   8115a:	f847 4033 	str.w	r4, [r7, r3, lsl #3]
   8115e:	f8c8 400c 	str.w	r4, [r8, #12]
   81162:	2401      	movs	r4, #1
   81164:	1083      	asrs	r3, r0, #2
   81166:	409c      	lsls	r4, r3
   81168:	4294      	cmp	r4, r2
   8116a:	d87d      	bhi.n	81268 <_malloc_r+0x1d0>
   8116c:	4214      	tst	r4, r2
   8116e:	d106      	bne.n	8117e <_malloc_r+0xe6>
   81170:	f020 0003 	bic.w	r0, r0, #3
   81174:	0064      	lsls	r4, r4, #1
   81176:	4214      	tst	r4, r2
   81178:	f100 0004 	add.w	r0, r0, #4
   8117c:	d0fa      	beq.n	81174 <_malloc_r+0xdc>
   8117e:	eb07 09c0 	add.w	r9, r7, r0, lsl #3
   81182:	46cc      	mov	ip, r9
   81184:	4680      	mov	r8, r0
   81186:	f8dc 300c 	ldr.w	r3, [ip, #12]
   8118a:	459c      	cmp	ip, r3
   8118c:	d107      	bne.n	8119e <_malloc_r+0x106>
   8118e:	e15f      	b.n	81450 <_malloc_r+0x3b8>
   81190:	2a00      	cmp	r2, #0
   81192:	f280 816d 	bge.w	81470 <_malloc_r+0x3d8>
   81196:	68db      	ldr	r3, [r3, #12]
   81198:	459c      	cmp	ip, r3
   8119a:	f000 8159 	beq.w	81450 <_malloc_r+0x3b8>
   8119e:	6859      	ldr	r1, [r3, #4]
   811a0:	f021 0103 	bic.w	r1, r1, #3
   811a4:	1b8a      	subs	r2, r1, r6
   811a6:	2a0f      	cmp	r2, #15
   811a8:	ddf2      	ble.n	81190 <_malloc_r+0xf8>
   811aa:	68dc      	ldr	r4, [r3, #12]
   811ac:	f8d3 c008 	ldr.w	ip, [r3, #8]
   811b0:	f046 0801 	orr.w	r8, r6, #1
   811b4:	4628      	mov	r0, r5
   811b6:	441e      	add	r6, r3
   811b8:	f042 0501 	orr.w	r5, r2, #1
   811bc:	f8c3 8004 	str.w	r8, [r3, #4]
   811c0:	f8cc 400c 	str.w	r4, [ip, #12]
   811c4:	f8c4 c008 	str.w	ip, [r4, #8]
   811c8:	617e      	str	r6, [r7, #20]
   811ca:	613e      	str	r6, [r7, #16]
   811cc:	f8c6 e00c 	str.w	lr, [r6, #12]
   811d0:	f8c6 e008 	str.w	lr, [r6, #8]
   811d4:	6075      	str	r5, [r6, #4]
   811d6:	505a      	str	r2, [r3, r1]
   811d8:	9300      	str	r3, [sp, #0]
   811da:	f000 fa05 	bl	815e8 <__malloc_unlock>
   811de:	9b00      	ldr	r3, [sp, #0]
   811e0:	f103 0408 	add.w	r4, r3, #8
   811e4:	e01e      	b.n	81224 <_malloc_r+0x18c>
   811e6:	2910      	cmp	r1, #16
   811e8:	d820      	bhi.n	8122c <_malloc_r+0x194>
   811ea:	f000 f9f7 	bl	815dc <__malloc_lock>
   811ee:	2610      	movs	r6, #16
   811f0:	2318      	movs	r3, #24
   811f2:	2002      	movs	r0, #2
   811f4:	4f72      	ldr	r7, [pc, #456]	; (813c0 <_malloc_r+0x328>)
   811f6:	443b      	add	r3, r7
   811f8:	685c      	ldr	r4, [r3, #4]
   811fa:	f1a3 0208 	sub.w	r2, r3, #8
   811fe:	4294      	cmp	r4, r2
   81200:	f000 812f 	beq.w	81462 <_malloc_r+0x3ca>
   81204:	6863      	ldr	r3, [r4, #4]
   81206:	68e1      	ldr	r1, [r4, #12]
   81208:	f023 0303 	bic.w	r3, r3, #3
   8120c:	4423      	add	r3, r4
   8120e:	685a      	ldr	r2, [r3, #4]
   81210:	68a6      	ldr	r6, [r4, #8]
   81212:	f042 0201 	orr.w	r2, r2, #1
   81216:	60f1      	str	r1, [r6, #12]
   81218:	4628      	mov	r0, r5
   8121a:	608e      	str	r6, [r1, #8]
   8121c:	605a      	str	r2, [r3, #4]
   8121e:	f000 f9e3 	bl	815e8 <__malloc_unlock>
   81222:	3408      	adds	r4, #8
   81224:	4620      	mov	r0, r4
   81226:	b003      	add	sp, #12
   81228:	e8bd 8ff0 	ldmia.w	sp!, {r4, r5, r6, r7, r8, r9, sl, fp, pc}
   8122c:	2400      	movs	r4, #0
   8122e:	230c      	movs	r3, #12
   81230:	4620      	mov	r0, r4
   81232:	602b      	str	r3, [r5, #0]
   81234:	b003      	add	sp, #12
   81236:	e8bd 8ff0 	ldmia.w	sp!, {r4, r5, r6, r7, r8, r9, sl, fp, pc}
   8123a:	2040      	movs	r0, #64	; 0x40
   8123c:	f44f 7100 	mov.w	r1, #512	; 0x200
   81240:	f04f 0e3f 	mov.w	lr, #63	; 0x3f
   81244:	e74a      	b.n	810dc <_malloc_r+0x44>
   81246:	4423      	add	r3, r4
   81248:	685a      	ldr	r2, [r3, #4]
   8124a:	68e1      	ldr	r1, [r4, #12]
   8124c:	e7e0      	b.n	81210 <_malloc_r+0x178>
   8124e:	4423      	add	r3, r4
   81250:	685a      	ldr	r2, [r3, #4]
   81252:	4628      	mov	r0, r5
   81254:	f042 0201 	orr.w	r2, r2, #1
   81258:	605a      	str	r2, [r3, #4]
   8125a:	3408      	adds	r4, #8
   8125c:	f000 f9c4 	bl	815e8 <__malloc_unlock>
   81260:	4620      	mov	r0, r4
   81262:	b003      	add	sp, #12
   81264:	e8bd 8ff0 	ldmia.w	sp!, {r4, r5, r6, r7, r8, r9, sl, fp, pc}
   81268:	68bc      	ldr	r4, [r7, #8]
   8126a:	6863      	ldr	r3, [r4, #4]
   8126c:	f023 0803 	bic.w	r8, r3, #3
   81270:	45b0      	cmp	r8, r6
   81272:	d304      	bcc.n	8127e <_malloc_r+0x1e6>
   81274:	eba8 0306 	sub.w	r3, r8, r6
   81278:	2b0f      	cmp	r3, #15
   8127a:	f300 8085 	bgt.w	81388 <_malloc_r+0x2f0>
   8127e:	f8df 9158 	ldr.w	r9, [pc, #344]	; 813d8 <_malloc_r+0x340>
   81282:	4b50      	ldr	r3, [pc, #320]	; (813c4 <_malloc_r+0x32c>)
   81284:	f8d9 2000 	ldr.w	r2, [r9]
   81288:	681b      	ldr	r3, [r3, #0]
   8128a:	3201      	adds	r2, #1
   8128c:	4433      	add	r3, r6
   8128e:	eb04 0a08 	add.w	sl, r4, r8
   81292:	f000 8154 	beq.w	8153e <_malloc_r+0x4a6>
   81296:	f503 5380 	add.w	r3, r3, #4096	; 0x1000
   8129a:	330f      	adds	r3, #15
   8129c:	f423 6b7f 	bic.w	fp, r3, #4080	; 0xff0
   812a0:	f02b 0b0f 	bic.w	fp, fp, #15
   812a4:	4659      	mov	r1, fp
   812a6:	4628      	mov	r0, r5
   812a8:	f000 f9a4 	bl	815f4 <_sbrk_r>
   812ac:	1c41      	adds	r1, r0, #1
   812ae:	4602      	mov	r2, r0
   812b0:	f000 80fb 	beq.w	814aa <_malloc_r+0x412>
   812b4:	4582      	cmp	sl, r0
   812b6:	f200 80f6 	bhi.w	814a6 <_malloc_r+0x40e>
   812ba:	4b43      	ldr	r3, [pc, #268]	; (813c8 <_malloc_r+0x330>)
   812bc:	6819      	ldr	r1, [r3, #0]
   812be:	4459      	add	r1, fp
   812c0:	6019      	str	r1, [r3, #0]
   812c2:	f000 814c 	beq.w	8155e <_malloc_r+0x4c6>
   812c6:	f8d9 0000 	ldr.w	r0, [r9]
   812ca:	3001      	adds	r0, #1
   812cc:	bf1b      	ittet	ne
   812ce:	eba2 0a0a 	subne.w	sl, r2, sl
   812d2:	4451      	addne	r1, sl
   812d4:	f8c9 2000 	streq.w	r2, [r9]
   812d8:	6019      	strne	r1, [r3, #0]
   812da:	f012 0107 	ands.w	r1, r2, #7
   812de:	f000 8114 	beq.w	8150a <_malloc_r+0x472>
   812e2:	f1c1 0008 	rsb	r0, r1, #8
   812e6:	f5c1 5180 	rsb	r1, r1, #4096	; 0x1000
   812ea:	4402      	add	r2, r0
   812ec:	3108      	adds	r1, #8
   812ee:	eb02 090b 	add.w	r9, r2, fp
   812f2:	f3c9 090b 	ubfx	r9, r9, #0, #12
   812f6:	eba1 0909 	sub.w	r9, r1, r9
   812fa:	4649      	mov	r1, r9
   812fc:	4628      	mov	r0, r5
   812fe:	9301      	str	r3, [sp, #4]
   81300:	9200      	str	r2, [sp, #0]
   81302:	f000 f977 	bl	815f4 <_sbrk_r>
   81306:	1c43      	adds	r3, r0, #1
   81308:	e89d 000c 	ldmia.w	sp, {r2, r3}
   8130c:	f000 8142 	beq.w	81594 <_malloc_r+0x4fc>
   81310:	1a80      	subs	r0, r0, r2
   81312:	4448      	add	r0, r9
   81314:	f040 0001 	orr.w	r0, r0, #1
   81318:	6819      	ldr	r1, [r3, #0]
   8131a:	42bc      	cmp	r4, r7
   8131c:	4449      	add	r1, r9
   8131e:	60ba      	str	r2, [r7, #8]
   81320:	6019      	str	r1, [r3, #0]
   81322:	6050      	str	r0, [r2, #4]
   81324:	d017      	beq.n	81356 <_malloc_r+0x2be>
   81326:	f1b8 0f0f 	cmp.w	r8, #15
   8132a:	f240 80fa 	bls.w	81522 <_malloc_r+0x48a>
   8132e:	f04f 0c05 	mov.w	ip, #5
   81332:	6862      	ldr	r2, [r4, #4]
   81334:	f1a8 000c 	sub.w	r0, r8, #12
   81338:	f020 0007 	bic.w	r0, r0, #7
   8133c:	f002 0201 	and.w	r2, r2, #1
   81340:	eb04 0e00 	add.w	lr, r4, r0
   81344:	4302      	orrs	r2, r0
   81346:	280f      	cmp	r0, #15
   81348:	6062      	str	r2, [r4, #4]
   8134a:	f8ce c004 	str.w	ip, [lr, #4]
   8134e:	f8ce c008 	str.w	ip, [lr, #8]
   81352:	f200 8116 	bhi.w	81582 <_malloc_r+0x4ea>
   81356:	4b1d      	ldr	r3, [pc, #116]	; (813cc <_malloc_r+0x334>)
   81358:	68bc      	ldr	r4, [r7, #8]
   8135a:	681a      	ldr	r2, [r3, #0]
   8135c:	4291      	cmp	r1, r2
   8135e:	bf88      	it	hi
   81360:	6019      	strhi	r1, [r3, #0]
   81362:	4b1b      	ldr	r3, [pc, #108]	; (813d0 <_malloc_r+0x338>)
   81364:	681a      	ldr	r2, [r3, #0]
   81366:	4291      	cmp	r1, r2
   81368:	6862      	ldr	r2, [r4, #4]
   8136a:	bf88      	it	hi
   8136c:	6019      	strhi	r1, [r3, #0]
   8136e:	f022 0203 	bic.w	r2, r2, #3
   81372:	4296      	cmp	r6, r2
   81374:	eba2 0306 	sub.w	r3, r2, r6
   81378:	d801      	bhi.n	8137e <_malloc_r+0x2e6>
   8137a:	2b0f      	cmp	r3, #15
   8137c:	dc04      	bgt.n	81388 <_malloc_r+0x2f0>
   8137e:	4628      	mov	r0, r5
   81380:	f000 f932 	bl	815e8 <__malloc_unlock>
   81384:	2400      	movs	r4, #0
   81386:	e74d      	b.n	81224 <_malloc_r+0x18c>
   81388:	f046 0201 	orr.w	r2, r6, #1
   8138c:	f043 0301 	orr.w	r3, r3, #1
   81390:	4426      	add	r6, r4
   81392:	6062      	str	r2, [r4, #4]
   81394:	4628      	mov	r0, r5
   81396:	60be      	str	r6, [r7, #8]
   81398:	3408      	adds	r4, #8
   8139a:	6073      	str	r3, [r6, #4]
   8139c:	f000 f924 	bl	815e8 <__malloc_unlock>
   813a0:	4620      	mov	r0, r4
   813a2:	b003      	add	sp, #12
   813a4:	e8bd 8ff0 	ldmia.w	sp!, {r4, r5, r6, r7, r8, r9, sl, fp, pc}
   813a8:	2b14      	cmp	r3, #20
   813aa:	d970      	bls.n	8148e <_malloc_r+0x3f6>
   813ac:	2b54      	cmp	r3, #84	; 0x54
   813ae:	f200 80a2 	bhi.w	814f6 <_malloc_r+0x45e>
   813b2:	0b33      	lsrs	r3, r6, #12
   813b4:	f103 006f 	add.w	r0, r3, #111	; 0x6f
   813b8:	f103 0e6e 	add.w	lr, r3, #110	; 0x6e
   813bc:	00c1      	lsls	r1, r0, #3
   813be:	e68d      	b.n	810dc <_malloc_r+0x44>
   813c0:	20000440 	.word	0x20000440
   813c4:	200008fc 	.word	0x200008fc
   813c8:	200008cc 	.word	0x200008cc
   813cc:	200008f4 	.word	0x200008f4
   813d0:	200008f8 	.word	0x200008f8
   813d4:	20000448 	.word	0x20000448
   813d8:	20000848 	.word	0x20000848
   813dc:	0a5a      	lsrs	r2, r3, #9
   813de:	2a04      	cmp	r2, #4
   813e0:	d95b      	bls.n	8149a <_malloc_r+0x402>
   813e2:	2a14      	cmp	r2, #20
   813e4:	f200 80ae 	bhi.w	81544 <_malloc_r+0x4ac>
   813e8:	f102 015c 	add.w	r1, r2, #92	; 0x5c
   813ec:	00c9      	lsls	r1, r1, #3
   813ee:	325b      	adds	r2, #91	; 0x5b
   813f0:	eb07 0c01 	add.w	ip, r7, r1
   813f4:	5879      	ldr	r1, [r7, r1]
   813f6:	f1ac 0c08 	sub.w	ip, ip, #8
   813fa:	458c      	cmp	ip, r1
   813fc:	f000 8088 	beq.w	81510 <_malloc_r+0x478>
   81400:	684a      	ldr	r2, [r1, #4]
   81402:	f022 0203 	bic.w	r2, r2, #3
   81406:	4293      	cmp	r3, r2
   81408:	d273      	bcs.n	814f2 <_malloc_r+0x45a>
   8140a:	6889      	ldr	r1, [r1, #8]
   8140c:	458c      	cmp	ip, r1
   8140e:	d1f7      	bne.n	81400 <_malloc_r+0x368>
   81410:	f8dc 300c 	ldr.w	r3, [ip, #12]
   81414:	687a      	ldr	r2, [r7, #4]
   81416:	60e3      	str	r3, [r4, #12]
   81418:	f8c4 c008 	str.w	ip, [r4, #8]
   8141c:	609c      	str	r4, [r3, #8]
   8141e:	f8cc 400c 	str.w	r4, [ip, #12]
   81422:	e69e      	b.n	81162 <_malloc_r+0xca>
   81424:	f046 0c01 	orr.w	ip, r6, #1
   81428:	f042 0101 	orr.w	r1, r2, #1
   8142c:	4426      	add	r6, r4
   8142e:	f8c4 c004 	str.w	ip, [r4, #4]
   81432:	4628      	mov	r0, r5
   81434:	617e      	str	r6, [r7, #20]
   81436:	613e      	str	r6, [r7, #16]
   81438:	f8c6 e00c 	str.w	lr, [r6, #12]
   8143c:	f8c6 e008 	str.w	lr, [r6, #8]
   81440:	6071      	str	r1, [r6, #4]
   81442:	50e2      	str	r2, [r4, r3]
   81444:	f000 f8d0 	bl	815e8 <__malloc_unlock>
   81448:	3408      	adds	r4, #8
   8144a:	e6eb      	b.n	81224 <_malloc_r+0x18c>
   8144c:	687a      	ldr	r2, [r7, #4]
   8144e:	e688      	b.n	81162 <_malloc_r+0xca>
   81450:	f108 0801 	add.w	r8, r8, #1
   81454:	f018 0f03 	tst.w	r8, #3
   81458:	f10c 0c08 	add.w	ip, ip, #8
   8145c:	f47f ae93 	bne.w	81186 <_malloc_r+0xee>
   81460:	e02d      	b.n	814be <_malloc_r+0x426>
   81462:	68dc      	ldr	r4, [r3, #12]
   81464:	42a3      	cmp	r3, r4
   81466:	bf08      	it	eq
   81468:	3002      	addeq	r0, #2
   8146a:	f43f ae4b 	beq.w	81104 <_malloc_r+0x6c>
   8146e:	e6c9      	b.n	81204 <_malloc_r+0x16c>
   81470:	461c      	mov	r4, r3
   81472:	4419      	add	r1, r3
   81474:	684a      	ldr	r2, [r1, #4]
   81476:	68db      	ldr	r3, [r3, #12]
   81478:	f854 6f08 	ldr.w	r6, [r4, #8]!
   8147c:	f042 0201 	orr.w	r2, r2, #1
   81480:	604a      	str	r2, [r1, #4]
   81482:	4628      	mov	r0, r5
   81484:	60f3      	str	r3, [r6, #12]
   81486:	609e      	str	r6, [r3, #8]
   81488:	f000 f8ae 	bl	815e8 <__malloc_unlock>
   8148c:	e6ca      	b.n	81224 <_malloc_r+0x18c>
   8148e:	f103 005c 	add.w	r0, r3, #92	; 0x5c
   81492:	f103 0e5b 	add.w	lr, r3, #91	; 0x5b
   81496:	00c1      	lsls	r1, r0, #3
   81498:	e620      	b.n	810dc <_malloc_r+0x44>
   8149a:	099a      	lsrs	r2, r3, #6
   8149c:	f102 0139 	add.w	r1, r2, #57	; 0x39
   814a0:	00c9      	lsls	r1, r1, #3
   814a2:	3238      	adds	r2, #56	; 0x38
   814a4:	e7a4      	b.n	813f0 <_malloc_r+0x358>
   814a6:	42bc      	cmp	r4, r7
   814a8:	d054      	beq.n	81554 <_malloc_r+0x4bc>
   814aa:	68bc      	ldr	r4, [r7, #8]
   814ac:	6862      	ldr	r2, [r4, #4]
   814ae:	f022 0203 	bic.w	r2, r2, #3
   814b2:	e75e      	b.n	81372 <_malloc_r+0x2da>
   814b4:	f859 3908 	ldr.w	r3, [r9], #-8
   814b8:	4599      	cmp	r9, r3
   814ba:	f040 8086 	bne.w	815ca <_malloc_r+0x532>
   814be:	f010 0f03 	tst.w	r0, #3
   814c2:	f100 30ff 	add.w	r0, r0, #4294967295
   814c6:	d1f5      	bne.n	814b4 <_malloc_r+0x41c>
   814c8:	687b      	ldr	r3, [r7, #4]
   814ca:	ea23 0304 	bic.w	r3, r3, r4
   814ce:	607b      	str	r3, [r7, #4]
   814d0:	0064      	lsls	r4, r4, #1
   814d2:	429c      	cmp	r4, r3
   814d4:	f63f aec8 	bhi.w	81268 <_malloc_r+0x1d0>
   814d8:	2c00      	cmp	r4, #0
   814da:	f43f aec5 	beq.w	81268 <_malloc_r+0x1d0>
   814de:	421c      	tst	r4, r3
   814e0:	4640      	mov	r0, r8
   814e2:	f47f ae4c 	bne.w	8117e <_malloc_r+0xe6>
   814e6:	0064      	lsls	r4, r4, #1
   814e8:	421c      	tst	r4, r3
   814ea:	f100 0004 	add.w	r0, r0, #4
   814ee:	d0fa      	beq.n	814e6 <_malloc_r+0x44e>
   814f0:	e645      	b.n	8117e <_malloc_r+0xe6>
   814f2:	468c      	mov	ip, r1
   814f4:	e78c      	b.n	81410 <_malloc_r+0x378>
   814f6:	f5b3 7faa 	cmp.w	r3, #340	; 0x154
   814fa:	d815      	bhi.n	81528 <_malloc_r+0x490>
   814fc:	0bf3      	lsrs	r3, r6, #15
   814fe:	f103 0078 	add.w	r0, r3, #120	; 0x78
   81502:	f103 0e77 	add.w	lr, r3, #119	; 0x77
   81506:	00c1      	lsls	r1, r0, #3
   81508:	e5e8      	b.n	810dc <_malloc_r+0x44>
   8150a:	f44f 5180 	mov.w	r1, #4096	; 0x1000
   8150e:	e6ee      	b.n	812ee <_malloc_r+0x256>
   81510:	2101      	movs	r1, #1
   81512:	687b      	ldr	r3, [r7, #4]
   81514:	1092      	asrs	r2, r2, #2
   81516:	fa01 f202 	lsl.w	r2, r1, r2
   8151a:	431a      	orrs	r2, r3
   8151c:	607a      	str	r2, [r7, #4]
   8151e:	4663      	mov	r3, ip
   81520:	e779      	b.n	81416 <_malloc_r+0x37e>
   81522:	2301      	movs	r3, #1
   81524:	6053      	str	r3, [r2, #4]
   81526:	e72a      	b.n	8137e <_malloc_r+0x2e6>
   81528:	f240 5254 	movw	r2, #1364	; 0x554
   8152c:	4293      	cmp	r3, r2
   8152e:	d822      	bhi.n	81576 <_malloc_r+0x4de>
   81530:	0cb3      	lsrs	r3, r6, #18
   81532:	f103 007d 	add.w	r0, r3, #125	; 0x7d
   81536:	f103 0e7c 	add.w	lr, r3, #124	; 0x7c
   8153a:	00c1      	lsls	r1, r0, #3
   8153c:	e5ce      	b.n	810dc <_malloc_r+0x44>
   8153e:	f103 0b10 	add.w	fp, r3, #16
   81542:	e6af      	b.n	812a4 <_malloc_r+0x20c>
   81544:	2a54      	cmp	r2, #84	; 0x54
   81546:	d829      	bhi.n	8159c <_malloc_r+0x504>
   81548:	0b1a      	lsrs	r2, r3, #12
   8154a:	f102 016f 	add.w	r1, r2, #111	; 0x6f
   8154e:	00c9      	lsls	r1, r1, #3
   81550:	326e      	adds	r2, #110	; 0x6e
   81552:	e74d      	b.n	813f0 <_malloc_r+0x358>
   81554:	4b20      	ldr	r3, [pc, #128]	; (815d8 <_malloc_r+0x540>)
   81556:	6819      	ldr	r1, [r3, #0]
   81558:	4459      	add	r1, fp
   8155a:	6019      	str	r1, [r3, #0]
   8155c:	e6b3      	b.n	812c6 <_malloc_r+0x22e>
   8155e:	f3ca 000b 	ubfx	r0, sl, #0, #12
   81562:	2800      	cmp	r0, #0
   81564:	f47f aeaf 	bne.w	812c6 <_malloc_r+0x22e>
   81568:	eb08 030b 	add.w	r3, r8, fp
   8156c:	68ba      	ldr	r2, [r7, #8]
   8156e:	f043 0301 	orr.w	r3, r3, #1
   81572:	6053      	str	r3, [r2, #4]
   81574:	e6ef      	b.n	81356 <_malloc_r+0x2be>
   81576:	207f      	movs	r0, #127	; 0x7f
   81578:	f44f 717e 	mov.w	r1, #1016	; 0x3f8
   8157c:	f04f 0e7e 	mov.w	lr, #126	; 0x7e
   81580:	e5ac      	b.n	810dc <_malloc_r+0x44>
   81582:	f104 0108 	add.w	r1, r4, #8
   81586:	4628      	mov	r0, r5
   81588:	9300      	str	r3, [sp, #0]
   8158a:	f000 f921 	bl	817d0 <_free_r>
   8158e:	9b00      	ldr	r3, [sp, #0]
   81590:	6819      	ldr	r1, [r3, #0]
   81592:	e6e0      	b.n	81356 <_malloc_r+0x2be>
   81594:	2001      	movs	r0, #1
   81596:	f04f 0900 	mov.w	r9, #0
   8159a:	e6bd      	b.n	81318 <_malloc_r+0x280>
   8159c:	f5b2 7faa 	cmp.w	r2, #340	; 0x154
   815a0:	d805      	bhi.n	815ae <_malloc_r+0x516>
   815a2:	0bda      	lsrs	r2, r3, #15
   815a4:	f102 0178 	add.w	r1, r2, #120	; 0x78
   815a8:	00c9      	lsls	r1, r1, #3
   815aa:	3277      	adds	r2, #119	; 0x77
   815ac:	e720      	b.n	813f0 <_malloc_r+0x358>
   815ae:	f240 5154 	movw	r1, #1364	; 0x554
   815b2:	428a      	cmp	r2, r1
   815b4:	d805      	bhi.n	815c2 <_malloc_r+0x52a>
   815b6:	0c9a      	lsrs	r2, r3, #18
   815b8:	f102 017d 	add.w	r1, r2, #125	; 0x7d
   815bc:	00c9      	lsls	r1, r1, #3
   815be:	327c      	adds	r2, #124	; 0x7c
   815c0:	e716      	b.n	813f0 <_malloc_r+0x358>
   815c2:	f44f 717e 	mov.w	r1, #1016	; 0x3f8
   815c6:	227e      	movs	r2, #126	; 0x7e
   815c8:	e712      	b.n	813f0 <_malloc_r+0x358>
   815ca:	687b      	ldr	r3, [r7, #4]
   815cc:	e780      	b.n	814d0 <_malloc_r+0x438>
   815ce:	08f0      	lsrs	r0, r6, #3
   815d0:	f106 0308 	add.w	r3, r6, #8
   815d4:	e60e      	b.n	811f4 <_malloc_r+0x15c>
   815d6:	bf00      	nop
   815d8:	200008cc 	.word	0x200008cc

000815dc <__malloc_lock>:
   815dc:	4801      	ldr	r0, [pc, #4]	; (815e4 <__malloc_lock+0x8>)
   815de:	f000 b9dd 	b.w	8199c <__retarget_lock_acquire_recursive>
   815e2:	bf00      	nop
   815e4:	20000910 	.word	0x20000910

000815e8 <__malloc_unlock>:
   815e8:	4801      	ldr	r0, [pc, #4]	; (815f0 <__malloc_unlock+0x8>)
   815ea:	f000 b9d9 	b.w	819a0 <__retarget_lock_release_recursive>
   815ee:	bf00      	nop
   815f0:	20000910 	.word	0x20000910

000815f4 <_sbrk_r>:
   815f4:	b538      	push	{r3, r4, r5, lr}
   815f6:	2300      	movs	r3, #0
   815f8:	4c06      	ldr	r4, [pc, #24]	; (81614 <_sbrk_r+0x20>)
   815fa:	4605      	mov	r5, r0
   815fc:	4608      	mov	r0, r1
   815fe:	6023      	str	r3, [r4, #0]
   81600:	f7ff fcda 	bl	80fb8 <_sbrk>
   81604:	1c43      	adds	r3, r0, #1
   81606:	d000      	beq.n	8160a <_sbrk_r+0x16>
   81608:	bd38      	pop	{r3, r4, r5, pc}
   8160a:	6823      	ldr	r3, [r4, #0]
   8160c:	2b00      	cmp	r3, #0
   8160e:	d0fb      	beq.n	81608 <_sbrk_r+0x14>
   81610:	602b      	str	r3, [r5, #0]
   81612:	bd38      	pop	{r3, r4, r5, pc}
   81614:	20000924 	.word	0x20000924

00081618 <__register_exitproc>:
   81618:	e92d 43f8 	stmdb	sp!, {r3, r4, r5, r6, r7, r8, r9, lr}
   8161c:	4d2c      	ldr	r5, [pc, #176]	; (816d0 <__register_exitproc+0xb8>)
   8161e:	4606      	mov	r6, r0
   81620:	6828      	ldr	r0, [r5, #0]
   81622:	4698      	mov	r8, r3
   81624:	460f      	mov	r7, r1
   81626:	4691      	mov	r9, r2
   81628:	f000 f9b8 	bl	8199c <__retarget_lock_acquire_recursive>
   8162c:	4b29      	ldr	r3, [pc, #164]	; (816d4 <__register_exitproc+0xbc>)
   8162e:	681c      	ldr	r4, [r3, #0]
   81630:	f8d4 3148 	ldr.w	r3, [r4, #328]	; 0x148
   81634:	2b00      	cmp	r3, #0
   81636:	d03e      	beq.n	816b6 <__register_exitproc+0x9e>
   81638:	685a      	ldr	r2, [r3, #4]
   8163a:	2a1f      	cmp	r2, #31
   8163c:	dc1c      	bgt.n	81678 <__register_exitproc+0x60>
   8163e:	f102 0e01 	add.w	lr, r2, #1
   81642:	b176      	cbz	r6, 81662 <__register_exitproc+0x4a>
   81644:	2101      	movs	r1, #1
   81646:	eb03 0482 	add.w	r4, r3, r2, lsl #2
   8164a:	f8c4 9088 	str.w	r9, [r4, #136]	; 0x88
   8164e:	f8d3 0188 	ldr.w	r0, [r3, #392]	; 0x188
   81652:	4091      	lsls	r1, r2
   81654:	4308      	orrs	r0, r1
   81656:	2e02      	cmp	r6, #2
   81658:	f8c3 0188 	str.w	r0, [r3, #392]	; 0x188
   8165c:	f8c4 8108 	str.w	r8, [r4, #264]	; 0x108
   81660:	d023      	beq.n	816aa <__register_exitproc+0x92>
   81662:	3202      	adds	r2, #2
   81664:	f8c3 e004 	str.w	lr, [r3, #4]
   81668:	6828      	ldr	r0, [r5, #0]
   8166a:	f843 7022 	str.w	r7, [r3, r2, lsl #2]
   8166e:	f000 f997 	bl	819a0 <__retarget_lock_release_recursive>
   81672:	2000      	movs	r0, #0
   81674:	e8bd 83f8 	ldmia.w	sp!, {r3, r4, r5, r6, r7, r8, r9, pc}
   81678:	4b17      	ldr	r3, [pc, #92]	; (816d8 <__register_exitproc+0xc0>)
   8167a:	b30b      	cbz	r3, 816c0 <__register_exitproc+0xa8>
   8167c:	f44f 70c8 	mov.w	r0, #400	; 0x190
   81680:	f7ff fcfa 	bl	81078 <malloc>
   81684:	4603      	mov	r3, r0
   81686:	b1d8      	cbz	r0, 816c0 <__register_exitproc+0xa8>
   81688:	2000      	movs	r0, #0
   8168a:	f8d4 1148 	ldr.w	r1, [r4, #328]	; 0x148
   8168e:	f04f 0e01 	mov.w	lr, #1
   81692:	6058      	str	r0, [r3, #4]
   81694:	6019      	str	r1, [r3, #0]
   81696:	4602      	mov	r2, r0
   81698:	f8c4 3148 	str.w	r3, [r4, #328]	; 0x148
   8169c:	f8c3 0188 	str.w	r0, [r3, #392]	; 0x188
   816a0:	f8c3 018c 	str.w	r0, [r3, #396]	; 0x18c
   816a4:	2e00      	cmp	r6, #0
   816a6:	d0dc      	beq.n	81662 <__register_exitproc+0x4a>
   816a8:	e7cc      	b.n	81644 <__register_exitproc+0x2c>
   816aa:	f8d3 018c 	ldr.w	r0, [r3, #396]	; 0x18c
   816ae:	4301      	orrs	r1, r0
   816b0:	f8c3 118c 	str.w	r1, [r3, #396]	; 0x18c
   816b4:	e7d5      	b.n	81662 <__register_exitproc+0x4a>
   816b6:	f504 73a6 	add.w	r3, r4, #332	; 0x14c
   816ba:	f8c4 3148 	str.w	r3, [r4, #328]	; 0x148
   816be:	e7bb      	b.n	81638 <__register_exitproc+0x20>
   816c0:	6828      	ldr	r0, [r5, #0]
   816c2:	f000 f96d 	bl	819a0 <__retarget_lock_release_recursive>
   816c6:	f04f 30ff 	mov.w	r0, #4294967295
   816ca:	e8bd 83f8 	ldmia.w	sp!, {r3, r4, r5, r6, r7, r8, r9, pc}
   816ce:	bf00      	nop
   816d0:	20000850 	.word	0x20000850
   816d4:	00081b8c 	.word	0x00081b8c
   816d8:	00081079 	.word	0x00081079

000816dc <register_fini>:
   816dc:	4b02      	ldr	r3, [pc, #8]	; (816e8 <register_fini+0xc>)
   816de:	b113      	cbz	r3, 816e6 <register_fini+0xa>
   816e0:	4802      	ldr	r0, [pc, #8]	; (816ec <register_fini+0x10>)
   816e2:	f000 b805 	b.w	816f0 <atexit>
   816e6:	4770      	bx	lr
   816e8:	00000000 	.word	0x00000000
   816ec:	000816fd 	.word	0x000816fd

000816f0 <atexit>:
   816f0:	2300      	movs	r3, #0
   816f2:	4601      	mov	r1, r0
   816f4:	461a      	mov	r2, r3
   816f6:	4618      	mov	r0, r3
   816f8:	f7ff bf8e 	b.w	81618 <__register_exitproc>

000816fc <__libc_fini_array>:
   816fc:	b538      	push	{r3, r4, r5, lr}
   816fe:	4c0a      	ldr	r4, [pc, #40]	; (81728 <__libc_fini_array+0x2c>)
   81700:	4d0a      	ldr	r5, [pc, #40]	; (8172c <__libc_fini_array+0x30>)
   81702:	1b64      	subs	r4, r4, r5
   81704:	10a4      	asrs	r4, r4, #2
   81706:	d00a      	beq.n	8171e <__libc_fini_array+0x22>
   81708:	f104 4380 	add.w	r3, r4, #1073741824	; 0x40000000
   8170c:	3b01      	subs	r3, #1
   8170e:	eb05 0583 	add.w	r5, r5, r3, lsl #2
   81712:	3c01      	subs	r4, #1
   81714:	f855 3904 	ldr.w	r3, [r5], #-4
   81718:	4798      	blx	r3
   8171a:	2c00      	cmp	r4, #0
   8171c:	d1f9      	bne.n	81712 <__libc_fini_array+0x16>
   8171e:	e8bd 4038 	ldmia.w	sp!, {r3, r4, r5, lr}
   81722:	f000 ba49 	b.w	81bb8 <_fini>
   81726:	bf00      	nop
   81728:	00081bc8 	.word	0x00081bc8
   8172c:	00081bc4 	.word	0x00081bc4

00081730 <_malloc_trim_r>:
   81730:	b5f8      	push	{r3, r4, r5, r6, r7, lr}
   81732:	460c      	mov	r4, r1
   81734:	4f23      	ldr	r7, [pc, #140]	; (817c4 <_malloc_trim_r+0x94>)
   81736:	4606      	mov	r6, r0
   81738:	f7ff ff50 	bl	815dc <__malloc_lock>
   8173c:	68bb      	ldr	r3, [r7, #8]
   8173e:	f5c4 617e 	rsb	r1, r4, #4064	; 0xfe0
   81742:	685d      	ldr	r5, [r3, #4]
   81744:	310f      	adds	r1, #15
   81746:	f025 0503 	bic.w	r5, r5, #3
   8174a:	4429      	add	r1, r5
   8174c:	f421 617f 	bic.w	r1, r1, #4080	; 0xff0
   81750:	f021 010f 	bic.w	r1, r1, #15
   81754:	f5a1 5480 	sub.w	r4, r1, #4096	; 0x1000
   81758:	f5b4 5f80 	cmp.w	r4, #4096	; 0x1000
   8175c:	db07      	blt.n	8176e <_malloc_trim_r+0x3e>
   8175e:	2100      	movs	r1, #0
   81760:	4630      	mov	r0, r6
   81762:	f7ff ff47 	bl	815f4 <_sbrk_r>
   81766:	68bb      	ldr	r3, [r7, #8]
   81768:	442b      	add	r3, r5
   8176a:	4298      	cmp	r0, r3
   8176c:	d004      	beq.n	81778 <_malloc_trim_r+0x48>
   8176e:	4630      	mov	r0, r6
   81770:	f7ff ff3a 	bl	815e8 <__malloc_unlock>
   81774:	2000      	movs	r0, #0
   81776:	bdf8      	pop	{r3, r4, r5, r6, r7, pc}
   81778:	4261      	negs	r1, r4
   8177a:	4630      	mov	r0, r6
   8177c:	f7ff ff3a 	bl	815f4 <_sbrk_r>
   81780:	3001      	adds	r0, #1
   81782:	d00d      	beq.n	817a0 <_malloc_trim_r+0x70>
   81784:	4b10      	ldr	r3, [pc, #64]	; (817c8 <_malloc_trim_r+0x98>)
   81786:	68ba      	ldr	r2, [r7, #8]
   81788:	6819      	ldr	r1, [r3, #0]
   8178a:	1b2d      	subs	r5, r5, r4
   8178c:	f045 0501 	orr.w	r5, r5, #1
   81790:	4630      	mov	r0, r6
   81792:	1b09      	subs	r1, r1, r4
   81794:	6055      	str	r5, [r2, #4]
   81796:	6019      	str	r1, [r3, #0]
   81798:	f7ff ff26 	bl	815e8 <__malloc_unlock>
   8179c:	2001      	movs	r0, #1
   8179e:	bdf8      	pop	{r3, r4, r5, r6, r7, pc}
   817a0:	2100      	movs	r1, #0
   817a2:	4630      	mov	r0, r6
   817a4:	f7ff ff26 	bl	815f4 <_sbrk_r>
   817a8:	68ba      	ldr	r2, [r7, #8]
   817aa:	1a83      	subs	r3, r0, r2
   817ac:	2b0f      	cmp	r3, #15
   817ae:	ddde      	ble.n	8176e <_malloc_trim_r+0x3e>
   817b0:	4c06      	ldr	r4, [pc, #24]	; (817cc <_malloc_trim_r+0x9c>)
   817b2:	4905      	ldr	r1, [pc, #20]	; (817c8 <_malloc_trim_r+0x98>)
   817b4:	6824      	ldr	r4, [r4, #0]
   817b6:	f043 0301 	orr.w	r3, r3, #1
   817ba:	1b00      	subs	r0, r0, r4
   817bc:	6053      	str	r3, [r2, #4]
   817be:	6008      	str	r0, [r1, #0]
   817c0:	e7d5      	b.n	8176e <_malloc_trim_r+0x3e>
   817c2:	bf00      	nop
   817c4:	20000440 	.word	0x20000440
   817c8:	200008cc 	.word	0x200008cc
   817cc:	20000848 	.word	0x20000848

000817d0 <_free_r>:
   817d0:	2900      	cmp	r1, #0
   817d2:	d044      	beq.n	8185e <_free_r+0x8e>
   817d4:	e92d 41f0 	stmdb	sp!, {r4, r5, r6, r7, r8, lr}
   817d8:	460d      	mov	r5, r1
   817da:	4680      	mov	r8, r0
   817dc:	f7ff fefe 	bl	815dc <__malloc_lock>
   817e0:	f855 7c04 	ldr.w	r7, [r5, #-4]
   817e4:	4969      	ldr	r1, [pc, #420]	; (8198c <_free_r+0x1bc>)
   817e6:	f1a5 0408 	sub.w	r4, r5, #8
   817ea:	f027 0301 	bic.w	r3, r7, #1
   817ee:	18e2      	adds	r2, r4, r3
   817f0:	688e      	ldr	r6, [r1, #8]
   817f2:	6850      	ldr	r0, [r2, #4]
   817f4:	42b2      	cmp	r2, r6
   817f6:	f020 0003 	bic.w	r0, r0, #3
   817fa:	d05e      	beq.n	818ba <_free_r+0xea>
   817fc:	07fe      	lsls	r6, r7, #31
   817fe:	6050      	str	r0, [r2, #4]
   81800:	d40b      	bmi.n	8181a <_free_r+0x4a>
   81802:	f855 7c08 	ldr.w	r7, [r5, #-8]
   81806:	f101 0e08 	add.w	lr, r1, #8
   8180a:	1be4      	subs	r4, r4, r7
   8180c:	68a5      	ldr	r5, [r4, #8]
   8180e:	443b      	add	r3, r7
   81810:	4575      	cmp	r5, lr
   81812:	d06d      	beq.n	818f0 <_free_r+0x120>
   81814:	68e7      	ldr	r7, [r4, #12]
   81816:	60ef      	str	r7, [r5, #12]
   81818:	60bd      	str	r5, [r7, #8]
   8181a:	1815      	adds	r5, r2, r0
   8181c:	686d      	ldr	r5, [r5, #4]
   8181e:	07ed      	lsls	r5, r5, #31
   81820:	d53e      	bpl.n	818a0 <_free_r+0xd0>
   81822:	f043 0201 	orr.w	r2, r3, #1
   81826:	6062      	str	r2, [r4, #4]
   81828:	50e3      	str	r3, [r4, r3]
   8182a:	f5b3 7f00 	cmp.w	r3, #512	; 0x200
   8182e:	d217      	bcs.n	81860 <_free_r+0x90>
   81830:	2201      	movs	r2, #1
   81832:	08db      	lsrs	r3, r3, #3
   81834:	1098      	asrs	r0, r3, #2
   81836:	684d      	ldr	r5, [r1, #4]
   81838:	4413      	add	r3, r2
   8183a:	f851 7033 	ldr.w	r7, [r1, r3, lsl #3]
   8183e:	4082      	lsls	r2, r0
   81840:	eb01 00c3 	add.w	r0, r1, r3, lsl #3
   81844:	432a      	orrs	r2, r5
   81846:	3808      	subs	r0, #8
   81848:	60e0      	str	r0, [r4, #12]
   8184a:	60a7      	str	r7, [r4, #8]
   8184c:	604a      	str	r2, [r1, #4]
   8184e:	f841 4033 	str.w	r4, [r1, r3, lsl #3]
   81852:	60fc      	str	r4, [r7, #12]
   81854:	4640      	mov	r0, r8
   81856:	e8bd 41f0 	ldmia.w	sp!, {r4, r5, r6, r7, r8, lr}
   8185a:	f7ff bec5 	b.w	815e8 <__malloc_unlock>
   8185e:	4770      	bx	lr
   81860:	0a5a      	lsrs	r2, r3, #9
   81862:	2a04      	cmp	r2, #4
   81864:	d852      	bhi.n	8190c <_free_r+0x13c>
   81866:	099a      	lsrs	r2, r3, #6
   81868:	f102 0739 	add.w	r7, r2, #57	; 0x39
   8186c:	00ff      	lsls	r7, r7, #3
   8186e:	f102 0538 	add.w	r5, r2, #56	; 0x38
   81872:	19c8      	adds	r0, r1, r7
   81874:	59ca      	ldr	r2, [r1, r7]
   81876:	3808      	subs	r0, #8
   81878:	4290      	cmp	r0, r2
   8187a:	d04f      	beq.n	8191c <_free_r+0x14c>
   8187c:	6851      	ldr	r1, [r2, #4]
   8187e:	f021 0103 	bic.w	r1, r1, #3
   81882:	428b      	cmp	r3, r1
   81884:	d232      	bcs.n	818ec <_free_r+0x11c>
   81886:	6892      	ldr	r2, [r2, #8]
   81888:	4290      	cmp	r0, r2
   8188a:	d1f7      	bne.n	8187c <_free_r+0xac>
   8188c:	68c3      	ldr	r3, [r0, #12]
   8188e:	60a0      	str	r0, [r4, #8]
   81890:	60e3      	str	r3, [r4, #12]
   81892:	609c      	str	r4, [r3, #8]
   81894:	60c4      	str	r4, [r0, #12]
   81896:	4640      	mov	r0, r8
   81898:	e8bd 41f0 	ldmia.w	sp!, {r4, r5, r6, r7, r8, lr}
   8189c:	f7ff bea4 	b.w	815e8 <__malloc_unlock>
   818a0:	6895      	ldr	r5, [r2, #8]
   818a2:	4f3b      	ldr	r7, [pc, #236]	; (81990 <_free_r+0x1c0>)
   818a4:	4403      	add	r3, r0
   818a6:	42bd      	cmp	r5, r7
   818a8:	d040      	beq.n	8192c <_free_r+0x15c>
   818aa:	68d0      	ldr	r0, [r2, #12]
   818ac:	f043 0201 	orr.w	r2, r3, #1
   818b0:	60e8      	str	r0, [r5, #12]
   818b2:	6085      	str	r5, [r0, #8]
   818b4:	6062      	str	r2, [r4, #4]
   818b6:	50e3      	str	r3, [r4, r3]
   818b8:	e7b7      	b.n	8182a <_free_r+0x5a>
   818ba:	07ff      	lsls	r7, r7, #31
   818bc:	4403      	add	r3, r0
   818be:	d407      	bmi.n	818d0 <_free_r+0x100>
   818c0:	f855 5c08 	ldr.w	r5, [r5, #-8]
   818c4:	1b64      	subs	r4, r4, r5
   818c6:	68e2      	ldr	r2, [r4, #12]
   818c8:	68a0      	ldr	r0, [r4, #8]
   818ca:	442b      	add	r3, r5
   818cc:	60c2      	str	r2, [r0, #12]
   818ce:	6090      	str	r0, [r2, #8]
   818d0:	4a30      	ldr	r2, [pc, #192]	; (81994 <_free_r+0x1c4>)
   818d2:	f043 0001 	orr.w	r0, r3, #1
   818d6:	6812      	ldr	r2, [r2, #0]
   818d8:	6060      	str	r0, [r4, #4]
   818da:	4293      	cmp	r3, r2
   818dc:	608c      	str	r4, [r1, #8]
   818de:	d3b9      	bcc.n	81854 <_free_r+0x84>
   818e0:	4b2d      	ldr	r3, [pc, #180]	; (81998 <_free_r+0x1c8>)
   818e2:	4640      	mov	r0, r8
   818e4:	6819      	ldr	r1, [r3, #0]
   818e6:	f7ff ff23 	bl	81730 <_malloc_trim_r>
   818ea:	e7b3      	b.n	81854 <_free_r+0x84>
   818ec:	4610      	mov	r0, r2
   818ee:	e7cd      	b.n	8188c <_free_r+0xbc>
   818f0:	1811      	adds	r1, r2, r0
   818f2:	6849      	ldr	r1, [r1, #4]
   818f4:	07c9      	lsls	r1, r1, #31
   818f6:	d444      	bmi.n	81982 <_free_r+0x1b2>
   818f8:	6891      	ldr	r1, [r2, #8]
   818fa:	4403      	add	r3, r0
   818fc:	68d2      	ldr	r2, [r2, #12]
   818fe:	f043 0001 	orr.w	r0, r3, #1
   81902:	60ca      	str	r2, [r1, #12]
   81904:	6091      	str	r1, [r2, #8]
   81906:	6060      	str	r0, [r4, #4]
   81908:	50e3      	str	r3, [r4, r3]
   8190a:	e7a3      	b.n	81854 <_free_r+0x84>
   8190c:	2a14      	cmp	r2, #20
   8190e:	d816      	bhi.n	8193e <_free_r+0x16e>
   81910:	f102 075c 	add.w	r7, r2, #92	; 0x5c
   81914:	00ff      	lsls	r7, r7, #3
   81916:	f102 055b 	add.w	r5, r2, #91	; 0x5b
   8191a:	e7aa      	b.n	81872 <_free_r+0xa2>
   8191c:	2301      	movs	r3, #1
   8191e:	10aa      	asrs	r2, r5, #2
   81920:	684d      	ldr	r5, [r1, #4]
   81922:	4093      	lsls	r3, r2
   81924:	432b      	orrs	r3, r5
   81926:	604b      	str	r3, [r1, #4]
   81928:	4603      	mov	r3, r0
   8192a:	e7b0      	b.n	8188e <_free_r+0xbe>
   8192c:	f043 0201 	orr.w	r2, r3, #1
   81930:	614c      	str	r4, [r1, #20]
   81932:	610c      	str	r4, [r1, #16]
   81934:	60e5      	str	r5, [r4, #12]
   81936:	60a5      	str	r5, [r4, #8]
   81938:	6062      	str	r2, [r4, #4]
   8193a:	50e3      	str	r3, [r4, r3]
   8193c:	e78a      	b.n	81854 <_free_r+0x84>
   8193e:	2a54      	cmp	r2, #84	; 0x54
   81940:	d806      	bhi.n	81950 <_free_r+0x180>
   81942:	0b1a      	lsrs	r2, r3, #12
   81944:	f102 076f 	add.w	r7, r2, #111	; 0x6f
   81948:	00ff      	lsls	r7, r7, #3
   8194a:	f102 056e 	add.w	r5, r2, #110	; 0x6e
   8194e:	e790      	b.n	81872 <_free_r+0xa2>
   81950:	f5b2 7faa 	cmp.w	r2, #340	; 0x154
   81954:	d806      	bhi.n	81964 <_free_r+0x194>
   81956:	0bda      	lsrs	r2, r3, #15
   81958:	f102 0778 	add.w	r7, r2, #120	; 0x78
   8195c:	00ff      	lsls	r7, r7, #3
   8195e:	f102 0577 	add.w	r5, r2, #119	; 0x77
   81962:	e786      	b.n	81872 <_free_r+0xa2>
   81964:	f240 5054 	movw	r0, #1364	; 0x554
   81968:	4282      	cmp	r2, r0
   8196a:	d806      	bhi.n	8197a <_free_r+0x1aa>
   8196c:	0c9a      	lsrs	r2, r3, #18
   8196e:	f102 077d 	add.w	r7, r2, #125	; 0x7d
   81972:	00ff      	lsls	r7, r7, #3
   81974:	f102 057c 	add.w	r5, r2, #124	; 0x7c
   81978:	e77b      	b.n	81872 <_free_r+0xa2>
   8197a:	f44f 777e 	mov.w	r7, #1016	; 0x3f8
   8197e:	257e      	movs	r5, #126	; 0x7e
   81980:	e777      	b.n	81872 <_free_r+0xa2>
   81982:	f043 0101 	orr.w	r1, r3, #1
   81986:	6061      	str	r1, [r4, #4]
   81988:	6013      	str	r3, [r2, #0]
   8198a:	e763      	b.n	81854 <_free_r+0x84>
   8198c:	20000440 	.word	0x20000440
   81990:	20000448 	.word	0x20000448
   81994:	2000084c 	.word	0x2000084c
   81998:	200008fc 	.word	0x200008fc

0008199c <__retarget_lock_acquire_recursive>:
   8199c:	4770      	bx	lr
   8199e:	bf00      	nop

000819a0 <__retarget_lock_release_recursive>:
   819a0:	4770      	bx	lr
   819a2:	bf00      	nop

000819a4 <_ZL11g_gpio_pins>:
   819a4:	0002 0000 1000 400e 0000 0200 000c 0000     .......@........
   819b4:	0003 0000 1200 400e 0000 1000 000d 0000     .......@........
   819c4:	0005 0000 1200 400e 0000 0200 000d 0000     .......@........
   819d4:	0006 0000 1200 400e 0000 0100 000d 0000     .......@........
   819e4:	0007 0000 1200 400e 0000 0080 000d 0000     .......@........
   819f4:	0008 0000 1200 400e 0000 0040 000d 0000     .......@..@.....
   81a04:	0009 0000 1200 400e 0000 0020 000d 0000     .......@.. .....
   81a14:	000a 0000 1200 400e 0000 2000 000d 0000     .......@... ....
   81a24:	0017 0000 0e00 400e 4000 0000 000b 0000     .......@.@......
   81a34:	0018 0000 0e00 400e 8000 0000 000b 0000     .......@........
   81a44:	0028 0000 1200 400e 0100 0000 000d 0000     (......@........
   81a54:	0029 0000 1200 400e 0200 0000 000d 0000     )......@........
   81a64:	002d 0000 1200 400e 0000 0004 000d 0000     -......@........
   81a74:	0030 0000 1200 400e 8000 0000 000d 0000     0......@........
   81a84:	0036 0000 0e00 400e 0000 0001 000b 0000     6......@........
   81a94:	003d 0000 0e00 400e 0004 0000 000b 0000     =......@........

00081aa4 <_ZL12g_uart_ports>:
   81aa4:	0000 0000 0800 400e 0000 0000 0008 0000     .......@........
   81ab4:	0e00 400e 0100 0000 000b 0000 0000 0000     ...@............
   81ac4:	0e00 400e 0200 0000 000b 0000 0000 0000     ...@............
   81ad4:	0001 0000 0000 0000 8000 4009 0011 0000     ...........@....
   81ae4:	0e00 400e 0400 0000 000b 0000 0000 0000     ...@............
   81af4:	0e00 400e 0800 0000 000b 0000 0000 0000     ...@............
   81b04:	0001 0000 0000 0000 c000 4009 0012 0000     ...........@....
   81b14:	0e00 400e 1000 0000 000b 0000 0000 0000     ...@............
   81b24:	0e00 400e 2000 0000 000b 0000 0000 0000     ...@. ..........
   81b34:	0001 0000 0000 0000 4000 400a 0014 0000     .........@.@....
   81b44:	1400 400e 0020 0000 000e 0000 0001 0000     ...@ ...........
   81b54:	1400 400e 0010 0000 000e 0000 0001 0000     ...@............

00081b64 <_ZTV10SerialPort>:
	...
   81b6c:	0ce5 0008 0d75 0008 0e01 0008               ....u.......

00081b78 <_ZTV13UsbSerialPort>:
	...
   81b80:	0ce7 0008 0d89 0008 0df5 0008               ............

00081b8c <_global_impure_ptr>:
   81b8c:	0018 2000                                   ... 

00081b90 <_init>:
   81b90:	b5f8      	push	{r3, r4, r5, r6, r7, lr}
   81b92:	bf00      	nop
   81b94:	bcf8      	pop	{r3, r4, r5, r6, r7}
   81b96:	bc08      	pop	{r3}
   81b98:	469e      	mov	lr, r3
   81b9a:	4770      	bx	lr

00081b9c <__init_array_start>:
   81b9c:	000816dd 	.word	0x000816dd

00081ba0 <__frame_dummy_init_array_entry>:
   81ba0:	00080119 00080955 000809ad 000809ed     ....U...........
   81bb0:	00080d9d 00080dd5                       ........

00081bb8 <_fini>:
   81bb8:	b5f8      	push	{r3, r4, r5, r6, r7, lr}
   81bba:	bf00      	nop
   81bbc:	bcf8      	pop	{r3, r4, r5, r6, r7}
   81bbe:	bc08      	pop	{r3}
   81bc0:	469e      	mov	lr, r3
   81bc2:	4770      	bx	lr

00081bc4 <__fini_array_start>:
   81bc4:	000800f5 	.word	0x000800f5
