
LAI_Atmel.elf:     file format elf32-avr

Sections:
Idx Name          Size      VMA       LMA       File off  Algn
  0 .data         0000001a  00800100  00002a4a  00002ade  2**0
                  CONTENTS, ALLOC, LOAD, DATA
  1 .text         00002a4a  00000000  00000000  00000094  2**1
                  CONTENTS, ALLOC, LOAD, READONLY, CODE
  2 .bss          00000211  0080011a  0080011a  00002af8  2**0
                  ALLOC
  3 .comment      00000030  00000000  00000000  00002af8  2**0
                  CONTENTS, READONLY
  4 .note.gnu.avr.deviceinfo 00000040  00000000  00000000  00002b28  2**2
                  CONTENTS, READONLY
  5 .debug_aranges 00000438  00000000  00000000  00002b68  2**3
                  CONTENTS, READONLY, DEBUGGING
  6 .debug_info   00005ddf  00000000  00000000  00002fa0  2**0
                  CONTENTS, READONLY, DEBUGGING
  7 .debug_abbrev 00001b3e  00000000  00000000  00008d7f  2**0
                  CONTENTS, READONLY, DEBUGGING
  8 .debug_line   000026a1  00000000  00000000  0000a8bd  2**0
                  CONTENTS, READONLY, DEBUGGING
  9 .debug_frame  00000d40  00000000  00000000  0000cf60  2**2
                  CONTENTS, READONLY, DEBUGGING
 10 .debug_str    00001db4  00000000  00000000  0000dca0  2**0
                  CONTENTS, READONLY, DEBUGGING
 11 .debug_loc    000047e6  00000000  00000000  0000fa54  2**0
                  CONTENTS, READONLY, DEBUGGING
 12 .debug_ranges 000003e0  00000000  00000000  0001423a  2**0
                  CONTENTS, READONLY, DEBUGGING

Disassembly of section .text:

00000000 <__vectors>:
       0:	0c 94 35 00 	jmp	0x6a	; 0x6a <__ctors_end>
       4:	0c 94 5d 00 	jmp	0xba	; 0xba <__bad_interrupt>
       8:	0c 94 5d 00 	jmp	0xba	; 0xba <__bad_interrupt>
       c:	0c 94 5d 00 	jmp	0xba	; 0xba <__bad_interrupt>
      10:	0c 94 5d 00 	jmp	0xba	; 0xba <__bad_interrupt>
      14:	0c 94 5d 00 	jmp	0xba	; 0xba <__bad_interrupt>
      18:	0c 94 5d 00 	jmp	0xba	; 0xba <__bad_interrupt>
      1c:	0c 94 5d 00 	jmp	0xba	; 0xba <__bad_interrupt>
      20:	0c 94 5d 00 	jmp	0xba	; 0xba <__bad_interrupt>
      24:	0c 94 5d 00 	jmp	0xba	; 0xba <__bad_interrupt>
      28:	0c 94 5d 00 	jmp	0xba	; 0xba <__bad_interrupt>
      2c:	0c 94 5d 00 	jmp	0xba	; 0xba <__bad_interrupt>
      30:	0c 94 5d 00 	jmp	0xba	; 0xba <__bad_interrupt>
      34:	0c 94 5d 00 	jmp	0xba	; 0xba <__bad_interrupt>
      38:	0c 94 fa 0c 	jmp	0x19f4	; 0x19f4 <__vector_14>
      3c:	0c 94 5d 00 	jmp	0xba	; 0xba <__bad_interrupt>
      40:	0c 94 5d 00 	jmp	0xba	; 0xba <__bad_interrupt>
      44:	0c 94 5d 00 	jmp	0xba	; 0xba <__bad_interrupt>
      48:	0c 94 02 0c 	jmp	0x1804	; 0x1804 <__vector_18>
      4c:	0c 94 3a 0c 	jmp	0x1874	; 0x1874 <__vector_19>
      50:	0c 94 65 0c 	jmp	0x18ca	; 0x18ca <__vector_20>
      54:	0c 94 5d 00 	jmp	0xba	; 0xba <__bad_interrupt>
      58:	0c 94 5d 00 	jmp	0xba	; 0xba <__bad_interrupt>
      5c:	0c 94 5d 00 	jmp	0xba	; 0xba <__bad_interrupt>
      60:	0c 94 5d 00 	jmp	0xba	; 0xba <__bad_interrupt>
      64:	0c 94 5d 00 	jmp	0xba	; 0xba <__bad_interrupt>

00000068 <__ctors_start>:
      68:	8c 09       	sbc	r24, r12

0000006a <__ctors_end>:
      6a:	11 24       	eor	r1, r1
      6c:	1f be       	out	0x3f, r1	; 63
      6e:	cf ef       	ldi	r28, 0xFF	; 255
      70:	d8 e0       	ldi	r29, 0x08	; 8
      72:	de bf       	out	0x3e, r29	; 62
      74:	cd bf       	out	0x3d, r28	; 61

00000076 <__do_copy_data>:
      76:	11 e0       	ldi	r17, 0x01	; 1
      78:	a0 e0       	ldi	r26, 0x00	; 0
      7a:	b1 e0       	ldi	r27, 0x01	; 1
      7c:	ea e4       	ldi	r30, 0x4A	; 74
      7e:	fa e2       	ldi	r31, 0x2A	; 42
      80:	02 c0       	rjmp	.+4      	; 0x86 <__do_copy_data+0x10>
      82:	05 90       	lpm	r0, Z+
      84:	0d 92       	st	X+, r0
      86:	aa 31       	cpi	r26, 0x1A	; 26
      88:	b1 07       	cpc	r27, r17
      8a:	d9 f7       	brne	.-10     	; 0x82 <__do_copy_data+0xc>

0000008c <__do_clear_bss>:
      8c:	23 e0       	ldi	r18, 0x03	; 3
      8e:	aa e1       	ldi	r26, 0x1A	; 26
      90:	b1 e0       	ldi	r27, 0x01	; 1
      92:	01 c0       	rjmp	.+2      	; 0x96 <.do_clear_bss_start>

00000094 <.do_clear_bss_loop>:
      94:	1d 92       	st	X+, r1

00000096 <.do_clear_bss_start>:
      96:	ab 32       	cpi	r26, 0x2B	; 43
      98:	b2 07       	cpc	r27, r18
      9a:	e1 f7       	brne	.-8      	; 0x94 <.do_clear_bss_loop>

0000009c <__do_global_ctors>:
      9c:	10 e0       	ldi	r17, 0x00	; 0
      9e:	c5 e3       	ldi	r28, 0x35	; 53
      a0:	d0 e0       	ldi	r29, 0x00	; 0
      a2:	04 c0       	rjmp	.+8      	; 0xac <__do_global_ctors+0x10>
      a4:	21 97       	sbiw	r28, 0x01	; 1
      a6:	fe 01       	movw	r30, r28
      a8:	0e 94 f4 14 	call	0x29e8	; 0x29e8 <__tablejump2__>
      ac:	c4 33       	cpi	r28, 0x34	; 52
      ae:	d1 07       	cpc	r29, r17
      b0:	c9 f7       	brne	.-14     	; 0xa4 <__do_global_ctors+0x8>
      b2:	0e 94 75 12 	call	0x24ea	; 0x24ea <main>
      b6:	0c 94 23 15 	jmp	0x2a46	; 0x2a46 <_exit>

000000ba <__bad_interrupt>:
      ba:	0c 94 00 00 	jmp	0	; 0x0 <__vectors>

000000be <_ZN7ADS1115C1Eh>:
     * @brief ą£ą░ą║čüąĖą╝ą░ą╗čīąĮčŗą╣ ąĮąŠą╝ąĄčĆ single-ended ą║ą░ąĮą░ą╗ą░ ADS1115.
     */
    static const uint8_t ADS1115_MAX_CHANNEL = 3U;
}

ADS1115::ADS1115(uint8_t address)
      be:	fc 01       	movw	r30, r24
    : address_(address),
      gain_(0U),
      mode_(1U),
      dataRate_(7U)
      c0:	60 83       	st	Z, r22
      c2:	11 82       	std	Z+1, r1	; 0x01
      c4:	81 e0       	ldi	r24, 0x01	; 1
      c6:	82 83       	std	Z+2, r24	; 0x02
      c8:	87 e0       	ldi	r24, 0x07	; 7
      ca:	83 83       	std	Z+3, r24	; 0x03
      cc:	08 95       	ret

000000ce <_ZN7ADS11155beginEv>:
{
}

bool ADS1115::begin(void)
{
    hal::twi_init(ADS1115_TWI_FREQUENCY_HZ);
      ce:	60 e8       	ldi	r22, 0x80	; 128
      d0:	7a e1       	ldi	r23, 0x1A	; 26
      d2:	86 e0       	ldi	r24, 0x06	; 6
      d4:	90 e0       	ldi	r25, 0x00	; 0
      d6:	0e 94 af 0d 	call	0x1b5e	; 0x1b5e <_ZN3hal8twi_initEm>
    return true;
}
      da:	81 e0       	ldi	r24, 0x01	; 1
      dc:	08 95       	ret

000000de <_ZN7ADS11157setGainEh>:

void ADS1115::setGain(uint8_t gain)
{
    gain_ = static_cast<uint8_t>(gain & 0x07U);
      de:	67 70       	andi	r22, 0x07	; 7
      e0:	fc 01       	movw	r30, r24
      e2:	61 83       	std	Z+1, r22	; 0x01
      e4:	08 95       	ret

000000e6 <_ZN7ADS11157setModeEh>:
}

void ADS1115::setMode(uint8_t mode)
{
    mode_ = (mode != 0U) ? 1U : 0U;
      e6:	66 23       	and	r22, r22
      e8:	11 f0       	breq	.+4      	; 0xee <_ZN7ADS11157setModeEh+0x8>
      ea:	21 e0       	ldi	r18, 0x01	; 1
      ec:	01 c0       	rjmp	.+2      	; 0xf0 <_ZN7ADS11157setModeEh+0xa>
      ee:	20 e0       	ldi	r18, 0x00	; 0
      f0:	fc 01       	movw	r30, r24
      f2:	22 83       	std	Z+2, r18	; 0x02
      f4:	08 95       	ret

000000f6 <_ZN7ADS111511setDataRateEh>:
}

void ADS1115::setDataRate(uint8_t dataRate)
{
    dataRate_ = static_cast<uint8_t>(dataRate & 0x07U);
      f6:	67 70       	andi	r22, 0x07	; 7
      f8:	fc 01       	movw	r30, r24
      fa:	63 83       	std	Z+3, r22	; 0x03
      fc:	08 95       	ret

000000fe <_ZNK7ADS111521buildSingleShotConfigEh>:

    return static_cast<int16_t>(value);
}

uint16_t ADS1115::buildSingleShotConfig(uint8_t channel) const
{
      fe:	fc 01       	movw	r30, r24
    const uint16_t mux = static_cast<uint16_t>(
        static_cast<uint16_t>(ADS1115_SINGLE_ENDED_MUX_BASE + channel) << ADS1115_MUX_SHIFT
     100:	70 e0       	ldi	r23, 0x00	; 0
     102:	6c 5f       	subi	r22, 0xFC	; 252
     104:	7f 4f       	sbci	r23, 0xFF	; 255
    );
     106:	20 e0       	ldi	r18, 0x00	; 0
     108:	30 e0       	ldi	r19, 0x00	; 0
     10a:	36 2f       	mov	r19, r22
     10c:	32 95       	swap	r19
     10e:	30 7f       	andi	r19, 0xF0	; 240

    const uint16_t pga = static_cast<uint16_t>(
        static_cast<uint16_t>(gain_ & 0x07U) << ADS1115_PGA_SHIFT
     110:	41 81       	ldd	r20, Z+1	; 0x01
     112:	47 70       	andi	r20, 0x07	; 7
     114:	50 e0       	ldi	r21, 0x00	; 0
    );
     116:	54 2f       	mov	r21, r20
     118:	44 27       	eor	r20, r20
     11a:	55 0f       	add	r21, r21

    const uint16_t mode = (mode_ != 0U)
     11c:	82 81       	ldd	r24, Z+2	; 0x02
        ? ADS1115_MODE_SINGLE_SHOT
        : ADS1115_MODE_CONTINUOUS;
     11e:	88 23       	and	r24, r24
     120:	19 f0       	breq	.+6      	; 0x128 <_ZNK7ADS111521buildSingleShotConfigEh+0x2a>
     122:	80 e0       	ldi	r24, 0x00	; 0
     124:	91 e0       	ldi	r25, 0x01	; 1
     126:	02 c0       	rjmp	.+4      	; 0x12c <_ZNK7ADS111521buildSingleShotConfigEh+0x2e>
     128:	80 e0       	ldi	r24, 0x00	; 0
     12a:	90 e0       	ldi	r25, 0x00	; 0

    const uint16_t dataRate = static_cast<uint16_t>(
        static_cast<uint16_t>(dataRate_ & 0x07U) << ADS1115_DATA_RATE_SHIFT
     12c:	63 81       	ldd	r22, Z+3	; 0x03
     12e:	e0 e2       	ldi	r30, 0x20	; 32
     130:	6e 9f       	mul	r22, r30
     132:	b0 01       	movw	r22, r0
     134:	11 24       	eor	r1, r1
    );
     136:	77 27       	eor	r23, r23
    return static_cast<uint16_t>(
        ADS1115_OS_START |
        mux |
        pga |
        mode |
        dataRate |
     138:	24 2b       	or	r18, r20
     13a:	35 2b       	or	r19, r21
     13c:	82 2b       	or	r24, r18
     13e:	93 2b       	or	r25, r19
     140:	86 2b       	or	r24, r22
     142:	97 2b       	or	r25, r23
        ADS1115_COMP_DISABLE
    );
}
     144:	83 60       	ori	r24, 0x03	; 3
     146:	90 68       	ori	r25, 0x80	; 128
     148:	08 95       	ret

0000014a <_ZN7ADS111513writeRegisterEhj>:

bool ADS1115::writeRegister(uint8_t reg, uint16_t value)
{
    return hal::twi_write_reg16(address_, reg, value);
     14a:	fc 01       	movw	r30, r24
     14c:	80 81       	ld	r24, Z
     14e:	0e 94 f5 0d 	call	0x1bea	; 0x1bea <_ZN3hal15twi_write_reg16Ehhj>
}
     152:	08 95       	ret

00000154 <_ZN7ADS111515startSingleShotEh>:
{
    dataRate_ = static_cast<uint8_t>(dataRate & 0x07U);
}

bool ADS1115::startSingleShot(uint8_t channel)
{
     154:	cf 93       	push	r28
     156:	df 93       	push	r29
    if (channel > ADS1115_MAX_CHANNEL)
     158:	64 30       	cpi	r22, 0x04	; 4
     15a:	48 f4       	brcc	.+18     	; 0x16e <_ZN7ADS111515startSingleShotEh+0x1a>
     15c:	ec 01       	movw	r28, r24
    {
        return false;
    }

    return writeRegister(ADS1115_REG_CONFIG, buildSingleShotConfig(channel));
     15e:	0e 94 7f 00 	call	0xfe	; 0xfe <_ZNK7ADS111521buildSingleShotConfigEh>
     162:	ac 01       	movw	r20, r24
     164:	61 e0       	ldi	r22, 0x01	; 1
     166:	ce 01       	movw	r24, r28
     168:	0e 94 a5 00 	call	0x14a	; 0x14a <_ZN7ADS111513writeRegisterEhj>
     16c:	01 c0       	rjmp	.+2      	; 0x170 <_ZN7ADS111515startSingleShotEh+0x1c>

bool ADS1115::startSingleShot(uint8_t channel)
{
    if (channel > ADS1115_MAX_CHANNEL)
    {
        return false;
     16e:	80 e0       	ldi	r24, 0x00	; 0
    }

    return writeRegister(ADS1115_REG_CONFIG, buildSingleShotConfig(channel));
}
     170:	df 91       	pop	r29
     172:	cf 91       	pop	r28
     174:	08 95       	ret

00000176 <_ZN7ADS111512readRegisterEhPj>:
    return hal::twi_write_reg16(address_, reg, value);
}

bool ADS1115::readRegister(uint8_t reg, uint16_t* value)
{
    if (value == 0)
     176:	41 15       	cp	r20, r1
     178:	51 05       	cpc	r21, r1
     17a:	29 f0       	breq	.+10     	; 0x186 <_ZN7ADS111512readRegisterEhPj+0x10>
     17c:	fc 01       	movw	r30, r24
    {
        return false;
    }

    return hal::twi_read_reg16(address_, reg, value);
     17e:	80 81       	ld	r24, Z
     180:	0e 94 22 0e 	call	0x1c44	; 0x1c44 <_ZN3hal14twi_read_reg16EhhPj>
     184:	08 95       	ret

bool ADS1115::readRegister(uint8_t reg, uint16_t* value)
{
    if (value == 0)
    {
        return false;
     186:	80 e0       	ldi	r24, 0x00	; 0
    }

    return hal::twi_read_reg16(address_, reg, value);
     188:	08 95       	ret

0000018a <_ZN7ADS11156isBusyEv>:

    return writeRegister(ADS1115_REG_CONFIG, buildSingleShotConfig(channel));
}

bool ADS1115::isBusy(void)
{
     18a:	cf 93       	push	r28
     18c:	df 93       	push	r29
     18e:	00 d0       	rcall	.+0      	; 0x190 <_ZN7ADS11156isBusyEv+0x6>
     190:	cd b7       	in	r28, 0x3d	; 61
     192:	de b7       	in	r29, 0x3e	; 62
    uint16_t config = 0U;
     194:	1a 82       	std	Y+2, r1	; 0x02
     196:	19 82       	std	Y+1, r1	; 0x01

    if (!readRegister(ADS1115_REG_CONFIG, &config))
     198:	ae 01       	movw	r20, r28
     19a:	4f 5f       	subi	r20, 0xFF	; 255
     19c:	5f 4f       	sbci	r21, 0xFF	; 255
     19e:	61 e0       	ldi	r22, 0x01	; 1
     1a0:	0e 94 bb 00 	call	0x176	; 0x176 <_ZN7ADS111512readRegisterEhPj>
     1a4:	88 23       	and	r24, r24
     1a6:	31 f0       	breq	.+12     	; 0x1b4 <_ZN7ADS11156isBusyEv+0x2a>
    {
        return true;
    }

    return ((config & ADS1115_OS_READY) == 0U);
     1a8:	8a 81       	ldd	r24, Y+2	; 0x02
     1aa:	80 95       	com	r24
     1ac:	88 1f       	adc	r24, r24
     1ae:	88 27       	eor	r24, r24
     1b0:	88 1f       	adc	r24, r24
     1b2:	01 c0       	rjmp	.+2      	; 0x1b6 <_ZN7ADS11156isBusyEv+0x2c>
{
    uint16_t config = 0U;

    if (!readRegister(ADS1115_REG_CONFIG, &config))
    {
        return true;
     1b4:	81 e0       	ldi	r24, 0x01	; 1
    }

    return ((config & ADS1115_OS_READY) == 0U);
}
     1b6:	0f 90       	pop	r0
     1b8:	0f 90       	pop	r0
     1ba:	df 91       	pop	r29
     1bc:	cf 91       	pop	r28
     1be:	08 95       	ret

000001c0 <_ZN7ADS11158getValueEv>:

int16_t ADS1115::getValue(void)
{
     1c0:	cf 93       	push	r28
     1c2:	df 93       	push	r29
     1c4:	00 d0       	rcall	.+0      	; 0x1c6 <_ZN7ADS11158getValueEv+0x6>
     1c6:	cd b7       	in	r28, 0x3d	; 61
     1c8:	de b7       	in	r29, 0x3e	; 62
    uint16_t value = 0U;
     1ca:	1a 82       	std	Y+2, r1	; 0x02
     1cc:	19 82       	std	Y+1, r1	; 0x01

    if (!readRegister(ADS1115_REG_CONVERSION, &value))
     1ce:	ae 01       	movw	r20, r28
     1d0:	4f 5f       	subi	r20, 0xFF	; 255
     1d2:	5f 4f       	sbci	r21, 0xFF	; 255
     1d4:	60 e0       	ldi	r22, 0x00	; 0
     1d6:	0e 94 bb 00 	call	0x176	; 0x176 <_ZN7ADS111512readRegisterEhPj>
     1da:	88 23       	and	r24, r24
     1dc:	19 f0       	breq	.+6      	; 0x1e4 <_ZN7ADS11158getValueEv+0x24>
    {
        return 0;
    }

    return static_cast<int16_t>(value);
     1de:	89 81       	ldd	r24, Y+1	; 0x01
     1e0:	9a 81       	ldd	r25, Y+2	; 0x02
     1e2:	02 c0       	rjmp	.+4      	; 0x1e8 <_ZN7ADS11158getValueEv+0x28>
{
    uint16_t value = 0U;

    if (!readRegister(ADS1115_REG_CONVERSION, &value))
    {
        return 0;
     1e4:	80 e0       	ldi	r24, 0x00	; 0
     1e6:	90 e0       	ldi	r25, 0x00	; 0
    }

    return static_cast<int16_t>(value);
}
     1e8:	0f 90       	pop	r0
     1ea:	0f 90       	pop	r0
     1ec:	df 91       	pop	r29
     1ee:	cf 91       	pop	r28
     1f0:	08 95       	ret

000001f2 <_ZN12_GLOBAL__N_1L12convertFloatEfh>:
     * @param order ąśąĮą┤ąĄą║čü čłąĄčüčéąĮą░ą┤čåą░čéąĖą▒ąĖčéąĮąŠą│ąŠ čüą╗ąŠą▓ą░: 0 ąĖą╗ąĖ 1.
     *
     * @return ą©ąĄčüčéąĮą░ą┤čåą░čéąĖą▒ąĖčéąĮąŠąĄ čüą╗ąŠą▓ąŠ ą┤ą╗čÅ ą┐ąĄčĆąĄą┤ą░čćąĖ čćąĄčĆąĄąĘ Modbus.
     */
    static int16_t convertFloat(float value, uint8_t order)
    {
     1f2:	cf 93       	push	r28
     1f4:	df 93       	push	r29
     1f6:	00 d0       	rcall	.+0      	; 0x1f8 <_ZN12_GLOBAL__N_1L12convertFloatEfh+0x6>
     1f8:	00 d0       	rcall	.+0      	; 0x1fa <_ZN12_GLOBAL__N_1L12convertFloatEfh+0x8>
     1fa:	cd b7       	in	r28, 0x3d	; 61
     1fc:	de b7       	in	r29, 0x3e	; 62
            float flt;
            int32_t i32;
            uint8_t bytes[4];
        } u;

        u.flt = value;
     1fe:	69 83       	std	Y+1, r22	; 0x01
     200:	7a 83       	std	Y+2, r23	; 0x02
     202:	8b 83       	std	Y+3, r24	; 0x03
     204:	9c 83       	std	Y+4, r25	; 0x04

        return static_cast<int16_t>(
            (static_cast<uint16_t>(u.bytes[1U + 2U * order]) << 8) |
     206:	50 e0       	ldi	r21, 0x00	; 0
     208:	44 0f       	add	r20, r20
     20a:	55 1f       	adc	r21, r21
     20c:	fa 01       	movw	r30, r20
     20e:	31 96       	adiw	r30, 0x01	; 1
     210:	81 e0       	ldi	r24, 0x01	; 1
     212:	90 e0       	ldi	r25, 0x00	; 0
     214:	8c 0f       	add	r24, r28
     216:	9d 1f       	adc	r25, r29
     218:	e8 0f       	add	r30, r24
     21a:	f9 1f       	adc	r31, r25
     21c:	80 81       	ld	r24, Z
     21e:	90 e0       	ldi	r25, 0x00	; 0
     220:	98 2f       	mov	r25, r24
     222:	88 27       	eor	r24, r24
            static_cast<uint16_t>(u.bytes[2U * order])
     224:	e1 e0       	ldi	r30, 0x01	; 1
     226:	f0 e0       	ldi	r31, 0x00	; 0
     228:	ec 0f       	add	r30, r28
     22a:	fd 1f       	adc	r31, r29
     22c:	e4 0f       	add	r30, r20
     22e:	f5 1f       	adc	r31, r21
     230:	20 81       	ld	r18, Z
        );
    }
     232:	82 2b       	or	r24, r18
     234:	0f 90       	pop	r0
     236:	0f 90       	pop	r0
     238:	0f 90       	pop	r0
     23a:	0f 90       	pop	r0
     23c:	df 91       	pop	r29
     23e:	cf 91       	pop	r28
     240:	08 95       	ret

00000242 <_ZN12_GLOBAL__N_1L19floatRegisterByPairEfjj>:
        uint16_t firstRegister,
        uint16_t registerAddr
    )
    {
        const uint8_t order =
            static_cast<uint8_t>((registerAddr - firstRegister) & 0x01U);
     242:	24 1b       	sub	r18, r20
     244:	42 2f       	mov	r20, r18
     246:	41 70       	andi	r20, 0x01	; 1

        return convertFloat(value, order);
     248:	0e 94 f9 00 	call	0x1f2	; 0x1f2 <_ZN12_GLOBAL__N_1L12convertFloatEfh>
    }
     24c:	08 95       	ret

0000024e <_ZN12_GLOBAL__N_1L15absInt16ToInt16Ei>:
     *
     * @return ą£ąŠą┤čāą╗čī ąĘąĮą░čćąĄąĮąĖčÅ, ąŠą│čĆą░ąĮąĖčćąĄąĮąĮčŗą╣ ą┤ąĖą░ą┐ą░ąĘąŠąĮąŠą╝ int16_t.
     */
    static int16_t absInt16ToInt16(int16_t value)
    {
        if (value >= 0)
     24e:	99 23       	and	r25, r25
     250:	54 f4       	brge	.+20     	; 0x266 <_ZN12_GLOBAL__N_1L15absInt16ToInt16Ei+0x18>
        {
            return value;
        }

        if (value == static_cast<int16_t>(0x8000))
     252:	81 15       	cp	r24, r1
     254:	20 e8       	ldi	r18, 0x80	; 128
     256:	92 07       	cpc	r25, r18
     258:	21 f0       	breq	.+8      	; 0x262 <_ZN12_GLOBAL__N_1L15absInt16ToInt16Ei+0x14>
        {
            return 32767;
        }

        return static_cast<int16_t>(-value);
     25a:	91 95       	neg	r25
     25c:	81 95       	neg	r24
     25e:	91 09       	sbc	r25, r1
     260:	08 95       	ret
            return value;
        }

        if (value == static_cast<int16_t>(0x8000))
        {
            return 32767;
     262:	8f ef       	ldi	r24, 0xFF	; 255
     264:	9f e7       	ldi	r25, 0x7F	; 127
        }

        return static_cast<int16_t>(-value);
    }
     266:	08 95       	ret

00000268 <_ZN12_GLOBAL__N_1L20calculateCalibrationEh>:
     * @brief ąĀą░čüčüčćąĖčéčŗą▓ą░ąĄčé ą║ąŠčŹčäčäąĖčåąĖąĄąĮčéčŗ ą╗ąĖąĮąĄą╣ąĮąŠą╣ ą║ą░ą╗ąĖą▒čĆąŠą▓ą║ąĖ ą║ą░ąĮą░ą╗ą░.
     *
     * @param channel ąØąŠą╝ąĄčĆ ą║ą░ąĮą░ą╗ą░ ą▓ ą┤ąĖą░ą┐ą░ąĘąŠąĮąĄ 1...8.
     */
    static void calculateCalibration(uint8_t channel)
    {
     268:	8f 92       	push	r8
     26a:	9f 92       	push	r9
     26c:	af 92       	push	r10
     26e:	bf 92       	push	r11
     270:	cf 92       	push	r12
     272:	df 92       	push	r13
     274:	ef 92       	push	r14
     276:	ff 92       	push	r15
     278:	0f 93       	push	r16
     27a:	1f 93       	push	r17
     27c:	cf 93       	push	r28
     27e:	df 93       	push	r29
        const int16_t x1 =
            sensorAnalogX[static_cast<uint8_t>(2U * channel - 1U)];
     280:	28 2f       	mov	r18, r24
     282:	22 0f       	add	r18, r18
     284:	4f ef       	ldi	r20, 0xFF	; 255
     286:	42 0f       	add	r20, r18
     288:	50 e0       	ldi	r21, 0x00	; 0
     28a:	44 0f       	add	r20, r20
     28c:	55 1f       	adc	r21, r21
     28e:	fa 01       	movw	r30, r20
     290:	e4 5d       	subi	r30, 0xD4	; 212
     292:	fd 4f       	sbci	r31, 0xFD	; 253
     294:	00 81       	ld	r16, Z
     296:	11 81       	ldd	r17, Z+1	; 0x01

        const int16_t x2 =
            sensorAnalogX[static_cast<uint8_t>(2U * channel)];
     298:	30 e0       	ldi	r19, 0x00	; 0
     29a:	22 0f       	add	r18, r18
     29c:	33 1f       	adc	r19, r19
     29e:	f9 01       	movw	r30, r18
     2a0:	e4 5d       	subi	r30, 0xD4	; 212
     2a2:	fd 4f       	sbci	r31, 0xFD	; 253
     2a4:	e0 80       	ld	r14, Z
     2a6:	f1 80       	ldd	r15, Z+1	; 0x01

        const int16_t y1 =
            gasConcentrationY[static_cast<uint8_t>(2U * channel - 1U)];
     2a8:	fa 01       	movw	r30, r20
     2aa:	e2 5b       	subi	r30, 0xB2	; 178
     2ac:	fd 4f       	sbci	r31, 0xFD	; 253
     2ae:	c0 80       	ld	r12, Z
     2b0:	d1 80       	ldd	r13, Z+1	; 0x01

        const int16_t y2 =
            gasConcentrationY[static_cast<uint8_t>(2U * channel)];
     2b2:	f9 01       	movw	r30, r18
     2b4:	e2 5b       	subi	r30, 0xB2	; 178
     2b6:	fd 4f       	sbci	r31, 0xFD	; 253
     2b8:	60 81       	ld	r22, Z
     2ba:	71 81       	ldd	r23, Z+1	; 0x01

        if (x2 == x1)
     2bc:	0e 15       	cp	r16, r14
     2be:	1f 05       	cpc	r17, r15
     2c0:	c1 f4       	brne	.+48     	; 0x2f2 <_ZN12_GLOBAL__N_1L20calculateCalibrationEh+0x8a>
        {
            k[channel] = 1.0F;
     2c2:	90 e0       	ldi	r25, 0x00	; 0
     2c4:	88 0f       	add	r24, r24
     2c6:	99 1f       	adc	r25, r25
     2c8:	88 0f       	add	r24, r24
     2ca:	99 1f       	adc	r25, r25
     2cc:	fc 01       	movw	r30, r24
     2ce:	e8 5f       	subi	r30, 0xF8	; 248
     2d0:	fd 4f       	sbci	r31, 0xFD	; 253
     2d2:	40 e0       	ldi	r20, 0x00	; 0
     2d4:	50 e0       	ldi	r21, 0x00	; 0
     2d6:	60 e8       	ldi	r22, 0x80	; 128
     2d8:	7f e3       	ldi	r23, 0x3F	; 63
     2da:	40 83       	st	Z, r20
     2dc:	51 83       	std	Z+1, r21	; 0x01
     2de:	62 83       	std	Z+2, r22	; 0x02
     2e0:	73 83       	std	Z+3, r23	; 0x03
            b[channel] = 0.0F;
     2e2:	fc 01       	movw	r30, r24
     2e4:	ec 51       	subi	r30, 0x1C	; 28
     2e6:	fe 4f       	sbci	r31, 0xFE	; 254
     2e8:	10 82       	st	Z, r1
     2ea:	11 82       	std	Z+1, r1	; 0x01
     2ec:	12 82       	std	Z+2, r1	; 0x02
     2ee:	13 82       	std	Z+3, r1	; 0x03
            return;
     2f0:	44 c0       	rjmp	.+136    	; 0x37a <_ZN12_GLOBAL__N_1L20calculateCalibrationEh+0x112>
        }

        k[channel] =
     2f2:	c8 2f       	mov	r28, r24
     2f4:	d0 e0       	ldi	r29, 0x00	; 0
            1.0F * static_cast<float>(y2 - y1) / static_cast<float>(x2 - x1);
     2f6:	6c 19       	sub	r22, r12
     2f8:	7d 09       	sbc	r23, r13
     2fa:	07 2e       	mov	r0, r23
     2fc:	00 0c       	add	r0, r0
     2fe:	88 0b       	sbc	r24, r24
     300:	99 0b       	sbc	r25, r25
     302:	0e 94 95 13 	call	0x272a	; 0x272a <__floatsisf>
     306:	4b 01       	movw	r8, r22
     308:	5c 01       	movw	r10, r24
     30a:	b7 01       	movw	r22, r14
     30c:	60 1b       	sub	r22, r16
     30e:	71 0b       	sbc	r23, r17
     310:	07 2e       	mov	r0, r23
     312:	00 0c       	add	r0, r0
     314:	88 0b       	sbc	r24, r24
     316:	99 0b       	sbc	r25, r25
     318:	0e 94 95 13 	call	0x272a	; 0x272a <__floatsisf>
     31c:	9b 01       	movw	r18, r22
     31e:	ac 01       	movw	r20, r24
     320:	c5 01       	movw	r24, r10
     322:	b4 01       	movw	r22, r8
     324:	0e 94 eb 12 	call	0x25d6	; 0x25d6 <__divsf3>
     328:	4b 01       	movw	r8, r22
     32a:	5c 01       	movw	r10, r24
     32c:	cc 0f       	add	r28, r28
     32e:	dd 1f       	adc	r29, r29
     330:	cc 0f       	add	r28, r28
     332:	dd 1f       	adc	r29, r29
     334:	fe 01       	movw	r30, r28
     336:	e8 5f       	subi	r30, 0xF8	; 248
     338:	fd 4f       	sbci	r31, 0xFD	; 253
     33a:	60 83       	st	Z, r22
     33c:	71 83       	std	Z+1, r23	; 0x01
     33e:	82 83       	std	Z+2, r24	; 0x02
     340:	93 83       	std	Z+3, r25	; 0x03

        b[channel] =
            static_cast<float>(x1) - static_cast<float>(y1) / k[channel];
     342:	b6 01       	movw	r22, r12
     344:	dd 0c       	add	r13, r13
     346:	88 0b       	sbc	r24, r24
     348:	99 0b       	sbc	r25, r25
     34a:	0e 94 95 13 	call	0x272a	; 0x272a <__floatsisf>
     34e:	a5 01       	movw	r20, r10
     350:	94 01       	movw	r18, r8
     352:	0e 94 eb 12 	call	0x25d6	; 0x25d6 <__divsf3>
     356:	6b 01       	movw	r12, r22
     358:	7c 01       	movw	r14, r24
     35a:	b8 01       	movw	r22, r16
     35c:	11 0f       	add	r17, r17
     35e:	88 0b       	sbc	r24, r24
     360:	99 0b       	sbc	r25, r25
     362:	0e 94 95 13 	call	0x272a	; 0x272a <__floatsisf>
     366:	a7 01       	movw	r20, r14
     368:	96 01       	movw	r18, r12
     36a:	0e 94 7e 12 	call	0x24fc	; 0x24fc <__subsf3>
     36e:	cc 51       	subi	r28, 0x1C	; 28
     370:	de 4f       	sbci	r29, 0xFE	; 254
     372:	68 83       	st	Y, r22
     374:	79 83       	std	Y+1, r23	; 0x01
     376:	8a 83       	std	Y+2, r24	; 0x02
     378:	9b 83       	std	Y+3, r25	; 0x03
    }
     37a:	df 91       	pop	r29
     37c:	cf 91       	pop	r28
     37e:	1f 91       	pop	r17
     380:	0f 91       	pop	r16
     382:	ff 90       	pop	r15
     384:	ef 90       	pop	r14
     386:	df 90       	pop	r13
     388:	cf 90       	pop	r12
     38a:	bf 90       	pop	r11
     38c:	af 90       	pop	r10
     38e:	9f 90       	pop	r9
     390:	8f 90       	pop	r8
     392:	08 95       	ret

00000394 <_ZN12_GLOBAL__N_1L21sensorToConcentrationEhi>:
     * @param value ąÜąŠą┤ ąÉą”ą¤.
     *
     * @return ąÜą░ą╗ąĖą▒čĆąŠą▓ą░ąĮąĮąŠąĄ ąĘąĮą░čćąĄąĮąĖąĄ.
     */
    static float sensorToConcentration(uint8_t channel, int16_t value)
    {
     394:	8f 92       	push	r8
     396:	9f 92       	push	r9
     398:	af 92       	push	r10
     39a:	bf 92       	push	r11
     39c:	cf 92       	push	r12
     39e:	df 92       	push	r13
     3a0:	ef 92       	push	r14
     3a2:	ff 92       	push	r15
        return k[channel] * (static_cast<float>(value) - b[channel]);
     3a4:	90 e0       	ldi	r25, 0x00	; 0
     3a6:	88 0f       	add	r24, r24
     3a8:	99 1f       	adc	r25, r25
     3aa:	88 0f       	add	r24, r24
     3ac:	99 1f       	adc	r25, r25
     3ae:	fc 01       	movw	r30, r24
     3b0:	e8 5f       	subi	r30, 0xF8	; 248
     3b2:	fd 4f       	sbci	r31, 0xFD	; 253
     3b4:	c0 80       	ld	r12, Z
     3b6:	d1 80       	ldd	r13, Z+1	; 0x01
     3b8:	e2 80       	ldd	r14, Z+2	; 0x02
     3ba:	f3 80       	ldd	r15, Z+3	; 0x03
     3bc:	fc 01       	movw	r30, r24
     3be:	ec 51       	subi	r30, 0x1C	; 28
     3c0:	fe 4f       	sbci	r31, 0xFE	; 254
     3c2:	80 80       	ld	r8, Z
     3c4:	91 80       	ldd	r9, Z+1	; 0x01
     3c6:	a2 80       	ldd	r10, Z+2	; 0x02
     3c8:	b3 80       	ldd	r11, Z+3	; 0x03
     3ca:	07 2e       	mov	r0, r23
     3cc:	00 0c       	add	r0, r0
     3ce:	88 0b       	sbc	r24, r24
     3d0:	99 0b       	sbc	r25, r25
     3d2:	0e 94 95 13 	call	0x272a	; 0x272a <__floatsisf>
     3d6:	a5 01       	movw	r20, r10
     3d8:	94 01       	movw	r18, r8
     3da:	0e 94 7e 12 	call	0x24fc	; 0x24fc <__subsf3>
     3de:	9b 01       	movw	r18, r22
     3e0:	ac 01       	movw	r20, r24
     3e2:	c7 01       	movw	r24, r14
     3e4:	b6 01       	movw	r22, r12
     3e6:	0e 94 26 14 	call	0x284c	; 0x284c <__mulsf3>
    }
     3ea:	ff 90       	pop	r15
     3ec:	ef 90       	pop	r14
     3ee:	df 90       	pop	r13
     3f0:	cf 90       	pop	r12
     3f2:	bf 90       	pop	r11
     3f4:	af 90       	pop	r10
     3f6:	9f 90       	pop	r9
     3f8:	8f 90       	pop	r8
     3fa:	08 95       	ret

000003fc <_ZN12_GLOBAL__N_1L18forceWatchdogResetEv>:
				"out __SREG__,__tmp_reg__"   "\n\t"
				: [TEMPREG] "=d" (temp_reg)
				: [WDTREG]  "n"  (_SFR_MEM_ADDR(_WD_CONTROL_REG)),
				[WDCE_WDE]  "n"  ((uint8_t)(_BV(_WD_CHANGE_BIT) | _BV(WDE)))
				: "r0"
		);
     3fc:	0f b6       	in	r0, 0x3f	; 63
     3fe:	f8 94       	cli
     400:	a8 95       	wdr
     402:	80 91 60 00 	lds	r24, 0x0060	; 0x800060 <__TEXT_REGION_LENGTH__+0x7f8060>
     406:	88 61       	ori	r24, 0x18	; 24
     408:	80 93 60 00 	sts	0x0060, r24	; 0x800060 <__TEXT_REGION_LENGTH__+0x7f8060>
     40c:	10 92 60 00 	sts	0x0060, r1	; 0x800060 <__TEXT_REGION_LENGTH__+0x7f8060>
     410:	0f be       	out	0x3f, r0	; 63
				: "n" (_SFR_MEM_ADDR(_WD_CONTROL_REG)),
				"r" ((uint8_t)(_BV(_WD_CHANGE_BIT) | _BV(WDE))),
				"r" ((uint8_t) ((value & 0x08 ? _WD_PS3_MASK : 0x00) |
						_BV(WDE) | (value & 0x07)) )
				: "r0"
		);
     412:	98 e0       	ldi	r25, 0x08	; 8
     414:	88 e1       	ldi	r24, 0x18	; 24
     416:	0f b6       	in	r0, 0x3f	; 63
     418:	f8 94       	cli
     41a:	a8 95       	wdr
     41c:	80 93 60 00 	sts	0x0060, r24	; 0x800060 <__TEXT_REGION_LENGTH__+0x7f8060>
     420:	0f be       	out	0x3f, r0	; 63
     422:	90 93 60 00 	sts	0x0060, r25	; 0x800060 <__TEXT_REGION_LENGTH__+0x7f8060>
     426:	ff cf       	rjmp	.-2      	; 0x426 <__EEPROM_REGION_LENGTH__+0x26>

00000428 <_ZN12_GLOBAL__N_1L16jumpToBootloaderEv>:
     * ą¤ąĄčĆąĄą┤ ą┐ąĄčĆąĄčģąŠą┤ąŠą╝ ąŠčéą║ą╗čÄčćą░čÄčéčüčÅ ąŠčüąĮąŠą▓ąĮčŗąĄ ą░ą┐ą┐ą░čĆą░čéąĮčŗąĄ ąĖąĮčéąĄčĆčäąĄą╣čüčŗ,
     * ąĘą░ą┐čĆąĄčēą░čÄčéčüčÅ ą┐čĆąĄčĆčŗą▓ą░ąĮąĖčÅ ąĖ ą┐ąĄčĆąĄą║ą╗čÄčćą░ąĄčéčüčÅ čéą░ą▒ą╗ąĖčåą░ ą▓ąĄą║čéąŠčĆąŠą▓ ą┐čĆąĄčĆčŗą▓ą░ąĮąĖą╣.
     */
    static void jumpToBootloader(void)
    {
        cli();
     428:	f8 94       	cli
				"out __SREG__,__tmp_reg__"   "\n\t"
				: [TEMPREG] "=d" (temp_reg)
				: [WDTREG]  "n"  (_SFR_MEM_ADDR(_WD_CONTROL_REG)),
				[WDCE_WDE]  "n"  ((uint8_t)(_BV(_WD_CHANGE_BIT) | _BV(WDE)))
				: "r0"
		);
     42a:	0f b6       	in	r0, 0x3f	; 63
     42c:	f8 94       	cli
     42e:	a8 95       	wdr
     430:	80 91 60 00 	lds	r24, 0x0060	; 0x800060 <__TEXT_REGION_LENGTH__+0x7f8060>
     434:	88 61       	ori	r24, 0x18	; 24
     436:	80 93 60 00 	sts	0x0060, r24	; 0x800060 <__TEXT_REGION_LENGTH__+0x7f8060>
     43a:	10 92 60 00 	sts	0x0060, r1	; 0x800060 <__TEXT_REGION_LENGTH__+0x7f8060>
     43e:	0f be       	out	0x3f, r0	; 63

        wdt_disable();

#ifdef UCSR0B
        UCSR0B = 0U;
     440:	10 92 c1 00 	sts	0x00C1, r1	; 0x8000c1 <__TEXT_REGION_LENGTH__+0x7f80c1>
#endif

#ifdef SPCR
        SPCR = 0U;
     444:	1c bc       	out	0x2c, r1	; 44
#endif

#ifdef TWCR
        TWCR = 0U;
     446:	10 92 bc 00 	sts	0x00BC, r1	; 0x8000bc <__TEXT_REGION_LENGTH__+0x7f80bc>
#endif

        asm volatile ("clr __zero_reg__");
     44a:	11 24       	eor	r1, r1

        SP = RAMEND;
     44c:	8f ef       	ldi	r24, 0xFF	; 255
     44e:	98 e0       	ldi	r25, 0x08	; 8
     450:	9e bf       	out	0x3e, r25	; 62
     452:	8d bf       	out	0x3d, r24	; 61

        MCUCR = static_cast<uint8_t>(_BV(IVCE));
     454:	81 e0       	ldi	r24, 0x01	; 1
     456:	85 bf       	out	0x35, r24	; 53
        MCUCR = static_cast<uint8_t>(_BV(IVSEL));
     458:	82 e0       	ldi	r24, 0x02	; 2
     45a:	85 bf       	out	0x35, r24	; 53

        reinterpret_cast<BootEntryPtr>(BOOT_START_ADDR_WORDS)();
     45c:	e0 e0       	ldi	r30, 0x00	; 0
     45e:	f8 e3       	ldi	r31, 0x38	; 56
     460:	09 95       	icall
     462:	08 95       	ret

00000464 <_ZN12_GLOBAL__N_1L11loop100TaskEv>:
     * @details
     * ąŚą░ą┤ą░čćą░ ąŠą▒čĆą░ą▒ą░čéčŗą▓ą░ąĄčé ąŠčéą╗ąŠąČąĄąĮąĮčāčÄ ą┐ąĄčĆąĄąĘą░ą│čĆčāąĘą║čā ąĖ ąŠčéą╗ąŠąČąĄąĮąĮčŗą╣ ą┐ąĄčĆąĄčģąŠą┤
     * ą▓ ąĘą░ą│čĆčāąĘčćąĖą║.
     */
    static void loop100Task(void)
    {
     464:	0f 93       	push	r16
     466:	1f 93       	push	r17
        if (static_cast<uint32_t>(currentTime - loop100StartTime) >= LOOP_100_MS)
     468:	80 91 81 02 	lds	r24, 0x0281	; 0x800281 <_ZN12_GLOBAL__N_1L11currentTimeE>
     46c:	90 91 82 02 	lds	r25, 0x0282	; 0x800282 <_ZN12_GLOBAL__N_1L11currentTimeE+0x1>
     470:	a0 91 83 02 	lds	r26, 0x0283	; 0x800283 <_ZN12_GLOBAL__N_1L11currentTimeE+0x2>
     474:	b0 91 84 02 	lds	r27, 0x0284	; 0x800284 <_ZN12_GLOBAL__N_1L11currentTimeE+0x3>
     478:	40 91 79 02 	lds	r20, 0x0279	; 0x800279 <_ZN12_GLOBAL__N_1L16loop100StartTimeE>
     47c:	50 91 7a 02 	lds	r21, 0x027A	; 0x80027a <_ZN12_GLOBAL__N_1L16loop100StartTimeE+0x1>
     480:	60 91 7b 02 	lds	r22, 0x027B	; 0x80027b <_ZN12_GLOBAL__N_1L16loop100StartTimeE+0x2>
     484:	70 91 7c 02 	lds	r23, 0x027C	; 0x80027c <_ZN12_GLOBAL__N_1L16loop100StartTimeE+0x3>
     488:	8c 01       	movw	r16, r24
     48a:	9d 01       	movw	r18, r26
     48c:	04 1b       	sub	r16, r20
     48e:	15 0b       	sbc	r17, r21
     490:	26 0b       	sbc	r18, r22
     492:	37 0b       	sbc	r19, r23
     494:	04 36       	cpi	r16, 0x64	; 100
     496:	11 05       	cpc	r17, r1
     498:	21 05       	cpc	r18, r1
     49a:	31 05       	cpc	r19, r1
     49c:	68 f1       	brcs	.+90     	; 0x4f8 <_ZN12_GLOBAL__N_1L11loop100TaskEv+0x94>
        {
            loop100StartTime = currentTime;
     49e:	80 93 79 02 	sts	0x0279, r24	; 0x800279 <_ZN12_GLOBAL__N_1L16loop100StartTimeE>
     4a2:	90 93 7a 02 	sts	0x027A, r25	; 0x80027a <_ZN12_GLOBAL__N_1L16loop100StartTimeE+0x1>
     4a6:	a0 93 7b 02 	sts	0x027B, r26	; 0x80027b <_ZN12_GLOBAL__N_1L16loop100StartTimeE+0x2>
     4aa:	b0 93 7c 02 	sts	0x027C, r27	; 0x80027c <_ZN12_GLOBAL__N_1L16loop100StartTimeE+0x3>

            if (rebootRequested != 0U)
     4ae:	20 91 85 02 	lds	r18, 0x0285	; 0x800285 <_ZN12_GLOBAL__N_1L15rebootRequestedE>
     4b2:	21 11       	cpse	r18, r1
            {
                forceWatchdogReset();
     4b4:	0e 94 fe 01 	call	0x3fc	; 0x3fc <_ZN12_GLOBAL__N_1L18forceWatchdogResetEv>
            }

            if ((bootloaderRequestTime != 0UL) &&
     4b8:	40 91 71 02 	lds	r20, 0x0271	; 0x800271 <_ZN12_GLOBAL__N_1L21bootloaderRequestTimeE>
     4bc:	50 91 72 02 	lds	r21, 0x0272	; 0x800272 <_ZN12_GLOBAL__N_1L21bootloaderRequestTimeE+0x1>
     4c0:	60 91 73 02 	lds	r22, 0x0273	; 0x800273 <_ZN12_GLOBAL__N_1L21bootloaderRequestTimeE+0x2>
     4c4:	70 91 74 02 	lds	r23, 0x0274	; 0x800274 <_ZN12_GLOBAL__N_1L21bootloaderRequestTimeE+0x3>
     4c8:	41 15       	cp	r20, r1
     4ca:	51 05       	cpc	r21, r1
     4cc:	61 05       	cpc	r22, r1
     4ce:	71 05       	cpc	r23, r1
     4d0:	99 f0       	breq	.+38     	; 0x4f8 <_ZN12_GLOBAL__N_1L11loop100TaskEv+0x94>
                (static_cast<uint32_t>(currentTime - bootloaderRequestTime) >
     4d2:	84 1b       	sub	r24, r20
     4d4:	95 0b       	sbc	r25, r21
     4d6:	a6 0b       	sbc	r26, r22
     4d8:	b7 0b       	sbc	r27, r23
            if (rebootRequested != 0U)
            {
                forceWatchdogReset();
            }

            if ((bootloaderRequestTime != 0UL) &&
     4da:	c3 97       	sbiw	r24, 0x33	; 51
     4dc:	a1 05       	cpc	r26, r1
     4de:	b1 05       	cpc	r27, r1
     4e0:	58 f0       	brcs	.+22     	; 0x4f8 <_ZN12_GLOBAL__N_1L11loop100TaskEv+0x94>
                (static_cast<uint32_t>(currentTime - bootloaderRequestTime) >
                 BOOTLOADER_JUMP_DELAY_MS))
            {
                bootloaderRequestTime = 0UL;
     4e2:	10 92 71 02 	sts	0x0271, r1	; 0x800271 <_ZN12_GLOBAL__N_1L21bootloaderRequestTimeE>
     4e6:	10 92 72 02 	sts	0x0272, r1	; 0x800272 <_ZN12_GLOBAL__N_1L21bootloaderRequestTimeE+0x1>
     4ea:	10 92 73 02 	sts	0x0273, r1	; 0x800273 <_ZN12_GLOBAL__N_1L21bootloaderRequestTimeE+0x2>
     4ee:	10 92 74 02 	sts	0x0274, r1	; 0x800274 <_ZN12_GLOBAL__N_1L21bootloaderRequestTimeE+0x3>
                jumpToBootloader();
     4f2:	0e 94 14 02 	call	0x428	; 0x428 <_ZN12_GLOBAL__N_1L16jumpToBootloaderEv>
     4f6:	ff cf       	rjmp	.-2      	; 0x4f6 <_ZN12_GLOBAL__N_1L11loop100TaskEv+0x92>
                     * ąŚą░čēąĖčéąĮčŗą╣ čåąĖą║ą╗ ąĮą░ čüą╗čāčćą░ą╣ ą▓ąŠąĘą▓čĆą░čéą░ ąĖąĘ ąĘą░ą│čĆčāąĘčćąĖą║ą░.
                     */
                }
            }
        }
    }
     4f8:	1f 91       	pop	r17
     4fa:	0f 91       	pop	r16
     4fc:	08 95       	ret

000004fe <_ZN12_GLOBAL__N_1L19processMotorCurrentEv>:

    /**
     * @brief ą×ą▒čĆą░ą▒ą░čéčŗą▓ą░ąĄčé čäąĖą║čüą░čåąĖčÄ ą╝ą░ą║čüąĖą╝ą░ą╗čīąĮąŠą│ąŠ ąĘąĮą░čćąĄąĮąĖčÅ ą┐ąŠ ą║ą░ąĮą░ą╗ą░ą╝.
     */
    static void processMotorCurrent(void)
    {
     4fe:	cf 92       	push	r12
     500:	df 92       	push	r13
     502:	ef 92       	push	r14
     504:	ff 92       	push	r15
     506:	1f 93       	push	r17
     508:	cf 93       	push	r28
     50a:	df 93       	push	r29
        for (uint8_t i = 1U; i <= NUM_CHANNELS; ++i)
     50c:	11 e0       	ldi	r17, 0x01	; 1
     50e:	19 30       	cpi	r17, 0x09	; 9
     510:	08 f0       	brcs	.+2      	; 0x514 <_ZN12_GLOBAL__N_1L19processMotorCurrentEv+0x16>
     512:	fe c0       	rjmp	.+508    	; 0x710 <_ZN12_GLOBAL__N_1L19processMotorCurrentEv+0x212>
        {
            const int16_t adcBuffer =
                absInt16ToInt16(AIData[static_cast<uint8_t>(9U - i)]);
     514:	e9 e0       	ldi	r30, 0x09	; 9
     516:	e1 1b       	sub	r30, r17
     518:	f0 e0       	ldi	r31, 0x00	; 0
     51a:	ee 0f       	add	r30, r30
     51c:	ff 1f       	adc	r31, r31
     51e:	ee 52       	subi	r30, 0x2E	; 46
     520:	fe 4f       	sbci	r31, 0xFE	; 254
     522:	80 81       	ld	r24, Z
     524:	91 81       	ldd	r25, Z+1	; 0x01
     526:	0e 94 27 01 	call	0x24e	; 0x24e <_ZN12_GLOBAL__N_1L15absInt16ToInt16Ei>

            ADC_Converted[i] = sensorToConcentration(i, adcBuffer);
     52a:	c1 2f       	mov	r28, r17
     52c:	d0 e0       	ldi	r29, 0x00	; 0
     52e:	bc 01       	movw	r22, r24
     530:	81 2f       	mov	r24, r17
     532:	0e 94 ca 01 	call	0x394	; 0x394 <_ZN12_GLOBAL__N_1L21sensorToConcentrationEhi>
     536:	6b 01       	movw	r12, r22
     538:	7c 01       	movw	r14, r24
     53a:	fe 01       	movw	r30, r28
     53c:	ee 0f       	add	r30, r30
     53e:	ff 1f       	adc	r31, r31
     540:	ee 0f       	add	r30, r30
     542:	ff 1f       	adc	r31, r31
     544:	e7 5c       	subi	r30, 0xC7	; 199
     546:	fe 4f       	sbci	r31, 0xFE	; 254
     548:	60 83       	st	Z, r22
     54a:	71 83       	std	Z+1, r23	; 0x01
     54c:	82 83       	std	Z+2, r24	; 0x02
     54e:	93 83       	std	Z+3, r25	; 0x03

            if (ADC_Converted[i] > MOTOR_STOP_THRESHOLD)
     550:	20 91 01 01 	lds	r18, 0x0101	; 0x800101 <_ZN12_GLOBAL__N_1L20MOTOR_STOP_THRESHOLDE>
     554:	30 91 02 01 	lds	r19, 0x0102	; 0x800102 <_ZN12_GLOBAL__N_1L20MOTOR_STOP_THRESHOLDE+0x1>
     558:	40 91 03 01 	lds	r20, 0x0103	; 0x800103 <_ZN12_GLOBAL__N_1L20MOTOR_STOP_THRESHOLDE+0x2>
     55c:	50 91 04 01 	lds	r21, 0x0104	; 0x800104 <_ZN12_GLOBAL__N_1L20MOTOR_STOP_THRESHOLDE+0x3>
     560:	0e 94 21 14 	call	0x2842	; 0x2842 <__gesf2>
     564:	18 16       	cp	r1, r24
     566:	0c f0       	brlt	.+2      	; 0x56a <_ZN12_GLOBAL__N_1L19processMotorCurrentEv+0x6c>
     568:	8e c0       	rjmp	.+284    	; 0x686 <_ZN12_GLOBAL__N_1L19processMotorCurrentEv+0x188>
            {
                switch (channelActive[i])
     56a:	fe 01       	movw	r30, r28
     56c:	e7 53       	subi	r30, 0x37	; 55
     56e:	fe 4f       	sbci	r31, 0xFE	; 254
     570:	80 81       	ld	r24, Z
     572:	81 30       	cpi	r24, 0x01	; 1
     574:	21 f1       	breq	.+72     	; 0x5be <_ZN12_GLOBAL__N_1L19processMotorCurrentEv+0xc0>
     576:	20 f0       	brcs	.+8      	; 0x580 <_ZN12_GLOBAL__N_1L19processMotorCurrentEv+0x82>
     578:	82 30       	cpi	r24, 0x02	; 2
     57a:	09 f4       	brne	.+2      	; 0x57e <_ZN12_GLOBAL__N_1L19processMotorCurrentEv+0x80>
     57c:	51 c0       	rjmp	.+162    	; 0x620 <_ZN12_GLOBAL__N_1L19processMotorCurrentEv+0x122>
     57e:	7f c0       	rjmp	.+254    	; 0x67e <_ZN12_GLOBAL__N_1L19processMotorCurrentEv+0x180>
                {
                    case inActive:
                        channelActive[i] = waitStart;
     580:	fe 01       	movw	r30, r28
     582:	e7 53       	subi	r30, 0x37	; 55
     584:	fe 4f       	sbci	r31, 0xFE	; 254
     586:	81 e0       	ldi	r24, 0x01	; 1
     588:	80 83       	st	Z, r24
                        buffer[i] = 0.0F;
     58a:	cc 0f       	add	r28, r28
     58c:	dd 1f       	adc	r29, r29
     58e:	cc 0f       	add	r28, r28
     590:	dd 1f       	adc	r29, r29
     592:	fe 01       	movw	r30, r28
     594:	ef 57       	subi	r30, 0x7F	; 127
     596:	fe 4f       	sbci	r31, 0xFE	; 254
     598:	10 82       	st	Z, r1
     59a:	11 82       	std	Z+1, r1	; 0x01
     59c:	12 82       	std	Z+2, r1	; 0x02
     59e:	13 82       	std	Z+3, r1	; 0x03
                        stopTimers[i] = currentTime;
     5a0:	c3 5a       	subi	r28, 0xA3	; 163
     5a2:	de 4f       	sbci	r29, 0xFE	; 254
     5a4:	80 91 81 02 	lds	r24, 0x0281	; 0x800281 <_ZN12_GLOBAL__N_1L11currentTimeE>
     5a8:	90 91 82 02 	lds	r25, 0x0282	; 0x800282 <_ZN12_GLOBAL__N_1L11currentTimeE+0x1>
     5ac:	a0 91 83 02 	lds	r26, 0x0283	; 0x800283 <_ZN12_GLOBAL__N_1L11currentTimeE+0x2>
     5b0:	b0 91 84 02 	lds	r27, 0x0284	; 0x800284 <_ZN12_GLOBAL__N_1L11currentTimeE+0x3>
     5b4:	88 83       	st	Y, r24
     5b6:	99 83       	std	Y+1, r25	; 0x01
     5b8:	aa 83       	std	Y+2, r26	; 0x02
     5ba:	bb 83       	std	Y+3, r27	; 0x03
                        break;
     5bc:	a7 c0       	rjmp	.+334    	; 0x70c <_ZN12_GLOBAL__N_1L19processMotorCurrentEv+0x20e>

                    case waitStart:
                        if (static_cast<uint32_t>(currentTime - stopTimers[i]) >
     5be:	80 91 81 02 	lds	r24, 0x0281	; 0x800281 <_ZN12_GLOBAL__N_1L11currentTimeE>
     5c2:	90 91 82 02 	lds	r25, 0x0282	; 0x800282 <_ZN12_GLOBAL__N_1L11currentTimeE+0x1>
     5c6:	a0 91 83 02 	lds	r26, 0x0283	; 0x800283 <_ZN12_GLOBAL__N_1L11currentTimeE+0x2>
     5ca:	b0 91 84 02 	lds	r27, 0x0284	; 0x800284 <_ZN12_GLOBAL__N_1L11currentTimeE+0x3>
     5ce:	fe 01       	movw	r30, r28
     5d0:	ee 0f       	add	r30, r30
     5d2:	ff 1f       	adc	r31, r31
     5d4:	ee 0f       	add	r30, r30
     5d6:	ff 1f       	adc	r31, r31
     5d8:	e3 5a       	subi	r30, 0xA3	; 163
     5da:	fe 4f       	sbci	r31, 0xFE	; 254
     5dc:	40 81       	ld	r20, Z
     5de:	51 81       	ldd	r21, Z+1	; 0x01
     5e0:	62 81       	ldd	r22, Z+2	; 0x02
     5e2:	73 81       	ldd	r23, Z+3	; 0x03
     5e4:	6c 01       	movw	r12, r24
     5e6:	7d 01       	movw	r14, r26
     5e8:	c4 1a       	sub	r12, r20
     5ea:	d5 0a       	sbc	r13, r21
     5ec:	e6 0a       	sbc	r14, r22
     5ee:	f7 0a       	sbc	r15, r23
     5f0:	25 ef       	ldi	r18, 0xF5	; 245
     5f2:	c2 16       	cp	r12, r18
     5f4:	21 e0       	ldi	r18, 0x01	; 1
     5f6:	d2 06       	cpc	r13, r18
     5f8:	e1 04       	cpc	r14, r1
     5fa:	f1 04       	cpc	r15, r1
     5fc:	08 f4       	brcc	.+2      	; 0x600 <_ZN12_GLOBAL__N_1L19processMotorCurrentEv+0x102>
     5fe:	86 c0       	rjmp	.+268    	; 0x70c <_ZN12_GLOBAL__N_1L19processMotorCurrentEv+0x20e>
                            500UL)
                        {
                            channelActive[i] = Active;
     600:	fe 01       	movw	r30, r28
     602:	e7 53       	subi	r30, 0x37	; 55
     604:	fe 4f       	sbci	r31, 0xFE	; 254
     606:	22 e0       	ldi	r18, 0x02	; 2
     608:	20 83       	st	Z, r18
                            stopTimers[i] = currentTime;
     60a:	cc 0f       	add	r28, r28
     60c:	dd 1f       	adc	r29, r29
     60e:	cc 0f       	add	r28, r28
     610:	dd 1f       	adc	r29, r29
     612:	c3 5a       	subi	r28, 0xA3	; 163
     614:	de 4f       	sbci	r29, 0xFE	; 254
     616:	88 83       	st	Y, r24
     618:	99 83       	std	Y+1, r25	; 0x01
     61a:	aa 83       	std	Y+2, r26	; 0x02
     61c:	bb 83       	std	Y+3, r27	; 0x03
     61e:	76 c0       	rjmp	.+236    	; 0x70c <_ZN12_GLOBAL__N_1L19processMotorCurrentEv+0x20e>
                        }
                        break;

                    case Active:
                        if (ADC_Converted[i] > buffer[i])
     620:	fe 01       	movw	r30, r28
     622:	ee 0f       	add	r30, r30
     624:	ff 1f       	adc	r31, r31
     626:	ee 0f       	add	r30, r30
     628:	ff 1f       	adc	r31, r31
     62a:	ef 57       	subi	r30, 0x7F	; 127
     62c:	fe 4f       	sbci	r31, 0xFE	; 254
     62e:	20 81       	ld	r18, Z
     630:	31 81       	ldd	r19, Z+1	; 0x01
     632:	42 81       	ldd	r20, Z+2	; 0x02
     634:	53 81       	ldd	r21, Z+3	; 0x03
     636:	c7 01       	movw	r24, r14
     638:	b6 01       	movw	r22, r12
     63a:	0e 94 21 14 	call	0x2842	; 0x2842 <__gesf2>
     63e:	18 16       	cp	r1, r24
     640:	5c f4       	brge	.+22     	; 0x658 <_ZN12_GLOBAL__N_1L19processMotorCurrentEv+0x15a>
                        {
                            buffer[i] = ADC_Converted[i];
     642:	fe 01       	movw	r30, r28
     644:	ee 0f       	add	r30, r30
     646:	ff 1f       	adc	r31, r31
     648:	ee 0f       	add	r30, r30
     64a:	ff 1f       	adc	r31, r31
     64c:	ef 57       	subi	r30, 0x7F	; 127
     64e:	fe 4f       	sbci	r31, 0xFE	; 254
     650:	c0 82       	st	Z, r12
     652:	d1 82       	std	Z+1, r13	; 0x01
     654:	e2 82       	std	Z+2, r14	; 0x02
     656:	f3 82       	std	Z+3, r15	; 0x03
                        }

                        stopTimers[i] = currentTime;
     658:	cc 0f       	add	r28, r28
     65a:	dd 1f       	adc	r29, r29
     65c:	cc 0f       	add	r28, r28
     65e:	dd 1f       	adc	r29, r29
     660:	c3 5a       	subi	r28, 0xA3	; 163
     662:	de 4f       	sbci	r29, 0xFE	; 254
     664:	80 91 81 02 	lds	r24, 0x0281	; 0x800281 <_ZN12_GLOBAL__N_1L11currentTimeE>
     668:	90 91 82 02 	lds	r25, 0x0282	; 0x800282 <_ZN12_GLOBAL__N_1L11currentTimeE+0x1>
     66c:	a0 91 83 02 	lds	r26, 0x0283	; 0x800283 <_ZN12_GLOBAL__N_1L11currentTimeE+0x2>
     670:	b0 91 84 02 	lds	r27, 0x0284	; 0x800284 <_ZN12_GLOBAL__N_1L11currentTimeE+0x3>
     674:	88 83       	st	Y, r24
     676:	99 83       	std	Y+1, r25	; 0x01
     678:	aa 83       	std	Y+2, r26	; 0x02
     67a:	bb 83       	std	Y+3, r27	; 0x03
                        break;
     67c:	47 c0       	rjmp	.+142    	; 0x70c <_ZN12_GLOBAL__N_1L19processMotorCurrentEv+0x20e>

                    default:
                        channelActive[i] = inActive;
     67e:	c7 53       	subi	r28, 0x37	; 55
     680:	de 4f       	sbci	r29, 0xFE	; 254
     682:	18 82       	st	Y, r1
                        break;
     684:	43 c0       	rjmp	.+134    	; 0x70c <_ZN12_GLOBAL__N_1L19processMotorCurrentEv+0x20e>
                }
            }
            else
            {
                if (channelActive[i] == Active)
     686:	fe 01       	movw	r30, r28
     688:	e7 53       	subi	r30, 0x37	; 55
     68a:	fe 4f       	sbci	r31, 0xFE	; 254
     68c:	80 81       	ld	r24, Z
     68e:	82 30       	cpi	r24, 0x02	; 2
     690:	e9 f5       	brne	.+122    	; 0x70c <_ZN12_GLOBAL__N_1L19processMotorCurrentEv+0x20e>
                {
                    if (static_cast<uint32_t>(currentTime - stopTimers[i]) >
     692:	fe 01       	movw	r30, r28
     694:	ee 0f       	add	r30, r30
     696:	ff 1f       	adc	r31, r31
     698:	ee 0f       	add	r30, r30
     69a:	ff 1f       	adc	r31, r31
     69c:	e3 5a       	subi	r30, 0xA3	; 163
     69e:	fe 4f       	sbci	r31, 0xFE	; 254
     6a0:	40 81       	ld	r20, Z
     6a2:	51 81       	ldd	r21, Z+1	; 0x01
     6a4:	62 81       	ldd	r22, Z+2	; 0x02
     6a6:	73 81       	ldd	r23, Z+3	; 0x03
     6a8:	80 91 81 02 	lds	r24, 0x0281	; 0x800281 <_ZN12_GLOBAL__N_1L11currentTimeE>
     6ac:	90 91 82 02 	lds	r25, 0x0282	; 0x800282 <_ZN12_GLOBAL__N_1L11currentTimeE+0x1>
     6b0:	a0 91 83 02 	lds	r26, 0x0283	; 0x800283 <_ZN12_GLOBAL__N_1L11currentTimeE+0x2>
     6b4:	b0 91 84 02 	lds	r27, 0x0284	; 0x800284 <_ZN12_GLOBAL__N_1L11currentTimeE+0x3>
     6b8:	84 1b       	sub	r24, r20
     6ba:	95 0b       	sbc	r25, r21
     6bc:	a6 0b       	sbc	r26, r22
     6be:	b7 0b       	sbc	r27, r23
     6c0:	89 38       	cpi	r24, 0x89	; 137
     6c2:	93 41       	sbci	r25, 0x13	; 19
     6c4:	a1 05       	cpc	r26, r1
     6c6:	b1 05       	cpc	r27, r1
     6c8:	08 f1       	brcs	.+66     	; 0x70c <_ZN12_GLOBAL__N_1L19processMotorCurrentEv+0x20e>
                        STOP_DELAY_MS)
                    {
                        channelActive[i] = inActive;
     6ca:	fe 01       	movw	r30, r28
     6cc:	e7 53       	subi	r30, 0x37	; 55
     6ce:	fe 4f       	sbci	r31, 0xFE	; 254
     6d0:	10 82       	st	Z, r1
                        maxCurrArray[i] = buffer[i];
     6d2:	cc 0f       	add	r28, r28
     6d4:	dd 1f       	adc	r29, r29
     6d6:	cc 0f       	add	r28, r28
     6d8:	dd 1f       	adc	r29, r29
     6da:	fe 01       	movw	r30, r28
     6dc:	ef 57       	subi	r30, 0x7F	; 127
     6de:	fe 4f       	sbci	r31, 0xFE	; 254
     6e0:	40 81       	ld	r20, Z
     6e2:	51 81       	ldd	r21, Z+1	; 0x01
     6e4:	62 81       	ldd	r22, Z+2	; 0x02
     6e6:	73 81       	ldd	r23, Z+3	; 0x03
     6e8:	de 01       	movw	r26, r28
     6ea:	ab 55       	subi	r26, 0x5B	; 91
     6ec:	be 4f       	sbci	r27, 0xFE	; 254
     6ee:	4d 93       	st	X+, r20
     6f0:	5d 93       	st	X+, r21
     6f2:	6d 93       	st	X+, r22
     6f4:	7c 93       	st	X, r23
     6f6:	13 97       	sbiw	r26, 0x03	; 3
                        buffer[i] = 0.0F;
     6f8:	10 82       	st	Z, r1
     6fa:	11 82       	std	Z+1, r1	; 0x01
     6fc:	12 82       	std	Z+2, r1	; 0x02
     6fe:	13 82       	std	Z+3, r1	; 0x03
                        stopTimers[i] = 0UL;
     700:	c3 5a       	subi	r28, 0xA3	; 163
     702:	de 4f       	sbci	r29, 0xFE	; 254
     704:	18 82       	st	Y, r1
     706:	19 82       	std	Y+1, r1	; 0x01
     708:	1a 82       	std	Y+2, r1	; 0x02
     70a:	1b 82       	std	Y+3, r1	; 0x03
    /**
     * @brief ą×ą▒čĆą░ą▒ą░čéčŗą▓ą░ąĄčé čäąĖą║čüą░čåąĖčÄ ą╝ą░ą║čüąĖą╝ą░ą╗čīąĮąŠą│ąŠ ąĘąĮą░čćąĄąĮąĖčÅ ą┐ąŠ ą║ą░ąĮą░ą╗ą░ą╝.
     */
    static void processMotorCurrent(void)
    {
        for (uint8_t i = 1U; i <= NUM_CHANNELS; ++i)
     70c:	1f 5f       	subi	r17, 0xFF	; 255
     70e:	ff ce       	rjmp	.-514    	; 0x50e <_ZN12_GLOBAL__N_1L19processMotorCurrentEv+0x10>
                        stopTimers[i] = 0UL;
                    }
                }
            }
        }
    }
     710:	df 91       	pop	r29
     712:	cf 91       	pop	r28
     714:	1f 91       	pop	r17
     716:	ff 90       	pop	r15
     718:	ef 90       	pop	r14
     71a:	df 90       	pop	r13
     71c:	cf 90       	pop	r12
     71e:	08 95       	ret

00000720 <_ZN12_GLOBAL__N_1L17initCommunicationEv>:
     * SPI ąĖąĮąĖčåąĖą░ą╗ąĖąĘąĖčĆčāąĄčéčüčÅ ą┐ąŠčüą╗ąĄ čćčéąĄąĮąĖčÅ ą░ą┐ą┐ą░čĆą░čéąĮąŠą│ąŠ ą░ą┤čĆąĄčüą░ ą┐ą╗ą░čéčŗ, ą┐ąŠčüą║ąŠą╗čīą║čā
     * ą╗ąĖąĮąĖčÅ PB2 ąĖčüą┐ąŠą╗čīąĘčāąĄčéčüčÅ ą┐čĆąĖ čüčéą░čĆčéąĄ ą║ą░ą║ ą▓čģąŠą┤ ą░ą┤čĆąĄčüąĮąŠą│ąŠ ą┐ąĄčĆąĄą║ą╗čÄčćą░čéąĄą╗čÅ,
     * ą░ ąĘą░čéąĄą╝ ą┐ąĄčĆąĄą▓ąŠą┤ąĖčéčüčÅ ą▓ čüąŠčüčéąŠčÅąĮąĖąĄ ą▓čŗčģąŠą┤ą░ SPI SS.
     */
    static void initCommunication(void)
    {
     720:	0f 93       	push	r16
     722:	1f 93       	push	r17
        hal::spi_init();
     724:	0e 94 93 0c 	call	0x1926	; 0x1926 <_ZN3hal8spi_initEv>

        IGAS_mb_X.initMB(MODBUS_BAUDRATE, SERIAL_8N1, MODBUS_REGISTER_LIMIT);
     728:	01 ed       	ldi	r16, 0xD1	; 209
     72a:	17 e0       	ldi	r17, 0x07	; 7
     72c:	26 e0       	ldi	r18, 0x06	; 6
     72e:	40 e8       	ldi	r20, 0x80	; 128
     730:	55 e2       	ldi	r21, 0x25	; 37
     732:	60 e0       	ldi	r22, 0x00	; 0
     734:	70 e0       	ldi	r23, 0x00	; 0
     736:	80 e9       	ldi	r24, 0x90	; 144
     738:	92 e0       	ldi	r25, 0x02	; 2
     73a:	0e 94 92 0e 	call	0x1d24	; 0x1d24 <_ZN11IGAS_mb_4856initMBEmhj>
        IGAS_mb_X.setDelegate(modbusProceed);
     73e:	62 e0       	ldi	r22, 0x02	; 2
     740:	77 e0       	ldi	r23, 0x07	; 7
     742:	80 e9       	ldi	r24, 0x90	; 144
     744:	92 e0       	ldi	r25, 0x02	; 2
     746:	0e 94 72 10 	call	0x20e4	; 0x20e4 <_ZN11IGAS_mb_48511setDelegateEPFvPiiiiE>
        IGAS_mb_X.slave = slaveAddr;
     74a:	80 91 87 02 	lds	r24, 0x0287	; 0x800287 <_ZN12_GLOBAL__N_1L9slaveAddrE>
     74e:	80 93 90 02 	sts	0x0290, r24	; 0x800290 <_ZN12_GLOBAL__N_1L9IGAS_mb_XE>
    }
     752:	1f 91       	pop	r17
     754:	0f 91       	pop	r16
     756:	08 95       	ret

00000758 <_ZN12_GLOBAL__N_1L16eepromUpdateByteEjh>:
     * @param address ąÉą┤čĆąĄčü EEPROM.
     * @param value ąŚą░ą┐ąĖčüčŗą▓ą░ąĄą╝ąŠąĄ ąĘąĮą░čćąĄąĮąĖąĄ.
     */
    static void eepromUpdateByte(uint16_t address, uint8_t value)
    {
        eeprom_update_byte(reinterpret_cast<uint8_t*>(address), value);
     758:	0e 94 11 15 	call	0x2a22	; 0x2a22 <eeprom_update_byte>
     75c:	08 95       	ret

0000075e <_ZN12_GLOBAL__N_1L15eepromUpdateIntEji>:
     *
     * @param address ąÉą┤čĆąĄčü čüčéą░čĆčłąĄą│ąŠ ą▒ą░ą╣čéą░.
     * @param value ąŚą░ą┐ąĖčüčŗą▓ą░ąĄą╝ąŠąĄ ąĘąĮą░čćąĄąĮąĖąĄ.
     */
    static void eepromUpdateInt(uint16_t address, int16_t value)
    {
     75e:	1f 93       	push	r17
     760:	cf 93       	push	r28
     762:	df 93       	push	r29
     764:	ec 01       	movw	r28, r24
     766:	16 2f       	mov	r17, r22
     768:	67 2f       	mov	r22, r23
        const uint16_t raw = static_cast<uint16_t>(value);

        eepromUpdateByte(address, static_cast<uint8_t>(raw >> 8));
     76a:	0e 94 ac 03 	call	0x758	; 0x758 <_ZN12_GLOBAL__N_1L16eepromUpdateByteEjh>
        eepromUpdateByte(
            static_cast<uint16_t>(address + 1U),
            static_cast<uint8_t>(raw & 0x00FFU)
        );
     76e:	61 2f       	mov	r22, r17
     770:	ce 01       	movw	r24, r28
     772:	01 96       	adiw	r24, 0x01	; 1
     774:	0e 94 ac 03 	call	0x758	; 0x758 <_ZN12_GLOBAL__N_1L16eepromUpdateByteEjh>
    }
     778:	df 91       	pop	r29
     77a:	cf 91       	pop	r28
     77c:	1f 91       	pop	r17
     77e:	08 95       	ret

00000780 <_ZN12_GLOBAL__N_1L14calibrToEEPROMEh>:
     * @brief ąĪąŠčģčĆą░ąĮčÅąĄčé ą║ą░ą╗ąĖą▒čĆąŠą▓ąŠčćąĮčŗąĄ čéąŠčćą║ąĖ ą║ą░ąĮą░ą╗ą░ ą▓ EEPROM.
     *
     * @param channel ąØąŠą╝ąĄčĆ ą║ą░ąĮą░ą╗ą░ ą▓ ą┤ąĖą░ą┐ą░ąĘąŠąĮąĄ 1...8.
     */
    static void calibrToEEPROM(uint8_t channel)
    {
     780:	ef 92       	push	r14
     782:	ff 92       	push	r15
     784:	0f 93       	push	r16
     786:	1f 93       	push	r17
     788:	cf 93       	push	r28
     78a:	df 93       	push	r29
     78c:	c8 2f       	mov	r28, r24
        calculateCalibration(channel);
     78e:	0e 94 34 01 	call	0x268	; 0x268 <_ZN12_GLOBAL__N_1L20calculateCalibrationEh>

        const uint16_t base = EEPROM_START_ADDRESS[channel];
     792:	ec 2f       	mov	r30, r28
     794:	f0 e0       	ldi	r31, 0x00	; 0
     796:	ee 0f       	add	r30, r30
     798:	ff 1f       	adc	r31, r31
     79a:	eb 5f       	subi	r30, 0xFB	; 251
     79c:	fe 4f       	sbci	r31, 0xFE	; 254
     79e:	00 81       	ld	r16, Z
     7a0:	11 81       	ldd	r17, Z+1	; 0x01

        eepromUpdateInt(
     7a2:	cc 0f       	add	r28, r28
     7a4:	ec 2e       	mov	r14, r28
     7a6:	f1 2c       	mov	r15, r1
     7a8:	ee 0c       	add	r14, r14
     7aa:	ff 1c       	adc	r15, r15
     7ac:	f7 01       	movw	r30, r14
     7ae:	e4 5d       	subi	r30, 0xD4	; 212
     7b0:	fd 4f       	sbci	r31, 0xFD	; 253
     7b2:	60 81       	ld	r22, Z
     7b4:	71 81       	ldd	r23, Z+1	; 0x01
            base,
            sensorAnalogX[static_cast<uint8_t>(2U * channel)]
        );
     7b6:	c8 01       	movw	r24, r16
     7b8:	0e 94 af 03 	call	0x75e	; 0x75e <_ZN12_GLOBAL__N_1L15eepromUpdateIntEji>

        eepromUpdateInt(
     7bc:	f7 01       	movw	r30, r14
     7be:	e2 5b       	subi	r30, 0xB2	; 178
     7c0:	fd 4f       	sbci	r31, 0xFD	; 253
     7c2:	60 81       	ld	r22, Z
     7c4:	71 81       	ldd	r23, Z+1	; 0x01
            static_cast<uint16_t>(base + 2U),
            gasConcentrationY[static_cast<uint8_t>(2U * channel)]
        );
     7c6:	c8 01       	movw	r24, r16
     7c8:	02 96       	adiw	r24, 0x02	; 2
     7ca:	0e 94 af 03 	call	0x75e	; 0x75e <_ZN12_GLOBAL__N_1L15eepromUpdateIntEji>

        eepromUpdateInt(
     7ce:	c1 50       	subi	r28, 0x01	; 1
     7d0:	d0 e0       	ldi	r29, 0x00	; 0
     7d2:	cc 0f       	add	r28, r28
     7d4:	dd 1f       	adc	r29, r29
     7d6:	fe 01       	movw	r30, r28
     7d8:	e4 5d       	subi	r30, 0xD4	; 212
     7da:	fd 4f       	sbci	r31, 0xFD	; 253
     7dc:	60 81       	ld	r22, Z
     7de:	71 81       	ldd	r23, Z+1	; 0x01
            static_cast<uint16_t>(base + 4U),
            sensorAnalogX[static_cast<uint8_t>(2U * channel - 1U)]
        );
     7e0:	c8 01       	movw	r24, r16
     7e2:	04 96       	adiw	r24, 0x04	; 4
     7e4:	0e 94 af 03 	call	0x75e	; 0x75e <_ZN12_GLOBAL__N_1L15eepromUpdateIntEji>

        eepromUpdateInt(
     7e8:	c2 5b       	subi	r28, 0xB2	; 178
     7ea:	dd 4f       	sbci	r29, 0xFD	; 253
     7ec:	68 81       	ld	r22, Y
     7ee:	79 81       	ldd	r23, Y+1	; 0x01
            static_cast<uint16_t>(base + 6U),
            gasConcentrationY[static_cast<uint8_t>(2U * channel - 1U)]
        );
     7f0:	c8 01       	movw	r24, r16
     7f2:	06 96       	adiw	r24, 0x06	; 6
     7f4:	0e 94 af 03 	call	0x75e	; 0x75e <_ZN12_GLOBAL__N_1L15eepromUpdateIntEji>
    }
     7f8:	df 91       	pop	r29
     7fa:	cf 91       	pop	r28
     7fc:	1f 91       	pop	r17
     7fe:	0f 91       	pop	r16
     800:	ff 90       	pop	r15
     802:	ef 90       	pop	r14
     804:	08 95       	ret

00000806 <_ZN12_GLOBAL__N_1L29eepromUpdateFloatRegisterPartEjj>:
     *
     * @param address ąÉą┤čĆąĄčü čüčéą░čĆčłąĄą│ąŠ ą▒ą░ą╣čéą░ čäčĆą░ą│ą╝ąĄąĮčéą░.
     * @param raw ąŚą░ą┐ąĖčüčŗą▓ą░ąĄą╝ąŠąĄ čłąĄčüčéąĮą░ą┤čåą░čéąĖą▒ąĖčéąĮąŠąĄ ąĘąĮą░čćąĄąĮąĖąĄ.
     */
    static void eepromUpdateFloatRegisterPart(uint16_t address, uint16_t raw)
    {
     806:	1f 93       	push	r17
     808:	cf 93       	push	r28
     80a:	df 93       	push	r29
     80c:	ec 01       	movw	r28, r24
     80e:	16 2f       	mov	r17, r22
     810:	67 2f       	mov	r22, r23
        eepromUpdateByte(address, static_cast<uint8_t>(raw >> 8));
     812:	0e 94 ac 03 	call	0x758	; 0x758 <_ZN12_GLOBAL__N_1L16eepromUpdateByteEjh>
        eepromUpdateByte(
            static_cast<uint16_t>(address + 1U),
            static_cast<uint8_t>(raw & 0x00FFU)
        );
     816:	61 2f       	mov	r22, r17
     818:	ce 01       	movw	r24, r28
     81a:	01 96       	adiw	r24, 0x01	; 1
     81c:	0e 94 ac 03 	call	0x758	; 0x758 <_ZN12_GLOBAL__N_1L16eepromUpdateByteEjh>
    }
     820:	df 91       	pop	r29
     822:	cf 91       	pop	r28
     824:	1f 91       	pop	r17
     826:	08 95       	ret

00000828 <_ZN12_GLOBAL__N_1L14eepromReadByteEj>:
     *
     * @return ą¤čĆąŠčćąĖčéą░ąĮąĮąŠąĄ ąĘąĮą░čćąĄąĮąĖąĄ.
     */
    static uint8_t eepromReadByte(uint16_t address)
    {
        return eeprom_read_byte(reinterpret_cast<const uint8_t*>(address));
     828:	0e 94 09 15 	call	0x2a12	; 0x2a12 <eeprom_read_byte>
    }
     82c:	08 95       	ret

0000082e <_ZN12_GLOBAL__N_1L13eepromReadIntEj>:
     * @param address ąÉą┤čĆąĄčü čüčéą░čĆčłąĄą│ąŠ ą▒ą░ą╣čéą░.
     *
     * @return ą¤čĆąŠčćąĖčéą░ąĮąĮąŠąĄ ąĘąĮą░čćąĄąĮąĖąĄ.
     */
    static int16_t eepromReadInt(uint16_t address)
    {
     82e:	0f 93       	push	r16
     830:	1f 93       	push	r17
     832:	cf 93       	push	r28
     834:	df 93       	push	r29
     836:	8c 01       	movw	r16, r24
        const uint16_t hi = eepromReadByte(address);
     838:	0e 94 14 04 	call	0x828	; 0x828 <_ZN12_GLOBAL__N_1L14eepromReadByteEj>
     83c:	c8 2f       	mov	r28, r24
     83e:	d0 e0       	ldi	r29, 0x00	; 0
        const uint16_t lo = eepromReadByte(static_cast<uint16_t>(address + 1U));
     840:	c8 01       	movw	r24, r16
     842:	01 96       	adiw	r24, 0x01	; 1
     844:	0e 94 14 04 	call	0x828	; 0x828 <_ZN12_GLOBAL__N_1L14eepromReadByteEj>

        return static_cast<int16_t>((hi << 8) | lo);
     848:	dc 2f       	mov	r29, r28
     84a:	cc 27       	eor	r28, r28
    }
     84c:	9e 01       	movw	r18, r28
     84e:	28 2b       	or	r18, r24
     850:	c9 01       	movw	r24, r18
     852:	df 91       	pop	r29
     854:	cf 91       	pop	r28
     856:	1f 91       	pop	r17
     858:	0f 91       	pop	r16
     85a:	08 95       	ret

0000085c <_ZN12_GLOBAL__N_1L16calibrFromEEPROMEh>:
     * @brief ąŚą░ą│čĆčāąČą░ąĄčé ą║ą░ą╗ąĖą▒čĆąŠą▓ąŠčćąĮčŗąĄ čéąŠčćą║ąĖ ą║ą░ąĮą░ą╗ą░ ąĖąĘ EEPROM.
     *
     * @param channel ąØąŠą╝ąĄčĆ ą║ą░ąĮą░ą╗ą░ ą▓ ą┤ąĖą░ą┐ą░ąĘąŠąĮąĄ 1...8.
     */
    static void calibrFromEEPROM(uint8_t channel)
    {
     85c:	df 92       	push	r13
     85e:	ef 92       	push	r14
     860:	ff 92       	push	r15
     862:	0f 93       	push	r16
     864:	1f 93       	push	r17
     866:	cf 93       	push	r28
     868:	df 93       	push	r29
     86a:	d8 2e       	mov	r13, r24
        const uint16_t base = EEPROM_START_ADDRESS[channel];
     86c:	e8 2f       	mov	r30, r24
     86e:	f0 e0       	ldi	r31, 0x00	; 0
     870:	ee 0f       	add	r30, r30
     872:	ff 1f       	adc	r31, r31
     874:	eb 5f       	subi	r30, 0xFB	; 251
     876:	fe 4f       	sbci	r31, 0xFE	; 254
     878:	e0 80       	ld	r14, Z
     87a:	f1 80       	ldd	r15, Z+1	; 0x01

        sensorAnalogX[static_cast<uint8_t>(2U * channel)] =
     87c:	c8 2f       	mov	r28, r24
     87e:	cc 0f       	add	r28, r28
     880:	0c 2f       	mov	r16, r28
     882:	10 e0       	ldi	r17, 0x00	; 0
            eepromReadInt(base);
     884:	c7 01       	movw	r24, r14
     886:	0e 94 17 04 	call	0x82e	; 0x82e <_ZN12_GLOBAL__N_1L13eepromReadIntEj>
     88a:	00 0f       	add	r16, r16
     88c:	11 1f       	adc	r17, r17
     88e:	f8 01       	movw	r30, r16
     890:	e4 5d       	subi	r30, 0xD4	; 212
     892:	fd 4f       	sbci	r31, 0xFD	; 253
     894:	91 83       	std	Z+1, r25	; 0x01
     896:	80 83       	st	Z, r24

        gasConcentrationY[static_cast<uint8_t>(2U * channel)] =
            eepromReadInt(static_cast<uint16_t>(base + 2U));
     898:	c7 01       	movw	r24, r14
     89a:	02 96       	adiw	r24, 0x02	; 2
     89c:	0e 94 17 04 	call	0x82e	; 0x82e <_ZN12_GLOBAL__N_1L13eepromReadIntEj>
     8a0:	f8 01       	movw	r30, r16
     8a2:	e2 5b       	subi	r30, 0xB2	; 178
     8a4:	fd 4f       	sbci	r31, 0xFD	; 253
     8a6:	91 83       	std	Z+1, r25	; 0x01
     8a8:	80 83       	st	Z, r24

        sensorAnalogX[static_cast<uint8_t>(2U * channel - 1U)] =
     8aa:	c1 50       	subi	r28, 0x01	; 1
     8ac:	d0 e0       	ldi	r29, 0x00	; 0
            eepromReadInt(static_cast<uint16_t>(base + 4U));
     8ae:	c7 01       	movw	r24, r14
     8b0:	04 96       	adiw	r24, 0x04	; 4
     8b2:	0e 94 17 04 	call	0x82e	; 0x82e <_ZN12_GLOBAL__N_1L13eepromReadIntEj>
     8b6:	cc 0f       	add	r28, r28
     8b8:	dd 1f       	adc	r29, r29
     8ba:	fe 01       	movw	r30, r28
     8bc:	e4 5d       	subi	r30, 0xD4	; 212
     8be:	fd 4f       	sbci	r31, 0xFD	; 253
     8c0:	91 83       	std	Z+1, r25	; 0x01
     8c2:	80 83       	st	Z, r24

        gasConcentrationY[static_cast<uint8_t>(2U * channel - 1U)] =
            eepromReadInt(static_cast<uint16_t>(base + 6U));
     8c4:	c7 01       	movw	r24, r14
     8c6:	06 96       	adiw	r24, 0x06	; 6
     8c8:	0e 94 17 04 	call	0x82e	; 0x82e <_ZN12_GLOBAL__N_1L13eepromReadIntEj>
     8cc:	c2 5b       	subi	r28, 0xB2	; 178
     8ce:	dd 4f       	sbci	r29, 0xFD	; 253
     8d0:	99 83       	std	Y+1, r25	; 0x01
     8d2:	88 83       	st	Y, r24

        calculateCalibration(channel);
     8d4:	8d 2d       	mov	r24, r13
     8d6:	0e 94 34 01 	call	0x268	; 0x268 <_ZN12_GLOBAL__N_1L20calculateCalibrationEh>
    }
     8da:	df 91       	pop	r29
     8dc:	cf 91       	pop	r28
     8de:	1f 91       	pop	r17
     8e0:	0f 91       	pop	r16
     8e2:	ff 90       	pop	r15
     8e4:	ef 90       	pop	r14
     8e6:	df 90       	pop	r13
     8e8:	08 95       	ret

000008ea <_ZN12_GLOBAL__N_1L15eepromReadFloatEjf>:
     * @param defaultValue ąŚąĮą░čćąĄąĮąĖąĄ ą┐ąŠ čāą╝ąŠą╗čćą░ąĮąĖčÄ ą┐čĆąĖ ą┐čāčüčéąŠą╣ čÅčćąĄą╣ą║ąĄ EEPROM.
     *
     * @return ą¤čĆąŠčćąĖčéą░ąĮąĮąŠąĄ ąĘąĮą░čćąĄąĮąĖąĄ ąĖą╗ąĖ ąĘąĮą░čćąĄąĮąĖąĄ ą┐ąŠ čāą╝ąŠą╗čćą░ąĮąĖčÄ.
     */
    static float eepromReadFloat(uint16_t address, float defaultValue)
    {
     8ea:	8f 92       	push	r8
     8ec:	9f 92       	push	r9
     8ee:	af 92       	push	r10
     8f0:	bf 92       	push	r11
     8f2:	cf 92       	push	r12
     8f4:	df 92       	push	r13
     8f6:	ef 92       	push	r14
     8f8:	ff 92       	push	r15
     8fa:	0f 93       	push	r16
     8fc:	1f 93       	push	r17
     8fe:	cf 93       	push	r28
     900:	df 93       	push	r29
     902:	00 d0       	rcall	.+0      	; 0x904 <__stack+0x5>
     904:	00 d0       	rcall	.+0      	; 0x906 <__stack+0x7>
     906:	cd b7       	in	r28, 0x3d	; 61
     908:	de b7       	in	r29, 0x3e	; 62
     90a:	6c 01       	movw	r12, r24
     90c:	84 2e       	mov	r8, r20
     90e:	95 2e       	mov	r9, r21
     910:	a6 2e       	mov	r10, r22
     912:	b7 2e       	mov	r11, r23
            uint8_t b[4];
        } u;

        uint8_t empty = 1U;

        for (uint8_t i = 0U; i < 4U; ++i)
     914:	f1 2c       	mov	r15, r1
        {
            float f;
            uint8_t b[4];
        } u;

        uint8_t empty = 1U;
     916:	ee 24       	eor	r14, r14
     918:	e3 94       	inc	r14

        for (uint8_t i = 0U; i < 4U; ++i)
     91a:	83 e0       	ldi	r24, 0x03	; 3
     91c:	8f 15       	cp	r24, r15
     91e:	98 f0       	brcs	.+38     	; 0x946 <__stack+0x47>
        {
            u.b[i] = eepromReadByte(static_cast<uint16_t>(address + i));
     920:	0f 2d       	mov	r16, r15
     922:	10 e0       	ldi	r17, 0x00	; 0
     924:	c8 01       	movw	r24, r16
     926:	8c 0d       	add	r24, r12
     928:	9d 1d       	adc	r25, r13
     92a:	0e 94 14 04 	call	0x828	; 0x828 <_ZN12_GLOBAL__N_1L14eepromReadByteEj>
     92e:	e1 e0       	ldi	r30, 0x01	; 1
     930:	f0 e0       	ldi	r31, 0x00	; 0
     932:	ec 0f       	add	r30, r28
     934:	fd 1f       	adc	r31, r29
     936:	e0 0f       	add	r30, r16
     938:	f1 1f       	adc	r31, r17
     93a:	80 83       	st	Z, r24

            if (u.b[i] != 0xFFU)
     93c:	8f 3f       	cpi	r24, 0xFF	; 255
     93e:	09 f0       	breq	.+2      	; 0x942 <__stack+0x43>
            {
                empty = 0U;
     940:	e1 2c       	mov	r14, r1
            uint8_t b[4];
        } u;

        uint8_t empty = 1U;

        for (uint8_t i = 0U; i < 4U; ++i)
     942:	f3 94       	inc	r15
     944:	ea cf       	rjmp	.-44     	; 0x91a <__stack+0x1b>
            {
                empty = 0U;
            }
        }

        if (empty != 0U)
     946:	e1 10       	cpse	r14, r1
     948:	05 c0       	rjmp	.+10     	; 0x954 <__stack+0x55>
        {
            return defaultValue;
        }

        return u.f;
     94a:	49 81       	ldd	r20, Y+1	; 0x01
     94c:	5a 81       	ldd	r21, Y+2	; 0x02
     94e:	3b 81       	ldd	r19, Y+3	; 0x03
     950:	2c 81       	ldd	r18, Y+4	; 0x04
     952:	04 c0       	rjmp	.+8      	; 0x95c <__stack+0x5d>
            }
        }

        if (empty != 0U)
        {
            return defaultValue;
     954:	48 2d       	mov	r20, r8
     956:	59 2d       	mov	r21, r9
     958:	3a 2d       	mov	r19, r10
     95a:	2b 2d       	mov	r18, r11
        }

        return u.f;
    }
     95c:	64 2f       	mov	r22, r20
     95e:	75 2f       	mov	r23, r21
     960:	83 2f       	mov	r24, r19
     962:	92 2f       	mov	r25, r18
     964:	0f 90       	pop	r0
     966:	0f 90       	pop	r0
     968:	0f 90       	pop	r0
     96a:	0f 90       	pop	r0
     96c:	df 91       	pop	r29
     96e:	cf 91       	pop	r28
     970:	1f 91       	pop	r17
     972:	0f 91       	pop	r16
     974:	ff 90       	pop	r15
     976:	ef 90       	pop	r14
     978:	df 90       	pop	r13
     97a:	cf 90       	pop	r12
     97c:	bf 90       	pop	r11
     97e:	af 90       	pop	r10
     980:	9f 90       	pop	r9
     982:	8f 90       	pop	r8
     984:	08 95       	ret

00000986 <_ZN12_GLOBAL__N_1L14accessRegisterEjbi>:
     * @param value ąŚąĮą░čćąĄąĮąĖąĄ ą┐čĆąĖ ąŠą┐ąĄčĆą░čåąĖąĖ ąĘą░ą┐ąĖčüąĖ.
     *
     * @return ąŚąĮą░čćąĄąĮąĖąĄ čĆąĄą│ąĖčüčéčĆą░ ą┤ą╗čÅ ąŠčéą▓ąĄčéą░ Modbus.
     */
    static int16_t accessRegister(uint16_t registerAddr, bool writeReg, int16_t value)
    {
     986:	cf 92       	push	r12
     988:	df 92       	push	r13
     98a:	ef 92       	push	r14
     98c:	ff 92       	push	r15
     98e:	cf 93       	push	r28
        const uint16_t rawValue = static_cast<uint16_t>(value);
     990:	24 2f       	mov	r18, r20
     992:	35 2f       	mov	r19, r21

        switch (registerAddr)
     994:	81 3a       	cpi	r24, 0xA1	; 161
     996:	71 e0       	ldi	r23, 0x01	; 1
     998:	97 07       	cpc	r25, r23
     99a:	08 f0       	brcs	.+2      	; 0x99e <_ZN12_GLOBAL__N_1L14accessRegisterEjbi+0x18>
     99c:	45 c0       	rjmp	.+138    	; 0xa28 <_ZN12_GLOBAL__N_1L14accessRegisterEjbi+0xa2>
     99e:	81 39       	cpi	r24, 0x91	; 145
     9a0:	71 e0       	ldi	r23, 0x01	; 1
     9a2:	97 07       	cpc	r25, r23
     9a4:	08 f0       	brcs	.+2      	; 0x9a8 <_ZN12_GLOBAL__N_1L14accessRegisterEjbi+0x22>
     9a6:	5a c1       	rjmp	.+692    	; 0xc5c <_ZN12_GLOBAL__N_1L14accessRegisterEjbi+0x2d6>
     9a8:	8a 35       	cpi	r24, 0x5A	; 90
     9aa:	91 05       	cpc	r25, r1
     9ac:	09 f4       	brne	.+2      	; 0x9b0 <_ZN12_GLOBAL__N_1L14accessRegisterEjbi+0x2a>
     9ae:	d0 c0       	rjmp	.+416    	; 0xb50 <_ZN12_GLOBAL__N_1L14accessRegisterEjbi+0x1ca>
     9b0:	c8 f4       	brcc	.+50     	; 0x9e4 <_ZN12_GLOBAL__N_1L14accessRegisterEjbi+0x5e>
     9b2:	87 32       	cpi	r24, 0x27	; 39
     9b4:	91 05       	cpc	r25, r1
     9b6:	09 f4       	brne	.+2      	; 0x9ba <_ZN12_GLOBAL__N_1L14accessRegisterEjbi+0x34>
     9b8:	ae c0       	rjmp	.+348    	; 0xb16 <_ZN12_GLOBAL__N_1L14accessRegisterEjbi+0x190>
     9ba:	40 f4       	brcc	.+16     	; 0x9cc <_ZN12_GLOBAL__N_1L14accessRegisterEjbi+0x46>
     9bc:	00 97       	sbiw	r24, 0x00	; 0
     9be:	09 f4       	brne	.+2      	; 0x9c2 <_ZN12_GLOBAL__N_1L14accessRegisterEjbi+0x3c>
     9c0:	8b c0       	rjmp	.+278    	; 0xad8 <_ZN12_GLOBAL__N_1L14accessRegisterEjbi+0x152>
     9c2:	81 31       	cpi	r24, 0x11	; 17
     9c4:	91 05       	cpc	r25, r1
     9c6:	08 f4       	brcc	.+2      	; 0x9ca <_ZN12_GLOBAL__N_1L14accessRegisterEjbi+0x44>
     9c8:	8c c0       	rjmp	.+280    	; 0xae2 <_ZN12_GLOBAL__N_1L14accessRegisterEjbi+0x15c>
     9ca:	02 c2       	rjmp	.+1028   	; 0xdd0 <_ZN12_GLOBAL__N_1L14accessRegisterEjbi+0x44a>
     9cc:	88 32       	cpi	r24, 0x28	; 40
     9ce:	91 05       	cpc	r25, r1
     9d0:	09 f4       	brne	.+2      	; 0x9d4 <_ZN12_GLOBAL__N_1L14accessRegisterEjbi+0x4e>
     9d2:	7f c0       	rjmp	.+254    	; 0xad2 <_ZN12_GLOBAL__N_1L14accessRegisterEjbi+0x14c>
     9d4:	9c 01       	movw	r18, r24
     9d6:	23 53       	subi	r18, 0x33	; 51
     9d8:	31 09       	sbc	r19, r1
     9da:	20 31       	cpi	r18, 0x10	; 16
     9dc:	31 05       	cpc	r19, r1
     9de:	08 f4       	brcc	.+2      	; 0x9e2 <_ZN12_GLOBAL__N_1L14accessRegisterEjbi+0x5c>
     9e0:	9f c0       	rjmp	.+318    	; 0xb20 <_ZN12_GLOBAL__N_1L14accessRegisterEjbi+0x19a>
     9e2:	f6 c1       	rjmp	.+1004   	; 0xdd0 <_ZN12_GLOBAL__N_1L14accessRegisterEjbi+0x44a>
     9e4:	83 37       	cpi	r24, 0x73	; 115
     9e6:	91 05       	cpc	r25, r1
     9e8:	09 f4       	brne	.+2      	; 0x9ec <_ZN12_GLOBAL__N_1L14accessRegisterEjbi+0x66>
     9ea:	0e c1       	rjmp	.+540    	; 0xc08 <_ZN12_GLOBAL__N_1L14accessRegisterEjbi+0x282>
     9ec:	68 f4       	brcc	.+26     	; 0xa08 <_ZN12_GLOBAL__N_1L14accessRegisterEjbi+0x82>
     9ee:	85 36       	cpi	r24, 0x65	; 101
     9f0:	91 05       	cpc	r25, r1
     9f2:	09 f4       	brne	.+2      	; 0x9f6 <_ZN12_GLOBAL__N_1L14accessRegisterEjbi+0x70>
     9f4:	cb c0       	rjmp	.+406    	; 0xb8c <_ZN12_GLOBAL__N_1L14accessRegisterEjbi+0x206>
     9f6:	86 36       	cpi	r24, 0x66	; 102
     9f8:	91 05       	cpc	r25, r1
     9fa:	09 f4       	brne	.+2      	; 0x9fe <_ZN12_GLOBAL__N_1L14accessRegisterEjbi+0x78>
     9fc:	de c0       	rjmp	.+444    	; 0xbba <_ZN12_GLOBAL__N_1L14accessRegisterEjbi+0x234>
     9fe:	84 36       	cpi	r24, 0x64	; 100
     a00:	91 05       	cpc	r25, r1
     a02:	09 f0       	breq	.+2      	; 0xa06 <_ZN12_GLOBAL__N_1L14accessRegisterEjbi+0x80>
     a04:	e5 c1       	rjmp	.+970    	; 0xdd0 <_ZN12_GLOBAL__N_1L14accessRegisterEjbi+0x44a>
     a06:	b0 c0       	rjmp	.+352    	; 0xb68 <_ZN12_GLOBAL__N_1L14accessRegisterEjbi+0x1e2>
     a08:	89 3c       	cpi	r24, 0xC9	; 201
     a0a:	91 05       	cpc	r25, r1
     a0c:	08 f4       	brcc	.+2      	; 0xa10 <_ZN12_GLOBAL__N_1L14accessRegisterEjbi+0x8a>
     a0e:	e0 c1       	rjmp	.+960    	; 0xdd0 <_ZN12_GLOBAL__N_1L14accessRegisterEjbi+0x44a>
     a10:	89 3d       	cpi	r24, 0xD9	; 217
     a12:	91 05       	cpc	r25, r1
     a14:	08 f4       	brcc	.+2      	; 0xa18 <_ZN12_GLOBAL__N_1L14accessRegisterEjbi+0x92>
     a16:	0e c1       	rjmp	.+540    	; 0xc34 <_ZN12_GLOBAL__N_1L14accessRegisterEjbi+0x2ae>
     a18:	9c 01       	movw	r18, r24
     a1a:	2d 52       	subi	r18, 0x2D	; 45
     a1c:	31 40       	sbci	r19, 0x01	; 1
     a1e:	20 31       	cpi	r18, 0x10	; 16
     a20:	31 05       	cpc	r19, r1
     a22:	08 f4       	brcc	.+2      	; 0xa26 <_ZN12_GLOBAL__N_1L14accessRegisterEjbi+0xa0>
     a24:	11 c1       	rjmp	.+546    	; 0xc48 <_ZN12_GLOBAL__N_1L14accessRegisterEjbi+0x2c2>
     a26:	d4 c1       	rjmp	.+936    	; 0xdd0 <_ZN12_GLOBAL__N_1L14accessRegisterEjbi+0x44a>
     a28:	8d 37       	cpi	r24, 0x7D	; 125
     a2a:	72 e0       	ldi	r23, 0x02	; 2
     a2c:	97 07       	cpc	r25, r23
     a2e:	38 f5       	brcc	.+78     	; 0xa7e <_ZN12_GLOBAL__N_1L14accessRegisterEjbi+0xf8>
     a30:	8d 36       	cpi	r24, 0x6D	; 109
     a32:	72 e0       	ldi	r23, 0x02	; 2
     a34:	97 07       	cpc	r25, r23
     a36:	08 f0       	brcs	.+2      	; 0xa3a <_ZN12_GLOBAL__N_1L14accessRegisterEjbi+0xb4>
     a38:	62 c1       	rjmp	.+708    	; 0xcfe <_ZN12_GLOBAL__N_1L14accessRegisterEjbi+0x378>
     a3a:	88 35       	cpi	r24, 0x58	; 88
     a3c:	72 e0       	ldi	r23, 0x02	; 2
     a3e:	97 07       	cpc	r25, r23
     a40:	09 f4       	brne	.+2      	; 0xa44 <_ZN12_GLOBAL__N_1L14accessRegisterEjbi+0xbe>
     a42:	43 c1       	rjmp	.+646    	; 0xcca <_ZN12_GLOBAL__N_1L14accessRegisterEjbi+0x344>
     a44:	78 f4       	brcc	.+30     	; 0xa64 <_ZN12_GLOBAL__N_1L14accessRegisterEjbi+0xde>
     a46:	85 3f       	cpi	r24, 0xF5	; 245
     a48:	71 e0       	ldi	r23, 0x01	; 1
     a4a:	97 07       	cpc	r25, r23
     a4c:	08 f4       	brcc	.+2      	; 0xa50 <_ZN12_GLOBAL__N_1L14accessRegisterEjbi+0xca>
     a4e:	c0 c1       	rjmp	.+896    	; 0xdd0 <_ZN12_GLOBAL__N_1L14accessRegisterEjbi+0x44a>
     a50:	85 30       	cpi	r24, 0x05	; 5
     a52:	72 e0       	ldi	r23, 0x02	; 2
     a54:	97 07       	cpc	r25, r23
     a56:	08 f4       	brcc	.+2      	; 0xa5a <_ZN12_GLOBAL__N_1L14accessRegisterEjbi+0xd4>
     a58:	16 c1       	rjmp	.+556    	; 0xc86 <_ZN12_GLOBAL__N_1L14accessRegisterEjbi+0x300>
     a5a:	82 35       	cpi	r24, 0x52	; 82
     a5c:	92 40       	sbci	r25, 0x02	; 2
     a5e:	09 f4       	brne	.+2      	; 0xa62 <_ZN12_GLOBAL__N_1L14accessRegisterEjbi+0xdc>
     a60:	27 c1       	rjmp	.+590    	; 0xcb0 <_ZN12_GLOBAL__N_1L14accessRegisterEjbi+0x32a>
     a62:	b6 c1       	rjmp	.+876    	; 0xdd0 <_ZN12_GLOBAL__N_1L14accessRegisterEjbi+0x44a>
     a64:	81 36       	cpi	r24, 0x61	; 97
     a66:	72 e0       	ldi	r23, 0x02	; 2
     a68:	97 07       	cpc	r25, r23
     a6a:	08 f4       	brcc	.+2      	; 0xa6e <_ZN12_GLOBAL__N_1L14accessRegisterEjbi+0xe8>
     a6c:	33 c1       	rjmp	.+614    	; 0xcd4 <_ZN12_GLOBAL__N_1L14accessRegisterEjbi+0x34e>
     a6e:	9c 01       	movw	r18, r24
     a70:	23 56       	subi	r18, 0x63	; 99
     a72:	32 40       	sbci	r19, 0x02	; 2
     a74:	28 30       	cpi	r18, 0x08	; 8
     a76:	31 05       	cpc	r19, r1
     a78:	08 f4       	brcc	.+2      	; 0xa7c <_ZN12_GLOBAL__N_1L14accessRegisterEjbi+0xf6>
     a7a:	37 c1       	rjmp	.+622    	; 0xcea <_ZN12_GLOBAL__N_1L14accessRegisterEjbi+0x364>
     a7c:	a9 c1       	rjmp	.+850    	; 0xdd0 <_ZN12_GLOBAL__N_1L14accessRegisterEjbi+0x44a>
     a7e:	84 38       	cpi	r24, 0x84	; 132
     a80:	43 e0       	ldi	r20, 0x03	; 3
     a82:	94 07       	cpc	r25, r20
     a84:	09 f4       	brne	.+2      	; 0xa88 <_ZN12_GLOBAL__N_1L14accessRegisterEjbi+0x102>
     a86:	7a c1       	rjmp	.+756    	; 0xd7c <_ZN12_GLOBAL__N_1L14accessRegisterEjbi+0x3f6>
     a88:	78 f4       	brcc	.+30     	; 0xaa8 <_ZN12_GLOBAL__N_1L14accessRegisterEjbi+0x122>
     a8a:	8d 3b       	cpi	r24, 0xBD	; 189
     a8c:	42 e0       	ldi	r20, 0x02	; 2
     a8e:	94 07       	cpc	r25, r20
     a90:	08 f4       	brcc	.+2      	; 0xa94 <_ZN12_GLOBAL__N_1L14accessRegisterEjbi+0x10e>
     a92:	9e c1       	rjmp	.+828    	; 0xdd0 <_ZN12_GLOBAL__N_1L14accessRegisterEjbi+0x44a>
     a94:	85 3c       	cpi	r24, 0xC5	; 197
     a96:	72 e0       	ldi	r23, 0x02	; 2
     a98:	97 07       	cpc	r25, r23
     a9a:	08 f4       	brcc	.+2      	; 0xa9e <_ZN12_GLOBAL__N_1L14accessRegisterEjbi+0x118>
     a9c:	49 c1       	rjmp	.+658    	; 0xd30 <_ZN12_GLOBAL__N_1L14accessRegisterEjbi+0x3aa>
     a9e:	80 32       	cpi	r24, 0x20	; 32
     aa0:	93 40       	sbci	r25, 0x03	; 3
     aa2:	09 f4       	brne	.+2      	; 0xaa6 <_ZN12_GLOBAL__N_1L14accessRegisterEjbi+0x120>
     aa4:	5c c1       	rjmp	.+696    	; 0xd5e <_ZN12_GLOBAL__N_1L14accessRegisterEjbi+0x3d8>
     aa6:	94 c1       	rjmp	.+808    	; 0xdd0 <_ZN12_GLOBAL__N_1L14accessRegisterEjbi+0x44a>
     aa8:	89 3e       	cpi	r24, 0xE9	; 233
     aaa:	73 e0       	ldi	r23, 0x03	; 3
     aac:	97 07       	cpc	r25, r23
     aae:	09 f4       	brne	.+2      	; 0xab2 <_ZN12_GLOBAL__N_1L14accessRegisterEjbi+0x12c>
     ab0:	86 c1       	rjmp	.+780    	; 0xdbe <_ZN12_GLOBAL__N_1L14accessRegisterEjbi+0x438>
     ab2:	28 f4       	brcc	.+10     	; 0xabe <_ZN12_GLOBAL__N_1L14accessRegisterEjbi+0x138>
     ab4:	88 3e       	cpi	r24, 0xE8	; 232
     ab6:	93 40       	sbci	r25, 0x03	; 3
     ab8:	09 f4       	brne	.+2      	; 0xabc <_ZN12_GLOBAL__N_1L14accessRegisterEjbi+0x136>
     aba:	8d c1       	rjmp	.+794    	; 0xdd6 <_ZN12_GLOBAL__N_1L14accessRegisterEjbi+0x450>
     abc:	89 c1       	rjmp	.+786    	; 0xdd0 <_ZN12_GLOBAL__N_1L14accessRegisterEjbi+0x44a>
     abe:	8c 34       	cpi	r24, 0x4C	; 76
     ac0:	74 e0       	ldi	r23, 0x04	; 4
     ac2:	97 07       	cpc	r25, r23
     ac4:	09 f4       	brne	.+2      	; 0xac8 <_ZN12_GLOBAL__N_1L14accessRegisterEjbi+0x142>
     ac6:	7e c1       	rjmp	.+764    	; 0xdc4 <_ZN12_GLOBAL__N_1L14accessRegisterEjbi+0x43e>
     ac8:	8d 34       	cpi	r24, 0x4D	; 77
     aca:	94 40       	sbci	r25, 0x04	; 4
     acc:	09 f4       	brne	.+2      	; 0xad0 <_ZN12_GLOBAL__N_1L14accessRegisterEjbi+0x14a>
     ace:	7d c1       	rjmp	.+762    	; 0xdca <_ZN12_GLOBAL__N_1L14accessRegisterEjbi+0x444>
     ad0:	7f c1       	rjmp	.+766    	; 0xdd0 <_ZN12_GLOBAL__N_1L14accessRegisterEjbi+0x44a>

            case 39:
                return eepromReadInt(EEPROM_SERIAL_NUMBER_ADDR);

            case 40:
                return static_cast<int16_t>(FIRMWARE_DEF);
     ad2:	85 e6       	ldi	r24, 0x65	; 101
     ad4:	90 e0       	ldi	r25, 0x00	; 0
     ad6:	90 c1       	rjmp	.+800    	; 0xdf8 <_ZN12_GLOBAL__N_1L14accessRegisterEjbi+0x472>
        const uint16_t rawValue = static_cast<uint16_t>(value);

        switch (registerAddr)
        {
            case 0:
                return AIData[0];
     ad8:	80 91 d2 01 	lds	r24, 0x01D2	; 0x8001d2 <_ZN12_GLOBAL__N_1L6AIDataE>
     adc:	90 91 d3 01 	lds	r25, 0x01D3	; 0x8001d3 <_ZN12_GLOBAL__N_1L6AIDataE+0x1>
     ae0:	8b c1       	rjmp	.+790    	; 0xdf8 <_ZN12_GLOBAL__N_1L14accessRegisterEjbi+0x472>

            case 1 ... 16:
            {
                const uint8_t channel =
                    static_cast<uint8_t>(9U - ((registerAddr + 1U) / 2U));
     ae2:	9c 01       	movw	r18, r24
     ae4:	2f 5f       	subi	r18, 0xFF	; 255
     ae6:	3f 4f       	sbci	r19, 0xFF	; 255
     ae8:	36 95       	lsr	r19
     aea:	27 95       	ror	r18
     aec:	e9 e0       	ldi	r30, 0x09	; 9
     aee:	e2 1b       	sub	r30, r18

                return floatRegisterByPair(ADC_Converted[channel], 1U, registerAddr);
     af0:	f0 e0       	ldi	r31, 0x00	; 0
     af2:	ee 0f       	add	r30, r30
     af4:	ff 1f       	adc	r31, r31
     af6:	ee 0f       	add	r30, r30
     af8:	ff 1f       	adc	r31, r31
     afa:	e7 5c       	subi	r30, 0xC7	; 199
     afc:	fe 4f       	sbci	r31, 0xFE	; 254
     afe:	c0 80       	ld	r12, Z
     b00:	d1 80       	ldd	r13, Z+1	; 0x01
     b02:	e2 80       	ldd	r14, Z+2	; 0x02
     b04:	f3 80       	ldd	r15, Z+3	; 0x03
     b06:	9c 01       	movw	r18, r24
     b08:	41 e0       	ldi	r20, 0x01	; 1
     b0a:	50 e0       	ldi	r21, 0x00	; 0
     b0c:	c7 01       	movw	r24, r14
     b0e:	b6 01       	movw	r22, r12
     b10:	0e 94 21 01 	call	0x242	; 0x242 <_ZN12_GLOBAL__N_1L19floatRegisterByPairEfjj>
     b14:	71 c1       	rjmp	.+738    	; 0xdf8 <_ZN12_GLOBAL__N_1L14accessRegisterEjbi+0x472>
            }

            case 39:
                return eepromReadInt(EEPROM_SERIAL_NUMBER_ADDR);
     b16:	88 e4       	ldi	r24, 0x48	; 72
     b18:	90 e0       	ldi	r25, 0x00	; 0
     b1a:	0e 94 17 04 	call	0x82e	; 0x82e <_ZN12_GLOBAL__N_1L13eepromReadIntEj>
     b1e:	6c c1       	rjmp	.+728    	; 0xdf8 <_ZN12_GLOBAL__N_1L14accessRegisterEjbi+0x472>
                return static_cast<int16_t>(FIRMWARE_DEF);

            case 51 ... 66:
            {
                const uint8_t channel =
                    static_cast<uint8_t>(((registerAddr - 51U) / 2U) + 1U);
     b20:	fc 01       	movw	r30, r24
     b22:	f3 97       	sbiw	r30, 0x33	; 51
     b24:	f6 95       	lsr	r31
     b26:	e7 95       	ror	r30
     b28:	ef 5f       	subi	r30, 0xFF	; 255

                return floatRegisterByPair(maxCurrArray[channel], 51U, registerAddr);
     b2a:	f0 e0       	ldi	r31, 0x00	; 0
     b2c:	ee 0f       	add	r30, r30
     b2e:	ff 1f       	adc	r31, r31
     b30:	ee 0f       	add	r30, r30
     b32:	ff 1f       	adc	r31, r31
     b34:	eb 55       	subi	r30, 0x5B	; 91
     b36:	fe 4f       	sbci	r31, 0xFE	; 254
     b38:	c0 80       	ld	r12, Z
     b3a:	d1 80       	ldd	r13, Z+1	; 0x01
     b3c:	e2 80       	ldd	r14, Z+2	; 0x02
     b3e:	f3 80       	ldd	r15, Z+3	; 0x03
     b40:	9c 01       	movw	r18, r24
     b42:	43 e3       	ldi	r20, 0x33	; 51
     b44:	50 e0       	ldi	r21, 0x00	; 0
     b46:	c7 01       	movw	r24, r14
     b48:	b6 01       	movw	r22, r12
     b4a:	0e 94 21 01 	call	0x242	; 0x242 <_ZN12_GLOBAL__N_1L19floatRegisterByPairEfjj>
     b4e:	54 c1       	rjmp	.+680    	; 0xdf8 <_ZN12_GLOBAL__N_1L14accessRegisterEjbi+0x472>
            }

            case 90:
                if (writeReg)
     b50:	66 23       	and	r22, r22
     b52:	09 f4       	brne	.+2      	; 0xb56 <_ZN12_GLOBAL__N_1L14accessRegisterEjbi+0x1d0>
     b54:	43 c1       	rjmp	.+646    	; 0xddc <_ZN12_GLOBAL__N_1L14accessRegisterEjbi+0x456>
     b56:	c1 e0       	ldi	r28, 0x01	; 1
                {
                    for (uint8_t j = 1U; j <= NUM_CHANNELS; ++j)
     b58:	c9 30       	cpi	r28, 0x09	; 9
     b5a:	08 f0       	brcs	.+2      	; 0xb5e <_ZN12_GLOBAL__N_1L14accessRegisterEjbi+0x1d8>
     b5c:	42 c1       	rjmp	.+644    	; 0xde2 <_ZN12_GLOBAL__N_1L14accessRegisterEjbi+0x45c>
                    {
                        calibrToEEPROM(j);
     b5e:	8c 2f       	mov	r24, r28
     b60:	0e 94 c0 03 	call	0x780	; 0x780 <_ZN12_GLOBAL__N_1L14calibrToEEPROMEh>
            }

            case 90:
                if (writeReg)
                {
                    for (uint8_t j = 1U; j <= NUM_CHANNELS; ++j)
     b64:	cf 5f       	subi	r28, 0xFF	; 255
     b66:	f8 cf       	rjmp	.-16     	; 0xb58 <_ZN12_GLOBAL__N_1L14accessRegisterEjbi+0x1d2>
                }

                return 0;

            case 100:
                if (writeReg)
     b68:	66 23       	and	r22, r22
     b6a:	59 f0       	breq	.+22     	; 0xb82 <_ZN12_GLOBAL__N_1L14accessRegisterEjbi+0x1fc>
                {
                    slaveAddr = static_cast<uint8_t>(rawValue & 0x00FFU);
     b6c:	40 93 87 02 	sts	0x0287, r20	; 0x800287 <_ZN12_GLOBAL__N_1L9slaveAddrE>
                    eepromUpdateByte(EEPROM_MODBUS_ADDRESS_ADDR, slaveAddr);
     b70:	64 2f       	mov	r22, r20
     b72:	84 e6       	ldi	r24, 0x64	; 100
     b74:	90 e0       	ldi	r25, 0x00	; 0
     b76:	0e 94 ac 03 	call	0x758	; 0x758 <_ZN12_GLOBAL__N_1L16eepromUpdateByteEjh>
                    IGAS_mb_X.slave = slaveAddr;
     b7a:	80 91 87 02 	lds	r24, 0x0287	; 0x800287 <_ZN12_GLOBAL__N_1L9slaveAddrE>
     b7e:	80 93 90 02 	sts	0x0290, r24	; 0x800290 <_ZN12_GLOBAL__N_1L9IGAS_mb_XE>
                }

                return static_cast<int16_t>(slaveAddr);
     b82:	60 91 87 02 	lds	r22, 0x0287	; 0x800287 <_ZN12_GLOBAL__N_1L9slaveAddrE>
     b86:	86 2f       	mov	r24, r22
     b88:	90 e0       	ldi	r25, 0x00	; 0
     b8a:	36 c1       	rjmp	.+620    	; 0xdf8 <_ZN12_GLOBAL__N_1L14accessRegisterEjbi+0x472>

            case 101:
                if (writeReg && (pinCode != 0U))
     b8c:	66 23       	and	r22, r22
     b8e:	49 f0       	breq	.+18     	; 0xba2 <_ZN12_GLOBAL__N_1L14accessRegisterEjbi+0x21c>
     b90:	80 91 86 02 	lds	r24, 0x0286	; 0x800286 <_ZN12_GLOBAL__N_1L7pinCodeE>
     b94:	88 23       	and	r24, r24
     b96:	29 f0       	breq	.+10     	; 0xba2 <_ZN12_GLOBAL__N_1L14accessRegisterEjbi+0x21c>
                {
                    eepromUpdateFloatRegisterPart(
                        static_cast<uint16_t>(EEPROM_MOTOR_STOP_THRESHOLD_ADDR + 2U),
                        rawValue
                    );
     b98:	b9 01       	movw	r22, r18
     b9a:	80 e7       	ldi	r24, 0x70	; 112
     b9c:	90 e0       	ldi	r25, 0x00	; 0
     b9e:	0e 94 03 04 	call	0x806	; 0x806 <_ZN12_GLOBAL__N_1L29eepromUpdateFloatRegisterPartEjj>
                }

                return convertFloat(MOTOR_STOP_THRESHOLD, 0U);
     ba2:	60 91 01 01 	lds	r22, 0x0101	; 0x800101 <_ZN12_GLOBAL__N_1L20MOTOR_STOP_THRESHOLDE>
     ba6:	70 91 02 01 	lds	r23, 0x0102	; 0x800102 <_ZN12_GLOBAL__N_1L20MOTOR_STOP_THRESHOLDE+0x1>
     baa:	80 91 03 01 	lds	r24, 0x0103	; 0x800103 <_ZN12_GLOBAL__N_1L20MOTOR_STOP_THRESHOLDE+0x2>
     bae:	90 91 04 01 	lds	r25, 0x0104	; 0x800104 <_ZN12_GLOBAL__N_1L20MOTOR_STOP_THRESHOLDE+0x3>
     bb2:	40 e0       	ldi	r20, 0x00	; 0
     bb4:	0e 94 f9 00 	call	0x1f2	; 0x1f2 <_ZN12_GLOBAL__N_1L12convertFloatEfh>
     bb8:	1f c1       	rjmp	.+574    	; 0xdf8 <_ZN12_GLOBAL__N_1L14accessRegisterEjbi+0x472>

            case 102:
                if (writeReg && (pinCode != 0U))
     bba:	66 23       	and	r22, r22
     bbc:	c9 f0       	breq	.+50     	; 0xbf0 <_ZN12_GLOBAL__N_1L14accessRegisterEjbi+0x26a>
     bbe:	80 91 86 02 	lds	r24, 0x0286	; 0x800286 <_ZN12_GLOBAL__N_1L7pinCodeE>
     bc2:	88 23       	and	r24, r24
     bc4:	a9 f0       	breq	.+42     	; 0xbf0 <_ZN12_GLOBAL__N_1L14accessRegisterEjbi+0x26a>
                {
                    eepromUpdateFloatRegisterPart(
                        EEPROM_MOTOR_STOP_THRESHOLD_ADDR,
                        rawValue
                    );
     bc6:	b9 01       	movw	r22, r18
     bc8:	8e e6       	ldi	r24, 0x6E	; 110
     bca:	90 e0       	ldi	r25, 0x00	; 0
     bcc:	0e 94 03 04 	call	0x806	; 0x806 <_ZN12_GLOBAL__N_1L29eepromUpdateFloatRegisterPartEjj>

                    MOTOR_STOP_THRESHOLD =
                        eepromReadFloat(EEPROM_MOTOR_STOP_THRESHOLD_ADDR, 0.5F);
     bd0:	40 e0       	ldi	r20, 0x00	; 0
     bd2:	50 e0       	ldi	r21, 0x00	; 0
     bd4:	60 e0       	ldi	r22, 0x00	; 0
     bd6:	7f e3       	ldi	r23, 0x3F	; 63
     bd8:	8e e6       	ldi	r24, 0x6E	; 110
     bda:	90 e0       	ldi	r25, 0x00	; 0
     bdc:	0e 94 75 04 	call	0x8ea	; 0x8ea <_ZN12_GLOBAL__N_1L15eepromReadFloatEjf>
     be0:	60 93 01 01 	sts	0x0101, r22	; 0x800101 <_ZN12_GLOBAL__N_1L20MOTOR_STOP_THRESHOLDE>
     be4:	70 93 02 01 	sts	0x0102, r23	; 0x800102 <_ZN12_GLOBAL__N_1L20MOTOR_STOP_THRESHOLDE+0x1>
     be8:	80 93 03 01 	sts	0x0103, r24	; 0x800103 <_ZN12_GLOBAL__N_1L20MOTOR_STOP_THRESHOLDE+0x2>
     bec:	90 93 04 01 	sts	0x0104, r25	; 0x800104 <_ZN12_GLOBAL__N_1L20MOTOR_STOP_THRESHOLDE+0x3>
                }

                return convertFloat(MOTOR_STOP_THRESHOLD, 1U);
     bf0:	60 91 01 01 	lds	r22, 0x0101	; 0x800101 <_ZN12_GLOBAL__N_1L20MOTOR_STOP_THRESHOLDE>
     bf4:	70 91 02 01 	lds	r23, 0x0102	; 0x800102 <_ZN12_GLOBAL__N_1L20MOTOR_STOP_THRESHOLDE+0x1>
     bf8:	80 91 03 01 	lds	r24, 0x0103	; 0x800103 <_ZN12_GLOBAL__N_1L20MOTOR_STOP_THRESHOLDE+0x2>
     bfc:	90 91 04 01 	lds	r25, 0x0104	; 0x800104 <_ZN12_GLOBAL__N_1L20MOTOR_STOP_THRESHOLDE+0x3>
     c00:	41 e0       	ldi	r20, 0x01	; 1
     c02:	0e 94 f9 00 	call	0x1f2	; 0x1f2 <_ZN12_GLOBAL__N_1L12convertFloatEfh>
     c06:	f8 c0       	rjmp	.+496    	; 0xdf8 <_ZN12_GLOBAL__N_1L14accessRegisterEjbi+0x472>

            case 115:
                if (writeReg && (pinCode != 0U))
     c08:	66 23       	and	r22, r22
     c0a:	79 f0       	breq	.+30     	; 0xc2a <_ZN12_GLOBAL__N_1L14accessRegisterEjbi+0x2a4>
     c0c:	80 91 86 02 	lds	r24, 0x0286	; 0x800286 <_ZN12_GLOBAL__N_1L7pinCodeE>
     c10:	88 23       	and	r24, r24
     c12:	59 f0       	breq	.+22     	; 0xc2a <_ZN12_GLOBAL__N_1L14accessRegisterEjbi+0x2a4>
                {
                    AI_MODE = static_cast<uint8_t>(rawValue & 0x00FFU);
     c14:	40 93 00 01 	sts	0x0100, r20	; 0x800100 <__DATA_REGION_ORIGIN__>
                    eepromUpdateByte(EEPROM_AI_MODE_ADDR, AI_MODE);
     c18:	64 2f       	mov	r22, r20
     c1a:	83 e7       	ldi	r24, 0x73	; 115
     c1c:	90 e0       	ldi	r25, 0x00	; 0
     c1e:	0e 94 ac 03 	call	0x758	; 0x758 <_ZN12_GLOBAL__N_1L16eepromUpdateByteEjh>
                    lai_board::writeModeRegister(AI_MODE);
     c22:	80 91 00 01 	lds	r24, 0x0100	; 0x800100 <__DATA_REGION_ORIGIN__>
     c26:	0e 94 f5 09 	call	0x13ea	; 0x13ea <_ZN9lai_board17writeModeRegisterEh>
                }

                return static_cast<int16_t>(AI_MODE);
     c2a:	60 91 00 01 	lds	r22, 0x0100	; 0x800100 <__DATA_REGION_ORIGIN__>
     c2e:	86 2f       	mov	r24, r22
     c30:	90 e0       	ldi	r25, 0x00	; 0
     c32:	e2 c0       	rjmp	.+452    	; 0xdf8 <_ZN12_GLOBAL__N_1L14accessRegisterEjbi+0x472>

            case 201 ... 216:
                return sensorAnalogX[registerAddr - 200U];
     c34:	fc 01       	movw	r30, r24
     c36:	e8 5c       	subi	r30, 0xC8	; 200
     c38:	f1 09       	sbc	r31, r1
     c3a:	ee 0f       	add	r30, r30
     c3c:	ff 1f       	adc	r31, r31
     c3e:	e4 5d       	subi	r30, 0xD4	; 212
     c40:	fd 4f       	sbci	r31, 0xFD	; 253
     c42:	80 81       	ld	r24, Z
     c44:	91 81       	ldd	r25, Z+1	; 0x01
     c46:	d8 c0       	rjmp	.+432    	; 0xdf8 <_ZN12_GLOBAL__N_1L14accessRegisterEjbi+0x472>

            case 301 ... 316:
                return gasConcentrationY[registerAddr - 300U];
     c48:	fc 01       	movw	r30, r24
     c4a:	ec 52       	subi	r30, 0x2C	; 44
     c4c:	f1 40       	sbci	r31, 0x01	; 1
     c4e:	ee 0f       	add	r30, r30
     c50:	ff 1f       	adc	r31, r31
     c52:	e2 5b       	subi	r30, 0xB2	; 178
     c54:	fd 4f       	sbci	r31, 0xFD	; 253
     c56:	80 81       	ld	r24, Z
     c58:	91 81       	ldd	r25, Z+1	; 0x01
     c5a:	ce c0       	rjmp	.+412    	; 0xdf8 <_ZN12_GLOBAL__N_1L14accessRegisterEjbi+0x472>

            case 401 ... 416:
                if (writeReg)
     c5c:	66 23       	and	r22, r22
     c5e:	49 f0       	breq	.+18     	; 0xc72 <_ZN12_GLOBAL__N_1L14accessRegisterEjbi+0x2ec>
                {
                    sensorAnalogX[registerAddr - 400U] = value;
     c60:	fc 01       	movw	r30, r24
     c62:	e0 59       	subi	r30, 0x90	; 144
     c64:	f1 40       	sbci	r31, 0x01	; 1
     c66:	ee 0f       	add	r30, r30
     c68:	ff 1f       	adc	r31, r31
     c6a:	e4 5d       	subi	r30, 0xD4	; 212
     c6c:	fd 4f       	sbci	r31, 0xFD	; 253
     c6e:	40 83       	st	Z, r20
     c70:	51 83       	std	Z+1, r21	; 0x01
                }

                return sensorAnalogX[registerAddr - 400U];
     c72:	fc 01       	movw	r30, r24
     c74:	e0 59       	subi	r30, 0x90	; 144
     c76:	f1 40       	sbci	r31, 0x01	; 1
     c78:	ee 0f       	add	r30, r30
     c7a:	ff 1f       	adc	r31, r31
     c7c:	e4 5d       	subi	r30, 0xD4	; 212
     c7e:	fd 4f       	sbci	r31, 0xFD	; 253
     c80:	80 81       	ld	r24, Z
     c82:	91 81       	ldd	r25, Z+1	; 0x01
     c84:	b9 c0       	rjmp	.+370    	; 0xdf8 <_ZN12_GLOBAL__N_1L14accessRegisterEjbi+0x472>

            case 501 ... 516:
                if (writeReg)
     c86:	66 23       	and	r22, r22
     c88:	49 f0       	breq	.+18     	; 0xc9c <_ZN12_GLOBAL__N_1L14accessRegisterEjbi+0x316>
                {
                    gasConcentrationY[registerAddr - 500U] = value;
     c8a:	fc 01       	movw	r30, r24
     c8c:	e4 5f       	subi	r30, 0xF4	; 244
     c8e:	f1 40       	sbci	r31, 0x01	; 1
     c90:	ee 0f       	add	r30, r30
     c92:	ff 1f       	adc	r31, r31
     c94:	e2 5b       	subi	r30, 0xB2	; 178
     c96:	fd 4f       	sbci	r31, 0xFD	; 253
     c98:	40 83       	st	Z, r20
     c9a:	51 83       	std	Z+1, r21	; 0x01
                }

                return gasConcentrationY[registerAddr - 500U];
     c9c:	fc 01       	movw	r30, r24
     c9e:	e4 5f       	subi	r30, 0xF4	; 244
     ca0:	f1 40       	sbci	r31, 0x01	; 1
     ca2:	ee 0f       	add	r30, r30
     ca4:	ff 1f       	adc	r31, r31
     ca6:	e2 5b       	subi	r30, 0xB2	; 178
     ca8:	fd 4f       	sbci	r31, 0xFD	; 253
     caa:	80 81       	ld	r24, Z
     cac:	91 81       	ldd	r25, Z+1	; 0x01
     cae:	a4 c0       	rjmp	.+328    	; 0xdf8 <_ZN12_GLOBAL__N_1L14accessRegisterEjbi+0x472>

            case 594:
                if (writeReg && (rawValue == 1U))
     cb0:	66 23       	and	r22, r22
     cb2:	09 f4       	brne	.+2      	; 0xcb6 <_ZN12_GLOBAL__N_1L14accessRegisterEjbi+0x330>
     cb4:	99 c0       	rjmp	.+306    	; 0xde8 <_ZN12_GLOBAL__N_1L14accessRegisterEjbi+0x462>
     cb6:	21 30       	cpi	r18, 0x01	; 1
     cb8:	31 05       	cpc	r19, r1
     cba:	09 f0       	breq	.+2      	; 0xcbe <_ZN12_GLOBAL__N_1L14accessRegisterEjbi+0x338>
     cbc:	98 c0       	rjmp	.+304    	; 0xdee <_ZN12_GLOBAL__N_1L14accessRegisterEjbi+0x468>
                {
                    rebootRequested = 1U;
     cbe:	81 e0       	ldi	r24, 0x01	; 1
     cc0:	80 93 85 02 	sts	0x0285, r24	; 0x800285 <_ZN12_GLOBAL__N_1L15rebootRequestedE>
                }

                return 0;
     cc4:	80 e0       	ldi	r24, 0x00	; 0
     cc6:	90 e0       	ldi	r25, 0x00	; 0
     cc8:	97 c0       	rjmp	.+302    	; 0xdf8 <_ZN12_GLOBAL__N_1L14accessRegisterEjbi+0x472>

            case 600:
                return AIData[0];
     cca:	80 91 d2 01 	lds	r24, 0x01D2	; 0x8001d2 <_ZN12_GLOBAL__N_1L6AIDataE>
     cce:	90 91 d3 01 	lds	r25, 0x01D3	; 0x8001d3 <_ZN12_GLOBAL__N_1L6AIDataE+0x1>
     cd2:	92 c0       	rjmp	.+292    	; 0xdf8 <_ZN12_GLOBAL__N_1L14accessRegisterEjbi+0x472>

            case 601 ... 608:
                return AIData[609U - registerAddr];
     cd4:	e1 e6       	ldi	r30, 0x61	; 97
     cd6:	f2 e0       	ldi	r31, 0x02	; 2
     cd8:	e8 1b       	sub	r30, r24
     cda:	f9 0b       	sbc	r31, r25
     cdc:	ee 0f       	add	r30, r30
     cde:	ff 1f       	adc	r31, r31
     ce0:	ee 52       	subi	r30, 0x2E	; 46
     ce2:	fe 4f       	sbci	r31, 0xFE	; 254
     ce4:	80 81       	ld	r24, Z
     ce6:	91 81       	ldd	r25, Z+1	; 0x01
     ce8:	87 c0       	rjmp	.+270    	; 0xdf8 <_ZN12_GLOBAL__N_1L14accessRegisterEjbi+0x472>

            case 611 ... 618:
                return static_cast<int16_t>(channelActive[619U - registerAddr]);
     cea:	eb e6       	ldi	r30, 0x6B	; 107
     cec:	f2 e0       	ldi	r31, 0x02	; 2
     cee:	e8 1b       	sub	r30, r24
     cf0:	f9 0b       	sbc	r31, r25
     cf2:	e7 53       	subi	r30, 0x37	; 55
     cf4:	fe 4f       	sbci	r31, 0xFE	; 254
     cf6:	60 81       	ld	r22, Z
     cf8:	86 2f       	mov	r24, r22
     cfa:	90 e0       	ldi	r25, 0x00	; 0
     cfc:	7d c0       	rjmp	.+250    	; 0xdf8 <_ZN12_GLOBAL__N_1L14accessRegisterEjbi+0x472>

            case 621 ... 636:
            {
                const uint8_t channel =
                    static_cast<uint8_t>(((registerAddr - 621U) / 2U) + 1U);
     cfe:	fc 01       	movw	r30, r24
     d00:	ed 56       	subi	r30, 0x6D	; 109
     d02:	f2 40       	sbci	r31, 0x02	; 2
     d04:	f6 95       	lsr	r31
     d06:	e7 95       	ror	r30
     d08:	ef 5f       	subi	r30, 0xFF	; 255

                return floatRegisterByPair(buffer[channel], 621U, registerAddr);
     d0a:	f0 e0       	ldi	r31, 0x00	; 0
     d0c:	ee 0f       	add	r30, r30
     d0e:	ff 1f       	adc	r31, r31
     d10:	ee 0f       	add	r30, r30
     d12:	ff 1f       	adc	r31, r31
     d14:	ef 57       	subi	r30, 0x7F	; 127
     d16:	fe 4f       	sbci	r31, 0xFE	; 254
     d18:	c0 80       	ld	r12, Z
     d1a:	d1 80       	ldd	r13, Z+1	; 0x01
     d1c:	e2 80       	ldd	r14, Z+2	; 0x02
     d1e:	f3 80       	ldd	r15, Z+3	; 0x03
     d20:	9c 01       	movw	r18, r24
     d22:	4d e6       	ldi	r20, 0x6D	; 109
     d24:	52 e0       	ldi	r21, 0x02	; 2
     d26:	c7 01       	movw	r24, r14
     d28:	b6 01       	movw	r22, r12
     d2a:	0e 94 21 01 	call	0x242	; 0x242 <_ZN12_GLOBAL__N_1L19floatRegisterByPairEfjj>
     d2e:	64 c0       	rjmp	.+200    	; 0xdf8 <_ZN12_GLOBAL__N_1L14accessRegisterEjbi+0x472>
            }

            case 701 ... 708:
            {
                const uint8_t channel =
                    static_cast<uint8_t>(709U - registerAddr);
     d30:	e5 ec       	ldi	r30, 0xC5	; 197
     d32:	e8 1b       	sub	r30, r24

                return static_cast<int16_t>(100.0F * ADC_Converted[channel]);
     d34:	f0 e0       	ldi	r31, 0x00	; 0
     d36:	ee 0f       	add	r30, r30
     d38:	ff 1f       	adc	r31, r31
     d3a:	ee 0f       	add	r30, r30
     d3c:	ff 1f       	adc	r31, r31
     d3e:	e7 5c       	subi	r30, 0xC7	; 199
     d40:	fe 4f       	sbci	r31, 0xFE	; 254
     d42:	60 81       	ld	r22, Z
     d44:	71 81       	ldd	r23, Z+1	; 0x01
     d46:	82 81       	ldd	r24, Z+2	; 0x02
     d48:	93 81       	ldd	r25, Z+3	; 0x03
     d4a:	20 e0       	ldi	r18, 0x00	; 0
     d4c:	30 e0       	ldi	r19, 0x00	; 0
     d4e:	48 ec       	ldi	r20, 0xC8	; 200
     d50:	52 e4       	ldi	r21, 0x42	; 66
     d52:	0e 94 26 14 	call	0x284c	; 0x284c <__mulsf3>
     d56:	0e 94 5d 13 	call	0x26ba	; 0x26ba <__fixsfsi>
     d5a:	cb 01       	movw	r24, r22
     d5c:	4d c0       	rjmp	.+154    	; 0xdf8 <_ZN12_GLOBAL__N_1L14accessRegisterEjbi+0x472>
            }

            case 800:
                if (writeReg)
     d5e:	66 23       	and	r22, r22
     d60:	41 f0       	breq	.+16     	; 0xd72 <_ZN12_GLOBAL__N_1L14accessRegisterEjbi+0x3ec>
                {
                    pinCode = (rawValue == 2210U) ? 1U : 0U;
     d62:	22 3a       	cpi	r18, 0xA2	; 162
     d64:	38 40       	sbci	r19, 0x08	; 8
     d66:	11 f4       	brne	.+4      	; 0xd6c <_ZN12_GLOBAL__N_1L14accessRegisterEjbi+0x3e6>
     d68:	81 e0       	ldi	r24, 0x01	; 1
     d6a:	01 c0       	rjmp	.+2      	; 0xd6e <_ZN12_GLOBAL__N_1L14accessRegisterEjbi+0x3e8>
     d6c:	80 e0       	ldi	r24, 0x00	; 0
     d6e:	80 93 86 02 	sts	0x0286, r24	; 0x800286 <_ZN12_GLOBAL__N_1L7pinCodeE>
                }

                return static_cast<int16_t>(pinCode);
     d72:	60 91 86 02 	lds	r22, 0x0286	; 0x800286 <_ZN12_GLOBAL__N_1L7pinCodeE>
     d76:	86 2f       	mov	r24, r22
     d78:	90 e0       	ldi	r25, 0x00	; 0
     d7a:	3e c0       	rjmp	.+124    	; 0xdf8 <_ZN12_GLOBAL__N_1L14accessRegisterEjbi+0x472>

            case 900:
                if (writeReg)
     d7c:	66 23       	and	r22, r22
     d7e:	81 f0       	breq	.+32     	; 0xda0 <_ZN12_GLOBAL__N_1L14accessRegisterEjbi+0x41a>
                {
                    bootloaderRequestTime = currentTime;
     d80:	80 91 81 02 	lds	r24, 0x0281	; 0x800281 <_ZN12_GLOBAL__N_1L11currentTimeE>
     d84:	90 91 82 02 	lds	r25, 0x0282	; 0x800282 <_ZN12_GLOBAL__N_1L11currentTimeE+0x1>
     d88:	a0 91 83 02 	lds	r26, 0x0283	; 0x800283 <_ZN12_GLOBAL__N_1L11currentTimeE+0x2>
     d8c:	b0 91 84 02 	lds	r27, 0x0284	; 0x800284 <_ZN12_GLOBAL__N_1L11currentTimeE+0x3>
     d90:	80 93 71 02 	sts	0x0271, r24	; 0x800271 <_ZN12_GLOBAL__N_1L21bootloaderRequestTimeE>
     d94:	90 93 72 02 	sts	0x0272, r25	; 0x800272 <_ZN12_GLOBAL__N_1L21bootloaderRequestTimeE+0x1>
     d98:	a0 93 73 02 	sts	0x0273, r26	; 0x800273 <_ZN12_GLOBAL__N_1L21bootloaderRequestTimeE+0x2>
     d9c:	b0 93 74 02 	sts	0x0274, r27	; 0x800274 <_ZN12_GLOBAL__N_1L21bootloaderRequestTimeE+0x3>
                }

                return (bootloaderRequestTime != 0UL) ? 1 : 0;
     da0:	80 91 71 02 	lds	r24, 0x0271	; 0x800271 <_ZN12_GLOBAL__N_1L21bootloaderRequestTimeE>
     da4:	90 91 72 02 	lds	r25, 0x0272	; 0x800272 <_ZN12_GLOBAL__N_1L21bootloaderRequestTimeE+0x1>
     da8:	a0 91 73 02 	lds	r26, 0x0273	; 0x800273 <_ZN12_GLOBAL__N_1L21bootloaderRequestTimeE+0x2>
     dac:	b0 91 74 02 	lds	r27, 0x0274	; 0x800274 <_ZN12_GLOBAL__N_1L21bootloaderRequestTimeE+0x3>
     db0:	89 2b       	or	r24, r25
     db2:	8a 2b       	or	r24, r26
     db4:	8b 2b       	or	r24, r27
     db6:	f1 f0       	breq	.+60     	; 0xdf4 <_ZN12_GLOBAL__N_1L14accessRegisterEjbi+0x46e>
     db8:	81 e0       	ldi	r24, 0x01	; 1
     dba:	90 e0       	ldi	r25, 0x00	; 0
     dbc:	1d c0       	rjmp	.+58     	; 0xdf8 <_ZN12_GLOBAL__N_1L14accessRegisterEjbi+0x472>

            case 1000:
                return 4149;

            case 1001:
                return 1118;
     dbe:	8e e5       	ldi	r24, 0x5E	; 94
     dc0:	94 e0       	ldi	r25, 0x04	; 4
     dc2:	1a c0       	rjmp	.+52     	; 0xdf8 <_ZN12_GLOBAL__N_1L14accessRegisterEjbi+0x472>

            case 1100:
                return 2;
     dc4:	82 e0       	ldi	r24, 0x02	; 2
     dc6:	90 e0       	ldi	r25, 0x00	; 0
     dc8:	17 c0       	rjmp	.+46     	; 0xdf8 <_ZN12_GLOBAL__N_1L14accessRegisterEjbi+0x472>

            case 1101:
                return 171;
     dca:	8b ea       	ldi	r24, 0xAB	; 171
     dcc:	90 e0       	ldi	r25, 0x00	; 0
     dce:	14 c0       	rjmp	.+40     	; 0xdf8 <_ZN12_GLOBAL__N_1L14accessRegisterEjbi+0x472>

            default:
                return -1;
     dd0:	8f ef       	ldi	r24, 0xFF	; 255
     dd2:	9f ef       	ldi	r25, 0xFF	; 255
     dd4:	11 c0       	rjmp	.+34     	; 0xdf8 <_ZN12_GLOBAL__N_1L14accessRegisterEjbi+0x472>
                }

                return (bootloaderRequestTime != 0UL) ? 1 : 0;

            case 1000:
                return 4149;
     dd6:	85 e3       	ldi	r24, 0x35	; 53
     dd8:	90 e1       	ldi	r25, 0x10	; 16
     dda:	0e c0       	rjmp	.+28     	; 0xdf8 <_ZN12_GLOBAL__N_1L14accessRegisterEjbi+0x472>
                    {
                        calibrToEEPROM(j);
                    }
                }

                return 0;
     ddc:	80 e0       	ldi	r24, 0x00	; 0
     dde:	90 e0       	ldi	r25, 0x00	; 0
     de0:	0b c0       	rjmp	.+22     	; 0xdf8 <_ZN12_GLOBAL__N_1L14accessRegisterEjbi+0x472>
     de2:	80 e0       	ldi	r24, 0x00	; 0
     de4:	90 e0       	ldi	r25, 0x00	; 0
     de6:	08 c0       	rjmp	.+16     	; 0xdf8 <_ZN12_GLOBAL__N_1L14accessRegisterEjbi+0x472>
                if (writeReg && (rawValue == 1U))
                {
                    rebootRequested = 1U;
                }

                return 0;
     de8:	80 e0       	ldi	r24, 0x00	; 0
     dea:	90 e0       	ldi	r25, 0x00	; 0
     dec:	05 c0       	rjmp	.+10     	; 0xdf8 <_ZN12_GLOBAL__N_1L14accessRegisterEjbi+0x472>
     dee:	80 e0       	ldi	r24, 0x00	; 0
     df0:	90 e0       	ldi	r25, 0x00	; 0
     df2:	02 c0       	rjmp	.+4      	; 0xdf8 <_ZN12_GLOBAL__N_1L14accessRegisterEjbi+0x472>
                if (writeReg)
                {
                    bootloaderRequestTime = currentTime;
                }

                return (bootloaderRequestTime != 0UL) ? 1 : 0;
     df4:	80 e0       	ldi	r24, 0x00	; 0
     df6:	90 e0       	ldi	r25, 0x00	; 0
                return 171;

            default:
                return -1;
        }
    }
     df8:	cf 91       	pop	r28
     dfa:	ff 90       	pop	r15
     dfc:	ef 90       	pop	r14
     dfe:	df 90       	pop	r13
     e00:	cf 90       	pop	r12
     e02:	08 95       	ret

00000e04 <_ZN12_GLOBAL__N_113modbusProceedEPiiii>:
        int16_t* regs,
        int16_t startAddr,
        int16_t regCount,
        int16_t value
    )
    {
     e04:	7f 92       	push	r7
     e06:	8f 92       	push	r8
     e08:	9f 92       	push	r9
     e0a:	af 92       	push	r10
     e0c:	bf 92       	push	r11
     e0e:	cf 92       	push	r12
     e10:	df 92       	push	r13
     e12:	ef 92       	push	r14
     e14:	ff 92       	push	r15
     e16:	0f 93       	push	r16
     e18:	1f 93       	push	r17
     e1a:	cf 93       	push	r28
     e1c:	df 93       	push	r29
        if ((regs == 0) || (regCount <= 0))
     e1e:	00 97       	sbiw	r24, 0x00	; 0
     e20:	09 f4       	brne	.+2      	; 0xe24 <_ZN12_GLOBAL__N_113modbusProceedEPiiii+0x20>
     e22:	45 c0       	rjmp	.+138    	; 0xeae <_ZN12_GLOBAL__N_113modbusProceedEPiiii+0xaa>
     e24:	14 16       	cp	r1, r20
     e26:	15 06       	cpc	r1, r21
     e28:	0c f0       	brlt	.+2      	; 0xe2c <_ZN12_GLOBAL__N_113modbusProceedEPiiii+0x28>
     e2a:	41 c0       	rjmp	.+130    	; 0xeae <_ZN12_GLOBAL__N_113modbusProceedEPiiii+0xaa>
        {
            return;
        }

        const bool writeReg =
            ((IGAS_mb_X.func == static_cast<uint8_t>(FC_WRITE_REGS)) ||
     e2c:	e0 91 92 02 	lds	r30, 0x0292	; 0x800292 <_ZN12_GLOBAL__N_1L9IGAS_mb_XE+0x2>
     e30:	e0 31       	cpi	r30, 0x10	; 16
     e32:	29 f0       	breq	.+10     	; 0xe3e <_ZN12_GLOBAL__N_113modbusProceedEPiiii+0x3a>
     e34:	e6 30       	cpi	r30, 0x06	; 6
     e36:	31 f4       	brne	.+12     	; 0xe44 <_ZN12_GLOBAL__N_113modbusProceedEPiiii+0x40>
     e38:	77 24       	eor	r7, r7
     e3a:	73 94       	inc	r7
     e3c:	04 c0       	rjmp	.+8      	; 0xe46 <_ZN12_GLOBAL__N_113modbusProceedEPiiii+0x42>
     e3e:	77 24       	eor	r7, r7
     e40:	73 94       	inc	r7
     e42:	01 c0       	rjmp	.+2      	; 0xe46 <_ZN12_GLOBAL__N_113modbusProceedEPiiii+0x42>
     e44:	71 2c       	mov	r7, r1
     e46:	59 01       	movw	r10, r18
     e48:	8a 01       	movw	r16, r20
     e4a:	6b 01       	movw	r12, r22
     e4c:	7c 01       	movw	r14, r24
             (IGAS_mb_X.func == static_cast<uint8_t>(FC_WRITE_REG)));

        resetWDtimer = currentTime;
     e4e:	80 91 81 02 	lds	r24, 0x0281	; 0x800281 <_ZN12_GLOBAL__N_1L11currentTimeE>
     e52:	90 91 82 02 	lds	r25, 0x0282	; 0x800282 <_ZN12_GLOBAL__N_1L11currentTimeE+0x1>
     e56:	a0 91 83 02 	lds	r26, 0x0283	; 0x800283 <_ZN12_GLOBAL__N_1L11currentTimeE+0x2>
     e5a:	b0 91 84 02 	lds	r27, 0x0284	; 0x800284 <_ZN12_GLOBAL__N_1L11currentTimeE+0x3>
     e5e:	80 93 7d 02 	sts	0x027D, r24	; 0x80027d <_ZN12_GLOBAL__N_1L12resetWDtimerE>
     e62:	90 93 7e 02 	sts	0x027E, r25	; 0x80027e <_ZN12_GLOBAL__N_1L12resetWDtimerE+0x1>
     e66:	a0 93 7f 02 	sts	0x027F, r26	; 0x80027f <_ZN12_GLOBAL__N_1L12resetWDtimerE+0x2>
     e6a:	b0 93 80 02 	sts	0x0280, r27	; 0x800280 <_ZN12_GLOBAL__N_1L12resetWDtimerE+0x3>

        if (x2xState == 0U)
     e6e:	80 91 70 02 	lds	r24, 0x0270	; 0x800270 <_ZN12_GLOBAL__N_1L8x2xStateE>
     e72:	81 11       	cpse	r24, r1
     e74:	05 c0       	rjmp	.+10     	; 0xe80 <_ZN12_GLOBAL__N_113modbusProceedEPiiii+0x7c>
        {
            x2xState = 1U;
     e76:	81 e0       	ldi	r24, 0x01	; 1
     e78:	80 93 70 02 	sts	0x0270, r24	; 0x800270 <_ZN12_GLOBAL__N_1L8x2xStateE>
            lai_board::statusLedWrite(true);
     e7c:	0e 94 bf 09 	call	0x137e	; 0x137e <_ZN9lai_board14statusLedWriteEb>
        {
            return;
        }

        const bool writeReg =
            ((IGAS_mb_X.func == static_cast<uint8_t>(FC_WRITE_REGS)) ||
     e80:	81 2c       	mov	r8, r1
     e82:	91 2c       	mov	r9, r1
        {
            x2xState = 1U;
            lai_board::statusLedWrite(true);
        }

        for (int16_t i = 0; i < regCount; ++i)
     e84:	80 16       	cp	r8, r16
     e86:	91 06       	cpc	r9, r17
     e88:	94 f4       	brge	.+36     	; 0xeae <_ZN12_GLOBAL__N_113modbusProceedEPiiii+0xaa>
        {
            const uint16_t registerAddr =
                static_cast<uint16_t>(startAddr + i);

            regs[i] = accessRegister(registerAddr, writeReg, value);
     e8a:	e4 01       	movw	r28, r8
     e8c:	cc 0f       	add	r28, r28
     e8e:	dd 1f       	adc	r29, r29
     e90:	ce 0d       	add	r28, r14
     e92:	df 1d       	adc	r29, r15
     e94:	a5 01       	movw	r20, r10
     e96:	67 2d       	mov	r22, r7
     e98:	c4 01       	movw	r24, r8
     e9a:	8c 0d       	add	r24, r12
     e9c:	9d 1d       	adc	r25, r13
     e9e:	0e 94 c3 04 	call	0x986	; 0x986 <_ZN12_GLOBAL__N_1L14accessRegisterEjbi>
     ea2:	99 83       	std	Y+1, r25	; 0x01
     ea4:	88 83       	st	Y, r24
        {
            x2xState = 1U;
            lai_board::statusLedWrite(true);
        }

        for (int16_t i = 0; i < regCount; ++i)
     ea6:	8f ef       	ldi	r24, 0xFF	; 255
     ea8:	88 1a       	sub	r8, r24
     eaa:	98 0a       	sbc	r9, r24
     eac:	eb cf       	rjmp	.-42     	; 0xe84 <_ZN12_GLOBAL__N_113modbusProceedEPiiii+0x80>
            const uint16_t registerAddr =
                static_cast<uint16_t>(startAddr + i);

            regs[i] = accessRegister(registerAddr, writeReg, value);
        }
    }
     eae:	df 91       	pop	r29
     eb0:	cf 91       	pop	r28
     eb2:	1f 91       	pop	r17
     eb4:	0f 91       	pop	r16
     eb6:	ff 90       	pop	r15
     eb8:	ef 90       	pop	r14
     eba:	df 90       	pop	r13
     ebc:	cf 90       	pop	r12
     ebe:	bf 90       	pop	r11
     ec0:	af 90       	pop	r10
     ec2:	9f 90       	pop	r9
     ec4:	8f 90       	pop	r8
     ec6:	7f 90       	pop	r7
     ec8:	08 95       	ret

00000eca <_ZN12_GLOBAL__N_1L11loop500TaskEv>:

    /**
     * @brief ąÆčŗą┐ąŠą╗ąĮčÅąĄčé ąĘą░ą┤ą░čćčā ą║ąŠąĮčéčĆąŠą╗čÅ čüą▓čÅąĘąĖ ąĖ ąĖąĮą┤ąĖą║ą░čåąĖąĖ čüąŠčüčéąŠčÅąĮąĖčÅ.
     */
    static void loop500Task(void)
    {
     eca:	0f 93       	push	r16
     ecc:	1f 93       	push	r17
        if (static_cast<uint32_t>(currentTime - loop500StartTime) >= LOOP_500_MS)
     ece:	80 91 81 02 	lds	r24, 0x0281	; 0x800281 <_ZN12_GLOBAL__N_1L11currentTimeE>
     ed2:	90 91 82 02 	lds	r25, 0x0282	; 0x800282 <_ZN12_GLOBAL__N_1L11currentTimeE+0x1>
     ed6:	a0 91 83 02 	lds	r26, 0x0283	; 0x800283 <_ZN12_GLOBAL__N_1L11currentTimeE+0x2>
     eda:	b0 91 84 02 	lds	r27, 0x0284	; 0x800284 <_ZN12_GLOBAL__N_1L11currentTimeE+0x3>
     ede:	40 91 75 02 	lds	r20, 0x0275	; 0x800275 <_ZN12_GLOBAL__N_1L16loop500StartTimeE>
     ee2:	50 91 76 02 	lds	r21, 0x0276	; 0x800276 <_ZN12_GLOBAL__N_1L16loop500StartTimeE+0x1>
     ee6:	60 91 77 02 	lds	r22, 0x0277	; 0x800277 <_ZN12_GLOBAL__N_1L16loop500StartTimeE+0x2>
     eea:	70 91 78 02 	lds	r23, 0x0278	; 0x800278 <_ZN12_GLOBAL__N_1L16loop500StartTimeE+0x3>
     eee:	8c 01       	movw	r16, r24
     ef0:	9d 01       	movw	r18, r26
     ef2:	04 1b       	sub	r16, r20
     ef4:	15 0b       	sbc	r17, r21
     ef6:	26 0b       	sbc	r18, r22
     ef8:	37 0b       	sbc	r19, r23
     efa:	b9 01       	movw	r22, r18
     efc:	a8 01       	movw	r20, r16
     efe:	44 3f       	cpi	r20, 0xF4	; 244
     f00:	51 40       	sbci	r21, 0x01	; 1
     f02:	61 05       	cpc	r22, r1
     f04:	71 05       	cpc	r23, r1
     f06:	08 f1       	brcs	.+66     	; 0xf4a <_ZN12_GLOBAL__N_1L11loop500TaskEv+0x80>
        {
            loop500StartTime = currentTime;
     f08:	80 93 75 02 	sts	0x0275, r24	; 0x800275 <_ZN12_GLOBAL__N_1L16loop500StartTimeE>
     f0c:	90 93 76 02 	sts	0x0276, r25	; 0x800276 <_ZN12_GLOBAL__N_1L16loop500StartTimeE+0x1>
     f10:	a0 93 77 02 	sts	0x0277, r26	; 0x800277 <_ZN12_GLOBAL__N_1L16loop500StartTimeE+0x2>
     f14:	b0 93 78 02 	sts	0x0278, r27	; 0x800278 <_ZN12_GLOBAL__N_1L16loop500StartTimeE+0x3>

            if (static_cast<uint32_t>(currentTime - resetWDtimer) >
     f18:	40 91 7d 02 	lds	r20, 0x027D	; 0x80027d <_ZN12_GLOBAL__N_1L12resetWDtimerE>
     f1c:	50 91 7e 02 	lds	r21, 0x027E	; 0x80027e <_ZN12_GLOBAL__N_1L12resetWDtimerE+0x1>
     f20:	60 91 7f 02 	lds	r22, 0x027F	; 0x80027f <_ZN12_GLOBAL__N_1L12resetWDtimerE+0x2>
     f24:	70 91 80 02 	lds	r23, 0x0280	; 0x800280 <_ZN12_GLOBAL__N_1L12resetWDtimerE+0x3>
     f28:	84 1b       	sub	r24, r20
     f2a:	95 0b       	sbc	r25, r21
     f2c:	a6 0b       	sbc	r26, r22
     f2e:	b7 0b       	sbc	r27, r23
     f30:	81 31       	cpi	r24, 0x11	; 17
     f32:	97 42       	sbci	r25, 0x27	; 39
     f34:	a1 05       	cpc	r26, r1
     f36:	b1 05       	cpc	r27, r1
     f38:	10 f0       	brcs	.+4      	; 0xf3e <_ZN12_GLOBAL__N_1L11loop500TaskEv+0x74>
                CONNECTION_TIMEOUT_MS)
            {
                x2xState = 0U;
     f3a:	10 92 70 02 	sts	0x0270, r1	; 0x800270 <_ZN12_GLOBAL__N_1L8x2xStateE>
            }

            if (x2xState == 0U)
     f3e:	80 91 70 02 	lds	r24, 0x0270	; 0x800270 <_ZN12_GLOBAL__N_1L8x2xStateE>
     f42:	81 11       	cpse	r24, r1
     f44:	02 c0       	rjmp	.+4      	; 0xf4a <_ZN12_GLOBAL__N_1L11loop500TaskEv+0x80>
            {
                lai_board::statusLedToggle();
     f46:	0e 94 c9 09 	call	0x1392	; 0x1392 <_ZN9lai_board15statusLedToggleEv>
            }
        }
    }
     f4a:	1f 91       	pop	r17
     f4c:	0f 91       	pop	r16
     f4e:	08 95       	ret

00000f50 <_ZN12_GLOBAL__N_1L16handleConversionEh>:
     * @brief ą×ą▒čüą╗čāąČąĖą▓ą░ąĄčé ą░ą▓čéąŠą╝ą░čé čćčéąĄąĮąĖčÅ ąŠą┤ąĮąŠą│ąŠ ADS1115.
     *
     * @param chipID ąśą┤ąĄąĮčéąĖčäąĖą║ą░čéąŠčĆ ą┐čĆąĄąŠą▒čĆą░ąĘąŠą▓ą░čéąĄą╗čÅ.
     */
    static void handleConversion(uint8_t chipID)
    {
     f50:	ef 92       	push	r14
     f52:	ff 92       	push	r15
     f54:	0f 93       	push	r16
     f56:	1f 93       	push	r17
     f58:	cf 93       	push	r28
     f5a:	df 93       	push	r29
        ADS1115* ads = 0;

        switch (chipID)
     f5c:	88 23       	and	r24, r24
     f5e:	19 f0       	breq	.+6      	; 0xf66 <_ZN12_GLOBAL__N_1L16handleConversionEh+0x16>
     f60:	81 30       	cpi	r24, 0x01	; 1
     f62:	21 f0       	breq	.+8      	; 0xf6c <_ZN12_GLOBAL__N_1L16handleConversionEh+0x1c>
     f64:	fe c0       	rjmp	.+508    	; 0x1162 <_ZN12_GLOBAL__N_1L16handleConversionEh+0x212>
        {
            case AIC_1:
                ads = &ADS_1;
     f66:	2c e8       	ldi	r18, 0x8C	; 140
     f68:	32 e0       	ldi	r19, 0x02	; 2
     f6a:	02 c0       	rjmp	.+4      	; 0xf70 <_ZN12_GLOBAL__N_1L16handleConversionEh+0x20>
                break;

            case AIC_2:
                ads = &ADS_2;
     f6c:	28 e8       	ldi	r18, 0x88	; 136
     f6e:	32 e0       	ldi	r19, 0x02	; 2

            default:
                return;
        }

        switch (ADSstate[chipID])
     f70:	c8 2f       	mov	r28, r24
     f72:	d0 e0       	ldi	r29, 0x00	; 0
     f74:	fe 01       	movw	r30, r28
     f76:	ec 5d       	subi	r30, 0xDC	; 220
     f78:	fe 4f       	sbci	r31, 0xFE	; 254
     f7a:	90 81       	ld	r25, Z
     f7c:	92 30       	cpi	r25, 0x02	; 2
     f7e:	09 f4       	brne	.+2      	; 0xf82 <_ZN12_GLOBAL__N_1L16handleConversionEh+0x32>
     f80:	4d c0       	rjmp	.+154    	; 0x101c <_ZN12_GLOBAL__N_1L16handleConversionEh+0xcc>
     f82:	28 f4       	brcc	.+10     	; 0xf8e <_ZN12_GLOBAL__N_1L16handleConversionEh+0x3e>
     f84:	99 23       	and	r25, r25
     f86:	51 f0       	breq	.+20     	; 0xf9c <_ZN12_GLOBAL__N_1L16handleConversionEh+0x4c>
     f88:	91 30       	cpi	r25, 0x01	; 1
     f8a:	39 f1       	breq	.+78     	; 0xfda <_ZN12_GLOBAL__N_1L16handleConversionEh+0x8a>
     f8c:	e7 c0       	rjmp	.+462    	; 0x115c <_ZN12_GLOBAL__N_1L16handleConversionEh+0x20c>
     f8e:	93 30       	cpi	r25, 0x03	; 3
     f90:	09 f4       	brne	.+2      	; 0xf94 <_ZN12_GLOBAL__N_1L16handleConversionEh+0x44>
     f92:	4e c0       	rjmp	.+156    	; 0x1030 <_ZN12_GLOBAL__N_1L16handleConversionEh+0xe0>
     f94:	94 30       	cpi	r25, 0x04	; 4
     f96:	09 f4       	brne	.+2      	; 0xf9a <_ZN12_GLOBAL__N_1L16handleConversionEh+0x4a>
     f98:	70 c0       	rjmp	.+224    	; 0x107a <_ZN12_GLOBAL__N_1L16handleConversionEh+0x12a>
     f9a:	e0 c0       	rjmp	.+448    	; 0x115c <_ZN12_GLOBAL__N_1L16handleConversionEh+0x20c>
        {
            case requestAI:
                (void)ads->startSingleShot(AIX[chipID]);
     f9c:	fe 01       	movw	r30, r28
     f9e:	ee 5d       	subi	r30, 0xDE	; 222
     fa0:	fe 4f       	sbci	r31, 0xFE	; 254
     fa2:	60 81       	ld	r22, Z
     fa4:	c9 01       	movw	r24, r18
     fa6:	0e 94 aa 00 	call	0x154	; 0x154 <_ZN7ADS111515startSingleShotEh>
                startAItime[chipID] = currentTime;
     faa:	fe 01       	movw	r30, r28
     fac:	ee 0f       	add	r30, r30
     fae:	ff 1f       	adc	r31, r31
     fb0:	ee 0f       	add	r30, r30
     fb2:	ff 1f       	adc	r31, r31
     fb4:	e6 5e       	subi	r30, 0xE6	; 230
     fb6:	fe 4f       	sbci	r31, 0xFE	; 254
     fb8:	80 91 81 02 	lds	r24, 0x0281	; 0x800281 <_ZN12_GLOBAL__N_1L11currentTimeE>
     fbc:	90 91 82 02 	lds	r25, 0x0282	; 0x800282 <_ZN12_GLOBAL__N_1L11currentTimeE+0x1>
     fc0:	a0 91 83 02 	lds	r26, 0x0283	; 0x800283 <_ZN12_GLOBAL__N_1L11currentTimeE+0x2>
     fc4:	b0 91 84 02 	lds	r27, 0x0284	; 0x800284 <_ZN12_GLOBAL__N_1L11currentTimeE+0x3>
     fc8:	80 83       	st	Z, r24
     fca:	91 83       	std	Z+1, r25	; 0x01
     fcc:	a2 83       	std	Z+2, r26	; 0x02
     fce:	b3 83       	std	Z+3, r27	; 0x03
                ADSstate[chipID] = delayADC;
     fd0:	cc 5d       	subi	r28, 0xDC	; 220
     fd2:	de 4f       	sbci	r29, 0xFE	; 254
     fd4:	81 e0       	ldi	r24, 0x01	; 1
     fd6:	88 83       	st	Y, r24
                break;
     fd8:	c4 c0       	rjmp	.+392    	; 0x1162 <_ZN12_GLOBAL__N_1L16handleConversionEh+0x212>

            case delayADC:
                if (static_cast<uint32_t>(currentTime - startAItime[chipID]) >
     fda:	fe 01       	movw	r30, r28
     fdc:	ee 0f       	add	r30, r30
     fde:	ff 1f       	adc	r31, r31
     fe0:	ee 0f       	add	r30, r30
     fe2:	ff 1f       	adc	r31, r31
     fe4:	e6 5e       	subi	r30, 0xE6	; 230
     fe6:	fe 4f       	sbci	r31, 0xFE	; 254
     fe8:	40 81       	ld	r20, Z
     fea:	51 81       	ldd	r21, Z+1	; 0x01
     fec:	62 81       	ldd	r22, Z+2	; 0x02
     fee:	73 81       	ldd	r23, Z+3	; 0x03
     ff0:	80 91 81 02 	lds	r24, 0x0281	; 0x800281 <_ZN12_GLOBAL__N_1L11currentTimeE>
     ff4:	90 91 82 02 	lds	r25, 0x0282	; 0x800282 <_ZN12_GLOBAL__N_1L11currentTimeE+0x1>
     ff8:	a0 91 83 02 	lds	r26, 0x0283	; 0x800283 <_ZN12_GLOBAL__N_1L11currentTimeE+0x2>
     ffc:	b0 91 84 02 	lds	r27, 0x0284	; 0x800284 <_ZN12_GLOBAL__N_1L11currentTimeE+0x3>
    1000:	84 1b       	sub	r24, r20
    1002:	95 0b       	sbc	r25, r21
    1004:	a6 0b       	sbc	r26, r22
    1006:	b7 0b       	sbc	r27, r23
    1008:	03 97       	sbiw	r24, 0x03	; 3
    100a:	a1 05       	cpc	r26, r1
    100c:	b1 05       	cpc	r27, r1
    100e:	08 f4       	brcc	.+2      	; 0x1012 <_ZN12_GLOBAL__N_1L16handleConversionEh+0xc2>
    1010:	a8 c0       	rjmp	.+336    	; 0x1162 <_ZN12_GLOBAL__N_1L16handleConversionEh+0x212>
                    2UL)
                {
                    ADSstate[chipID] = checkAIReady;
    1012:	cc 5d       	subi	r28, 0xDC	; 220
    1014:	de 4f       	sbci	r29, 0xFE	; 254
    1016:	82 e0       	ldi	r24, 0x02	; 2
    1018:	88 83       	st	Y, r24
    101a:	a3 c0       	rjmp	.+326    	; 0x1162 <_ZN12_GLOBAL__N_1L16handleConversionEh+0x212>
                }
                break;

            case checkAIReady:
                if (!ads->isBusy())
    101c:	c9 01       	movw	r24, r18
    101e:	0e 94 c5 00 	call	0x18a	; 0x18a <_ZN7ADS11156isBusyEv>
    1022:	81 11       	cpse	r24, r1
    1024:	9e c0       	rjmp	.+316    	; 0x1162 <_ZN12_GLOBAL__N_1L16handleConversionEh+0x212>
                {
                    ADSstate[chipID] = getAIx;
    1026:	cc 5d       	subi	r28, 0xDC	; 220
    1028:	de 4f       	sbci	r29, 0xFE	; 254
    102a:	83 e0       	ldi	r24, 0x03	; 3
    102c:	88 83       	st	Y, r24
    102e:	99 c0       	rjmp	.+306    	; 0x1162 <_ZN12_GLOBAL__N_1L16handleConversionEh+0x212>
                }
                break;

            case getAIx:
                AIData[static_cast<uint8_t>(8U - 4U * chipID - AIX[chipID])] =
    1030:	ae 01       	movw	r20, r28
    1032:	4e 5d       	subi	r20, 0xDE	; 222
    1034:	5e 4f       	sbci	r21, 0xFE	; 254
    1036:	7a 01       	movw	r14, r20
    1038:	fa 01       	movw	r30, r20
    103a:	40 81       	ld	r20, Z
    103c:	98 2f       	mov	r25, r24
    103e:	91 95       	neg	r25
    1040:	09 2f       	mov	r16, r25
    1042:	00 0f       	add	r16, r16
    1044:	00 0f       	add	r16, r16
    1046:	04 1b       	sub	r16, r20
    1048:	08 5f       	subi	r16, 0xF8	; 248
    104a:	10 e0       	ldi	r17, 0x00	; 0
                    ads->getValue();
    104c:	c9 01       	movw	r24, r18
    104e:	0e 94 e0 00 	call	0x1c0	; 0x1c0 <_ZN7ADS11158getValueEv>
    1052:	00 0f       	add	r16, r16
    1054:	11 1f       	adc	r17, r17
    1056:	f8 01       	movw	r30, r16
    1058:	ee 52       	subi	r30, 0x2E	; 46
    105a:	fe 4f       	sbci	r31, 0xFE	; 254
    105c:	91 83       	std	Z+1, r25	; 0x01
    105e:	80 83       	st	Z, r24

                ++AIX[chipID];
    1060:	f7 01       	movw	r30, r14
    1062:	80 81       	ld	r24, Z
    1064:	8f 5f       	subi	r24, 0xFF	; 255
    1066:	80 83       	st	Z, r24

                if (AIX[chipID] > 3U)
    1068:	84 30       	cpi	r24, 0x04	; 4
    106a:	10 f0       	brcs	.+4      	; 0x1070 <_ZN12_GLOBAL__N_1L16handleConversionEh+0x120>
                {
                    AIX[chipID] = 0U;
    106c:	f7 01       	movw	r30, r14
    106e:	10 82       	st	Z, r1
                }

                ADSstate[chipID] = calcOutput;
    1070:	cc 5d       	subi	r28, 0xDC	; 220
    1072:	de 4f       	sbci	r29, 0xFE	; 254
    1074:	84 e0       	ldi	r24, 0x04	; 4
    1076:	88 83       	st	Y, r24
                break;
    1078:	74 c0       	rjmp	.+232    	; 0x1162 <_ZN12_GLOBAL__N_1L16handleConversionEh+0x212>

            default:
                return;
        }

        switch (ADSstate[chipID])
    107a:	41 e0       	ldi	r20, 0x01	; 1
            case calcOutput:
            {
                uint8_t ledBit = 0U;
                uint8_t mbBit = 0U;

                for (uint8_t i = 1U; i <= 4U; ++i)
    107c:	45 30       	cpi	r20, 0x05	; 5
    107e:	10 f5       	brcc	.+68     	; 0x10c4 <_ZN12_GLOBAL__N_1L16handleConversionEh+0x174>
                {
                    ledData[static_cast<uint8_t>(2U * i)] =
    1080:	84 2f       	mov	r24, r20
    1082:	88 0f       	add	r24, r24
    1084:	28 2f       	mov	r18, r24
    1086:	30 e0       	ldi	r19, 0x00	; 0
                        AIData[static_cast<uint8_t>(2U * i - 1U)];
    1088:	81 50       	subi	r24, 0x01	; 1
    108a:	90 e0       	ldi	r25, 0x00	; 0
    108c:	88 0f       	add	r24, r24
    108e:	99 1f       	adc	r25, r25
    1090:	fc 01       	movw	r30, r24
    1092:	ee 52       	subi	r30, 0x2E	; 46
    1094:	fe 4f       	sbci	r31, 0xFE	; 254
    1096:	60 81       	ld	r22, Z
    1098:	71 81       	ldd	r23, Z+1	; 0x01
    109a:	22 0f       	add	r18, r18
    109c:	33 1f       	adc	r19, r19
    109e:	f9 01       	movw	r30, r18
    10a0:	e9 5d       	subi	r30, 0xD9	; 217
    10a2:	fe 4f       	sbci	r31, 0xFE	; 254
    10a4:	71 83       	std	Z+1, r23	; 0x01
    10a6:	60 83       	st	Z, r22

                    ledData[static_cast<uint8_t>(2U * i - 1U)] =
                        AIData[static_cast<uint8_t>(2U * i)];
    10a8:	f9 01       	movw	r30, r18
    10aa:	ee 52       	subi	r30, 0x2E	; 46
    10ac:	fe 4f       	sbci	r31, 0xFE	; 254
    10ae:	20 81       	ld	r18, Z
    10b0:	31 81       	ldd	r19, Z+1	; 0x01
    10b2:	fc 01       	movw	r30, r24
    10b4:	e9 5d       	subi	r30, 0xD9	; 217
    10b6:	fe 4f       	sbci	r31, 0xFE	; 254
    10b8:	31 83       	std	Z+1, r19	; 0x01
    10ba:	20 83       	st	Z, r18
            case calcOutput:
            {
                uint8_t ledBit = 0U;
                uint8_t mbBit = 0U;

                for (uint8_t i = 1U; i <= 4U; ++i)
    10bc:	4f 5f       	subi	r20, 0xFF	; 255
    10be:	de cf       	rjmp	.-68     	; 0x107c <_ZN12_GLOBAL__N_1L16handleConversionEh+0x12c>
    10c0:	94 2f       	mov	r25, r20
    10c2:	03 c0       	rjmp	.+6      	; 0x10ca <_ZN12_GLOBAL__N_1L16handleConversionEh+0x17a>
    10c4:	90 e0       	ldi	r25, 0x00	; 0
    10c6:	10 e0       	ldi	r17, 0x00	; 0
    10c8:	80 e0       	ldi	r24, 0x00	; 0

                    ledData[static_cast<uint8_t>(2U * i - 1U)] =
                        AIData[static_cast<uint8_t>(2U * i)];
                }

                for (uint8_t i = 0U; i < NUM_CHANNELS; ++i)
    10ca:	98 30       	cpi	r25, 0x08	; 8
    10cc:	70 f5       	brcc	.+92     	; 0x112a <_ZN12_GLOBAL__N_1L16handleConversionEh+0x1da>
                {
                    if (ledData[static_cast<uint8_t>(i + 1U)] > 5000)
    10ce:	41 e0       	ldi	r20, 0x01	; 1
    10d0:	49 0f       	add	r20, r25
    10d2:	24 2f       	mov	r18, r20
    10d4:	30 e0       	ldi	r19, 0x00	; 0
    10d6:	f9 01       	movw	r30, r18
    10d8:	ee 0f       	add	r30, r30
    10da:	ff 1f       	adc	r31, r31
    10dc:	e9 5d       	subi	r30, 0xD9	; 217
    10de:	fe 4f       	sbci	r31, 0xFE	; 254
    10e0:	60 81       	ld	r22, Z
    10e2:	71 81       	ldd	r23, Z+1	; 0x01
    10e4:	69 38       	cpi	r22, 0x89	; 137
    10e6:	73 41       	sbci	r23, 0x13	; 19
    10e8:	4c f0       	brlt	.+18     	; 0x10fc <_ZN12_GLOBAL__N_1L16handleConversionEh+0x1ac>
                    {
                        ledBit = static_cast<uint8_t>(ledBit | (1U << i));
    10ea:	61 e0       	ldi	r22, 0x01	; 1
    10ec:	70 e0       	ldi	r23, 0x00	; 0
    10ee:	09 2e       	mov	r0, r25
    10f0:	02 c0       	rjmp	.+4      	; 0x10f6 <_ZN12_GLOBAL__N_1L16handleConversionEh+0x1a6>
    10f2:	66 0f       	add	r22, r22
    10f4:	77 1f       	adc	r23, r23
    10f6:	0a 94       	dec	r0
    10f8:	e2 f7       	brpl	.-8      	; 0x10f2 <_ZN12_GLOBAL__N_1L16handleConversionEh+0x1a2>
    10fa:	86 2b       	or	r24, r22
                    }

                    if (AIData[static_cast<uint8_t>(i + 1U)] > 5000)
    10fc:	22 0f       	add	r18, r18
    10fe:	33 1f       	adc	r19, r19
    1100:	f9 01       	movw	r30, r18
    1102:	ee 52       	subi	r30, 0x2E	; 46
    1104:	fe 4f       	sbci	r31, 0xFE	; 254
    1106:	20 81       	ld	r18, Z
    1108:	31 81       	ldd	r19, Z+1	; 0x01
    110a:	29 38       	cpi	r18, 0x89	; 137
    110c:	33 41       	sbci	r19, 0x13	; 19
    110e:	c4 f2       	brlt	.-80     	; 0x10c0 <_ZN12_GLOBAL__N_1L16handleConversionEh+0x170>
                    {
                        mbBit = static_cast<uint8_t>(mbBit | (1U << (7U - i)));
    1110:	67 e0       	ldi	r22, 0x07	; 7
    1112:	70 e0       	ldi	r23, 0x00	; 0
    1114:	69 1b       	sub	r22, r25
    1116:	71 09       	sbc	r23, r1
    1118:	21 e0       	ldi	r18, 0x01	; 1
    111a:	30 e0       	ldi	r19, 0x00	; 0
    111c:	02 c0       	rjmp	.+4      	; 0x1122 <_ZN12_GLOBAL__N_1L16handleConversionEh+0x1d2>
    111e:	22 0f       	add	r18, r18
    1120:	33 1f       	adc	r19, r19
    1122:	6a 95       	dec	r22
    1124:	e2 f7       	brpl	.-8      	; 0x111e <_ZN12_GLOBAL__N_1L16handleConversionEh+0x1ce>
    1126:	12 2b       	or	r17, r18
    1128:	cb cf       	rjmp	.-106    	; 0x10c0 <_ZN12_GLOBAL__N_1L16handleConversionEh+0x170>
                    }
                }

                if (AIBuffer != ledBit)
    112a:	90 91 26 01 	lds	r25, 0x0126	; 0x800126 <_ZN12_GLOBAL__N_1L8AIBufferE>
    112e:	89 17       	cp	r24, r25
    1130:	89 f0       	breq	.+34     	; 0x1154 <_ZN12_GLOBAL__N_1L16handleConversionEh+0x204>
                {
                    AIBuffer = ledBit;
    1132:	80 93 26 01 	sts	0x0126, r24	; 0x800126 <_ZN12_GLOBAL__N_1L8AIBufferE>

                    lai_board::writeLedRegister(AIBuffer);
    1136:	0e 94 ec 09 	call	0x13d8	; 0x13d8 <_ZN9lai_board16writeLedRegisterEh>

                    AIData[0] = static_cast<int16_t>(mbBit);
    113a:	81 2f       	mov	r24, r17
    113c:	90 e0       	ldi	r25, 0x00	; 0
    113e:	90 93 d3 01 	sts	0x01D3, r25	; 0x8001d3 <_ZN12_GLOBAL__N_1L6AIDataE+0x1>
    1142:	80 93 d2 01 	sts	0x01D2, r24	; 0x8001d2 <_ZN12_GLOBAL__N_1L6AIDataE>
                    ledData[0] = AIBuffer;
    1146:	80 91 26 01 	lds	r24, 0x0126	; 0x800126 <_ZN12_GLOBAL__N_1L8AIBufferE>
    114a:	90 e0       	ldi	r25, 0x00	; 0
    114c:	90 93 28 01 	sts	0x0128, r25	; 0x800128 <_ZN12_GLOBAL__N_1L7ledDataE+0x1>
    1150:	80 93 27 01 	sts	0x0127, r24	; 0x800127 <_ZN12_GLOBAL__N_1L7ledDataE>
                }

                ADSstate[chipID] = requestAI;
    1154:	cc 5d       	subi	r28, 0xDC	; 220
    1156:	de 4f       	sbci	r29, 0xFE	; 254
    1158:	18 82       	st	Y, r1
                break;
    115a:	03 c0       	rjmp	.+6      	; 0x1162 <_ZN12_GLOBAL__N_1L16handleConversionEh+0x212>
            }

            default:
                ADSstate[chipID] = requestAI;
    115c:	cc 5d       	subi	r28, 0xDC	; 220
    115e:	de 4f       	sbci	r29, 0xFE	; 254
    1160:	18 82       	st	Y, r1
                break;
        }
    }
    1162:	df 91       	pop	r29
    1164:	cf 91       	pop	r28
    1166:	1f 91       	pop	r17
    1168:	0f 91       	pop	r16
    116a:	ff 90       	pop	r15
    116c:	ef 90       	pop	r14
    116e:	08 95       	ret

00001170 <_Z41__static_initialization_and_destruction_0ii>:
    handleConversion(AIC_2);

    processMotorCurrent();

    wdt_reset();
    1170:	01 97       	sbiw	r24, 0x01	; 1
    1172:	89 f4       	brne	.+34     	; 0x1196 <_Z41__static_initialization_and_destruction_0ii+0x26>
    1174:	6f 3f       	cpi	r22, 0xFF	; 255
    1176:	7f 4f       	sbci	r23, 0xFF	; 255
    1178:	71 f4       	brne	.+28     	; 0x1196 <_Z41__static_initialization_and_destruction_0ii+0x26>
     * ---------------------------------------------------------------------- */

    /**
     * @brief ą×ą▒čŖąĄą║čé ą▓ąĄą┤ąŠą╝ąŠą│ąŠ čāčüčéčĆąŠą╣čüčéą▓ą░ Modbus RTU.
     */
    static IGAS_mb_485 IGAS_mb_X;
    117a:	80 e9       	ldi	r24, 0x90	; 144
    117c:	92 e0       	ldi	r25, 0x02	; 2
    117e:	0e 94 7f 0e 	call	0x1cfe	; 0x1cfe <_ZN11IGAS_mb_485C1Ev>

    /**
     * @brief ą¤ąĄčĆą▓čŗą╣ ą┐čĆąĄąŠą▒čĆą░ąĘąŠą▓ą░čéąĄą╗čī ADS1115.
     */
    static ADS1115 ADS_1(0x49U);
    1182:	69 e4       	ldi	r22, 0x49	; 73
    1184:	8c e8       	ldi	r24, 0x8C	; 140
    1186:	92 e0       	ldi	r25, 0x02	; 2
    1188:	0e 94 5f 00 	call	0xbe	; 0xbe <_ZN7ADS1115C1Eh>

    /**
     * @brief ąÆčéąŠčĆąŠą╣ ą┐čĆąĄąŠą▒čĆą░ąĘąŠą▓ą░čéąĄą╗čī ADS1115.
     */
    static ADS1115 ADS_2(0x48U);
    118c:	68 e4       	ldi	r22, 0x48	; 72
    118e:	88 e8       	ldi	r24, 0x88	; 136
    1190:	92 e0       	ldi	r25, 0x02	; 2
    1192:	0e 94 5f 00 	call	0xbe	; 0xbe <_ZN7ADS1115C1Eh>
    1196:	08 95       	ret

00001198 <_Z5setupv>:
/* ----------------------------------------------------------------------------
 * ą¤čāą▒ą╗ąĖčćąĮčŗąĄ čäčāąĮą║čåąĖąĖ ą┐čĆąĖą╗ąŠąČąĄąĮąĖčÅ
 * ------------------------------------------------------------------------- */

void setup(void)
{
    1198:	cf 93       	push	r28
    wdt_reset();
    119a:	a8 95       	wdr
    MCUSR &= static_cast<uint8_t>(~_BV(WDRF));
    119c:	84 b7       	in	r24, 0x34	; 52
    119e:	87 7f       	andi	r24, 0xF7	; 247
    11a0:	84 bf       	out	0x34, r24	; 52
    11a2:	0f b6       	in	r0, 0x3f	; 63
    11a4:	f8 94       	cli
    11a6:	a8 95       	wdr
    11a8:	80 91 60 00 	lds	r24, 0x0060	; 0x800060 <__TEXT_REGION_LENGTH__+0x7f8060>
    11ac:	88 61       	ori	r24, 0x18	; 24
    11ae:	80 93 60 00 	sts	0x0060, r24	; 0x800060 <__TEXT_REGION_LENGTH__+0x7f8060>
    11b2:	10 92 60 00 	sts	0x0060, r1	; 0x800060 <__TEXT_REGION_LENGTH__+0x7f8060>
    11b6:	0f be       	out	0x3f, r0	; 63
				: "n" (_SFR_MEM_ADDR(_WD_CONTROL_REG)),
				"r" ((uint8_t)(_BV(_WD_CHANGE_BIT) | _BV(WDE))),
				"r" ((uint8_t) ((value & 0x08 ? _WD_PS3_MASK : 0x00) |
						_BV(WDE) | (value & 0x07)) )
				: "r0"
		);
    11b8:	98 e2       	ldi	r25, 0x28	; 40
    11ba:	88 e1       	ldi	r24, 0x18	; 24
    11bc:	0f b6       	in	r0, 0x3f	; 63
    11be:	f8 94       	cli
    11c0:	a8 95       	wdr
    11c2:	80 93 60 00 	sts	0x0060, r24	; 0x800060 <__TEXT_REGION_LENGTH__+0x7f8060>
    11c6:	0f be       	out	0x3f, r0	; 63
    11c8:	90 93 60 00 	sts	0x0060, r25	; 0x800060 <__TEXT_REGION_LENGTH__+0x7f8060>
 *
 * @see hal::delay
 */
static inline void delay(uint32_t ms)
{
    hal::delay(ms);
    11cc:	64 e1       	ldi	r22, 0x14	; 20
    11ce:	70 e0       	ldi	r23, 0x00	; 0
    11d0:	80 e0       	ldi	r24, 0x00	; 0
    11d2:	90 e0       	ldi	r25, 0x00	; 0
    11d4:	0e 94 ca 0c 	call	0x1994	; 0x1994 <_ZN3hal5delayEm>
    wdt_disable();
    wdt_enable(WDTO_4S);

    delay(20UL);

    lai_board::initIo();
    11d8:	0e 94 93 09 	call	0x1326	; 0x1326 <_ZN9lai_board6initIoEv>

    slaveAddr = lai_board::readSlaveAddress();
    11dc:	0e 94 b1 09 	call	0x1362	; 0x1362 <_ZN9lai_board16readSlaveAddressEv>
    11e0:	80 93 87 02 	sts	0x0287, r24	; 0x800287 <_ZN12_GLOBAL__N_1L9slaveAddrE>

    if (slaveAddr == 0U)
    11e4:	81 11       	cpse	r24, r1
    11e6:	03 c0       	rjmp	.+6      	; 0x11ee <_Z5setupv+0x56>
    {
        slaveAddr = 1U;
    11e8:	81 e0       	ldi	r24, 0x01	; 1
    11ea:	80 93 87 02 	sts	0x0287, r24	; 0x800287 <_ZN12_GLOBAL__N_1L9slaveAddrE>
    11ee:	64 e1       	ldi	r22, 0x14	; 20
    11f0:	70 e0       	ldi	r23, 0x00	; 0
    11f2:	80 e0       	ldi	r24, 0x00	; 0
    11f4:	90 e0       	ldi	r25, 0x00	; 0
    11f6:	0e 94 ca 0c 	call	0x1994	; 0x1994 <_ZN3hal5delayEm>
    }

    delay(20UL);

    initCommunication();
    11fa:	0e 94 90 03 	call	0x720	; 0x720 <_ZN12_GLOBAL__N_1L17initCommunicationEv>
 *
 * @see hal::millis
 */
static inline uint32_t millis(void)
{
    return hal::millis();
    11fe:	0e 94 be 0c 	call	0x197c	; 0x197c <_ZN3hal6millisEv>

    currentTime = millis();
    1202:	60 93 81 02 	sts	0x0281, r22	; 0x800281 <_ZN12_GLOBAL__N_1L11currentTimeE>
    1206:	70 93 82 02 	sts	0x0282, r23	; 0x800282 <_ZN12_GLOBAL__N_1L11currentTimeE+0x1>
    120a:	80 93 83 02 	sts	0x0283, r24	; 0x800283 <_ZN12_GLOBAL__N_1L11currentTimeE+0x2>
    120e:	90 93 84 02 	sts	0x0284, r25	; 0x800284 <_ZN12_GLOBAL__N_1L11currentTimeE+0x3>
    resetWDtimer = currentTime;
    1212:	60 93 7d 02 	sts	0x027D, r22	; 0x80027d <_ZN12_GLOBAL__N_1L12resetWDtimerE>
    1216:	70 93 7e 02 	sts	0x027E, r23	; 0x80027e <_ZN12_GLOBAL__N_1L12resetWDtimerE+0x1>
    121a:	80 93 7f 02 	sts	0x027F, r24	; 0x80027f <_ZN12_GLOBAL__N_1L12resetWDtimerE+0x2>
    121e:	90 93 80 02 	sts	0x0280, r25	; 0x800280 <_ZN12_GLOBAL__N_1L12resetWDtimerE+0x3>
    loop100StartTime = currentTime;
    1222:	60 93 79 02 	sts	0x0279, r22	; 0x800279 <_ZN12_GLOBAL__N_1L16loop100StartTimeE>
    1226:	70 93 7a 02 	sts	0x027A, r23	; 0x80027a <_ZN12_GLOBAL__N_1L16loop100StartTimeE+0x1>
    122a:	80 93 7b 02 	sts	0x027B, r24	; 0x80027b <_ZN12_GLOBAL__N_1L16loop100StartTimeE+0x2>
    122e:	90 93 7c 02 	sts	0x027C, r25	; 0x80027c <_ZN12_GLOBAL__N_1L16loop100StartTimeE+0x3>
    loop500StartTime = currentTime;
    1232:	60 93 75 02 	sts	0x0275, r22	; 0x800275 <_ZN12_GLOBAL__N_1L16loop500StartTimeE>
    1236:	70 93 76 02 	sts	0x0276, r23	; 0x800276 <_ZN12_GLOBAL__N_1L16loop500StartTimeE+0x1>
    123a:	80 93 77 02 	sts	0x0277, r24	; 0x800277 <_ZN12_GLOBAL__N_1L16loop500StartTimeE+0x2>
    123e:	90 93 78 02 	sts	0x0278, r25	; 0x800278 <_ZN12_GLOBAL__N_1L16loop500StartTimeE+0x3>

    (void)ADS_1.begin();
    1242:	8c e8       	ldi	r24, 0x8C	; 140
    1244:	92 e0       	ldi	r25, 0x02	; 2
    1246:	0e 94 67 00 	call	0xce	; 0xce <_ZN7ADS11155beginEv>
    (void)ADS_2.begin();
    124a:	88 e8       	ldi	r24, 0x88	; 136
    124c:	92 e0       	ldi	r25, 0x02	; 2
    124e:	0e 94 67 00 	call	0xce	; 0xce <_ZN7ADS11155beginEv>

    ADS_1.setGain(0U);
    1252:	60 e0       	ldi	r22, 0x00	; 0
    1254:	8c e8       	ldi	r24, 0x8C	; 140
    1256:	92 e0       	ldi	r25, 0x02	; 2
    1258:	0e 94 6f 00 	call	0xde	; 0xde <_ZN7ADS11157setGainEh>
    ADS_2.setGain(0U);
    125c:	60 e0       	ldi	r22, 0x00	; 0
    125e:	88 e8       	ldi	r24, 0x88	; 136
    1260:	92 e0       	ldi	r25, 0x02	; 2
    1262:	0e 94 6f 00 	call	0xde	; 0xde <_ZN7ADS11157setGainEh>

    ADS_1.setMode(1U);
    1266:	61 e0       	ldi	r22, 0x01	; 1
    1268:	8c e8       	ldi	r24, 0x8C	; 140
    126a:	92 e0       	ldi	r25, 0x02	; 2
    126c:	0e 94 73 00 	call	0xe6	; 0xe6 <_ZN7ADS11157setModeEh>
    ADS_2.setMode(1U);
    1270:	61 e0       	ldi	r22, 0x01	; 1
    1272:	88 e8       	ldi	r24, 0x88	; 136
    1274:	92 e0       	ldi	r25, 0x02	; 2
    1276:	0e 94 73 00 	call	0xe6	; 0xe6 <_ZN7ADS11157setModeEh>

    ADS_1.setDataRate(7U);
    127a:	67 e0       	ldi	r22, 0x07	; 7
    127c:	8c e8       	ldi	r24, 0x8C	; 140
    127e:	92 e0       	ldi	r25, 0x02	; 2
    1280:	0e 94 7b 00 	call	0xf6	; 0xf6 <_ZN7ADS111511setDataRateEh>
    ADS_2.setDataRate(7U);
    1284:	67 e0       	ldi	r22, 0x07	; 7
    1286:	88 e8       	ldi	r24, 0x88	; 136
    1288:	92 e0       	ldi	r25, 0x02	; 2
    128a:	0e 94 7b 00 	call	0xf6	; 0xf6 <_ZN7ADS111511setDataRateEh>

    lai_board::writeLedRegister(0U);
    128e:	80 e0       	ldi	r24, 0x00	; 0
    1290:	0e 94 ec 09 	call	0x13d8	; 0x13d8 <_ZN9lai_board16writeLedRegisterEh>

    AI_MODE = eepromReadByte(EEPROM_AI_MODE_ADDR);
    1294:	83 e7       	ldi	r24, 0x73	; 115
    1296:	90 e0       	ldi	r25, 0x00	; 0
    1298:	0e 94 14 04 	call	0x828	; 0x828 <_ZN12_GLOBAL__N_1L14eepromReadByteEj>
    129c:	80 93 00 01 	sts	0x0100, r24	; 0x800100 <__DATA_REGION_ORIGIN__>
    lai_board::writeModeRegister(AI_MODE);
    12a0:	0e 94 f5 09 	call	0x13ea	; 0x13ea <_ZN9lai_board17writeModeRegisterEh>

    lai_board::setShiftEnable(false);
    12a4:	80 e0       	ldi	r24, 0x00	; 0
    12a6:	0e 94 e2 09 	call	0x13c4	; 0x13c4 <_ZN9lai_board14setShiftEnableEb>

    for (uint8_t i = 1U; i <= NUM_CHANNELS; ++i)
    12aa:	c1 e0       	ldi	r28, 0x01	; 1
    12ac:	c9 30       	cpi	r28, 0x09	; 9
    12ae:	28 f4       	brcc	.+10     	; 0x12ba <_Z5setupv+0x122>
    {
        calibrFromEEPROM(i);
    12b0:	8c 2f       	mov	r24, r28
    12b2:	0e 94 2e 04 	call	0x85c	; 0x85c <_ZN12_GLOBAL__N_1L16calibrFromEEPROMEh>
    AI_MODE = eepromReadByte(EEPROM_AI_MODE_ADDR);
    lai_board::writeModeRegister(AI_MODE);

    lai_board::setShiftEnable(false);

    for (uint8_t i = 1U; i <= NUM_CHANNELS; ++i)
    12b6:	cf 5f       	subi	r28, 0xFF	; 255
    12b8:	f9 cf       	rjmp	.-14     	; 0x12ac <_Z5setupv+0x114>
    {
        calibrFromEEPROM(i);
    }

    MOTOR_STOP_THRESHOLD =
        eepromReadFloat(EEPROM_MOTOR_STOP_THRESHOLD_ADDR, 0.5F);
    12ba:	40 e0       	ldi	r20, 0x00	; 0
    12bc:	50 e0       	ldi	r21, 0x00	; 0
    12be:	60 e0       	ldi	r22, 0x00	; 0
    12c0:	7f e3       	ldi	r23, 0x3F	; 63
    12c2:	8e e6       	ldi	r24, 0x6E	; 110
    12c4:	90 e0       	ldi	r25, 0x00	; 0
    12c6:	0e 94 75 04 	call	0x8ea	; 0x8ea <_ZN12_GLOBAL__N_1L15eepromReadFloatEjf>
    12ca:	60 93 01 01 	sts	0x0101, r22	; 0x800101 <_ZN12_GLOBAL__N_1L20MOTOR_STOP_THRESHOLDE>
    12ce:	70 93 02 01 	sts	0x0102, r23	; 0x800102 <_ZN12_GLOBAL__N_1L20MOTOR_STOP_THRESHOLDE+0x1>
    12d2:	80 93 03 01 	sts	0x0103, r24	; 0x800103 <_ZN12_GLOBAL__N_1L20MOTOR_STOP_THRESHOLDE+0x2>
    12d6:	90 93 04 01 	sts	0x0104, r25	; 0x800104 <_ZN12_GLOBAL__N_1L20MOTOR_STOP_THRESHOLDE+0x3>

    wdt_reset();
    12da:	a8 95       	wdr
}
    12dc:	cf 91       	pop	r28
    12de:	08 95       	ret

000012e0 <_Z4loopv>:
    12e0:	0e 94 be 0c 	call	0x197c	; 0x197c <_ZN3hal6millisEv>

void loop(void)
{
    currentTime = millis();
    12e4:	60 93 81 02 	sts	0x0281, r22	; 0x800281 <_ZN12_GLOBAL__N_1L11currentTimeE>
    12e8:	70 93 82 02 	sts	0x0282, r23	; 0x800282 <_ZN12_GLOBAL__N_1L11currentTimeE+0x1>
    12ec:	80 93 83 02 	sts	0x0283, r24	; 0x800283 <_ZN12_GLOBAL__N_1L11currentTimeE+0x2>
    12f0:	90 93 84 02 	sts	0x0284, r25	; 0x800284 <_ZN12_GLOBAL__N_1L11currentTimeE+0x3>

    loop100Task();
    12f4:	0e 94 32 02 	call	0x464	; 0x464 <_ZN12_GLOBAL__N_1L11loop100TaskEv>
    loop500Task();
    12f8:	0e 94 65 07 	call	0xeca	; 0xeca <_ZN12_GLOBAL__N_1L11loop500TaskEv>

    (void)IGAS_mb_X.update();
    12fc:	80 e9       	ldi	r24, 0x90	; 144
    12fe:	92 e0       	ldi	r25, 0x02	; 2
    1300:	0e 94 bb 11 	call	0x2376	; 0x2376 <_ZN11IGAS_mb_4856updateEv>

    handleConversion(AIC_1);
    1304:	80 e0       	ldi	r24, 0x00	; 0
    1306:	0e 94 a8 07 	call	0xf50	; 0xf50 <_ZN12_GLOBAL__N_1L16handleConversionEh>
    handleConversion(AIC_2);
    130a:	81 e0       	ldi	r24, 0x01	; 1
    130c:	0e 94 a8 07 	call	0xf50	; 0xf50 <_ZN12_GLOBAL__N_1L16handleConversionEh>

    processMotorCurrent();
    1310:	0e 94 7f 02 	call	0x4fe	; 0x4fe <_ZN12_GLOBAL__N_1L19processMotorCurrentEv>

    wdt_reset();
    1314:	a8 95       	wdr
    1316:	08 95       	ret

00001318 <_GLOBAL__sub_I__Z5setupv>:
    1318:	6f ef       	ldi	r22, 0xFF	; 255
    131a:	7f ef       	ldi	r23, 0xFF	; 255
    131c:	81 e0       	ldi	r24, 0x01	; 1
    131e:	90 e0       	ldi	r25, 0x00	; 0
    1320:	0e 94 b8 08 	call	0x1170	; 0x1170 <_Z41__static_initialization_and_destruction_0ii>
    1324:	08 95       	ret

00001326 <_ZN9lai_board6initIoEv>:
        DDRD |= static_cast<uint8_t>(
            RS485_DE_MASK |
            LED_SS_MASK |
            MODE_SS_MASK |
            SHIFT_ENABLE_MASK
        );
    1326:	8a b1       	in	r24, 0x0a	; 10
    1328:	8c 63       	ori	r24, 0x3C	; 60
    132a:	8a b9       	out	0x0a, r24	; 10
     * @param port ąĀąĄą│ąĖčüčéčĆ PORTx.
     * @param mask ą£ą░čüą║ą░ čüą▒čĆą░čüčŗą▓ą░ąĄą╝čŗčģ ą▒ąĖčéąŠą▓.
     */
    static inline void clearPortBits(volatile uint8_t& port, uint8_t mask)
    {
        port &= static_cast<uint8_t>(~mask);
    132c:	8b b1       	in	r24, 0x0b	; 11
    132e:	8b 7f       	andi	r24, 0xFB	; 251
    1330:	8b b9       	out	0x0b, r24	; 11
     * @param port ąĀąĄą│ąĖčüčéčĆ PORTx.
     * @param mask ą£ą░čüą║ą░ čāčüčéą░ąĮą░ą▓ą╗ąĖą▓ą░ąĄą╝čŗčģ ą▒ąĖčéąŠą▓.
     */
    static inline void setPortBits(volatile uint8_t& port, uint8_t mask)
    {
        port |= mask;
    1332:	8b b1       	in	r24, 0x0b	; 11
    1334:	88 63       	ori	r24, 0x38	; 56
    1336:	8b b9       	out	0x0b, r24	; 11
        setPortBits(PORTD, static_cast<uint8_t>(LED_SS_MASK | MODE_SS_MASK | SHIFT_ENABLE_MASK));

        /*
         * PD6, PD7 ŌĆö ą░ą┤čĆąĄčüąĮčŗąĄ ą▓čģąŠą┤čŗ čü ą▓ąĮčāčéčĆąĄąĮąĮąĄą╣ ą┐ąŠą┤čéčÅąČą║ąŠą╣.
         */
        DDRD &= static_cast<uint8_t>(~ADDR_D_MASK);
    1338:	8a b1       	in	r24, 0x0a	; 10
    133a:	8f 73       	andi	r24, 0x3F	; 63
    133c:	8a b9       	out	0x0a, r24	; 10
     * @param port ąĀąĄą│ąĖčüčéčĆ PORTx.
     * @param mask ą£ą░čüą║ą░ čāčüčéą░ąĮą░ą▓ą╗ąĖą▓ą░ąĄą╝čŗčģ ą▒ąĖčéąŠą▓.
     */
    static inline void setPortBits(volatile uint8_t& port, uint8_t mask)
    {
        port |= mask;
    133e:	8b b1       	in	r24, 0x0b	; 11
    1340:	80 6c       	ori	r24, 0xC0	; 192
    1342:	8b b9       	out	0x0b, r24	; 11

        /*
         * PB0, PB1, PB2 ŌĆö ą░ą┤čĆąĄčüąĮčŗąĄ ą▓čģąŠą┤čŗ čü ą▓ąĮčāčéčĆąĄąĮąĮąĄą╣ ą┐ąŠą┤čéčÅąČą║ąŠą╣.
         * PB2 ą┐ąŠčüą╗ąĄ čćčéąĄąĮąĖčÅ ą░ą┐ą┐ą░čĆą░čéąĮąŠą│ąŠ ą░ą┤čĆąĄčüą░ ąĖčüą┐ąŠą╗čīąĘčāąĄčéčüčÅ ą║ą░ą║ ą╗ąĖąĮąĖčÅ SPI SS.
         */
        DDRB &= static_cast<uint8_t>(~ADDR_B_MASK);
    1344:	84 b1       	in	r24, 0x04	; 4
    1346:	88 7f       	andi	r24, 0xF8	; 248
    1348:	84 b9       	out	0x04, r24	; 4
     * @param port ąĀąĄą│ąĖčüčéčĆ PORTx.
     * @param mask ą£ą░čüą║ą░ čāčüčéą░ąĮą░ą▓ą╗ąĖą▓ą░ąĄą╝čŗčģ ą▒ąĖčéąŠą▓.
     */
    static inline void setPortBits(volatile uint8_t& port, uint8_t mask)
    {
        port |= mask;
    134a:	85 b1       	in	r24, 0x05	; 5
    134c:	87 60       	ori	r24, 0x07	; 7
    134e:	85 b9       	out	0x05, r24	; 5
        setPortBits(PORTB, ADDR_B_MASK);

        /*
         * PC0 ŌĆö čüą▓ąĄčéąŠą┤ąĖąŠą┤ čüąŠčüčéąŠčÅąĮąĖčÅ čüą▓čÅąĘąĖ.
         */
        DDRC |= STATUS_LED_MASK;
    1350:	87 b1       	in	r24, 0x07	; 7
    1352:	81 60       	ori	r24, 0x01	; 1
    1354:	87 b9       	out	0x07, r24	; 7
     * @param port ąĀąĄą│ąĖčüčéčĆ PORTx.
     * @param mask ą£ą░čüą║ą░ čüą▒čĆą░čüčŗą▓ą░ąĄą╝čŗčģ ą▒ąĖčéąŠą▓.
     */
    static inline void clearPortBits(volatile uint8_t& port, uint8_t mask)
    {
        port &= static_cast<uint8_t>(~mask);
    1356:	88 b1       	in	r24, 0x08	; 8
    1358:	8e 7f       	andi	r24, 0xFE	; 254
    135a:	88 b9       	out	0x08, r24	; 8
         * PC0 ŌĆö čüą▓ąĄčéąŠą┤ąĖąŠą┤ čüąŠčüčéąŠčÅąĮąĖčÅ čüą▓čÅąĘąĖ.
         */
        DDRC |= STATUS_LED_MASK;
        clearPortBits(PORTC, STATUS_LED_MASK);

        s_rs485TransmitMode = 0U;
    135c:	10 92 9f 02 	sts	0x029F, r1	; 0x80029f <_ZN12_GLOBAL__N_1L19s_rs485TransmitModeE>
    1360:	08 95       	ret

00001362 <_ZN9lai_board16readSlaveAddressEv>:

    uint8_t readSlaveAddress(void)
    {
        uint8_t address = 0U;

        if (isPinLow(PIND, _BV(PD6)))
    1362:	4e 9b       	sbis	0x09, 6	; 9
    1364:	02 c0       	rjmp	.+4      	; 0x136a <_ZN9lai_board16readSlaveAddressEv+0x8>
        s_rs485TransmitMode = 0U;
    }

    uint8_t readSlaveAddress(void)
    {
        uint8_t address = 0U;
    1366:	80 e0       	ldi	r24, 0x00	; 0
    1368:	01 c0       	rjmp	.+2      	; 0x136c <_ZN9lai_board16readSlaveAddressEv+0xa>

        if (isPinLow(PIND, _BV(PD6)))
        {
            address |= static_cast<uint8_t>(1U << 0);
    136a:	81 e0       	ldi	r24, 0x01	; 1
        }

        if (isPinLow(PIND, _BV(PD7)))
    136c:	4f 9b       	sbis	0x09, 7	; 9
        {
            address |= static_cast<uint8_t>(1U << 1);
    136e:	82 60       	ori	r24, 0x02	; 2
        }

        if (isPinLow(PINB, _BV(PB0)))
    1370:	18 9b       	sbis	0x03, 0	; 3
        {
            address |= static_cast<uint8_t>(1U << 2);
    1372:	84 60       	ori	r24, 0x04	; 4
        }

        if (isPinLow(PINB, _BV(PB1)))
    1374:	19 9b       	sbis	0x03, 1	; 3
        {
            address |= static_cast<uint8_t>(1U << 3);
    1376:	88 60       	ori	r24, 0x08	; 8
        }

        if (isPinLow(PINB, _BV(PB2)))
    1378:	1a 9b       	sbis	0x03, 2	; 3
        {
            address |= static_cast<uint8_t>(1U << 4);
    137a:	80 61       	ori	r24, 0x10	; 16
        }

        return address;
    }
    137c:	08 95       	ret

0000137e <_ZN9lai_board14statusLedWriteEb>:

    void statusLedWrite(bool state)
    {
        if (state)
    137e:	88 23       	and	r24, r24
    1380:	21 f0       	breq	.+8      	; 0x138a <_ZN9lai_board14statusLedWriteEb+0xc>
     * @param port ąĀąĄą│ąĖčüčéčĆ PORTx.
     * @param mask ą£ą░čüą║ą░ čāčüčéą░ąĮą░ą▓ą╗ąĖą▓ą░ąĄą╝čŗčģ ą▒ąĖčéąŠą▓.
     */
    static inline void setPortBits(volatile uint8_t& port, uint8_t mask)
    {
        port |= mask;
    1382:	88 b1       	in	r24, 0x08	; 8
    1384:	81 60       	ori	r24, 0x01	; 1
    1386:	88 b9       	out	0x08, r24	; 8
    1388:	08 95       	ret
     * @param port ąĀąĄą│ąĖčüčéčĆ PORTx.
     * @param mask ą£ą░čüą║ą░ čüą▒čĆą░čüčŗą▓ą░ąĄą╝čŗčģ ą▒ąĖčéąŠą▓.
     */
    static inline void clearPortBits(volatile uint8_t& port, uint8_t mask)
    {
        port &= static_cast<uint8_t>(~mask);
    138a:	88 b1       	in	r24, 0x08	; 8
    138c:	8e 7f       	andi	r24, 0xFE	; 254
    138e:	88 b9       	out	0x08, r24	; 8
    1390:	08 95       	ret

00001392 <_ZN9lai_board15statusLedToggleEv>:
        }
    }

    void statusLedToggle(void)
    {
        PORTC ^= STATUS_LED_MASK;
    1392:	98 b1       	in	r25, 0x08	; 8
    1394:	81 e0       	ldi	r24, 0x01	; 1
    1396:	89 27       	eor	r24, r25
    1398:	88 b9       	out	0x08, r24	; 8
    139a:	08 95       	ret

0000139c <_ZN9lai_board17rs485TransmitModeEv>:
     * @param port ąĀąĄą│ąĖčüčéčĆ PORTx.
     * @param mask ą£ą░čüą║ą░ čāčüčéą░ąĮą░ą▓ą╗ąĖą▓ą░ąĄą╝čŗčģ ą▒ąĖčéąŠą▓.
     */
    static inline void setPortBits(volatile uint8_t& port, uint8_t mask)
    {
        port |= mask;
    139c:	8b b1       	in	r24, 0x0b	; 11
    139e:	84 60       	ori	r24, 0x04	; 4
    13a0:	8b b9       	out	0x0b, r24	; 11
    }

    void rs485TransmitMode(void)
    {
        setPortBits(PORTD, RS485_DE_MASK);
        s_rs485TransmitMode = 1U;
    13a2:	81 e0       	ldi	r24, 0x01	; 1
    13a4:	80 93 9f 02 	sts	0x029F, r24	; 0x80029f <_ZN12_GLOBAL__N_1L19s_rs485TransmitModeE>
    13a8:	08 95       	ret

000013aa <_ZN9lai_board16rs485ReceiveModeEv>:
     * @param port ąĀąĄą│ąĖčüčéčĆ PORTx.
     * @param mask ą£ą░čüą║ą░ čüą▒čĆą░čüčŗą▓ą░ąĄą╝čŗčģ ą▒ąĖčéąŠą▓.
     */
    static inline void clearPortBits(volatile uint8_t& port, uint8_t mask)
    {
        port &= static_cast<uint8_t>(~mask);
    13aa:	8b b1       	in	r24, 0x0b	; 11
    13ac:	8b 7f       	andi	r24, 0xFB	; 251
    13ae:	8b b9       	out	0x0b, r24	; 11
    }

    void rs485ReceiveMode(void)
    {
        clearPortBits(PORTD, RS485_DE_MASK);
        s_rs485TransmitMode = 0U;
    13b0:	10 92 9f 02 	sts	0x029F, r1	; 0x80029f <_ZN12_GLOBAL__N_1L19s_rs485TransmitModeE>
    13b4:	08 95       	ret

000013b6 <_ZN9lai_board19rs485IsTransmitModeEv>:
    }

    bool rs485IsTransmitMode(void)
    {
        return (s_rs485TransmitMode != 0U);
    13b6:	90 91 9f 02 	lds	r25, 0x029F	; 0x80029f <_ZN12_GLOBAL__N_1L19s_rs485TransmitModeE>
    13ba:	81 e0       	ldi	r24, 0x01	; 1
    13bc:	91 11       	cpse	r25, r1
    13be:	01 c0       	rjmp	.+2      	; 0x13c2 <_ZN9lai_board19rs485IsTransmitModeEv+0xc>
    13c0:	80 e0       	ldi	r24, 0x00	; 0
    }
    13c2:	08 95       	ret

000013c4 <_ZN9lai_board14setShiftEnableEb>:

    void setShiftEnable(bool enabled)
    {
        if (enabled)
    13c4:	88 23       	and	r24, r24
    13c6:	21 f0       	breq	.+8      	; 0x13d0 <_ZN9lai_board14setShiftEnableEb+0xc>
     * @param port ąĀąĄą│ąĖčüčéčĆ PORTx.
     * @param mask ą£ą░čüą║ą░ čāčüčéą░ąĮą░ą▓ą╗ąĖą▓ą░ąĄą╝čŗčģ ą▒ąĖčéąŠą▓.
     */
    static inline void setPortBits(volatile uint8_t& port, uint8_t mask)
    {
        port |= mask;
    13c8:	8b b1       	in	r24, 0x0b	; 11
    13ca:	80 62       	ori	r24, 0x20	; 32
    13cc:	8b b9       	out	0x0b, r24	; 11
    13ce:	08 95       	ret
     * @param port ąĀąĄą│ąĖčüčéčĆ PORTx.
     * @param mask ą£ą░čüą║ą░ čüą▒čĆą░čüčŗą▓ą░ąĄą╝čŗčģ ą▒ąĖčéąŠą▓.
     */
    static inline void clearPortBits(volatile uint8_t& port, uint8_t mask)
    {
        port &= static_cast<uint8_t>(~mask);
    13d0:	8b b1       	in	r24, 0x0b	; 11
    13d2:	8f 7d       	andi	r24, 0xDF	; 223
    13d4:	8b b9       	out	0x0b, r24	; 11
    13d6:	08 95       	ret

000013d8 <_ZN9lai_board16writeLedRegisterEh>:
    13d8:	9b b1       	in	r25, 0x0b	; 11
    13da:	97 7f       	andi	r25, 0xF7	; 247
    13dc:	9b b9       	out	0x0b, r25	; 11
    }

    void writeLedRegister(uint8_t value)
    {
        selectLedRegister();
        (void)hal::spi_txrx(value);
    13de:	0e 94 a0 0c 	call	0x1940	; 0x1940 <_ZN3hal8spi_txrxEh>
     * @param port ąĀąĄą│ąĖčüčéčĆ PORTx.
     * @param mask ą£ą░čüą║ą░ čāčüčéą░ąĮą░ą▓ą╗ąĖą▓ą░ąĄą╝čŗčģ ą▒ąĖčéąŠą▓.
     */
    static inline void setPortBits(volatile uint8_t& port, uint8_t mask)
    {
        port |= mask;
    13e2:	8b b1       	in	r24, 0x0b	; 11
    13e4:	88 60       	ori	r24, 0x08	; 8
    13e6:	8b b9       	out	0x0b, r24	; 11
    13e8:	08 95       	ret

000013ea <_ZN9lai_board17writeModeRegisterEh>:
     * @param port ąĀąĄą│ąĖčüčéčĆ PORTx.
     * @param mask ą£ą░čüą║ą░ čüą▒čĆą░čüčŗą▓ą░ąĄą╝čŗčģ ą▒ąĖčéąŠą▓.
     */
    static inline void clearPortBits(volatile uint8_t& port, uint8_t mask)
    {
        port &= static_cast<uint8_t>(~mask);
    13ea:	9b b1       	in	r25, 0x0b	; 11
    13ec:	9f 7e       	andi	r25, 0xEF	; 239
    13ee:	9b b9       	out	0x0b, r25	; 11
    }

    void writeModeRegister(uint8_t value)
    {
        selectModeRegister();
        (void)hal::spi_txrx(value);
    13f0:	0e 94 a0 0c 	call	0x1940	; 0x1940 <_ZN3hal8spi_txrxEh>
     * @param port ąĀąĄą│ąĖčüčéčĆ PORTx.
     * @param mask ą£ą░čüą║ą░ čāčüčéą░ąĮą░ą▓ą╗ąĖą▓ą░ąĄą╝čŗčģ ą▒ąĖčéąŠą▓.
     */
    static inline void setPortBits(volatile uint8_t& port, uint8_t mask)
    {
        port |= mask;
    13f4:	8b b1       	in	r24, 0x0b	; 11
    13f6:	80 61       	ori	r24, 0x10	; 16
    13f8:	8b b9       	out	0x0b, r24	; 11
    13fa:	08 95       	ret

000013fc <_ZL15uart0_calc_ubrrmhPjPm>:
    uint32_t baud,
    uint8_t use_u2x,
    uint16_t* ubrr,
    uint32_t* actual_baud
)
{
    13fc:	4f 92       	push	r4
    13fe:	5f 92       	push	r5
    1400:	6f 92       	push	r6
    1402:	7f 92       	push	r7
    1404:	8f 92       	push	r8
    1406:	9f 92       	push	r9
    1408:	af 92       	push	r10
    140a:	bf 92       	push	r11
    140c:	cf 92       	push	r12
    140e:	df 92       	push	r13
    1410:	ef 92       	push	r14
    1412:	ff 92       	push	r15
    1414:	0f 93       	push	r16
    1416:	1f 93       	push	r17
    1418:	cf 93       	push	r28
    141a:	df 93       	push	r29
    141c:	00 d0       	rcall	.+0      	; 0x141e <_ZL15uart0_calc_ubrrmhPjPm+0x22>
    141e:	00 d0       	rcall	.+0      	; 0x1420 <_ZL15uart0_calc_ubrrmhPjPm+0x24>
    1420:	00 d0       	rcall	.+0      	; 0x1422 <_ZL15uart0_calc_ubrrmhPjPm+0x26>
    1422:	cd b7       	in	r28, 0x3d	; 61
    1424:	de b7       	in	r29, 0x3e	; 62
    1426:	3e 83       	std	Y+6, r19	; 0x06
    1428:	2d 83       	std	Y+5, r18	; 0x05
    if ((baud == 0u) || (ubrr == 0) || (actual_baud == 0))
    142a:	61 15       	cp	r22, r1
    142c:	71 05       	cpc	r23, r1
    142e:	81 05       	cpc	r24, r1
    1430:	91 05       	cpc	r25, r1
    1432:	09 f4       	brne	.+2      	; 0x1436 <_ZL15uart0_calc_ubrrmhPjPm+0x3a>
    1434:	71 c0       	rjmp	.+226    	; 0x1518 <_ZL15uart0_calc_ubrrmhPjPm+0x11c>
    1436:	23 2b       	or	r18, r19
    1438:	09 f4       	brne	.+2      	; 0x143c <_ZL15uart0_calc_ubrrmhPjPm+0x40>
    143a:	70 c0       	rjmp	.+224    	; 0x151c <_ZL15uart0_calc_ubrrmhPjPm+0x120>
    143c:	01 15       	cp	r16, r1
    143e:	11 05       	cpc	r17, r1
    1440:	09 f4       	brne	.+2      	; 0x1444 <_ZL15uart0_calc_ubrrmhPjPm+0x48>
    1442:	6e c0       	rjmp	.+220    	; 0x1520 <_ZL15uart0_calc_ubrrmhPjPm+0x124>
    {
        return false;
    }

    const uint32_t denom = use_u2x ? 8u : 16u;
    1444:	44 23       	and	r20, r20
    1446:	31 f0       	breq	.+12     	; 0x1454 <_ZL15uart0_calc_ubrrmhPjPm+0x58>
    1448:	c1 2c       	mov	r12, r1
    144a:	d1 2c       	mov	r13, r1
    144c:	76 01       	movw	r14, r12
    144e:	68 94       	set
    1450:	c3 f8       	bld	r12, 3
    1452:	05 c0       	rjmp	.+10     	; 0x145e <_ZL15uart0_calc_ubrrmhPjPm+0x62>
    1454:	c1 2c       	mov	r12, r1
    1456:	d1 2c       	mov	r13, r1
    1458:	76 01       	movw	r14, r12
    145a:	68 94       	set
    145c:	c4 f8       	bld	r12, 4
    const uint32_t div = denom * baud;
    145e:	a7 01       	movw	r20, r14
    1460:	96 01       	movw	r18, r12
    1462:	0e 94 b7 14 	call	0x296e	; 0x296e <__mulsi3>
    1466:	4b 01       	movw	r8, r22
    1468:	5c 01       	movw	r10, r24

    if (div == 0u)
    146a:	67 2b       	or	r22, r23
    146c:	68 2b       	or	r22, r24
    146e:	69 2b       	or	r22, r25
    1470:	09 f4       	brne	.+2      	; 0x1474 <_ZL15uart0_calc_ubrrmhPjPm+0x78>
    1472:	58 c0       	rjmp	.+176    	; 0x1524 <_ZL15uart0_calc_ubrrmhPjPm+0x128>
    {
        return false;
    }

    const uint32_t q = static_cast<uint32_t>(F_CPU / div);
    1474:	60 e0       	ldi	r22, 0x00	; 0
    1476:	74 e2       	ldi	r23, 0x24	; 36
    1478:	84 ef       	ldi	r24, 0xF4	; 244
    147a:	90 e0       	ldi	r25, 0x00	; 0
    147c:	a5 01       	movw	r20, r10
    147e:	94 01       	movw	r18, r8
    1480:	0e 94 c7 14 	call	0x298e	; 0x298e <__udivmodsi4>
    1484:	29 83       	std	Y+1, r18	; 0x01
    1486:	3a 83       	std	Y+2, r19	; 0x02
    1488:	4b 83       	std	Y+3, r20	; 0x03
    148a:	5c 83       	std	Y+4, r21	; 0x04
    const uint32_t r = static_cast<uint32_t>(F_CPU % div);

    if (q == 0u)
    148c:	21 15       	cp	r18, r1
    148e:	31 05       	cpc	r19, r1
    1490:	41 05       	cpc	r20, r1
    1492:	51 05       	cpc	r21, r1
    1494:	09 f4       	brne	.+2      	; 0x1498 <_ZL15uart0_calc_ubrrmhPjPm+0x9c>
    1496:	48 c0       	rjmp	.+144    	; 0x1528 <_ZL15uart0_calc_ubrrmhPjPm+0x12c>
    {
        return false;
    }

    uint32_t ubrr_u32 = q - 1u;
    1498:	21 50       	subi	r18, 0x01	; 1
    149a:	31 09       	sbc	r19, r1
    149c:	41 09       	sbc	r20, r1
    149e:	51 09       	sbc	r21, r1

    if ((2u * r) >= div)
    14a0:	2b 01       	movw	r4, r22
    14a2:	3c 01       	movw	r6, r24
    14a4:	44 0c       	add	r4, r4
    14a6:	55 1c       	adc	r5, r5
    14a8:	66 1c       	adc	r6, r6
    14aa:	77 1c       	adc	r7, r7
    14ac:	48 14       	cp	r4, r8
    14ae:	59 04       	cpc	r5, r9
    14b0:	6a 04       	cpc	r6, r10
    14b2:	7b 04       	cpc	r7, r11
    14b4:	20 f4       	brcc	.+8      	; 0x14be <_ZL15uart0_calc_ubrrmhPjPm+0xc2>
    if (q == 0u)
    {
        return false;
    }

    uint32_t ubrr_u32 = q - 1u;
    14b6:	29 83       	std	Y+1, r18	; 0x01
    14b8:	3a 83       	std	Y+2, r19	; 0x02
    14ba:	4b 83       	std	Y+3, r20	; 0x03
    14bc:	5c 83       	std	Y+4, r21	; 0x04
    if ((2u * r) >= div)
    {
        ubrr_u32 += 1u;
    }

    if (ubrr_u32 > 4095u)
    14be:	49 80       	ldd	r4, Y+1	; 0x01
    14c0:	5a 80       	ldd	r5, Y+2	; 0x02
    14c2:	6b 80       	ldd	r6, Y+3	; 0x03
    14c4:	7c 80       	ldd	r7, Y+4	; 0x04
    14c6:	41 14       	cp	r4, r1
    14c8:	20 e1       	ldi	r18, 0x10	; 16
    14ca:	52 06       	cpc	r5, r18
    14cc:	61 04       	cpc	r6, r1
    14ce:	71 04       	cpc	r7, r1
    14d0:	68 f5       	brcc	.+90     	; 0x152c <_ZL15uart0_calc_ubrrmhPjPm+0x130>
    {
        return false;
    }

    *ubrr = static_cast<uint16_t>(ubrr_u32);
    14d2:	ad 81       	ldd	r26, Y+5	; 0x05
    14d4:	be 81       	ldd	r27, Y+6	; 0x06
    14d6:	4d 92       	st	X+, r4
    14d8:	5c 92       	st	X, r5
    *actual_baud = static_cast<uint32_t>(
        F_CPU / (denom * (static_cast<uint32_t>(*ubrr) + 1u))
    14da:	e9 81       	ldd	r30, Y+1	; 0x01
    14dc:	fa 81       	ldd	r31, Y+2	; 0x02
    14de:	cf 01       	movw	r24, r30
    14e0:	a0 e0       	ldi	r26, 0x00	; 0
    14e2:	b0 e0       	ldi	r27, 0x00	; 0
    14e4:	bc 01       	movw	r22, r24
    14e6:	cd 01       	movw	r24, r26
    14e8:	6f 5f       	subi	r22, 0xFF	; 255
    14ea:	7f 4f       	sbci	r23, 0xFF	; 255
    14ec:	8f 4f       	sbci	r24, 0xFF	; 255
    14ee:	9f 4f       	sbci	r25, 0xFF	; 255
    14f0:	a7 01       	movw	r20, r14
    14f2:	96 01       	movw	r18, r12
    14f4:	0e 94 b7 14 	call	0x296e	; 0x296e <__mulsi3>
    14f8:	9b 01       	movw	r18, r22
    14fa:	ac 01       	movw	r20, r24
    14fc:	60 e0       	ldi	r22, 0x00	; 0
    14fe:	74 e2       	ldi	r23, 0x24	; 36
    1500:	84 ef       	ldi	r24, 0xF4	; 244
    1502:	90 e0       	ldi	r25, 0x00	; 0
    1504:	0e 94 c7 14 	call	0x298e	; 0x298e <__udivmodsi4>
    );
    1508:	d8 01       	movw	r26, r16
    150a:	2d 93       	st	X+, r18
    150c:	3d 93       	st	X+, r19
    150e:	4d 93       	st	X+, r20
    1510:	5c 93       	st	X, r21
    1512:	13 97       	sbiw	r26, 0x03	; 3

    return true;
    1514:	81 e0       	ldi	r24, 0x01	; 1
    1516:	0b c0       	rjmp	.+22     	; 0x152e <_ZL15uart0_calc_ubrrmhPjPm+0x132>
    uint32_t* actual_baud
)
{
    if ((baud == 0u) || (ubrr == 0) || (actual_baud == 0))
    {
        return false;
    1518:	80 e0       	ldi	r24, 0x00	; 0
    151a:	09 c0       	rjmp	.+18     	; 0x152e <_ZL15uart0_calc_ubrrmhPjPm+0x132>
    151c:	80 e0       	ldi	r24, 0x00	; 0
    151e:	07 c0       	rjmp	.+14     	; 0x152e <_ZL15uart0_calc_ubrrmhPjPm+0x132>
    1520:	80 e0       	ldi	r24, 0x00	; 0
    1522:	05 c0       	rjmp	.+10     	; 0x152e <_ZL15uart0_calc_ubrrmhPjPm+0x132>
    const uint32_t denom = use_u2x ? 8u : 16u;
    const uint32_t div = denom * baud;

    if (div == 0u)
    {
        return false;
    1524:	80 e0       	ldi	r24, 0x00	; 0
    1526:	03 c0       	rjmp	.+6      	; 0x152e <_ZL15uart0_calc_ubrrmhPjPm+0x132>
    const uint32_t q = static_cast<uint32_t>(F_CPU / div);
    const uint32_t r = static_cast<uint32_t>(F_CPU % div);

    if (q == 0u)
    {
        return false;
    1528:	80 e0       	ldi	r24, 0x00	; 0
    152a:	01 c0       	rjmp	.+2      	; 0x152e <_ZL15uart0_calc_ubrrmhPjPm+0x132>
        ubrr_u32 += 1u;
    }

    if (ubrr_u32 > 4095u)
    {
        return false;
    152c:	80 e0       	ldi	r24, 0x00	; 0
    *actual_baud = static_cast<uint32_t>(
        F_CPU / (denom * (static_cast<uint32_t>(*ubrr) + 1u))
    );

    return true;
}
    152e:	26 96       	adiw	r28, 0x06	; 6
    1530:	0f b6       	in	r0, 0x3f	; 63
    1532:	f8 94       	cli
    1534:	de bf       	out	0x3e, r29	; 62
    1536:	0f be       	out	0x3f, r0	; 63
    1538:	cd bf       	out	0x3d, r28	; 61
    153a:	df 91       	pop	r29
    153c:	cf 91       	pop	r28
    153e:	1f 91       	pop	r17
    1540:	0f 91       	pop	r16
    1542:	ff 90       	pop	r15
    1544:	ef 90       	pop	r14
    1546:	df 90       	pop	r13
    1548:	cf 90       	pop	r12
    154a:	bf 90       	pop	r11
    154c:	af 90       	pop	r10
    154e:	9f 90       	pop	r9
    1550:	8f 90       	pop	r8
    1552:	7f 90       	pop	r7
    1554:	6f 90       	pop	r6
    1556:	5f 90       	pop	r5
    1558:	4f 90       	pop	r4
    155a:	08 95       	ret

0000155c <_ZL14uart0_set_baudm>:
 * @details
 * ążčāąĮą║čåąĖčÅ čĆą░čüčüčćąĖčéčŗą▓ą░ąĄčé ą▓ą░čĆąĖą░ąĮčéčŗ ą┤ą╗čÅ ąŠą▒čŗčćąĮąŠą│ąŠ čĆąĄąČąĖą╝ą░ ąĖ čĆąĄąČąĖą╝ą░ U2X,
 * ą▓čŗą▒ąĖčĆą░ąĄčé ą▓ą░čĆąĖą░ąĮčé čü ą╝ąĄąĮčīčłąĄą╣ ąŠčłąĖą▒ą║ąŠą╣ ąĖ ąĘą░ą┐ąĖčüčŗą▓ą░ąĄčé UBRR0H/UBRR0L.
 */
static void uart0_set_baud(uint32_t baud)
{
    155c:	bf 92       	push	r11
    155e:	cf 92       	push	r12
    1560:	df 92       	push	r13
    1562:	ef 92       	push	r14
    1564:	ff 92       	push	r15
    1566:	0f 93       	push	r16
    1568:	1f 93       	push	r17
    156a:	cf 93       	push	r28
    156c:	df 93       	push	r29
    156e:	cd b7       	in	r28, 0x3d	; 61
    1570:	de b7       	in	r29, 0x3e	; 62
    1572:	2c 97       	sbiw	r28, 0x0c	; 12
    1574:	0f b6       	in	r0, 0x3f	; 63
    1576:	f8 94       	cli
    1578:	de bf       	out	0x3e, r29	; 62
    157a:	0f be       	out	0x3f, r0	; 63
    157c:	cd bf       	out	0x3d, r28	; 61
    157e:	6b 01       	movw	r12, r22
    1580:	7c 01       	movw	r14, r24
    uint16_t ubrr_norm = 0u;
    1582:	1a 82       	std	Y+2, r1	; 0x02
    1584:	19 82       	std	Y+1, r1	; 0x01
    uint16_t ubrr_u2x = 0u;
    1586:	1c 82       	std	Y+4, r1	; 0x04
    1588:	1b 82       	std	Y+3, r1	; 0x03

    uint32_t act_norm = 0u;
    158a:	1d 82       	std	Y+5, r1	; 0x05
    158c:	1e 82       	std	Y+6, r1	; 0x06
    158e:	1f 82       	std	Y+7, r1	; 0x07
    1590:	18 86       	std	Y+8, r1	; 0x08
    uint32_t act_u2x = 0u;
    1592:	19 86       	std	Y+9, r1	; 0x09
    1594:	1a 86       	std	Y+10, r1	; 0x0a
    1596:	1b 86       	std	Y+11, r1	; 0x0b
    1598:	1c 86       	std	Y+12, r1	; 0x0c

    const bool ok_norm = uart0_calc_ubrr(baud, 0u, &ubrr_norm, &act_norm);
    159a:	8e 01       	movw	r16, r28
    159c:	0b 5f       	subi	r16, 0xFB	; 251
    159e:	1f 4f       	sbci	r17, 0xFF	; 255
    15a0:	9e 01       	movw	r18, r28
    15a2:	2f 5f       	subi	r18, 0xFF	; 255
    15a4:	3f 4f       	sbci	r19, 0xFF	; 255
    15a6:	40 e0       	ldi	r20, 0x00	; 0
    15a8:	0e 94 fe 09 	call	0x13fc	; 0x13fc <_ZL15uart0_calc_ubrrmhPjPm>
    15ac:	b8 2e       	mov	r11, r24
    const bool ok_u2x  = uart0_calc_ubrr(baud, 1u, &ubrr_u2x,  &act_u2x);
    15ae:	0c 5f       	subi	r16, 0xFC	; 252
    15b0:	1f 4f       	sbci	r17, 0xFF	; 255
    15b2:	9e 01       	movw	r18, r28
    15b4:	2d 5f       	subi	r18, 0xFD	; 253
    15b6:	3f 4f       	sbci	r19, 0xFF	; 255
    15b8:	41 e0       	ldi	r20, 0x01	; 1
    15ba:	c7 01       	movw	r24, r14
    15bc:	b6 01       	movw	r22, r12
    15be:	0e 94 fe 09 	call	0x13fc	; 0x13fc <_ZL15uart0_calc_ubrrmhPjPm>

    uint8_t use_u2x = 0u;
    uint16_t ubrr = 0u;

#if (F_CPU == 16000000UL)
    if ((baud == 57600u) && ok_norm)
    15c2:	c1 14       	cp	r12, r1
    15c4:	01 ee       	ldi	r16, 0xE1	; 225
    15c6:	d0 06       	cpc	r13, r16
    15c8:	e1 04       	cpc	r14, r1
    15ca:	f1 04       	cpc	r15, r1
    15cc:	31 f4       	brne	.+12     	; 0x15da <_ZL14uart0_set_baudm+0x7e>
    15ce:	bb 20       	and	r11, r11
    15d0:	21 f0       	breq	.+8      	; 0x15da <_ZL14uart0_set_baudm+0x7e>
    {
        use_u2x = 0u;
        ubrr = ubrr_norm;
    15d2:	99 81       	ldd	r25, Y+1	; 0x01
    15d4:	2a 81       	ldd	r18, Y+2	; 0x02
    uint16_t ubrr = 0u;

#if (F_CPU == 16000000UL)
    if ((baud == 57600u) && ok_norm)
    {
        use_u2x = 0u;
    15d6:	80 e0       	ldi	r24, 0x00	; 0
        ubrr = ubrr_norm;
    15d8:	4f c0       	rjmp	.+158    	; 0x1678 <_ZL14uart0_set_baudm+0x11c>
    }
    else
#endif
    {
        if (ok_norm && ok_u2x)
    15da:	bb 20       	and	r11, r11
    15dc:	f1 f1       	breq	.+124    	; 0x165a <_ZL14uart0_set_baudm+0xfe>
    15de:	88 23       	and	r24, r24
    15e0:	e1 f1       	breq	.+120    	; 0x165a <_ZL14uart0_set_baudm+0xfe>
        {
            const uint32_t err_norm = u32_abs_diff(act_norm, baud);
    15e2:	8d 81       	ldd	r24, Y+5	; 0x05
    15e4:	9e 81       	ldd	r25, Y+6	; 0x06
    15e6:	af 81       	ldd	r26, Y+7	; 0x07
    15e8:	b8 85       	ldd	r27, Y+8	; 0x08
 *
 * @return |a - b|.
 */
static inline uint32_t u32_abs_diff(uint32_t a, uint32_t b)
{
    return (a > b) ? (a - b) : (b - a);
    15ea:	c8 16       	cp	r12, r24
    15ec:	d9 06       	cpc	r13, r25
    15ee:	ea 06       	cpc	r14, r26
    15f0:	fb 06       	cpc	r15, r27
    15f2:	28 f4       	brcc	.+10     	; 0x15fe <_ZL14uart0_set_baudm+0xa2>
    15f4:	8c 19       	sub	r24, r12
    15f6:	9d 09       	sbc	r25, r13
    15f8:	ae 09       	sbc	r26, r14
    15fa:	bf 09       	sbc	r27, r15
    15fc:	08 c0       	rjmp	.+16     	; 0x160e <_ZL14uart0_set_baudm+0xb2>
    15fe:	a7 01       	movw	r20, r14
    1600:	96 01       	movw	r18, r12
    1602:	28 1b       	sub	r18, r24
    1604:	39 0b       	sbc	r19, r25
    1606:	4a 0b       	sbc	r20, r26
    1608:	5b 0b       	sbc	r21, r27
    160a:	da 01       	movw	r26, r20
    160c:	c9 01       	movw	r24, r18
#endif
    {
        if (ok_norm && ok_u2x)
        {
            const uint32_t err_norm = u32_abs_diff(act_norm, baud);
            const uint32_t err_u2x  = u32_abs_diff(act_u2x,  baud);
    160e:	49 85       	ldd	r20, Y+9	; 0x09
    1610:	5a 85       	ldd	r21, Y+10	; 0x0a
    1612:	6b 85       	ldd	r22, Y+11	; 0x0b
    1614:	7c 85       	ldd	r23, Y+12	; 0x0c
 *
 * @return |a - b|.
 */
static inline uint32_t u32_abs_diff(uint32_t a, uint32_t b)
{
    return (a > b) ? (a - b) : (b - a);
    1616:	c4 16       	cp	r12, r20
    1618:	d5 06       	cpc	r13, r21
    161a:	e6 06       	cpc	r14, r22
    161c:	f7 06       	cpc	r15, r23
    161e:	48 f4       	brcc	.+18     	; 0x1632 <_ZL14uart0_set_baudm+0xd6>
    1620:	8a 01       	movw	r16, r20
    1622:	9b 01       	movw	r18, r22
    1624:	0c 19       	sub	r16, r12
    1626:	1d 09       	sbc	r17, r13
    1628:	2e 09       	sbc	r18, r14
    162a:	3f 09       	sbc	r19, r15
    162c:	68 01       	movw	r12, r16
    162e:	79 01       	movw	r14, r18
    1630:	04 c0       	rjmp	.+8      	; 0x163a <_ZL14uart0_set_baudm+0xde>
    1632:	c4 1a       	sub	r12, r20
    1634:	d5 0a       	sbc	r13, r21
    1636:	e6 0a       	sbc	r14, r22
    1638:	f7 0a       	sbc	r15, r23
        if (ok_norm && ok_u2x)
        {
            const uint32_t err_norm = u32_abs_diff(act_norm, baud);
            const uint32_t err_u2x  = u32_abs_diff(act_u2x,  baud);

            use_u2x = (err_u2x < err_norm) ? 1u : 0u;
    163a:	c8 16       	cp	r12, r24
    163c:	d9 06       	cpc	r13, r25
    163e:	ea 06       	cpc	r14, r26
    1640:	fb 06       	cpc	r15, r27
    1642:	10 f4       	brcc	.+4      	; 0x1648 <_ZL14uart0_set_baudm+0xec>
    1644:	81 e0       	ldi	r24, 0x01	; 1
    1646:	01 c0       	rjmp	.+2      	; 0x164a <_ZL14uart0_set_baudm+0xee>
    1648:	80 e0       	ldi	r24, 0x00	; 0
            ubrr = use_u2x ? ubrr_u2x : ubrr_norm;
    164a:	88 23       	and	r24, r24
    164c:	19 f0       	breq	.+6      	; 0x1654 <_ZL14uart0_set_baudm+0xf8>
    164e:	9b 81       	ldd	r25, Y+3	; 0x03
    1650:	2c 81       	ldd	r18, Y+4	; 0x04
    1652:	12 c0       	rjmp	.+36     	; 0x1678 <_ZL14uart0_set_baudm+0x11c>
    1654:	99 81       	ldd	r25, Y+1	; 0x01
    1656:	2a 81       	ldd	r18, Y+2	; 0x02
    1658:	0f c0       	rjmp	.+30     	; 0x1678 <_ZL14uart0_set_baudm+0x11c>
        }
        else if (ok_u2x)
    165a:	88 23       	and	r24, r24
    165c:	21 f0       	breq	.+8      	; 0x1666 <_ZL14uart0_set_baudm+0x10a>
        {
            use_u2x = 1u;
            ubrr = ubrr_u2x;
    165e:	9b 81       	ldd	r25, Y+3	; 0x03
    1660:	2c 81       	ldd	r18, Y+4	; 0x04
            use_u2x = (err_u2x < err_norm) ? 1u : 0u;
            ubrr = use_u2x ? ubrr_u2x : ubrr_norm;
        }
        else if (ok_u2x)
        {
            use_u2x = 1u;
    1662:	81 e0       	ldi	r24, 0x01	; 1
    1664:	09 c0       	rjmp	.+18     	; 0x1678 <_ZL14uart0_set_baudm+0x11c>
            ubrr = ubrr_u2x;
        }
        else if (ok_norm)
    1666:	bb 20       	and	r11, r11
    1668:	21 f0       	breq	.+8      	; 0x1672 <_ZL14uart0_set_baudm+0x116>
        {
            use_u2x = 0u;
            ubrr = ubrr_norm;
    166a:	99 81       	ldd	r25, Y+1	; 0x01
    166c:	2a 81       	ldd	r18, Y+2	; 0x02
            use_u2x = 1u;
            ubrr = ubrr_u2x;
        }
        else if (ok_norm)
        {
            use_u2x = 0u;
    166e:	80 e0       	ldi	r24, 0x00	; 0
    1670:	03 c0       	rjmp	.+6      	; 0x1678 <_ZL14uart0_set_baudm+0x11c>
            ubrr = ubrr_norm;
        }
        else
        {
            use_u2x = 0u;
            ubrr = 0u;
    1672:	90 e0       	ldi	r25, 0x00	; 0
    1674:	20 e0       	ldi	r18, 0x00	; 0
            use_u2x = 0u;
            ubrr = ubrr_norm;
        }
        else
        {
            use_u2x = 0u;
    1676:	80 e0       	ldi	r24, 0x00	; 0
            ubrr = 0u;
        }
    }

    if (use_u2x)
    1678:	88 23       	and	r24, r24
    167a:	21 f0       	breq	.+8      	; 0x1684 <_ZL14uart0_set_baudm+0x128>
    {
        UCSR0A = _BV(U2X0);
    167c:	82 e0       	ldi	r24, 0x02	; 2
    167e:	80 93 c0 00 	sts	0x00C0, r24	; 0x8000c0 <__TEXT_REGION_LENGTH__+0x7f80c0>
    1682:	02 c0       	rjmp	.+4      	; 0x1688 <_ZL14uart0_set_baudm+0x12c>
    }
    else
    {
        UCSR0A = 0u;
    1684:	10 92 c0 00 	sts	0x00C0, r1	; 0x8000c0 <__TEXT_REGION_LENGTH__+0x7f80c0>
    }

    UBRR0H = static_cast<uint8_t>(ubrr >> 8);
    1688:	20 93 c5 00 	sts	0x00C5, r18	; 0x8000c5 <__TEXT_REGION_LENGTH__+0x7f80c5>
    UBRR0L = static_cast<uint8_t>(ubrr & 0xFFu);
    168c:	90 93 c4 00 	sts	0x00C4, r25	; 0x8000c4 <__TEXT_REGION_LENGTH__+0x7f80c4>
}
    1690:	2c 96       	adiw	r28, 0x0c	; 12
    1692:	0f b6       	in	r0, 0x3f	; 63
    1694:	f8 94       	cli
    1696:	de bf       	out	0x3e, r29	; 62
    1698:	0f be       	out	0x3f, r0	; 63
    169a:	cd bf       	out	0x3d, r28	; 61
    169c:	df 91       	pop	r29
    169e:	cf 91       	pop	r28
    16a0:	1f 91       	pop	r17
    16a2:	0f 91       	pop	r16
    16a4:	ff 90       	pop	r15
    16a6:	ef 90       	pop	r14
    16a8:	df 90       	pop	r13
    16aa:	cf 90       	pop	r12
    16ac:	bf 90       	pop	r11
    16ae:	08 95       	ret

000016b0 <_ZL24uart0_set_frame_from_cfgh>:
 */
static void uart0_set_frame_from_cfg(uint8_t cfg)
{
    uint8_t ucsrc = 0u;

    switch (cfg & 0x06u)
    16b0:	98 2f       	mov	r25, r24
    16b2:	96 70       	andi	r25, 0x06	; 6
    16b4:	94 30       	cpi	r25, 0x04	; 4
    16b6:	31 f0       	breq	.+12     	; 0x16c4 <_ZL24uart0_set_frame_from_cfgh+0x14>
    16b8:	96 30       	cpi	r25, 0x06	; 6
    16ba:	31 f0       	breq	.+12     	; 0x16c8 <_ZL24uart0_set_frame_from_cfgh+0x18>
    16bc:	92 30       	cpi	r25, 0x02	; 2
    16be:	31 f0       	breq	.+12     	; 0x16cc <_ZL24uart0_set_frame_from_cfgh+0x1c>
 * - ą║ąŠą╗ąĖčćąĄčüčéą▓ąŠ čüčéąŠą┐-ą▒ąĖčéąŠą▓;
 * - čĆąĄąČąĖą╝ ą┐ą░čĆąĖčéąĄčéą░.
 */
static void uart0_set_frame_from_cfg(uint8_t cfg)
{
    uint8_t ucsrc = 0u;
    16c0:	90 e0       	ldi	r25, 0x00	; 0
    16c2:	05 c0       	rjmp	.+10     	; 0x16ce <_ZL24uart0_set_frame_from_cfgh+0x1e>
        case 0x02u:
            ucsrc |= _BV(UCSZ00);
            break;

        case 0x04u:
            ucsrc |= _BV(UCSZ01);
    16c4:	94 e0       	ldi	r25, 0x04	; 4
            break;
    16c6:	03 c0       	rjmp	.+6      	; 0x16ce <_ZL24uart0_set_frame_from_cfgh+0x1e>

        case 0x06u:
            ucsrc |= static_cast<uint8_t>(_BV(UCSZ01) | _BV(UCSZ00));
    16c8:	96 e0       	ldi	r25, 0x06	; 6
            break;
    16ca:	01 c0       	rjmp	.+2      	; 0x16ce <_ZL24uart0_set_frame_from_cfgh+0x1e>
    {
        case 0x00u:
            break;

        case 0x02u:
            ucsrc |= _BV(UCSZ00);
    16cc:	92 e0       	ldi	r25, 0x02	; 2

        default:
            break;
    }

    if ((cfg & 0x08u) != 0u)
    16ce:	83 fd       	sbrc	r24, 3
    {
        ucsrc |= _BV(USBS0);
    16d0:	98 60       	ori	r25, 0x08	; 8
    }

    const uint8_t parity = static_cast<uint8_t>(cfg & 0x30u);
    16d2:	80 73       	andi	r24, 0x30	; 48

    if (parity == 0x20u)
    16d4:	80 32       	cpi	r24, 0x20	; 32
    16d6:	29 f4       	brne	.+10     	; 0x16e2 <_ZL24uart0_set_frame_from_cfgh+0x32>
    {
        ucsrc |= _BV(UPM01);
    16d8:	90 62       	ori	r25, 0x20	; 32
        s_parity_enabled = 1u;
    16da:	81 e0       	ldi	r24, 0x01	; 1
    16dc:	80 93 a2 02 	sts	0x02A2, r24	; 0x8002a2 <_ZL16s_parity_enabled>
    16e0:	09 c0       	rjmp	.+18     	; 0x16f4 <_ZL24uart0_set_frame_from_cfgh+0x44>
    }
    else if (parity == 0x30u)
    16e2:	80 33       	cpi	r24, 0x30	; 48
    16e4:	29 f4       	brne	.+10     	; 0x16f0 <_ZL24uart0_set_frame_from_cfgh+0x40>
    {
        ucsrc |= static_cast<uint8_t>(_BV(UPM01) | _BV(UPM00));
    16e6:	90 63       	ori	r25, 0x30	; 48
        s_parity_enabled = 1u;
    16e8:	81 e0       	ldi	r24, 0x01	; 1
    16ea:	80 93 a2 02 	sts	0x02A2, r24	; 0x8002a2 <_ZL16s_parity_enabled>
    16ee:	02 c0       	rjmp	.+4      	; 0x16f4 <_ZL24uart0_set_frame_from_cfgh+0x44>
    }
    else
    {
        s_parity_enabled = 0u;
    16f0:	10 92 a2 02 	sts	0x02A2, r1	; 0x8002a2 <_ZL16s_parity_enabled>
    }

    UCSR0C = ucsrc;
    16f4:	90 93 c2 00 	sts	0x00C2, r25	; 0x8000c2 <__TEXT_REGION_LENGTH__+0x7f80c2>
    16f8:	08 95       	ret

000016fa <_ZN3hal10uart0_initEmh>:
     * @details
     * ąØą░ ą▓čĆąĄą╝čÅ ą┐ąĄčĆąĄąĮą░čüčéčĆąŠą╣ą║ąĖ UART0 ą┐čĆąĄčĆčŗą▓ą░ąĮąĖčÅ ą║čĆą░čéą║ąŠą▓čĆąĄą╝ąĄąĮąĮąŠ ąĘą░ą┐čĆąĄčēą░čÄčéčüčÅ.
     * ą¤ąŠčüą╗ąĄ ąĖąĮąĖčåąĖą░ą╗ąĖąĘą░čåąĖąĖ ąŠčćąĖčēą░čÄčéčüčÅ ą┐čĆąŠą│čĆą░ą╝ą╝ąĮčŗąĄ RX/TX ą▒čāčäąĄčĆčŗ.
     */
    void uart0_init(uint32_t baud, uint8_t cfg)
    {
    16fa:	0f 93       	push	r16
    16fc:	1f 93       	push	r17
    16fe:	cf 93       	push	r28
    1700:	df 93       	push	r29
    1702:	04 2f       	mov	r16, r20
        const uint8_t old_sreg = SREG;
    1704:	1f b7       	in	r17, 0x3f	; 63
        cli();
    1706:	f8 94       	cli
/**
 * @brief ą¤ąŠą╗ąĮąŠčüčéčīčÄ ąŠčéą║ą╗čÄčćą░ąĄčé UART0 ąĖ čüą▓čÅąĘą░ąĮąĮčŗąĄ ą┐čĆąĄčĆčŗą▓ą░ąĮąĖčÅ.
 */
static inline void uart0_disable_rx_tx_irq(void)
{
    UCSR0B = 0u;
    1708:	c1 ec       	ldi	r28, 0xC1	; 193
    170a:	d0 e0       	ldi	r29, 0x00	; 0
    170c:	18 82       	st	Y, r1
        const uint8_t old_sreg = SREG;
        cli();

        uart0_disable_rx_tx_irq();

        uart0_set_baud(baud);
    170e:	0e 94 ae 0a 	call	0x155c	; 0x155c <_ZL14uart0_set_baudm>
        uart0_set_frame_from_cfg(cfg);
    1712:	80 2f       	mov	r24, r16
    1714:	0e 94 58 0b 	call	0x16b0	; 0x16b0 <_ZL24uart0_set_frame_from_cfgh>

        rx_head = 0u;
    1718:	10 92 a6 02 	sts	0x02A6, r1	; 0x8002a6 <_ZL7rx_head>
        rx_tail = 0u;
    171c:	10 92 a5 02 	sts	0x02A5, r1	; 0x8002a5 <_ZL7rx_tail>
        tx_head = 0u;
    1720:	10 92 a4 02 	sts	0x02A4, r1	; 0x8002a4 <_ZL7tx_head>
        tx_tail = 0u;
    1724:	10 92 a3 02 	sts	0x02A3, r1	; 0x8002a3 <_ZL7tx_tail>

        UCSR0A |= _BV(TXC0);
    1728:	e0 ec       	ldi	r30, 0xC0	; 192
    172a:	f0 e0       	ldi	r31, 0x00	; 0
    172c:	80 81       	ld	r24, Z
    172e:	80 64       	ori	r24, 0x40	; 64
    1730:	80 83       	st	Z, r24
/**
 * @brief ąÆą║ą╗čÄčćą░ąĄčé UART0, ą┐čĆąĖčæą╝, ą┐ąĄčĆąĄą┤ą░čćčā ąĖ ą┐čĆąĄčĆčŗą▓ą░ąĮąĖąĄ ą┐čĆąĖčæą╝ą░.
 */
static inline void uart0_enable_rx_tx_irq(void)
{
    UCSR0B = static_cast<uint8_t>(_BV(RXEN0) | _BV(TXEN0) | _BV(RXCIE0));
    1732:	88 e9       	ldi	r24, 0x98	; 152
    1734:	88 83       	st	Y, r24

        UCSR0A |= _BV(TXC0);

        uart0_enable_rx_tx_irq();

        SREG = old_sreg;
    1736:	1f bf       	out	0x3f, r17	; 63
    }
    1738:	df 91       	pop	r29
    173a:	cf 91       	pop	r28
    173c:	1f 91       	pop	r17
    173e:	0f 91       	pop	r16
    1740:	08 95       	ret

00001742 <_ZN3hal15uart0_availableEv>:
 *
 * @return ąÜąŠą╗ąĖčćąĄčüčéą▓ąŠ ą┤ąŠčüčéčāą┐ąĮčŗčģ ą▒ą░ą╣čé.
 */
static inline uint8_t rx_count(void)
{
    return static_cast<uint8_t>((rx_head - rx_tail) & RX_MASK);
    1742:	80 91 a6 02 	lds	r24, 0x02A6	; 0x8002a6 <_ZL7rx_head>
    1746:	90 91 a5 02 	lds	r25, 0x02A5	; 0x8002a5 <_ZL7rx_tail>
    174a:	89 1b       	sub	r24, r25
     * @return ąÜąŠą╗ąĖčćąĄčüčéą▓ąŠ ą▒ą░ą╣čé, ą┤ąŠčüčéčāą┐ąĮčŗčģ ą┤ą╗čÅ čćčéąĄąĮąĖčÅ.
     */
    uint8_t uart0_available(void)
    {
        return rx_count();
    }
    174c:	8f 73       	andi	r24, 0x3F	; 63
    174e:	08 95       	ret

00001750 <_ZN3hal10uart0_readEv>:
     * @return ąŚąĮą░čćąĄąĮąĖąĄ ąŠčé 0 ą┤ąŠ 255, ąĄčüą╗ąĖ ą▒ą░ą╣čé ą┐čĆąŠčćąĖčéą░ąĮ.
     * @return -1, ąĄčüą╗ąĖ RX-ą▒čāčäąĄčĆ ą┐čāčüčé.
     */
    int16_t uart0_read(void)
    {
        if (rx_head == rx_tail)
    1750:	90 91 a6 02 	lds	r25, 0x02A6	; 0x8002a6 <_ZL7rx_head>
    1754:	80 91 a5 02 	lds	r24, 0x02A5	; 0x8002a5 <_ZL7rx_tail>
    1758:	98 17       	cp	r25, r24
    175a:	69 f0       	breq	.+26     	; 0x1776 <_ZN3hal10uart0_readEv+0x26>
        {
            return -1;
        }

        const uint8_t t = rx_tail;
    175c:	90 91 a5 02 	lds	r25, 0x02A5	; 0x8002a5 <_ZL7rx_tail>
        const uint8_t v = rx_buf[t];
    1760:	e9 2f       	mov	r30, r25
    1762:	f0 e0       	ldi	r31, 0x00	; 0
    1764:	e9 51       	subi	r30, 0x19	; 25
    1766:	fd 4f       	sbci	r31, 0xFD	; 253
    1768:	80 81       	ld	r24, Z

        rx_tail = static_cast<uint8_t>((t + 1u) & RX_MASK);
    176a:	9f 5f       	subi	r25, 0xFF	; 255
    176c:	9f 73       	andi	r25, 0x3F	; 63
    176e:	90 93 a5 02 	sts	0x02A5, r25	; 0x8002a5 <_ZL7rx_tail>

        return static_cast<int16_t>(v);
    1772:	90 e0       	ldi	r25, 0x00	; 0
    1774:	08 95       	ret
     */
    int16_t uart0_read(void)
    {
        if (rx_head == rx_tail)
        {
            return -1;
    1776:	8f ef       	ldi	r24, 0xFF	; 255
    1778:	9f ef       	ldi	r25, 0xFF	; 255
        const uint8_t v = rx_buf[t];

        rx_tail = static_cast<uint8_t>((t + 1u) & RX_MASK);

        return static_cast<int16_t>(v);
    }
    177a:	08 95       	ret

0000177c <_ZN3hal11uart0_writeEh>:
 *
 * @return ąÜąŠą╗ąĖčćąĄčüčéą▓ąŠ ą▒ą░ą╣čé, ąŠąČąĖą┤ą░čÄčēąĖčģ ąŠčéą┐čĆą░ą▓ą║ąĖ.
 */
static inline uint8_t tx_count(void)
{
    return static_cast<uint8_t>((tx_head - tx_tail) & TX_MASK);
    177c:	90 91 a4 02 	lds	r25, 0x02A4	; 0x8002a4 <_ZL7tx_head>
    1780:	20 91 a3 02 	lds	r18, 0x02A3	; 0x8002a3 <_ZL7tx_tail>
    1784:	92 1b       	sub	r25, r18
    1786:	9f 73       	andi	r25, 0x3F	; 63
     * ąĢčüą╗ąĖ TX-ą▒čāčäąĄčĆ ąĘą░ą┐ąŠą╗ąĮąĄąĮ, čäčāąĮą║čåąĖčÅ ąŠąČąĖą┤ą░ąĄčé ąŠčüą▓ąŠą▒ąŠąČą┤ąĄąĮąĖčÅ ą╝ąĄčüčéą░.
     * ążą░ą║čéąĖčćąĄčüą║ą░čÅ ą┐ąĄčĆąĄą┤ą░čćą░ ą▓čŗą┐ąŠą╗ąĮčÅąĄčéčüčÅ ą▓ ISR UDRE.
     */
    void uart0_write(uint8_t b)
    {
        while (tx_space() == 0u)
    1788:	9f 33       	cpi	r25, 0x3F	; 63
    178a:	c1 f3       	breq	.-16     	; 0x177c <_ZN3hal11uart0_writeEh>
            /*
             * ą×ąČąĖą┤ą░ąĮąĖąĄ ąŠčüą▓ąŠą▒ąŠąČą┤ąĄąĮąĖčÅ ą╝ąĄčüčéą░ ą▓ TX-ą▒čāčäąĄčĆąĄ.
             */
        }

        const uint8_t was_empty = (tx_head == tx_tail);
    178c:	30 91 a4 02 	lds	r19, 0x02A4	; 0x8002a4 <_ZL7tx_head>
    1790:	20 91 a3 02 	lds	r18, 0x02A3	; 0x8002a3 <_ZL7tx_tail>

        const uint8_t h = tx_head;
    1794:	90 91 a4 02 	lds	r25, 0x02A4	; 0x8002a4 <_ZL7tx_head>
        tx_buf[h] = b;
    1798:	e9 2f       	mov	r30, r25
    179a:	f0 e0       	ldi	r31, 0x00	; 0
    179c:	e9 55       	subi	r30, 0x59	; 89
    179e:	fd 4f       	sbci	r31, 0xFD	; 253
    17a0:	80 83       	st	Z, r24
        tx_head = static_cast<uint8_t>((h + 1u) & TX_MASK);
    17a2:	9f 5f       	subi	r25, 0xFF	; 255
    17a4:	9f 73       	andi	r25, 0x3F	; 63
    17a6:	90 93 a4 02 	sts	0x02A4, r25	; 0x8002a4 <_ZL7tx_head>

        if (was_empty)
    17aa:	32 13       	cpse	r19, r18
    17ac:	05 c0       	rjmp	.+10     	; 0x17b8 <_ZN3hal11uart0_writeEh+0x3c>
        {
            /*
             * TXC0 ąŠčćąĖčēą░ąĄčéčüčÅ ą┐ąĄčĆąĄą┤ ąĘą░ą┐čāčüą║ąŠą╝ ą┐ąĄčĆąĄą┤ą░čćąĖ ąĮąŠą▓ąŠą│ąŠ ą▒ą╗ąŠą║ą░ ą┤ą░ąĮąĮčŗčģ.
             * ążą╗ą░ą│ ąŠčćąĖčēą░ąĄčéčüčÅ ąĘą░ą┐ąĖčüčīčÄ ą╗ąŠą│ąĖčćąĄčüą║ąŠą╣ ąĄą┤ąĖąĮąĖčåčŗ.
             */
            UCSR0A |= _BV(TXC0);
    17ae:	e0 ec       	ldi	r30, 0xC0	; 192
    17b0:	f0 e0       	ldi	r31, 0x00	; 0
    17b2:	80 81       	ld	r24, Z
    17b4:	80 64       	ori	r24, 0x40	; 64
    17b6:	80 83       	st	Z, r24
        }

        UCSR0B |= _BV(UDRIE0);
    17b8:	e1 ec       	ldi	r30, 0xC1	; 193
    17ba:	f0 e0       	ldi	r31, 0x00	; 0
    17bc:	80 81       	ld	r24, Z
    17be:	80 62       	ori	r24, 0x20	; 32
    17c0:	80 83       	st	Z, r24
    17c2:	08 95       	ret

000017c4 <_ZN3hal30uart0_set_tx_complete_callbackEPFvvE>:
     * @brief ąØą░ąĘąĮą░čćą░ąĄčé callback ąŠą║ąŠąĮčćą░ąĮąĖčÅ čäąĖąĘąĖčćąĄčüą║ąŠą╣ ą┐ąĄčĆąĄą┤ą░čćąĖ UART0.
     *
     * @param callback ąŻą║ą░ąĘą░čéąĄą╗čī ąĮą░ callback-čäčāąĮą║čåąĖčÄ ąĖą╗ąĖ 0.
     */
    void uart0_set_tx_complete_callback(Uart0TxCompleteCallback callback)
    {
    17c4:	9c 01       	movw	r18, r24
        const uint8_t old_sreg = SREG;
    17c6:	9f b7       	in	r25, 0x3f	; 63
        cli();
    17c8:	f8 94       	cli

        s_tx_complete_callback = callback;
    17ca:	30 93 a1 02 	sts	0x02A1, r19	; 0x8002a1 <_ZL22s_tx_complete_callback+0x1>
    17ce:	20 93 a0 02 	sts	0x02A0, r18	; 0x8002a0 <_ZL22s_tx_complete_callback>

        SREG = old_sreg;
    17d2:	9f bf       	out	0x3f, r25	; 63
    17d4:	08 95       	ret

000017d6 <_ZN3hal34uart0_enable_tx_complete_interruptEv>:
     * ą¤ąŠčüą╗ąĄ ąĘą░ą▓ąĄčĆčłąĄąĮąĖčÅ čäąĖąĘąĖčćąĄčüą║ąŠą╣ ą┐ąĄčĆąĄą┤ą░čćąĖ ą┐ąŠčüą╗ąĄą┤ąĮąĄą│ąŠ ą▒ą░ą╣čéą░ UART čāčüčéą░ąĮąŠą▓ąĖčé TXC0,
     * ą▒čāą┤ąĄčé ą▓čŗąĘą▓ą░ąĮ ISR TX Complete, ąĘą░čéąĄą╝ ą┐čĆąĄčĆčŗą▓ą░ąĮąĖąĄ TX Complete ąŠčéą║ą╗čÄčćąĖčéčüčÅ.
     */
    void uart0_enable_tx_complete_interrupt(void)
    {
        const uint8_t old_sreg = SREG;
    17d6:	9f b7       	in	r25, 0x3f	; 63
        cli();
    17d8:	f8 94       	cli

        UCSR0A |= static_cast<uint8_t>(_BV(TXC0));
    17da:	e0 ec       	ldi	r30, 0xC0	; 192
    17dc:	f0 e0       	ldi	r31, 0x00	; 0
    17de:	80 81       	ld	r24, Z
    17e0:	80 64       	ori	r24, 0x40	; 64
    17e2:	80 83       	st	Z, r24
        UCSR0B |= static_cast<uint8_t>(_BV(TXCIE0));
    17e4:	e1 ec       	ldi	r30, 0xC1	; 193
    17e6:	f0 e0       	ldi	r31, 0x00	; 0
    17e8:	80 81       	ld	r24, Z
    17ea:	80 64       	ori	r24, 0x40	; 64
    17ec:	80 83       	st	Z, r24

        SREG = old_sreg;
    17ee:	9f bf       	out	0x3f, r25	; 63
    17f0:	08 95       	ret

000017f2 <_ZN3hal35uart0_disable_tx_complete_interruptEv>:
    /**
     * @brief ąŚą░ą┐čĆąĄčēą░ąĄčé ą┐čĆąĄčĆčŗą▓ą░ąĮąĖąĄ UART0 TX Complete.
     */
    void uart0_disable_tx_complete_interrupt(void)
    {
        const uint8_t old_sreg = SREG;
    17f2:	9f b7       	in	r25, 0x3f	; 63
        cli();
    17f4:	f8 94       	cli

        UCSR0B &= static_cast<uint8_t>(~_BV(TXCIE0));
    17f6:	e1 ec       	ldi	r30, 0xC1	; 193
    17f8:	f0 e0       	ldi	r31, 0x00	; 0
    17fa:	80 81       	ld	r24, Z
    17fc:	8f 7b       	andi	r24, 0xBF	; 191
    17fe:	80 83       	st	Z, r24

        SREG = old_sreg;
    1800:	9f bf       	out	0x3f, r25	; 63
    1802:	08 95       	ret

00001804 <__vector_18>:
 * @details
 * ąĪčćąĖčéčŗą▓ą░ąĄčé čüčéą░čéčāčü UART ą┤ąŠ čćčéąĄąĮąĖčÅ UDR0, ą┐čĆąŠą▓ąĄčĆčÅąĄčé ąŠčłąĖą▒ą║ąĖ ą║ą░ą┤čĆą░,
 * ą┐ąĄčĆąĄą┐ąŠą╗ąĮąĄąĮąĖčÅ ąĖ ą┐ą░čĆąĖčéąĄčéą░, ąĘą░čéąĄą╝ ą┐ąŠą╝ąĄčēą░ąĄčé ą▒ą░ą╣čé ą▓ RX-ą▒čāčäąĄčĆ.
 */
ISR(UART0_RX_VECTOR)
{
    1804:	1f 92       	push	r1
    1806:	0f 92       	push	r0
    1808:	0f b6       	in	r0, 0x3f	; 63
    180a:	0f 92       	push	r0
    180c:	11 24       	eor	r1, r1
    180e:	2f 93       	push	r18
    1810:	8f 93       	push	r24
    1812:	9f 93       	push	r25
    1814:	ef 93       	push	r30
    1816:	ff 93       	push	r31
    const uint8_t status = UCSR0A;
    1818:	80 91 c0 00 	lds	r24, 0x00C0	; 0x8000c0 <__TEXT_REGION_LENGTH__+0x7f80c0>
    const uint8_t d = UDR0;
    181c:	20 91 c6 00 	lds	r18, 0x00C6	; 0x8000c6 <__TEXT_REGION_LENGTH__+0x7f80c6>

    if ((status & static_cast<uint8_t>(_BV(FE0) | _BV(DOR0))) != 0u)
    1820:	98 2f       	mov	r25, r24
    1822:	98 71       	andi	r25, 0x18	; 24
    1824:	e9 f4       	brne	.+58     	; 0x1860 <__vector_18+0x5c>
    {
        return;
    }

    if ((s_parity_enabled != 0u) && ((status & _BV(UPE0)) != 0u))
    1826:	90 91 a2 02 	lds	r25, 0x02A2	; 0x8002a2 <_ZL16s_parity_enabled>
    182a:	99 23       	and	r25, r25
    182c:	21 f0       	breq	.+8      	; 0x1836 <__vector_18+0x32>
    182e:	82 fd       	sbrc	r24, 2
    1830:	04 c0       	rjmp	.+8      	; 0x183a <__vector_18+0x36>
    1832:	80 e0       	ldi	r24, 0x00	; 0
    1834:	03 c0       	rjmp	.+6      	; 0x183c <__vector_18+0x38>
    1836:	80 e0       	ldi	r24, 0x00	; 0
    1838:	01 c0       	rjmp	.+2      	; 0x183c <__vector_18+0x38>
    183a:	81 e0       	ldi	r24, 0x01	; 1
    183c:	81 11       	cpse	r24, r1
    183e:	10 c0       	rjmp	.+32     	; 0x1860 <__vector_18+0x5c>
    {
        return;
    }

    const uint8_t next = static_cast<uint8_t>((rx_head + 1u) & RX_MASK);
    1840:	80 91 a6 02 	lds	r24, 0x02A6	; 0x8002a6 <_ZL7rx_head>
    1844:	8f 5f       	subi	r24, 0xFF	; 255
    1846:	8f 73       	andi	r24, 0x3F	; 63

    if (next != rx_tail)
    1848:	90 91 a5 02 	lds	r25, 0x02A5	; 0x8002a5 <_ZL7rx_tail>
    184c:	89 17       	cp	r24, r25
    184e:	41 f0       	breq	.+16     	; 0x1860 <__vector_18+0x5c>
    {
        rx_buf[rx_head] = d;
    1850:	e0 91 a6 02 	lds	r30, 0x02A6	; 0x8002a6 <_ZL7rx_head>
    1854:	f0 e0       	ldi	r31, 0x00	; 0
    1856:	e9 51       	subi	r30, 0x19	; 25
    1858:	fd 4f       	sbci	r31, 0xFD	; 253
    185a:	20 83       	st	Z, r18
        rx_head = next;
    185c:	80 93 a6 02 	sts	0x02A6, r24	; 0x8002a6 <_ZL7rx_head>
    {
        /*
         * RX-ą▒čāčäąĄčĆ ąĘą░ą┐ąŠą╗ąĮąĄąĮ. ą¤čĆąĖąĮčÅčéčŗą╣ ą▒ą░ą╣čé ąŠčéą▒čĆą░čüčŗą▓ą░ąĄčéčüčÅ.
         */
    }
}
    1860:	ff 91       	pop	r31
    1862:	ef 91       	pop	r30
    1864:	9f 91       	pop	r25
    1866:	8f 91       	pop	r24
    1868:	2f 91       	pop	r18
    186a:	0f 90       	pop	r0
    186c:	0f be       	out	0x3f, r0	; 63
    186e:	0f 90       	pop	r0
    1870:	1f 90       	pop	r1
    1872:	18 95       	reti

00001874 <__vector_19>:
 * @details
 * ąÆčŗą│čĆčāąČą░ąĄčé čüą╗ąĄą┤čāčÄčēąĖą╣ ą▒ą░ą╣čé ąĖąĘ TX-ą▒čāčäąĄčĆą░ ą▓ UDR0.
 * ąĢčüą╗ąĖ ą▒čāčäąĄčĆ ą┐čāčüčé, ąŠčéą║ą╗čÄčćą░ąĄčé ą┐čĆąĄčĆčŗą▓ą░ąĮąĖąĄ UDRE.
 */
ISR(UART0_UDRE_VECTOR)
{
    1874:	1f 92       	push	r1
    1876:	0f 92       	push	r0
    1878:	0f b6       	in	r0, 0x3f	; 63
    187a:	0f 92       	push	r0
    187c:	11 24       	eor	r1, r1
    187e:	8f 93       	push	r24
    1880:	9f 93       	push	r25
    1882:	ef 93       	push	r30
    1884:	ff 93       	push	r31
    if (tx_head == tx_tail)
    1886:	90 91 a4 02 	lds	r25, 0x02A4	; 0x8002a4 <_ZL7tx_head>
    188a:	80 91 a3 02 	lds	r24, 0x02A3	; 0x8002a3 <_ZL7tx_tail>
    188e:	98 13       	cpse	r25, r24
    1890:	06 c0       	rjmp	.+12     	; 0x189e <__vector_19+0x2a>
    {
        UCSR0B &= static_cast<uint8_t>(~_BV(UDRIE0));
    1892:	e1 ec       	ldi	r30, 0xC1	; 193
    1894:	f0 e0       	ldi	r31, 0x00	; 0
    1896:	80 81       	ld	r24, Z
    1898:	8f 7d       	andi	r24, 0xDF	; 223
    189a:	80 83       	st	Z, r24
        return;
    189c:	0d c0       	rjmp	.+26     	; 0x18b8 <__vector_19+0x44>
    }

    const uint8_t t = tx_tail;
    189e:	80 91 a3 02 	lds	r24, 0x02A3	; 0x8002a3 <_ZL7tx_tail>

    UDR0 = tx_buf[t];
    18a2:	e8 2f       	mov	r30, r24
    18a4:	f0 e0       	ldi	r31, 0x00	; 0
    18a6:	e9 55       	subi	r30, 0x59	; 89
    18a8:	fd 4f       	sbci	r31, 0xFD	; 253
    18aa:	90 81       	ld	r25, Z
    18ac:	90 93 c6 00 	sts	0x00C6, r25	; 0x8000c6 <__TEXT_REGION_LENGTH__+0x7f80c6>
    tx_tail = static_cast<uint8_t>((t + 1u) & TX_MASK);
    18b0:	8f 5f       	subi	r24, 0xFF	; 255
    18b2:	8f 73       	andi	r24, 0x3F	; 63
    18b4:	80 93 a3 02 	sts	0x02A3, r24	; 0x8002a3 <_ZL7tx_tail>
}
    18b8:	ff 91       	pop	r31
    18ba:	ef 91       	pop	r30
    18bc:	9f 91       	pop	r25
    18be:	8f 91       	pop	r24
    18c0:	0f 90       	pop	r0
    18c2:	0f be       	out	0x3f, r0	; 63
    18c4:	0f 90       	pop	r0
    18c6:	1f 90       	pop	r1
    18c8:	18 95       	reti

000018ca <__vector_20>:
 * ąĪčĆą░ą▒ą░čéčŗą▓ą░ąĄčé ą┐ąŠčüą╗ąĄ ą┐ąĄčĆąĄą┤ą░čćąĖ ą┐ąŠčüą╗ąĄą┤ąĮąĄą│ąŠ čüčéąŠą┐-ą▒ąĖčéą░, ą║ąŠą│ą┤ą░ čĆąĄą│ąĖčüčéčĆ ą┤ą░ąĮąĮčŗčģ
 * ąĖ čüą┤ą▓ąĖą│ąŠą▓čŗą╣ čĆąĄą│ąĖčüčéčĆ ą┐ąĄčĆąĄą┤ą░čéčćąĖą║ą░ ą┐čāčüčéčŗ. ą¤ąŠčüą╗ąĄ čüčĆą░ą▒ą░čéčŗą▓ą░ąĮąĖčÅ ą┐čĆąĄčĆčŗą▓ą░ąĮąĖąĄ
 * TX Complete ąŠčéą║ą╗čÄčćą░ąĄčéčüčÅ ąĖ ą▓čŗąĘčŗą▓ą░ąĄčéčüčÅ ąĮą░ąĘąĮą░čćąĄąĮąĮčŗą╣ callback.
 */
ISR(UART0_TX_VECTOR)
{
    18ca:	1f 92       	push	r1
    18cc:	0f 92       	push	r0
    18ce:	0f b6       	in	r0, 0x3f	; 63
    18d0:	0f 92       	push	r0
    18d2:	11 24       	eor	r1, r1
    18d4:	2f 93       	push	r18
    18d6:	3f 93       	push	r19
    18d8:	4f 93       	push	r20
    18da:	5f 93       	push	r21
    18dc:	6f 93       	push	r22
    18de:	7f 93       	push	r23
    18e0:	8f 93       	push	r24
    18e2:	9f 93       	push	r25
    18e4:	af 93       	push	r26
    18e6:	bf 93       	push	r27
    18e8:	ef 93       	push	r30
    18ea:	ff 93       	push	r31
    UCSR0B &= static_cast<uint8_t>(~_BV(TXCIE0));
    18ec:	e1 ec       	ldi	r30, 0xC1	; 193
    18ee:	f0 e0       	ldi	r31, 0x00	; 0
    18f0:	80 81       	ld	r24, Z
    18f2:	8f 7b       	andi	r24, 0xBF	; 191
    18f4:	80 83       	st	Z, r24

    if (s_tx_complete_callback != 0)
    18f6:	e0 91 a0 02 	lds	r30, 0x02A0	; 0x8002a0 <_ZL22s_tx_complete_callback>
    18fa:	f0 91 a1 02 	lds	r31, 0x02A1	; 0x8002a1 <_ZL22s_tx_complete_callback+0x1>
    18fe:	30 97       	sbiw	r30, 0x00	; 0
    1900:	09 f0       	breq	.+2      	; 0x1904 <__vector_20+0x3a>
    {
        s_tx_complete_callback();
    1902:	09 95       	icall
    }
}
    1904:	ff 91       	pop	r31
    1906:	ef 91       	pop	r30
    1908:	bf 91       	pop	r27
    190a:	af 91       	pop	r26
    190c:	9f 91       	pop	r25
    190e:	8f 91       	pop	r24
    1910:	7f 91       	pop	r23
    1912:	6f 91       	pop	r22
    1914:	5f 91       	pop	r21
    1916:	4f 91       	pop	r20
    1918:	3f 91       	pop	r19
    191a:	2f 91       	pop	r18
    191c:	0f 90       	pop	r0
    191e:	0f be       	out	0x3f, r0	; 63
    1920:	0f 90       	pop	r0
    1922:	1f 90       	pop	r1
    1924:	18 95       	reti

00001926 <_ZN3hal8spi_initEv>:
         * PB5 ŌĆö SCK.
         *
         * PB2 ą┤ąŠą╗ąČąĄąĮ ą▒čŗčéčī ąĮą░čüčéčĆąŠąĄąĮ ą║ą░ą║ ą▓čŗčģąŠą┤ ąĖ čāą┤ąĄčĆąČąĖą▓ą░čéčīčüčÅ ą▓ ą▓čŗčüąŠą║ąŠą╝ čāčĆąŠą▓ąĮąĄ,
         * čćčéąŠą▒čŗ ą░ą┐ą┐ą░čĆą░čéąĮčŗą╣ SPI ąŠčüčéą░ą▓ą░ą╗čüčÅ ą▓ čĆąĄąČąĖą╝ąĄ ą▓ąĄą┤čāčēąĄą│ąŠ.
         */
        DDRB |= static_cast<uint8_t>(_BV(PB2) | _BV(PB3) | _BV(PB5));
    1926:	84 b1       	in	r24, 0x04	; 4
    1928:	8c 62       	ori	r24, 0x2C	; 44
    192a:	84 b9       	out	0x04, r24	; 4
        DDRB &= static_cast<uint8_t>(~_BV(PB4));
    192c:	84 b1       	in	r24, 0x04	; 4
    192e:	8f 7e       	andi	r24, 0xEF	; 239
    1930:	84 b9       	out	0x04, r24	; 4

        PORTB |= static_cast<uint8_t>(_BV(PB2));
    1932:	85 b1       	in	r24, 0x05	; 5
    1934:	84 60       	ori	r24, 0x04	; 4
    1936:	85 b9       	out	0x05, r24	; 5

        SPCR = static_cast<uint8_t>(_BV(SPE) | _BV(MSTR) | _BV(SPR0));
    1938:	81 e5       	ldi	r24, 0x51	; 81
    193a:	8c bd       	out	0x2c, r24	; 44
        SPSR = 0U;
    193c:	1d bc       	out	0x2d, r1	; 45
    193e:	08 95       	ret

00001940 <_ZN3hal8spi_txrxEh>:
    }

    uint8_t spi_txrx(uint8_t value)
    {
        SPDR = value;
    1940:	8e bd       	out	0x2e, r24	; 46

        while ((SPSR & _BV(SPIF)) == 0U)
    1942:	0d b4       	in	r0, 0x2d	; 45
    1944:	07 fe       	sbrs	r0, 7
    1946:	fd cf       	rjmp	.-6      	; 0x1942 <_ZN3hal8spi_txrxEh+0x2>
            /*
             * ą×ąČąĖą┤ą░ąĮąĖąĄ ąĘą░ą▓ąĄčĆčłąĄąĮąĖčÅ ą┐ąĄčĆąĄą┤ą░čćąĖ ą▒ą░ą╣čéą░.
             */
        }

        return SPDR;
    1948:	8e b5       	in	r24, 0x2e	; 46
    }
    194a:	08 95       	ret

0000194c <_ZN3hal9tick_initEv>:
     * ążčāąĮą║čåąĖčÅ čüą▒čĆą░čüčŗą▓ą░ąĄčé čüčćčæčéčćąĖą║ Timer0, čäą╗ą░ą│ čüčĆą░ą▓ąĮąĄąĮąĖčÅ ąĖ ą┐čĆąŠą│čĆą░ą╝ą╝ąĮčŗą╣
     * čüčćčæčéčćąĖą║ ą╝ąĖą╗ą╗ąĖčüąĄą║čāąĮą┤.
     */
    void tick_init(void)
    {
        const uint8_t sreg = SREG;
    194c:	9f b7       	in	r25, 0x3f	; 63

        cli();
    194e:	f8 94       	cli

        s_millis = 0u;
    1950:	10 92 27 03 	sts	0x0327, r1	; 0x800327 <_ZL8s_millis>
    1954:	10 92 28 03 	sts	0x0328, r1	; 0x800328 <_ZL8s_millis+0x1>
    1958:	10 92 29 03 	sts	0x0329, r1	; 0x800329 <_ZL8s_millis+0x2>
    195c:	10 92 2a 03 	sts	0x032A, r1	; 0x80032a <_ZL8s_millis+0x3>

        TCCR0A = 0u;
    1960:	14 bc       	out	0x24, r1	; 36
        TCCR0B = 0u;
    1962:	15 bc       	out	0x25, r1	; 37
        TCNT0  = 0u;
    1964:	16 bc       	out	0x26, r1	; 38

        TCCR0A = static_cast<uint8_t>(_BV(WGM01));
    1966:	82 e0       	ldi	r24, 0x02	; 2
    1968:	84 bd       	out	0x24, r24	; 36
        OCR0A  = 249u;
    196a:	29 ef       	ldi	r18, 0xF9	; 249
    196c:	27 bd       	out	0x27, r18	; 39

        /*
         * ąĪą▒čĆąŠčü ą▓ąŠąĘą╝ąŠąČąĮąŠą│ąŠ čĆą░ąĮąĄąĄ čāčüčéą░ąĮąŠą▓ą╗ąĄąĮąĮąŠą│ąŠ čäą╗ą░ą│ą░ čüąŠą▓ą┐ą░ą┤ąĄąĮąĖčÅ.
         * ąØą░ AVR čäą╗ą░ą│ ąŠčćąĖčēą░ąĄčéčüčÅ ąĘą░ą┐ąĖčüčīčÄ ą╗ąŠą│ąĖčćąĄčüą║ąŠą╣ ąĄą┤ąĖąĮąĖčåčŗ.
         */
        TIFR0 = static_cast<uint8_t>(_BV(OCF0A));
    196e:	85 bb       	out	0x15, r24	; 21

        TIMSK0 = static_cast<uint8_t>(_BV(OCIE0A));
    1970:	80 93 6e 00 	sts	0x006E, r24	; 0x80006e <__TEXT_REGION_LENGTH__+0x7f806e>
        TCCR0B = static_cast<uint8_t>(_BV(CS01) | _BV(CS00));
    1974:	83 e0       	ldi	r24, 0x03	; 3
    1976:	85 bd       	out	0x25, r24	; 37

        SREG = sreg;
    1978:	9f bf       	out	0x3f, r25	; 63
    197a:	08 95       	ret

0000197c <_ZN3hal6millisEv>:
     * ąŠą▒čĆą░ą▒ąŠčéčćąĖą║ąŠą╝ ISR. ążčāąĮą║čåąĖčÅ ą║čĆą░čéą║ąŠą▓čĆąĄą╝ąĄąĮąĮąŠ ąĘą░ą┐čĆąĄčēą░ąĄčé ą┐čĆąĄčĆčŗą▓ą░ąĮąĖčÅ,
     * čüčćąĖčéčŗą▓ą░ąĄčé ąĘąĮą░čćąĄąĮąĖąĄ ąĖ ą▓ąŠčüčüčéą░ąĮą░ą▓ą╗ąĖą▓ą░ąĄčé ą┐čĆąĄąČąĮąĄąĄ čüąŠčüčéąŠčÅąĮąĖąĄ čĆąĄą│ąĖčüčéčĆą░ SREG.
     */
    static inline uint32_t atomicReadMillis(void)
    {
        const uint8_t sreg = SREG;
    197c:	2f b7       	in	r18, 0x3f	; 63

        cli();
    197e:	f8 94       	cli

        const uint32_t value = s_millis;
    1980:	60 91 27 03 	lds	r22, 0x0327	; 0x800327 <_ZL8s_millis>
    1984:	70 91 28 03 	lds	r23, 0x0328	; 0x800328 <_ZL8s_millis+0x1>
    1988:	80 91 29 03 	lds	r24, 0x0329	; 0x800329 <_ZL8s_millis+0x2>
    198c:	90 91 2a 03 	lds	r25, 0x032A	; 0x80032a <_ZL8s_millis+0x3>

        SREG = sreg;
    1990:	2f bf       	out	0x3f, r18	; 63
     * ą▓čŗčćąĖčüą╗čÅčéčī čćąĄčĆąĄąĘ čĆą░ąĘąĮąŠčüčéčī ą▒ąĄąĘąĘąĮą░ą║ąŠą▓čŗčģ ąĘąĮą░čćąĄąĮąĖą╣.
     */
    uint32_t millis(void)
    {
        return atomicReadMillis();
    }
    1992:	08 95       	ret

00001994 <_ZN3hal5delayEm>:
     * @details
     * ąĪčĆą░ą▓ąĮąĄąĮąĖąĄ ą▓čĆąĄą╝ąĄąĮąĖ ą▓čŗą┐ąŠą╗ąĮčÅąĄčéčüčÅ čćąĄčĆąĄąĘ čĆą░ąĘąĮąŠčüčéčī uint32_t, ą┐ąŠčŹčéąŠą╝čā ą║ąŠčĆčĆąĄą║čéąĮąŠ
     * čĆą░ą▒ąŠčéą░ąĄčé ą┐čĆąĖ ą┐ąĄčĆąĄą┐ąŠą╗ąĮąĄąĮąĖąĖ čüčćčæčéčćąĖą║ą░ ą╝ąĖą╗ą╗ąĖčüąĄą║čāąĮą┤.
     */
    void delay(uint32_t ms)
    {
    1994:	8f 92       	push	r8
    1996:	9f 92       	push	r9
    1998:	af 92       	push	r10
    199a:	bf 92       	push	r11
    199c:	cf 92       	push	r12
    199e:	df 92       	push	r13
    19a0:	ef 92       	push	r14
    19a2:	ff 92       	push	r15
    19a4:	4b 01       	movw	r8, r22
    19a6:	5c 01       	movw	r10, r24
        const uint32_t start = millis();
    19a8:	0e 94 be 0c 	call	0x197c	; 0x197c <_ZN3hal6millisEv>
    19ac:	6b 01       	movw	r12, r22
    19ae:	7c 01       	movw	r14, r24

        while (static_cast<uint32_t>(millis() - start) < ms)
    19b0:	0e 94 be 0c 	call	0x197c	; 0x197c <_ZN3hal6millisEv>
    19b4:	dc 01       	movw	r26, r24
    19b6:	cb 01       	movw	r24, r22
    19b8:	8c 19       	sub	r24, r12
    19ba:	9d 09       	sbc	r25, r13
    19bc:	ae 09       	sbc	r26, r14
    19be:	bf 09       	sbc	r27, r15
    19c0:	88 15       	cp	r24, r8
    19c2:	99 05       	cpc	r25, r9
    19c4:	aa 05       	cpc	r26, r10
    19c6:	bb 05       	cpc	r27, r11
    19c8:	98 f3       	brcs	.-26     	; 0x19b0 <_ZN3hal5delayEm+0x1c>
        {
            /*
             * ą×ąČąĖą┤ą░ąĮąĖąĄ ąĖčüčéąĄčćąĄąĮąĖčÅ ąĘą░ą┤ą░ąĮąĮąŠą│ąŠ ąĖąĮčéąĄčĆą▓ą░ą╗ą░.
             */
        }
    }
    19ca:	ff 90       	pop	r15
    19cc:	ef 90       	pop	r14
    19ce:	df 90       	pop	r13
    19d0:	cf 90       	pop	r12
    19d2:	bf 90       	pop	r11
    19d4:	af 90       	pop	r10
    19d6:	9f 90       	pop	r9
    19d8:	8f 90       	pop	r8
    19da:	08 95       	ret

000019dc <_ZN3hal17delayMicrosecondsEj>:
        if (iters_per_us == 0u)
        {
            return;
        }

        while (us-- != 0u)
    19dc:	9c 01       	movw	r18, r24
    19de:	21 50       	subi	r18, 0x01	; 1
    19e0:	31 09       	sbc	r19, r1
    19e2:	89 2b       	or	r24, r25
    19e4:	31 f0       	breq	.+12     	; 0x19f2 <_ZN3hal17delayMicrosecondsEj+0x16>
	__asm__ volatile (
		"1: sbiw %0,1" "\n\t"
		"brne 1b"
		: "=w" (__count)
		: "0" (__count)
	);
    19e6:	84 e0       	ldi	r24, 0x04	; 4
    19e8:	90 e0       	ldi	r25, 0x00	; 0
    19ea:	01 97       	sbiw	r24, 0x01	; 1
    19ec:	f1 f7       	brne	.-4      	; 0x19ea <_ZN3hal17delayMicrosecondsEj+0xe>
    19ee:	c9 01       	movw	r24, r18
    19f0:	f5 cf       	rjmp	.-22     	; 0x19dc <_ZN3hal17delayMicrosecondsEj>
    19f2:	08 95       	ret

000019f4 <__vector_14>:
 * @details
 * ąÆčŗąĘčŗą▓ą░ąĄčéčüčÅ Timer0 ą┐čĆąĖ čüąŠą▓ą┐ą░ą┤ąĄąĮąĖąĖ TCNT0 čü OCR0A.
 * ąŻą▓ąĄą╗ąĖčćąĖą▓ą░ąĄčé čüąĖčüčéąĄą╝ąĮčŗą╣ čüčćčæčéčćąĖą║ ą╝ąĖą╗ą╗ąĖčüąĄą║čāąĮą┤.
 */
ISR(TIMER0_COMPA_vect)
{
    19f4:	1f 92       	push	r1
    19f6:	0f 92       	push	r0
    19f8:	0f b6       	in	r0, 0x3f	; 63
    19fa:	0f 92       	push	r0
    19fc:	11 24       	eor	r1, r1
    19fe:	8f 93       	push	r24
    1a00:	9f 93       	push	r25
    1a02:	af 93       	push	r26
    1a04:	bf 93       	push	r27
    ++s_millis;
    1a06:	80 91 27 03 	lds	r24, 0x0327	; 0x800327 <_ZL8s_millis>
    1a0a:	90 91 28 03 	lds	r25, 0x0328	; 0x800328 <_ZL8s_millis+0x1>
    1a0e:	a0 91 29 03 	lds	r26, 0x0329	; 0x800329 <_ZL8s_millis+0x2>
    1a12:	b0 91 2a 03 	lds	r27, 0x032A	; 0x80032a <_ZL8s_millis+0x3>
    1a16:	01 96       	adiw	r24, 0x01	; 1
    1a18:	a1 1d       	adc	r26, r1
    1a1a:	b1 1d       	adc	r27, r1
    1a1c:	80 93 27 03 	sts	0x0327, r24	; 0x800327 <_ZL8s_millis>
    1a20:	90 93 28 03 	sts	0x0328, r25	; 0x800328 <_ZL8s_millis+0x1>
    1a24:	a0 93 29 03 	sts	0x0329, r26	; 0x800329 <_ZL8s_millis+0x2>
    1a28:	b0 93 2a 03 	sts	0x032A, r27	; 0x80032a <_ZL8s_millis+0x3>
    1a2c:	bf 91       	pop	r27
    1a2e:	af 91       	pop	r26
    1a30:	9f 91       	pop	r25
    1a32:	8f 91       	pop	r24
    1a34:	0f 90       	pop	r0
    1a36:	0f be       	out	0x3f, r0	; 63
    1a38:	0f 90       	pop	r0
    1a3a:	1f 90       	pop	r1
    1a3c:	18 95       	reti

00001a3e <_ZN12_GLOBAL__N_1L9waitTwintEv>:
     *
     * @return true ŌĆö čäą╗ą░ą│ TWINT čāčüčéą░ąĮąŠą▓ą╗ąĄąĮ; false ŌĆö ąĖčüčéčæą║ čéą░ą╣ą╝ą░čāčé ąŠąČąĖą┤ą░ąĮąĖčÅ.
     */
    static bool waitTwint(void)
    {
        uint16_t timeout = TWI_TIMEOUT;
    1a3e:	80 e6       	ldi	r24, 0x60	; 96
    1a40:	9a ee       	ldi	r25, 0xEA	; 234

        while ((TWCR & _BV(TWINT)) == 0U)
    1a42:	20 91 bc 00 	lds	r18, 0x00BC	; 0x8000bc <__TEXT_REGION_LENGTH__+0x7f80bc>
    1a46:	22 23       	and	r18, r18
    1a48:	24 f0       	brlt	.+8      	; 0x1a52 <_ZN12_GLOBAL__N_1L9waitTwintEv+0x14>
        {
            if (timeout == 0U)
    1a4a:	00 97       	sbiw	r24, 0x00	; 0
    1a4c:	21 f0       	breq	.+8      	; 0x1a56 <_ZN12_GLOBAL__N_1L9waitTwintEv+0x18>
            {
                return false;
            }

            --timeout;
    1a4e:	01 97       	sbiw	r24, 0x01	; 1
     */
    static bool waitTwint(void)
    {
        uint16_t timeout = TWI_TIMEOUT;

        while ((TWCR & _BV(TWINT)) == 0U)
    1a50:	f8 cf       	rjmp	.-16     	; 0x1a42 <_ZN12_GLOBAL__N_1L9waitTwintEv+0x4>
            }

            --timeout;
        }

        return true;
    1a52:	81 e0       	ldi	r24, 0x01	; 1
    1a54:	08 95       	ret

        while ((TWCR & _BV(TWINT)) == 0U)
        {
            if (timeout == 0U)
            {
                return false;
    1a56:	80 e0       	ldi	r24, 0x00	; 0

            --timeout;
        }

        return true;
    }
    1a58:	08 95       	ret

00001a5a <_ZN12_GLOBAL__N_1L14startConditionEv>:
     *
     * @return true ŌĆö čāčüą╗ąŠą▓ąĖąĄ START čüčäąŠčĆą╝ąĖčĆąŠą▓ą░ąĮąŠ čāčüą┐ąĄčłąĮąŠ; false ŌĆö ąŠčłąĖą▒ą║ą░ ąĖą╗ąĖ čéą░ą╣ą╝ą░čāčé.
     */
    static bool startCondition(void)
    {
        TWCR = static_cast<uint8_t>(_BV(TWINT) | _BV(TWSTA) | _BV(TWEN));
    1a5a:	84 ea       	ldi	r24, 0xA4	; 164
    1a5c:	80 93 bc 00 	sts	0x00BC, r24	; 0x8000bc <__TEXT_REGION_LENGTH__+0x7f80bc>

        if (!waitTwint())
    1a60:	0e 94 1f 0d 	call	0x1a3e	; 0x1a3e <_ZN12_GLOBAL__N_1L9waitTwintEv>
    1a64:	88 23       	and	r24, r24
    1a66:	41 f0       	breq	.+16     	; 0x1a78 <_ZN12_GLOBAL__N_1L14startConditionEv+0x1e>
        {
            return false;
        }

        const uint8_t status = TW_STATUS;
    1a68:	90 91 b9 00 	lds	r25, 0x00B9	; 0x8000b9 <__TEXT_REGION_LENGTH__+0x7f80b9>
    1a6c:	98 7f       	andi	r25, 0xF8	; 248
        return ((status == TW_START) || (status == TW_REP_START));
    1a6e:	98 30       	cpi	r25, 0x08	; 8
    1a70:	19 f0       	breq	.+6      	; 0x1a78 <_ZN12_GLOBAL__N_1L14startConditionEv+0x1e>
    1a72:	90 31       	cpi	r25, 0x10	; 16
    1a74:	09 f0       	breq	.+2      	; 0x1a78 <_ZN12_GLOBAL__N_1L14startConditionEv+0x1e>
    1a76:	80 e0       	ldi	r24, 0x00	; 0
    }
    1a78:	08 95       	ret

00001a7a <_ZN12_GLOBAL__N_1L13stopConditionEv>:
    /**
     * @brief ążąŠčĆą╝ąĖčĆčāąĄčé STOP ąĮą░ čłąĖąĮąĄ TWI.
     */
    static void stopCondition(void)
    {
        TWCR = static_cast<uint8_t>(_BV(TWINT) | _BV(TWEN) | _BV(TWSTO));
    1a7a:	84 e9       	ldi	r24, 0x94	; 148
    1a7c:	80 93 bc 00 	sts	0x00BC, r24	; 0x8000bc <__TEXT_REGION_LENGTH__+0x7f80bc>
    1a80:	08 95       	ret

00001a82 <_ZN12_GLOBAL__N_1L9writeByteEh>:
     *
     * @return true ŌĆö ą▒ą░ą╣čé ą┐ąŠą┤čéą▓ąĄčĆąČą┤čæąĮ ą▓ąĄą┤ąŠą╝čŗą╝ čāčüčéčĆąŠą╣čüčéą▓ąŠą╝; false ŌĆö ąŠčłąĖą▒ą║ą░ ąŠą▒ą╝ąĄąĮą░.
     */
    static bool writeByte(uint8_t value)
    {
        TWDR = value;
    1a82:	80 93 bb 00 	sts	0x00BB, r24	; 0x8000bb <__TEXT_REGION_LENGTH__+0x7f80bb>
        TWCR = static_cast<uint8_t>(_BV(TWINT) | _BV(TWEN));
    1a86:	84 e8       	ldi	r24, 0x84	; 132
    1a88:	80 93 bc 00 	sts	0x00BC, r24	; 0x8000bc <__TEXT_REGION_LENGTH__+0x7f80bc>

        if (!waitTwint())
    1a8c:	0e 94 1f 0d 	call	0x1a3e	; 0x1a3e <_ZN12_GLOBAL__N_1L9waitTwintEv>
    1a90:	88 23       	and	r24, r24
    1a92:	39 f0       	breq	.+14     	; 0x1aa2 <_ZN12_GLOBAL__N_1L9writeByteEh+0x20>
        {
            return false;
        }

        return (TW_STATUS == TW_MT_DATA_ACK);
    1a94:	90 91 b9 00 	lds	r25, 0x00B9	; 0x8000b9 <__TEXT_REGION_LENGTH__+0x7f80b9>
    1a98:	98 7f       	andi	r25, 0xF8	; 248
    1a9a:	81 e0       	ldi	r24, 0x01	; 1
    1a9c:	98 32       	cpi	r25, 0x28	; 40
    1a9e:	09 f0       	breq	.+2      	; 0x1aa2 <_ZN12_GLOBAL__N_1L9writeByteEh+0x20>
    1aa0:	80 e0       	ldi	r24, 0x00	; 0
    }
    1aa2:	08 95       	ret

00001aa4 <_ZN12_GLOBAL__N_1L16sendAddressWriteEh>:
     *
     * @return true ŌĆö ą░ą┤čĆąĄčü ą┐ąŠą┤čéą▓ąĄčĆąČą┤čæąĮ; false ŌĆö ąŠčłąĖą▒ą║ą░ ąŠą▒ą╝ąĄąĮą░.
     */
    static bool sendAddressWrite(uint8_t address)
    {
        TWDR = static_cast<uint8_t>((address << 1) | TW_WRITE);
    1aa4:	88 0f       	add	r24, r24
    1aa6:	80 93 bb 00 	sts	0x00BB, r24	; 0x8000bb <__TEXT_REGION_LENGTH__+0x7f80bb>
        TWCR = static_cast<uint8_t>(_BV(TWINT) | _BV(TWEN));
    1aaa:	84 e8       	ldi	r24, 0x84	; 132
    1aac:	80 93 bc 00 	sts	0x00BC, r24	; 0x8000bc <__TEXT_REGION_LENGTH__+0x7f80bc>

        if (!waitTwint())
    1ab0:	0e 94 1f 0d 	call	0x1a3e	; 0x1a3e <_ZN12_GLOBAL__N_1L9waitTwintEv>
    1ab4:	88 23       	and	r24, r24
    1ab6:	39 f0       	breq	.+14     	; 0x1ac6 <_ZN12_GLOBAL__N_1L16sendAddressWriteEh+0x22>
        {
            return false;
        }

        return (TW_STATUS == TW_MT_SLA_ACK);
    1ab8:	90 91 b9 00 	lds	r25, 0x00B9	; 0x8000b9 <__TEXT_REGION_LENGTH__+0x7f80b9>
    1abc:	98 7f       	andi	r25, 0xF8	; 248
    1abe:	81 e0       	ldi	r24, 0x01	; 1
    1ac0:	98 31       	cpi	r25, 0x18	; 24
    1ac2:	09 f0       	breq	.+2      	; 0x1ac6 <_ZN12_GLOBAL__N_1L16sendAddressWriteEh+0x22>
    1ac4:	80 e0       	ldi	r24, 0x00	; 0
    }
    1ac6:	08 95       	ret

00001ac8 <_ZN12_GLOBAL__N_1L15sendAddressReadEh>:
     *
     * @return true ŌĆö ą░ą┤čĆąĄčü ą┐ąŠą┤čéą▓ąĄčĆąČą┤čæąĮ; false ŌĆö ąŠčłąĖą▒ą║ą░ ąŠą▒ą╝ąĄąĮą░.
     */
    static bool sendAddressRead(uint8_t address)
    {
        TWDR = static_cast<uint8_t>((address << 1) | TW_READ);
    1ac8:	90 e0       	ldi	r25, 0x00	; 0
    1aca:	88 0f       	add	r24, r24
    1acc:	99 1f       	adc	r25, r25
    1ace:	81 60       	ori	r24, 0x01	; 1
    1ad0:	80 93 bb 00 	sts	0x00BB, r24	; 0x8000bb <__TEXT_REGION_LENGTH__+0x7f80bb>
        TWCR = static_cast<uint8_t>(_BV(TWINT) | _BV(TWEN));
    1ad4:	84 e8       	ldi	r24, 0x84	; 132
    1ad6:	80 93 bc 00 	sts	0x00BC, r24	; 0x8000bc <__TEXT_REGION_LENGTH__+0x7f80bc>

        if (!waitTwint())
    1ada:	0e 94 1f 0d 	call	0x1a3e	; 0x1a3e <_ZN12_GLOBAL__N_1L9waitTwintEv>
    1ade:	88 23       	and	r24, r24
    1ae0:	39 f0       	breq	.+14     	; 0x1af0 <_ZN12_GLOBAL__N_1L15sendAddressReadEh+0x28>
        {
            return false;
        }

        return (TW_STATUS == TW_MR_SLA_ACK);
    1ae2:	90 91 b9 00 	lds	r25, 0x00B9	; 0x8000b9 <__TEXT_REGION_LENGTH__+0x7f80b9>
    1ae6:	98 7f       	andi	r25, 0xF8	; 248
    1ae8:	81 e0       	ldi	r24, 0x01	; 1
    1aea:	90 34       	cpi	r25, 0x40	; 64
    1aec:	09 f0       	breq	.+2      	; 0x1af0 <_ZN12_GLOBAL__N_1L15sendAddressReadEh+0x28>
    1aee:	80 e0       	ldi	r24, 0x00	; 0
    }
    1af0:	08 95       	ret

00001af2 <_ZN12_GLOBAL__N_1L11readByteAckEPh>:
     * @param value ąŻą║ą░ąĘą░čéąĄą╗čī ą┤ą╗čÅ čüąŠčģčĆą░ąĮąĄąĮąĖčÅ ą┐čĆąŠčćąĖčéą░ąĮąĮąŠą│ąŠ ą▒ą░ą╣čéą░.
     *
     * @return true ŌĆö ą▒ą░ą╣čé ą┐čĆąŠčćąĖčéą░ąĮ čāčüą┐ąĄčłąĮąŠ; false ŌĆö ąŠčłąĖą▒ą║ą░ ąŠą▒ą╝ąĄąĮą░.
     */
    static bool readByteAck(uint8_t* value)
    {
    1af2:	cf 93       	push	r28
    1af4:	df 93       	push	r29
        if (value == 0)
    1af6:	00 97       	sbiw	r24, 0x00	; 0
    1af8:	89 f0       	breq	.+34     	; 0x1b1c <_ZN12_GLOBAL__N_1L11readByteAckEPh+0x2a>
    1afa:	ec 01       	movw	r28, r24
        {
            return false;
        }

        TWCR = static_cast<uint8_t>(_BV(TWINT) | _BV(TWEN) | _BV(TWEA));
    1afc:	84 ec       	ldi	r24, 0xC4	; 196
    1afe:	80 93 bc 00 	sts	0x00BC, r24	; 0x8000bc <__TEXT_REGION_LENGTH__+0x7f80bc>

        if (!waitTwint())
    1b02:	0e 94 1f 0d 	call	0x1a3e	; 0x1a3e <_ZN12_GLOBAL__N_1L9waitTwintEv>
    1b06:	88 23       	and	r24, r24
    1b08:	61 f0       	breq	.+24     	; 0x1b22 <_ZN12_GLOBAL__N_1L11readByteAckEPh+0x30>
        {
            return false;
        }

        if (TW_STATUS != TW_MR_DATA_ACK)
    1b0a:	90 91 b9 00 	lds	r25, 0x00B9	; 0x8000b9 <__TEXT_REGION_LENGTH__+0x7f80b9>
    1b0e:	98 7f       	andi	r25, 0xF8	; 248
    1b10:	90 35       	cpi	r25, 0x50	; 80
    1b12:	31 f4       	brne	.+12     	; 0x1b20 <_ZN12_GLOBAL__N_1L11readByteAckEPh+0x2e>
        {
            return false;
        }

        *value = TWDR;
    1b14:	90 91 bb 00 	lds	r25, 0x00BB	; 0x8000bb <__TEXT_REGION_LENGTH__+0x7f80bb>
    1b18:	98 83       	st	Y, r25
        return true;
    1b1a:	03 c0       	rjmp	.+6      	; 0x1b22 <_ZN12_GLOBAL__N_1L11readByteAckEPh+0x30>
     */
    static bool readByteAck(uint8_t* value)
    {
        if (value == 0)
        {
            return false;
    1b1c:	80 e0       	ldi	r24, 0x00	; 0
    1b1e:	01 c0       	rjmp	.+2      	; 0x1b22 <_ZN12_GLOBAL__N_1L11readByteAckEPh+0x30>
            return false;
        }

        if (TW_STATUS != TW_MR_DATA_ACK)
        {
            return false;
    1b20:	80 e0       	ldi	r24, 0x00	; 0
        }

        *value = TWDR;
        return true;
    }
    1b22:	df 91       	pop	r29
    1b24:	cf 91       	pop	r28
    1b26:	08 95       	ret

00001b28 <_ZN12_GLOBAL__N_1L12readByteNackEPh>:
     * @param value ąŻą║ą░ąĘą░čéąĄą╗čī ą┤ą╗čÅ čüąŠčģčĆą░ąĮąĄąĮąĖčÅ ą┐čĆąŠčćąĖčéą░ąĮąĮąŠą│ąŠ ą▒ą░ą╣čéą░.
     *
     * @return true ŌĆö ą▒ą░ą╣čé ą┐čĆąŠčćąĖčéą░ąĮ čāčüą┐ąĄčłąĮąŠ; false ŌĆö ąŠčłąĖą▒ą║ą░ ąŠą▒ą╝ąĄąĮą░.
     */
    static bool readByteNack(uint8_t* value)
    {
    1b28:	cf 93       	push	r28
    1b2a:	df 93       	push	r29
        if (value == 0)
    1b2c:	00 97       	sbiw	r24, 0x00	; 0
    1b2e:	89 f0       	breq	.+34     	; 0x1b52 <_ZN12_GLOBAL__N_1L12readByteNackEPh+0x2a>
    1b30:	ec 01       	movw	r28, r24
        {
            return false;
        }

        TWCR = static_cast<uint8_t>(_BV(TWINT) | _BV(TWEN));
    1b32:	84 e8       	ldi	r24, 0x84	; 132
    1b34:	80 93 bc 00 	sts	0x00BC, r24	; 0x8000bc <__TEXT_REGION_LENGTH__+0x7f80bc>

        if (!waitTwint())
    1b38:	0e 94 1f 0d 	call	0x1a3e	; 0x1a3e <_ZN12_GLOBAL__N_1L9waitTwintEv>
    1b3c:	88 23       	and	r24, r24
    1b3e:	61 f0       	breq	.+24     	; 0x1b58 <_ZN12_GLOBAL__N_1L12readByteNackEPh+0x30>
        {
            return false;
        }

        if (TW_STATUS != TW_MR_DATA_NACK)
    1b40:	90 91 b9 00 	lds	r25, 0x00B9	; 0x8000b9 <__TEXT_REGION_LENGTH__+0x7f80b9>
    1b44:	98 7f       	andi	r25, 0xF8	; 248
    1b46:	98 35       	cpi	r25, 0x58	; 88
    1b48:	31 f4       	brne	.+12     	; 0x1b56 <_ZN12_GLOBAL__N_1L12readByteNackEPh+0x2e>
        {
            return false;
        }

        *value = TWDR;
    1b4a:	90 91 bb 00 	lds	r25, 0x00BB	; 0x8000bb <__TEXT_REGION_LENGTH__+0x7f80bb>
    1b4e:	98 83       	st	Y, r25
        return true;
    1b50:	03 c0       	rjmp	.+6      	; 0x1b58 <_ZN12_GLOBAL__N_1L12readByteNackEPh+0x30>
     */
    static bool readByteNack(uint8_t* value)
    {
        if (value == 0)
        {
            return false;
    1b52:	80 e0       	ldi	r24, 0x00	; 0
    1b54:	01 c0       	rjmp	.+2      	; 0x1b58 <_ZN12_GLOBAL__N_1L12readByteNackEPh+0x30>
            return false;
        }

        if (TW_STATUS != TW_MR_DATA_NACK)
        {
            return false;
    1b56:	80 e0       	ldi	r24, 0x00	; 0
        }

        *value = TWDR;
        return true;
    }
    1b58:	df 91       	pop	r29
    1b5a:	cf 91       	pop	r28
    1b5c:	08 95       	ret

00001b5e <_ZN3hal8twi_initEm>:
}

namespace hal
{
    void twi_init(uint32_t scl_hz)
    {
    1b5e:	9b 01       	movw	r18, r22
    1b60:	ac 01       	movw	r20, r24
        if (scl_hz == 0UL)
    1b62:	67 2b       	or	r22, r23
    1b64:	68 2b       	or	r22, r24
    1b66:	69 2b       	or	r22, r25
    1b68:	21 f4       	brne	.+8      	; 0x1b72 <_ZN3hal8twi_initEm+0x14>
        {
            scl_hz = 100000UL;
    1b6a:	20 ea       	ldi	r18, 0xA0	; 160
    1b6c:	36 e8       	ldi	r19, 0x86	; 134
    1b6e:	41 e0       	ldi	r20, 0x01	; 1
    1b70:	50 e0       	ldi	r21, 0x00	; 0

        /*
         * Prescaler = 1.
         * SCL = F_CPU / (16 + 2 * TWBR * prescaler).
         */
        TWSR = 0U;
    1b72:	10 92 b9 00 	sts	0x00B9, r1	; 0x8000b9 <__TEXT_REGION_LENGTH__+0x7f80b9>

        uint32_t twbrValue = 0UL;

        if (F_CPU > (16UL * scl_hz))
    1b76:	da 01       	movw	r26, r20
    1b78:	c9 01       	movw	r24, r18
    1b7a:	88 0f       	add	r24, r24
    1b7c:	99 1f       	adc	r25, r25
    1b7e:	aa 1f       	adc	r26, r26
    1b80:	bb 1f       	adc	r27, r27
    1b82:	88 0f       	add	r24, r24
    1b84:	99 1f       	adc	r25, r25
    1b86:	aa 1f       	adc	r26, r26
    1b88:	bb 1f       	adc	r27, r27
    1b8a:	88 0f       	add	r24, r24
    1b8c:	99 1f       	adc	r25, r25
    1b8e:	aa 1f       	adc	r26, r26
    1b90:	bb 1f       	adc	r27, r27
    1b92:	88 0f       	add	r24, r24
    1b94:	99 1f       	adc	r25, r25
    1b96:	aa 1f       	adc	r26, r26
    1b98:	bb 1f       	adc	r27, r27
    1b9a:	81 15       	cp	r24, r1
    1b9c:	94 42       	sbci	r25, 0x24	; 36
    1b9e:	a4 4f       	sbci	r26, 0xF4	; 244
    1ba0:	b1 05       	cpc	r27, r1
    1ba2:	80 f4       	brcc	.+32     	; 0x1bc4 <_ZN3hal8twi_initEm+0x66>
        {
            twbrValue = ((F_CPU / scl_hz) - 16UL) / 2UL;
    1ba4:	60 e0       	ldi	r22, 0x00	; 0
    1ba6:	74 e2       	ldi	r23, 0x24	; 36
    1ba8:	84 ef       	ldi	r24, 0xF4	; 244
    1baa:	90 e0       	ldi	r25, 0x00	; 0
    1bac:	0e 94 c7 14 	call	0x298e	; 0x298e <__udivmodsi4>
    1bb0:	da 01       	movw	r26, r20
    1bb2:	c9 01       	movw	r24, r18
    1bb4:	40 97       	sbiw	r24, 0x10	; 16
    1bb6:	a1 09       	sbc	r26, r1
    1bb8:	b1 09       	sbc	r27, r1
    1bba:	b6 95       	lsr	r27
    1bbc:	a7 95       	ror	r26
    1bbe:	97 95       	ror	r25
    1bc0:	87 95       	ror	r24
    1bc2:	03 c0       	rjmp	.+6      	; 0x1bca <_ZN3hal8twi_initEm+0x6c>
         * Prescaler = 1.
         * SCL = F_CPU / (16 + 2 * TWBR * prescaler).
         */
        TWSR = 0U;

        uint32_t twbrValue = 0UL;
    1bc4:	80 e0       	ldi	r24, 0x00	; 0
    1bc6:	90 e0       	ldi	r25, 0x00	; 0
    1bc8:	dc 01       	movw	r26, r24
        if (F_CPU > (16UL * scl_hz))
        {
            twbrValue = ((F_CPU / scl_hz) - 16UL) / 2UL;
        }

        if (twbrValue > 255UL)
    1bca:	8f 3f       	cpi	r24, 0xFF	; 255
    1bcc:	91 05       	cpc	r25, r1
    1bce:	a1 05       	cpc	r26, r1
    1bd0:	b1 05       	cpc	r27, r1
    1bd2:	29 f0       	breq	.+10     	; 0x1bde <_ZN3hal8twi_initEm+0x80>
    1bd4:	20 f0       	brcs	.+8      	; 0x1bde <_ZN3hal8twi_initEm+0x80>
        {
            twbrValue = 255UL;
    1bd6:	8f ef       	ldi	r24, 0xFF	; 255
    1bd8:	90 e0       	ldi	r25, 0x00	; 0
    1bda:	a0 e0       	ldi	r26, 0x00	; 0
    1bdc:	b0 e0       	ldi	r27, 0x00	; 0
        }

        TWBR = static_cast<uint8_t>(twbrValue);
    1bde:	80 93 b8 00 	sts	0x00B8, r24	; 0x8000b8 <__TEXT_REGION_LENGTH__+0x7f80b8>

        /*
         * ąÆą║ą╗čÄčćąĄąĮąĖąĄ ą░ą┐ą┐ą░čĆą░čéąĮąŠą│ąŠ TWI.
         * ą¤ąŠą┤čéčÅą│ąĖą▓ą░čÄčēąĖąĄ čĆąĄąĘąĖčüčéąŠčĆčŗ SDA/SCL ą┤ąŠą╗ąČąĮčŗ ą▒čŗčéčī ąŠą▒ąĄčüą┐ąĄčćąĄąĮčŗ čüčģąĄą╝ąŠą╣ ą┐ą╗ą░čéčŗ.
         */
        TWCR = static_cast<uint8_t>(_BV(TWEN));
    1be2:	84 e0       	ldi	r24, 0x04	; 4
    1be4:	80 93 bc 00 	sts	0x00BC, r24	; 0x8000bc <__TEXT_REGION_LENGTH__+0x7f80bc>
    1be8:	08 95       	ret

00001bea <_ZN3hal15twi_write_reg16Ehhj>:
    }

    bool twi_write_reg16(uint8_t address, uint8_t reg, uint16_t value)
    {
    1bea:	ff 92       	push	r15
    1bec:	0f 93       	push	r16
    1bee:	1f 93       	push	r17
    1bf0:	cf 93       	push	r28
    1bf2:	df 93       	push	r29
    1bf4:	f8 2e       	mov	r15, r24
    1bf6:	06 2f       	mov	r16, r22
    1bf8:	d4 2f       	mov	r29, r20
    1bfa:	15 2f       	mov	r17, r21
        bool ok = startCondition();
    1bfc:	0e 94 2d 0d 	call	0x1a5a	; 0x1a5a <_ZN12_GLOBAL__N_1L14startConditionEv>
    1c00:	c8 2f       	mov	r28, r24

        if (ok)
    1c02:	88 23       	and	r24, r24
    1c04:	21 f0       	breq	.+8      	; 0x1c0e <_ZN3hal15twi_write_reg16Ehhj+0x24>
        {
            ok = sendAddressWrite(address);
    1c06:	8f 2d       	mov	r24, r15
    1c08:	0e 94 52 0d 	call	0x1aa4	; 0x1aa4 <_ZN12_GLOBAL__N_1L16sendAddressWriteEh>
    1c0c:	c8 2f       	mov	r28, r24
        }

        if (ok)
    1c0e:	cc 23       	and	r28, r28
    1c10:	21 f0       	breq	.+8      	; 0x1c1a <_ZN3hal15twi_write_reg16Ehhj+0x30>
        {
            ok = writeByte(reg);
    1c12:	80 2f       	mov	r24, r16
    1c14:	0e 94 41 0d 	call	0x1a82	; 0x1a82 <_ZN12_GLOBAL__N_1L9writeByteEh>
    1c18:	c8 2f       	mov	r28, r24
        }

        if (ok)
    1c1a:	cc 23       	and	r28, r28
    1c1c:	21 f0       	breq	.+8      	; 0x1c26 <_ZN3hal15twi_write_reg16Ehhj+0x3c>
        {
            ok = writeByte(static_cast<uint8_t>(value >> 8));
    1c1e:	81 2f       	mov	r24, r17
    1c20:	0e 94 41 0d 	call	0x1a82	; 0x1a82 <_ZN12_GLOBAL__N_1L9writeByteEh>
    1c24:	c8 2f       	mov	r28, r24
        }

        if (ok)
    1c26:	cc 23       	and	r28, r28
    1c28:	21 f0       	breq	.+8      	; 0x1c32 <_ZN3hal15twi_write_reg16Ehhj+0x48>
        {
            ok = writeByte(static_cast<uint8_t>(value & 0x00FFU));
    1c2a:	8d 2f       	mov	r24, r29
    1c2c:	0e 94 41 0d 	call	0x1a82	; 0x1a82 <_ZN12_GLOBAL__N_1L9writeByteEh>
    1c30:	c8 2f       	mov	r28, r24
        }

        stopCondition();
    1c32:	0e 94 3d 0d 	call	0x1a7a	; 0x1a7a <_ZN12_GLOBAL__N_1L13stopConditionEv>
        return ok;
    }
    1c36:	8c 2f       	mov	r24, r28
    1c38:	df 91       	pop	r29
    1c3a:	cf 91       	pop	r28
    1c3c:	1f 91       	pop	r17
    1c3e:	0f 91       	pop	r16
    1c40:	ff 90       	pop	r15
    1c42:	08 95       	ret

00001c44 <_ZN3hal14twi_read_reg16EhhPj>:

    bool twi_read_reg16(uint8_t address, uint8_t reg, uint16_t* value)
    {
    1c44:	df 92       	push	r13
    1c46:	ef 92       	push	r14
    1c48:	ff 92       	push	r15
    1c4a:	0f 93       	push	r16
    1c4c:	1f 93       	push	r17
    1c4e:	cf 93       	push	r28
    1c50:	df 93       	push	r29
    1c52:	00 d0       	rcall	.+0      	; 0x1c54 <_ZN3hal14twi_read_reg16EhhPj+0x10>
    1c54:	cd b7       	in	r28, 0x3d	; 61
    1c56:	de b7       	in	r29, 0x3e	; 62
        if (value == 0)
    1c58:	41 15       	cp	r20, r1
    1c5a:	51 05       	cpc	r21, r1
    1c5c:	e1 f1       	breq	.+120    	; 0x1cd6 <_ZN3hal14twi_read_reg16EhhPj+0x92>
    1c5e:	7a 01       	movw	r14, r20
    1c60:	d6 2e       	mov	r13, r22
    1c62:	08 2f       	mov	r16, r24
        {
            return false;
        }

        bool ok = startCondition();
    1c64:	0e 94 2d 0d 	call	0x1a5a	; 0x1a5a <_ZN12_GLOBAL__N_1L14startConditionEv>
    1c68:	18 2f       	mov	r17, r24

        if (ok)
    1c6a:	88 23       	and	r24, r24
    1c6c:	21 f0       	breq	.+8      	; 0x1c76 <_ZN3hal14twi_read_reg16EhhPj+0x32>
        {
            ok = sendAddressWrite(address);
    1c6e:	80 2f       	mov	r24, r16
    1c70:	0e 94 52 0d 	call	0x1aa4	; 0x1aa4 <_ZN12_GLOBAL__N_1L16sendAddressWriteEh>
    1c74:	18 2f       	mov	r17, r24
        }

        if (ok)
    1c76:	11 23       	and	r17, r17
    1c78:	21 f0       	breq	.+8      	; 0x1c82 <_ZN3hal14twi_read_reg16EhhPj+0x3e>
        {
            ok = writeByte(reg);
    1c7a:	8d 2d       	mov	r24, r13
    1c7c:	0e 94 41 0d 	call	0x1a82	; 0x1a82 <_ZN12_GLOBAL__N_1L9writeByteEh>
    1c80:	18 2f       	mov	r17, r24
        }

        if (ok)
    1c82:	11 23       	and	r17, r17
    1c84:	19 f0       	breq	.+6      	; 0x1c8c <_ZN3hal14twi_read_reg16EhhPj+0x48>
        {
            ok = startCondition();
    1c86:	0e 94 2d 0d 	call	0x1a5a	; 0x1a5a <_ZN12_GLOBAL__N_1L14startConditionEv>
    1c8a:	18 2f       	mov	r17, r24
        }

        if (ok)
    1c8c:	11 23       	and	r17, r17
    1c8e:	21 f0       	breq	.+8      	; 0x1c98 <_ZN3hal14twi_read_reg16EhhPj+0x54>
        {
            ok = sendAddressRead(address);
    1c90:	80 2f       	mov	r24, r16
    1c92:	0e 94 64 0d 	call	0x1ac8	; 0x1ac8 <_ZN12_GLOBAL__N_1L15sendAddressReadEh>
    1c96:	18 2f       	mov	r17, r24
        }

        uint8_t msb = 0U;
    1c98:	19 82       	std	Y+1, r1	; 0x01
        uint8_t lsb = 0U;
    1c9a:	1a 82       	std	Y+2, r1	; 0x02

        if (ok)
    1c9c:	11 23       	and	r17, r17
    1c9e:	29 f0       	breq	.+10     	; 0x1caa <_ZN3hal14twi_read_reg16EhhPj+0x66>
        {
            ok = readByteAck(&msb);
    1ca0:	ce 01       	movw	r24, r28
    1ca2:	01 96       	adiw	r24, 0x01	; 1
    1ca4:	0e 94 79 0d 	call	0x1af2	; 0x1af2 <_ZN12_GLOBAL__N_1L11readByteAckEPh>
    1ca8:	18 2f       	mov	r17, r24
        }

        if (ok)
    1caa:	11 23       	and	r17, r17
    1cac:	29 f0       	breq	.+10     	; 0x1cb8 <_ZN3hal14twi_read_reg16EhhPj+0x74>
        {
            ok = readByteNack(&lsb);
    1cae:	ce 01       	movw	r24, r28
    1cb0:	02 96       	adiw	r24, 0x02	; 2
    1cb2:	0e 94 94 0d 	call	0x1b28	; 0x1b28 <_ZN12_GLOBAL__N_1L12readByteNackEPh>
    1cb6:	18 2f       	mov	r17, r24
        }

        stopCondition();
    1cb8:	0e 94 3d 0d 	call	0x1a7a	; 0x1a7a <_ZN12_GLOBAL__N_1L13stopConditionEv>

        if (ok)
    1cbc:	11 23       	and	r17, r17
    1cbe:	69 f0       	breq	.+26     	; 0x1cda <_ZN3hal14twi_read_reg16EhhPj+0x96>
        {
            *value = static_cast<uint16_t>(
                (static_cast<uint16_t>(msb) << 8) |
    1cc0:	89 81       	ldd	r24, Y+1	; 0x01
    1cc2:	90 e0       	ldi	r25, 0x00	; 0
    1cc4:	98 2f       	mov	r25, r24
    1cc6:	88 27       	eor	r24, r24
    1cc8:	2a 81       	ldd	r18, Y+2	; 0x02
    1cca:	82 2b       	or	r24, r18
                static_cast<uint16_t>(lsb)
            );
    1ccc:	f7 01       	movw	r30, r14
    1cce:	91 83       	std	Z+1, r25	; 0x01
    1cd0:	80 83       	st	Z, r24
        }

        return ok;
    1cd2:	81 2f       	mov	r24, r17
    1cd4:	03 c0       	rjmp	.+6      	; 0x1cdc <_ZN3hal14twi_read_reg16EhhPj+0x98>

    bool twi_read_reg16(uint8_t address, uint8_t reg, uint16_t* value)
    {
        if (value == 0)
        {
            return false;
    1cd6:	80 e0       	ldi	r24, 0x00	; 0
    1cd8:	01 c0       	rjmp	.+2      	; 0x1cdc <_ZN3hal14twi_read_reg16EhhPj+0x98>
                (static_cast<uint16_t>(msb) << 8) |
                static_cast<uint16_t>(lsb)
            );
        }

        return ok;
    1cda:	81 2f       	mov	r24, r17
    }
    1cdc:	0f 90       	pop	r0
    1cde:	0f 90       	pop	r0
    1ce0:	df 91       	pop	r29
    1ce2:	cf 91       	pop	r28
    1ce4:	1f 91       	pop	r17
    1ce6:	0f 91       	pop	r16
    1ce8:	ff 90       	pop	r15
    1cea:	ef 90       	pop	r14
    1cec:	df 90       	pop	r13
    1cee:	08 95       	ret

00001cf0 <_ZN12_GLOBAL__N_123rs485TxCompleteCallbackEv>:
 *
 * @see hal::delayMicroseconds
 */
static inline void delayMicroseconds(uint16_t us)
{
    hal::delayMicroseconds(us);
    1cf0:	84 e1       	ldi	r24, 0x14	; 20
    1cf2:	90 e0       	ldi	r25, 0x00	; 0
    1cf4:	0e 94 ee 0c 	call	0x19dc	; 0x19dc <_ZN3hal17delayMicrosecondsEj>
     * ążčāąĮą║čåąĖčÅ ą▓čŗą┐ąŠą╗ąĮčÅąĄčéčüčÅ ą▓ ą║ąŠąĮčéąĄą║čüčéąĄ ą┐čĆąĄčĆčŗą▓ą░ąĮąĖčÅ ąĖ ą┤ąŠą╗ąČąĮą░ ąŠčüčéą░ą▓ą░čéčīčüčÅ ą║ąŠčĆąŠčéą║ąŠą╣.
     */
    void rs485TxCompleteCallback(void)
    {
        delayMicroseconds(20);
        lai_board::rs485ReceiveMode();
    1cf8:	0e 94 d5 09 	call	0x13aa	; 0x13aa <_ZN9lai_board16rs485ReceiveModeEv>
    1cfc:	08 95       	ret

00001cfe <_ZN11IGAS_mb_485C1Ev>:

/*----------------------------------------------------------------------------
 * ąÜąŠąĮčüčéčĆčāą║čéąŠčĆ
 *---------------------------------------------------------------------------*/

IGAS_mb_485::IGAS_mb_485(void)
    1cfe:	fc 01       	movw	r30, r24
      func(0),
      interframe_delay(5),
      fpAction(0),
      regLimit(0),
      Nowdt(0),
      lastBytesReceived(0)
    1d00:	10 82       	st	Z, r1
    1d02:	11 82       	std	Z+1, r1	; 0x01
    1d04:	12 82       	std	Z+2, r1	; 0x02
    1d06:	85 e0       	ldi	r24, 0x05	; 5
    1d08:	90 e0       	ldi	r25, 0x00	; 0
    1d0a:	94 83       	std	Z+4, r25	; 0x04
    1d0c:	83 83       	std	Z+3, r24	; 0x03
    1d0e:	16 82       	std	Z+6, r1	; 0x06
    1d10:	15 82       	std	Z+5, r1	; 0x05
    1d12:	10 86       	std	Z+8, r1	; 0x08
    1d14:	17 82       	std	Z+7, r1	; 0x07
    1d16:	11 86       	std	Z+9, r1	; 0x09
    1d18:	12 86       	std	Z+10, r1	; 0x0a
    1d1a:	13 86       	std	Z+11, r1	; 0x0b
    1d1c:	14 86       	std	Z+12, r1	; 0x0c
    1d1e:	16 86       	std	Z+14, r1	; 0x0e
    1d20:	15 86       	std	Z+13, r1	; 0x0d
    1d22:	08 95       	ret

00001d24 <_ZN11IGAS_mb_4856initMBEmhj>:
void IGAS_mb_485::initMB(
    uint32_t COMM_BPS,
    uint8_t SERIAL_MODE,
    uint16_t allRegs
)
{
    1d24:	cf 92       	push	r12
    1d26:	df 92       	push	r13
    1d28:	ef 92       	push	r14
    1d2a:	ff 92       	push	r15
    1d2c:	0f 93       	push	r16
    1d2e:	1f 93       	push	r17
    1d30:	cf 93       	push	r28
    1d32:	df 93       	push	r29
    1d34:	ec 01       	movw	r28, r24
    1d36:	6a 01       	movw	r12, r20
    1d38:	7b 01       	movw	r14, r22
     * @param baud ąĪą║ąŠčĆąŠčüčéčī ąŠą▒ą╝ąĄąĮą░, ą▒ąŠą┤.
     * @param cfg ążąŠčĆą╝ą░čé ą║ą░ą┤čĆą░ SERIAL_*.
     */
    void begin(uint32_t baud, uint8_t cfg)
    {
        hal::uart0_init(baud, cfg);
    1d3a:	42 2f       	mov	r20, r18
    1d3c:	c7 01       	movw	r24, r14
    1d3e:	b6 01       	movw	r22, r12
    1d40:	0e 94 7d 0b 	call	0x16fa	; 0x16fa <_ZN3hal10uart0_initEmh>
    Serial.begin(COMM_BPS, SERIAL_MODE);

    hal::uart0_set_tx_complete_callback(rs485TxCompleteCallback);
    1d44:	88 e7       	ldi	r24, 0x78	; 120
    1d46:	9e e0       	ldi	r25, 0x0E	; 14
    1d48:	0e 94 e2 0b 	call	0x17c4	; 0x17c4 <_ZN3hal30uart0_set_tx_complete_callbackEPFvvE>
    hal::uart0_disable_tx_complete_interrupt();
    1d4c:	0e 94 f9 0b 	call	0x17f2	; 0x17f2 <_ZN3hal35uart0_disable_tx_complete_interruptEv>

    if (COMM_BPS == 0UL)
    1d50:	c1 14       	cp	r12, r1
    1d52:	d1 04       	cpc	r13, r1
    1d54:	e1 04       	cpc	r14, r1
    1d56:	f1 04       	cpc	r15, r1
    1d58:	29 f4       	brne	.+10     	; 0x1d64 <_ZN11IGAS_mb_4856initMBEmhj+0x40>
    {
        interframe_delay = 5U;
    1d5a:	85 e0       	ldi	r24, 0x05	; 5
    1d5c:	90 e0       	ldi	r25, 0x00	; 0
    1d5e:	9c 83       	std	Y+4, r25	; 0x04
    1d60:	8b 83       	std	Y+3, r24	; 0x03
    1d62:	1c c0       	rjmp	.+56     	; 0x1d9c <_ZN11IGAS_mb_4856initMBEmhj+0x78>
    }
    else
    {
        interframe_delay = static_cast<uint16_t>(40000UL / COMM_BPS);
    1d64:	60 e4       	ldi	r22, 0x40	; 64
    1d66:	7c e9       	ldi	r23, 0x9C	; 156
    1d68:	80 e0       	ldi	r24, 0x00	; 0
    1d6a:	90 e0       	ldi	r25, 0x00	; 0
    1d6c:	a7 01       	movw	r20, r14
    1d6e:	96 01       	movw	r18, r12
    1d70:	0e 94 c7 14 	call	0x298e	; 0x298e <__udivmodsi4>
    1d74:	3c 83       	std	Y+4, r19	; 0x04
    1d76:	2b 83       	std	Y+3, r18	; 0x03

        if (interframe_delay < 2U)
    1d78:	22 30       	cpi	r18, 0x02	; 2
    1d7a:	31 05       	cpc	r19, r1
    1d7c:	20 f4       	brcc	.+8      	; 0x1d86 <_ZN11IGAS_mb_4856initMBEmhj+0x62>
        {
            interframe_delay = 2U;
    1d7e:	82 e0       	ldi	r24, 0x02	; 2
    1d80:	90 e0       	ldi	r25, 0x00	; 0
    1d82:	9c 83       	std	Y+4, r25	; 0x04
    1d84:	8b 83       	std	Y+3, r24	; 0x03
        }

        if (COMM_BPS <= 9600UL)
    1d86:	81 e8       	ldi	r24, 0x81	; 129
    1d88:	c8 16       	cp	r12, r24
    1d8a:	85 e2       	ldi	r24, 0x25	; 37
    1d8c:	d8 06       	cpc	r13, r24
    1d8e:	e1 04       	cpc	r14, r1
    1d90:	f1 04       	cpc	r15, r1
    1d92:	20 f4       	brcc	.+8      	; 0x1d9c <_ZN11IGAS_mb_4856initMBEmhj+0x78>
        {
            interframe_delay = 5U;
    1d94:	85 e0       	ldi	r24, 0x05	; 5
    1d96:	90 e0       	ldi	r25, 0x00	; 0
    1d98:	9c 83       	std	Y+4, r25	; 0x04
    1d9a:	8b 83       	std	Y+3, r24	; 0x03
        }
    }

    regLimit = allRegs;
    1d9c:	18 87       	std	Y+8, r17	; 0x08
    1d9e:	0f 83       	std	Y+7, r16	; 0x07
}
    1da0:	df 91       	pop	r29
    1da2:	cf 91       	pop	r28
    1da4:	1f 91       	pop	r17
    1da6:	0f 91       	pop	r16
    1da8:	ff 90       	pop	r15
    1daa:	ef 90       	pop	r14
    1dac:	df 90       	pop	r13
    1dae:	cf 90       	pop	r12
    1db0:	08 95       	ret

00001db2 <_ZN11IGAS_mb_4853crcEPhhh>:
 * CRC16
 *---------------------------------------------------------------------------*/

uint16_t IGAS_mb_485::crc(uint8_t* buf, uint8_t start, uint8_t cnt)
{
    uint16_t temp = 0xFFFFU;
    1db2:	8f ef       	ldi	r24, 0xFF	; 255
    1db4:	9f ef       	ldi	r25, 0xFF	; 255

    for (uint8_t i = start; i < cnt; ++i)
    1db6:	42 17       	cp	r20, r18
    1db8:	b8 f4       	brcc	.+46     	; 0x1de8 <_ZN11IGAS_mb_4853crcEPhhh+0x36>
    {
        temp ^= static_cast<uint16_t>(buf[i]);
    1dba:	fb 01       	movw	r30, r22
    1dbc:	e4 0f       	add	r30, r20
    1dbe:	f1 1d       	adc	r31, r1
    1dc0:	30 81       	ld	r19, Z
    1dc2:	83 27       	eor	r24, r19

        for (uint8_t j = 0; j < 8U; ++j)
    1dc4:	30 e0       	ldi	r19, 0x00	; 0
    1dc6:	38 30       	cpi	r19, 0x08	; 8
    1dc8:	68 f4       	brcc	.+26     	; 0x1de4 <_ZN11IGAS_mb_4853crcEPhhh+0x32>
        {
            const uint16_t lsb =
                static_cast<uint16_t>(temp & 0x0001U);
    1dca:	fc 01       	movw	r30, r24
    1dcc:	e1 70       	andi	r30, 0x01	; 1
    1dce:	ff 27       	eor	r31, r31

            temp >>= 1;
    1dd0:	96 95       	lsr	r25
    1dd2:	87 95       	ror	r24

            if (lsb != 0U)
    1dd4:	ef 2b       	or	r30, r31
    1dd6:	21 f0       	breq	.+8      	; 0x1de0 <_ZN11IGAS_mb_4853crcEPhhh+0x2e>
            {
                temp ^= 0xA001U;
    1dd8:	51 e0       	ldi	r21, 0x01	; 1
    1dda:	85 27       	eor	r24, r21
    1ddc:	50 ea       	ldi	r21, 0xA0	; 160
    1dde:	95 27       	eor	r25, r21

    for (uint8_t i = start; i < cnt; ++i)
    {
        temp ^= static_cast<uint16_t>(buf[i]);

        for (uint8_t j = 0; j < 8U; ++j)
    1de0:	3f 5f       	subi	r19, 0xFF	; 255
    1de2:	f1 cf       	rjmp	.-30     	; 0x1dc6 <_ZN11IGAS_mb_4853crcEPhhh+0x14>

uint16_t IGAS_mb_485::crc(uint8_t* buf, uint8_t start, uint8_t cnt)
{
    uint16_t temp = 0xFFFFU;

    for (uint8_t i = start; i < cnt; ++i)
    1de4:	4f 5f       	subi	r20, 0xFF	; 255
    1de6:	e7 cf       	rjmp	.-50     	; 0x1db6 <_ZN11IGAS_mb_4853crcEPhhh+0x4>
    }

    temp = static_cast<uint16_t>((temp << 8) | (temp >> 8));

    return temp;
}
    1de8:	98 27       	eor	r25, r24
    1dea:	89 27       	eor	r24, r25
    1dec:	98 27       	eor	r25, r24
    1dee:	08 95       	ret

00001df0 <_ZN11IGAS_mb_48517build_read_packetEhhhPh>:
    uint8_t slave,
    uint8_t function,
    uint8_t count,
    uint8_t* packet
)
{
    1df0:	0f 93       	push	r16
    1df2:	1f 93       	push	r17
    1df4:	f8 01       	movw	r30, r16
    packet[SLAVE] = slave;
    1df6:	60 83       	st	Z, r22
    packet[FUNC] = function;
    1df8:	41 83       	std	Z+1, r20	; 0x01
    packet[2] = static_cast<uint8_t>(count * 2U);
    1dfa:	22 0f       	add	r18, r18
    1dfc:	22 83       	std	Z+2, r18	; 0x02
}
    1dfe:	1f 91       	pop	r17
    1e00:	0f 91       	pop	r16
    1e02:	08 95       	ret

00001e04 <_ZN11IGAS_mb_48518build_write_packetEhhjhPh>:
    uint8_t function,
    uint16_t start_addr,
    uint8_t count,
    uint8_t* packet
)
{
    1e04:	ef 92       	push	r14
    1e06:	ff 92       	push	r15
    1e08:	0f 93       	push	r16
    1e0a:	f7 01       	movw	r30, r14
    packet[SLAVE] = slave;
    1e0c:	60 83       	st	Z, r22
    packet[FUNC] = function;
    1e0e:	41 83       	std	Z+1, r20	; 0x01
    packet[START_H] = static_cast<uint8_t>(start_addr >> 8);
    1e10:	32 83       	std	Z+2, r19	; 0x02
    packet[START_L] = static_cast<uint8_t>(start_addr & 0x00FFU);
    1e12:	23 83       	std	Z+3, r18	; 0x03
    packet[REGS_H] = 0x00;
    1e14:	14 82       	std	Z+4, r1	; 0x04
    packet[REGS_L] = count;
    1e16:	05 83       	std	Z+5, r16	; 0x05
}
    1e18:	0f 91       	pop	r16
    1e1a:	ff 90       	pop	r15
    1e1c:	ef 90       	pop	r14
    1e1e:	08 95       	ret

00001e20 <_ZN11IGAS_mb_48525build_write_single_packetEhhjjPh>:
    uint8_t function,
    uint16_t write_addr,
    uint16_t reg_val,
    uint8_t* packet
)
{
    1e20:	ef 92       	push	r14
    1e22:	ff 92       	push	r15
    1e24:	0f 93       	push	r16
    1e26:	1f 93       	push	r17
    1e28:	f7 01       	movw	r30, r14
    packet[SLAVE] = slave;
    1e2a:	60 83       	st	Z, r22
    packet[FUNC] = function;
    1e2c:	41 83       	std	Z+1, r20	; 0x01
    packet[START_H] = static_cast<uint8_t>(write_addr >> 8);
    1e2e:	32 83       	std	Z+2, r19	; 0x02
    packet[START_L] = static_cast<uint8_t>(write_addr & 0x00FFU);
    1e30:	23 83       	std	Z+3, r18	; 0x03
    packet[REGS_H] = static_cast<uint8_t>(reg_val >> 8);
    1e32:	14 83       	std	Z+4, r17	; 0x04
    packet[REGS_L] = static_cast<uint8_t>(reg_val & 0x00FFU);
    1e34:	05 83       	std	Z+5, r16	; 0x05
}
    1e36:	1f 91       	pop	r17
    1e38:	0f 91       	pop	r16
    1e3a:	ff 90       	pop	r15
    1e3c:	ef 90       	pop	r14
    1e3e:	08 95       	ret

00001e40 <_ZN11IGAS_mb_48518build_error_packetEhhhPh>:
    uint8_t slave,
    uint8_t function,
    uint8_t exception,
    uint8_t* packet
)
{
    1e40:	0f 93       	push	r16
    1e42:	1f 93       	push	r17
    1e44:	f8 01       	movw	r30, r16
    packet[SLAVE] = slave;
    1e46:	60 83       	st	Z, r22
    packet[FUNC] = static_cast<uint8_t>(function + 0x80U);
    1e48:	40 58       	subi	r20, 0x80	; 128
    1e4a:	41 83       	std	Z+1, r20	; 0x01
    packet[2] = exception;
    1e4c:	22 83       	std	Z+2, r18	; 0x02
}
    1e4e:	1f 91       	pop	r17
    1e50:	0f 91       	pop	r16
    1e52:	08 95       	ret

00001e54 <_ZN11IGAS_mb_48512modbus_replyEPhh>:

void IGAS_mb_485::modbus_reply(uint8_t* packet, uint8_t string_length)
{
    1e54:	1f 93       	push	r17
    1e56:	cf 93       	push	r28
    1e58:	df 93       	push	r29
    1e5a:	eb 01       	movw	r28, r22
    1e5c:	14 2f       	mov	r17, r20
    const uint16_t temp_crc = crc(packet, 0, string_length);
    1e5e:	24 2f       	mov	r18, r20
    1e60:	40 e0       	ldi	r20, 0x00	; 0
    1e62:	0e 94 d9 0e 	call	0x1db2	; 0x1db2 <_ZN11IGAS_mb_4853crcEPhhh>

    packet[string_length++] = static_cast<uint8_t>(temp_crc >> 8);
    1e66:	21 e0       	ldi	r18, 0x01	; 1
    1e68:	21 0f       	add	r18, r17
    1e6a:	fe 01       	movw	r30, r28
    1e6c:	e1 0f       	add	r30, r17
    1e6e:	f1 1d       	adc	r31, r1
    1e70:	90 83       	st	Z, r25
    packet[string_length++] = static_cast<uint8_t>(temp_crc & 0x00FFU);
    1e72:	c2 0f       	add	r28, r18
    1e74:	d1 1d       	adc	r29, r1
    1e76:	88 83       	st	Y, r24
}
    1e78:	df 91       	pop	r29
    1e7a:	cf 91       	pop	r28
    1e7c:	1f 91       	pop	r17
    1e7e:	08 95       	ret

00001e80 <_ZN11IGAS_mb_4854sendEPhh>:
/*----------------------------------------------------------------------------
 * ą¤ąĄčĆąĄą┤ą░čćą░ ąĖ ą┐čĆąĖčæą╝
 *---------------------------------------------------------------------------*/

int IGAS_mb_485::send(uint8_t* query, uint8_t string_length)
{
    1e80:	ef 92       	push	r14
    1e82:	ff 92       	push	r15
    1e84:	0f 93       	push	r16
    1e86:	1f 93       	push	r17
    1e88:	cf 93       	push	r28
    1e8a:	df 93       	push	r29
    if ((query == 0) || (string_length == 0U))
    1e8c:	61 15       	cp	r22, r1
    1e8e:	71 05       	cpc	r23, r1
    1e90:	09 f1       	breq	.+66     	; 0x1ed4 <_ZN11IGAS_mb_4854sendEPhh+0x54>
    1e92:	44 23       	and	r20, r20
    1e94:	11 f1       	breq	.+68     	; 0x1eda <_ZN11IGAS_mb_4854sendEPhh+0x5a>
    1e96:	d4 2f       	mov	r29, r20
    1e98:	8b 01       	movw	r16, r22
    1e9a:	7c 01       	movw	r14, r24
    {
        return 0;
    }

    {
        const uint8_t old_sreg = SREG;
    1e9c:	cf b7       	in	r28, 0x3f	; 63
        cli();
    1e9e:	f8 94       	cli

        lai_board::rs485TransmitMode();
    1ea0:	0e 94 ce 09 	call	0x139c	; 0x139c <_ZN9lai_board17rs485TransmitModeEv>

        SREG = old_sreg;
    1ea4:	cf bf       	out	0x3f, r28	; 63
    }

    transmitLED = dotDisp;
    1ea6:	88 e0       	ldi	r24, 0x08	; 8
    1ea8:	f7 01       	movw	r30, r14
    1eaa:	81 83       	std	Z+1, r24	; 0x01
 *
 * @see hal::delayMicroseconds
 */
static inline void delayMicroseconds(uint16_t us)
{
    hal::delayMicroseconds(us);
    1eac:	8a e0       	ldi	r24, 0x0A	; 10
    1eae:	90 e0       	ldi	r25, 0x00	; 0
    1eb0:	0e 94 ee 0c 	call	0x19dc	; 0x19dc <_ZN3hal17delayMicrosecondsEj>

    delayMicroseconds(10);

    hal::uart0_enable_tx_complete_interrupt();
    1eb4:	0e 94 eb 0b 	call	0x17d6	; 0x17d6 <_ZN3hal34uart0_enable_tx_complete_interruptEv>

    uint8_t i = 0U;

    for (i = 0U; i < string_length; ++i)
    1eb8:	c0 e0       	ldi	r28, 0x00	; 0
    1eba:	cd 17       	cp	r28, r29
    1ebc:	40 f4       	brcc	.+16     	; 0x1ece <_ZN11IGAS_mb_4854sendEPhh+0x4e>
    {
        Serial.write(query[i]);
    1ebe:	f8 01       	movw	r30, r16
    1ec0:	ec 0f       	add	r30, r28
    1ec2:	f1 1d       	adc	r31, r1
     *
     * @return ąÜąŠą╗ąĖčćąĄčüčéą▓ąŠ ą▒ą░ą╣čé, ą┐ąŠčüčéą░ą▓ą╗ąĄąĮąĮčŗčģ ą▓ ą┐ąĄčĆąĄą┤ą░čćčā.
     */
    size_t write(uint8_t b)
    {
        hal::uart0_write(b);
    1ec4:	80 81       	ld	r24, Z
    1ec6:	0e 94 be 0b 	call	0x177c	; 0x177c <_ZN3hal11uart0_writeEh>

    hal::uart0_enable_tx_complete_interrupt();

    uint8_t i = 0U;

    for (i = 0U; i < string_length; ++i)
    1eca:	cf 5f       	subi	r28, 0xFF	; 255
    1ecc:	f6 cf       	rjmp	.-20     	; 0x1eba <_ZN11IGAS_mb_4854sendEPhh+0x3a>
    {
        Serial.write(query[i]);
    }

    return static_cast<int>(i);
    1ece:	8c 2f       	mov	r24, r28
    1ed0:	90 e0       	ldi	r25, 0x00	; 0
    1ed2:	05 c0       	rjmp	.+10     	; 0x1ede <_ZN11IGAS_mb_4854sendEPhh+0x5e>

int IGAS_mb_485::send(uint8_t* query, uint8_t string_length)
{
    if ((query == 0) || (string_length == 0U))
    {
        return 0;
    1ed4:	80 e0       	ldi	r24, 0x00	; 0
    1ed6:	90 e0       	ldi	r25, 0x00	; 0
    1ed8:	02 c0       	rjmp	.+4      	; 0x1ede <_ZN11IGAS_mb_4854sendEPhh+0x5e>
    1eda:	80 e0       	ldi	r24, 0x00	; 0
    1edc:	90 e0       	ldi	r25, 0x00	; 0
    {
        Serial.write(query[i]);
    }

    return static_cast<int>(i);
}
    1ede:	df 91       	pop	r29
    1ee0:	cf 91       	pop	r28
    1ee2:	1f 91       	pop	r17
    1ee4:	0f 91       	pop	r16
    1ee6:	ff 90       	pop	r15
    1ee8:	ef 90       	pop	r14
    1eea:	08 95       	ret

00001eec <_ZN11IGAS_mb_48510send_replyEPhh>:
    packet[string_length++] = static_cast<uint8_t>(temp_crc >> 8);
    packet[string_length++] = static_cast<uint8_t>(temp_crc & 0x00FFU);
}

int IGAS_mb_485::send_reply(uint8_t* query, uint8_t string_length)
{
    1eec:	ef 92       	push	r14
    1eee:	ff 92       	push	r15
    1ef0:	0f 93       	push	r16
    1ef2:	1f 93       	push	r17
    1ef4:	cf 93       	push	r28
    1ef6:	8c 01       	movw	r16, r24
    1ef8:	7b 01       	movw	r14, r22
    1efa:	c4 2f       	mov	r28, r20
    modbus_reply(query, string_length);
    1efc:	0e 94 2a 0f 	call	0x1e54	; 0x1e54 <_ZN11IGAS_mb_48512modbus_replyEPhh>

    string_length = static_cast<uint8_t>(string_length + CHECKSUM_SIZE);
    1f00:	42 e0       	ldi	r20, 0x02	; 2
    1f02:	4c 0f       	add	r20, r28

    (void)send(query, string_length);
    1f04:	b7 01       	movw	r22, r14
    1f06:	c8 01       	movw	r24, r16
    1f08:	0e 94 40 0f 	call	0x1e80	; 0x1e80 <_ZN11IGAS_mb_4854sendEPhh>

    return 0;
}
    1f0c:	80 e0       	ldi	r24, 0x00	; 0
    1f0e:	90 e0       	ldi	r25, 0x00	; 0
    1f10:	cf 91       	pop	r28
    1f12:	1f 91       	pop	r17
    1f14:	0f 91       	pop	r16
    1f16:	ff 90       	pop	r15
    1f18:	ef 90       	pop	r14
    1f1a:	08 95       	ret

00001f1c <_ZN11IGAS_mb_48515receive_requestEPh>:

    return static_cast<int>(i);
}

int IGAS_mb_485::receive_request(uint8_t* received_string)
{
    1f1c:	0f 93       	push	r16
    1f1e:	1f 93       	push	r17
    1f20:	cf 93       	push	r28
    1f22:	df 93       	push	r29
    1f24:	8b 01       	movw	r16, r22
    int bytes_received = 0;
    1f26:	c0 e0       	ldi	r28, 0x00	; 0
    1f28:	d0 e0       	ldi	r29, 0x00	; 0
     *
     * @return ąÜąŠą╗ąĖčćąĄčüčéą▓ąŠ ą▒ą░ą╣čé ą▓ ą┐čĆąĖčæą╝ąĮąŠą╝ ą▒čāčäąĄčĆąĄ.
     */
    int available(void)
    {
        return static_cast<int>(hal::uart0_available());
    1f2a:	0e 94 a1 0b 	call	0x1742	; 0x1742 <_ZN3hal15uart0_availableEv>

    while (Serial.available() != 0)
    1f2e:	88 23       	and	r24, r24
    1f30:	69 f0       	breq	.+26     	; 0x1f4c <_ZN11IGAS_mb_48515receive_requestEPh+0x30>
    {
        if (bytes_received >= MAX_MESSAGE_LENGTH)
    1f32:	c8 32       	cpi	r28, 0x28	; 40
    1f34:	d1 05       	cpc	r29, r1
    1f36:	6c f4       	brge	.+26     	; 0x1f52 <_ZN11IGAS_mb_48515receive_requestEPh+0x36>
     *
     * @return ąŚąĮą░čćąĄąĮąĖąĄ ąŠčé 0 ą┤ąŠ 255, ąĄčüą╗ąĖ ą▒ą░ą╣čé ą┐čĆąŠčćąĖčéą░ąĮ; -1, ąĄčüą╗ąĖ ą┤ą░ąĮąĮčŗčģ ąĮąĄčé.
     */
    int read(void)
    {
        return static_cast<int>(hal::uart0_read());
    1f38:	0e 94 a8 0b 	call	0x1750	; 0x1750 <_ZN3hal10uart0_readEv>
            return NO_REPLY;
        }

        const int byte_value = Serial.read();

        if (byte_value < 0)
    1f3c:	99 23       	and	r25, r25
    1f3e:	64 f0       	brlt	.+24     	; 0x1f58 <_ZN11IGAS_mb_48515receive_requestEPh+0x3c>
        {
            break;
        }

        received_string[bytes_received] =
    1f40:	f8 01       	movw	r30, r16
    1f42:	ec 0f       	add	r30, r28
    1f44:	fd 1f       	adc	r31, r29
            static_cast<uint8_t>(byte_value);
    1f46:	80 83       	st	Z, r24

        ++bytes_received;
    1f48:	21 96       	adiw	r28, 0x01	; 1

int IGAS_mb_485::receive_request(uint8_t* received_string)
{
    int bytes_received = 0;

    while (Serial.available() != 0)
    1f4a:	ef cf       	rjmp	.-34     	; 0x1f2a <_ZN11IGAS_mb_48515receive_requestEPh+0xe>
            static_cast<uint8_t>(byte_value);

        ++bytes_received;
    }

    return bytes_received;
    1f4c:	8c 2f       	mov	r24, r28
    1f4e:	9d 2f       	mov	r25, r29
    1f50:	05 c0       	rjmp	.+10     	; 0x1f5c <_ZN11IGAS_mb_48515receive_requestEPh+0x40>

    while (Serial.available() != 0)
    {
        if (bytes_received >= MAX_MESSAGE_LENGTH)
        {
            return NO_REPLY;
    1f52:	8f ef       	ldi	r24, 0xFF	; 255
    1f54:	9f ef       	ldi	r25, 0xFF	; 255
    1f56:	02 c0       	rjmp	.+4      	; 0x1f5c <_ZN11IGAS_mb_48515receive_requestEPh+0x40>
            static_cast<uint8_t>(byte_value);

        ++bytes_received;
    }

    return bytes_received;
    1f58:	8c 2f       	mov	r24, r28
    1f5a:	9d 2f       	mov	r25, r29
}
    1f5c:	df 91       	pop	r29
    1f5e:	cf 91       	pop	r28
    1f60:	1f 91       	pop	r17
    1f62:	0f 91       	pop	r16
    1f64:	08 95       	ret

00001f66 <_ZN11IGAS_mb_48514modbus_requestEhPh>:

int16_t IGAS_mb_485::modbus_request(uint8_t slave, uint8_t* data)
{
    1f66:	df 92       	push	r13
    1f68:	ef 92       	push	r14
    1f6a:	ff 92       	push	r15
    1f6c:	0f 93       	push	r16
    1f6e:	1f 93       	push	r17
    1f70:	cf 93       	push	r28
    1f72:	df 93       	push	r29
    1f74:	7c 01       	movw	r14, r24
    1f76:	d6 2e       	mov	r13, r22
    1f78:	8a 01       	movw	r16, r20
    const int response_length = receive_request(data);
    1f7a:	ba 01       	movw	r22, r20
    1f7c:	0e 94 8e 0f 	call	0x1f1c	; 0x1f1c <_ZN11IGAS_mb_48515receive_requestEPh>
    1f80:	ec 01       	movw	r28, r24

    if (response_length <= 0)
    1f82:	18 16       	cp	r1, r24
    1f84:	19 06       	cpc	r1, r25
    1f86:	04 f5       	brge	.+64     	; 0x1fc8 <_ZN11IGAS_mb_48514modbus_requestEhPh+0x62>
    {
        return static_cast<int16_t>(response_length);
    }

    if (response_length < CHECKSUM_SIZE)
    1f88:	82 30       	cpi	r24, 0x02	; 2
    1f8a:	91 05       	cpc	r25, r1
    1f8c:	fc f0       	brlt	.+62     	; 0x1fcc <_ZN11IGAS_mb_48514modbus_requestEhPh+0x66>
    {
        return NO_REPLY;
    }

    const uint16_t crc_calc =
        crc(data, 0, static_cast<uint8_t>(response_length - CHECKSUM_SIZE));
    1f8e:	28 2f       	mov	r18, r24
    1f90:	22 50       	subi	r18, 0x02	; 2
    1f92:	40 e0       	ldi	r20, 0x00	; 0
    1f94:	b8 01       	movw	r22, r16
    1f96:	c7 01       	movw	r24, r14
    1f98:	0e 94 d9 0e 	call	0x1db2	; 0x1db2 <_ZN11IGAS_mb_4853crcEPhhh>

    uint16_t crc_received =
        static_cast<uint16_t>(data[response_length - 2]);
    1f9c:	a8 01       	movw	r20, r16
    1f9e:	4c 0f       	add	r20, r28
    1fa0:	5d 1f       	adc	r21, r29
    1fa2:	fa 01       	movw	r30, r20
    1fa4:	32 97       	sbiw	r30, 0x02	; 2
    1fa6:	20 81       	ld	r18, Z
    1fa8:	30 e0       	ldi	r19, 0x00	; 0

    crc_received =
        static_cast<uint16_t>(
            (crc_received << 8) |
    1faa:	32 2f       	mov	r19, r18
    1fac:	22 27       	eor	r18, r18
            static_cast<uint16_t>(data[response_length - 1])
    1fae:	31 96       	adiw	r30, 0x01	; 1
    1fb0:	40 81       	ld	r20, Z
        );
    1fb2:	24 2b       	or	r18, r20

    if (crc_calc != crc_received)
    1fb4:	82 17       	cp	r24, r18
    1fb6:	93 07       	cpc	r25, r19
    1fb8:	61 f4       	brne	.+24     	; 0x1fd2 <_ZN11IGAS_mb_48514modbus_requestEhPh+0x6c>
    {
        return NO_REPLY;
    }

    if (slave != data[SLAVE])
    1fba:	f8 01       	movw	r30, r16
    1fbc:	80 81       	ld	r24, Z
    1fbe:	8d 15       	cp	r24, r13
    1fc0:	59 f0       	breq	.+22     	; 0x1fd8 <_ZN11IGAS_mb_48514modbus_requestEhPh+0x72>
    {
        return NO_REPLY;
    1fc2:	8f ef       	ldi	r24, 0xFF	; 255
    1fc4:	9f ef       	ldi	r25, 0xFF	; 255
    1fc6:	0a c0       	rjmp	.+20     	; 0x1fdc <_ZN11IGAS_mb_48514modbus_requestEhPh+0x76>
{
    const int response_length = receive_request(data);

    if (response_length <= 0)
    {
        return static_cast<int16_t>(response_length);
    1fc8:	9d 2f       	mov	r25, r29
    1fca:	08 c0       	rjmp	.+16     	; 0x1fdc <_ZN11IGAS_mb_48514modbus_requestEhPh+0x76>
    }

    if (response_length < CHECKSUM_SIZE)
    {
        return NO_REPLY;
    1fcc:	8f ef       	ldi	r24, 0xFF	; 255
    1fce:	9f ef       	ldi	r25, 0xFF	; 255
    1fd0:	05 c0       	rjmp	.+10     	; 0x1fdc <_ZN11IGAS_mb_48514modbus_requestEhPh+0x76>
            static_cast<uint16_t>(data[response_length - 1])
        );

    if (crc_calc != crc_received)
    {
        return NO_REPLY;
    1fd2:	8f ef       	ldi	r24, 0xFF	; 255
    1fd4:	9f ef       	ldi	r25, 0xFF	; 255
    1fd6:	02 c0       	rjmp	.+4      	; 0x1fdc <_ZN11IGAS_mb_48514modbus_requestEhPh+0x76>
    if (slave != data[SLAVE])
    {
        return NO_REPLY;
    }

    return static_cast<int16_t>(response_length);
    1fd8:	8c 2f       	mov	r24, r28
    1fda:	9d 2f       	mov	r25, r29
}
    1fdc:	df 91       	pop	r29
    1fde:	cf 91       	pop	r28
    1fe0:	1f 91       	pop	r17
    1fe2:	0f 91       	pop	r16
    1fe4:	ff 90       	pop	r15
    1fe6:	ef 90       	pop	r14
    1fe8:	df 90       	pop	r13
    1fea:	08 95       	ret

00001fec <_ZN11IGAS_mb_48516validate_requestEPhh>:
/*----------------------------------------------------------------------------
 * ąÆą░ą╗ąĖą┤ą░čåąĖčÅ ąĘą░ą┐čĆąŠčüą░
 *---------------------------------------------------------------------------*/

int IGAS_mb_485::validate_request(uint8_t* data, uint8_t length)
{
    1fec:	cf 93       	push	r28
    1fee:	df 93       	push	r29
    1ff0:	dc 01       	movw	r26, r24
    1ff2:	fb 01       	movw	r30, r22
    if (length < MIN_REQUEST_SIZE)
    1ff4:	48 30       	cpi	r20, 0x08	; 8
    1ff6:	08 f4       	brcc	.+2      	; 0x1ffa <_ZN11IGAS_mb_48516validate_requestEPhh+0xe>
    1ff8:	52 c0       	rjmp	.+164    	; 0x209e <_ZN11IGAS_mb_48516validate_requestEPhh+0xb2>
    1ffa:	90 e0       	ldi	r25, 0x00	; 0
        return EXC_REGS_QUANT;
    }

    bool function_supported = false;

    for (uint8_t i = 0U; i < static_cast<uint8_t>(sizeof(fsupported)); ++i)
    1ffc:	29 2f       	mov	r18, r25
    1ffe:	30 e0       	ldi	r19, 0x00	; 0
    2000:	23 30       	cpi	r18, 0x03	; 3
    2002:	31 05       	cpc	r19, r1
    2004:	4c f4       	brge	.+18     	; 0x2018 <_ZN11IGAS_mb_48516validate_requestEPhh+0x2c>
    {
        if (fsupported[i] == data[FUNC])
    2006:	e9 01       	movw	r28, r18
    2008:	c9 5e       	subi	r28, 0xE9	; 233
    200a:	de 4f       	sbci	r29, 0xFE	; 254
    200c:	38 81       	ld	r19, Y
    200e:	21 81       	ldd	r18, Z+1	; 0x01
    2010:	32 17       	cp	r19, r18
    2012:	21 f0       	breq	.+8      	; 0x201c <_ZN11IGAS_mb_48516validate_requestEPhh+0x30>
        return EXC_REGS_QUANT;
    }

    bool function_supported = false;

    for (uint8_t i = 0U; i < static_cast<uint8_t>(sizeof(fsupported)); ++i)
    2014:	9f 5f       	subi	r25, 0xFF	; 255
    2016:	f2 cf       	rjmp	.-28     	; 0x1ffc <_ZN11IGAS_mb_48516validate_requestEPhh+0x10>
    if (length < MIN_REQUEST_SIZE)
    {
        return EXC_REGS_QUANT;
    }

    bool function_supported = false;
    2018:	80 e0       	ldi	r24, 0x00	; 0
    201a:	01 c0       	rjmp	.+2      	; 0x201e <_ZN11IGAS_mb_48516validate_requestEPhh+0x32>

    for (uint8_t i = 0U; i < static_cast<uint8_t>(sizeof(fsupported)); ++i)
    {
        if (fsupported[i] == data[FUNC])
        {
            function_supported = true;
    201c:	81 e0       	ldi	r24, 0x01	; 1
            break;
        }
    }

    if (!function_supported)
    201e:	88 23       	and	r24, r24
    2020:	09 f4       	brne	.+2      	; 0x2024 <_ZN11IGAS_mb_48516validate_requestEPhh+0x38>
    2022:	40 c0       	rjmp	.+128    	; 0x20a4 <_ZN11IGAS_mb_48516validate_requestEPhh+0xb8>
        return EXC_FUNC_CODE;
    }

    const uint16_t start_addr =
        static_cast<uint16_t>(
            (static_cast<uint16_t>(data[START_H]) << 8) |
    2024:	22 81       	ldd	r18, Z+2	; 0x02
    2026:	30 e0       	ldi	r19, 0x00	; 0
    2028:	32 2f       	mov	r19, r18
    202a:	22 27       	eor	r18, r18
            static_cast<uint16_t>(data[START_L])
    202c:	83 81       	ldd	r24, Z+3	; 0x03
        );
    202e:	28 2b       	or	r18, r24

    if (start_addr >= regLimit)
    2030:	17 96       	adiw	r26, 0x07	; 7
    2032:	6d 91       	ld	r22, X+
    2034:	7c 91       	ld	r23, X
    2036:	18 97       	sbiw	r26, 0x08	; 8
    2038:	26 17       	cp	r18, r22
    203a:	37 07       	cpc	r19, r23
    203c:	b0 f5       	brcc	.+108    	; 0x20aa <_ZN11IGAS_mb_48516validate_requestEPhh+0xbe>
    {
        return EXC_ADDR_RANGE;
    }

    if (data[FUNC] == FC_WRITE_REG)
    203e:	51 81       	ldd	r21, Z+1	; 0x01
    2040:	56 30       	cpi	r21, 0x06	; 6
    2042:	b1 f1       	breq	.+108    	; 0x20b0 <_ZN11IGAS_mb_48516validate_requestEPhh+0xc4>
        return 0;
    }

    const uint16_t regs_num =
        static_cast<uint16_t>(
            (static_cast<uint16_t>(data[REGS_H]) << 8) |
    2044:	84 81       	ldd	r24, Z+4	; 0x04
    2046:	90 e0       	ldi	r25, 0x00	; 0
    2048:	98 2f       	mov	r25, r24
    204a:	88 27       	eor	r24, r24
            static_cast<uint16_t>(data[REGS_L])
    204c:	a5 81       	ldd	r26, Z+5	; 0x05
        );
    204e:	8a 2b       	or	r24, r26

    uint8_t max_regs_num = 0U;

    if (data[FUNC] == FC_READ_REGS)
    2050:	53 30       	cpi	r21, 0x03	; 3
    2052:	21 f0       	breq	.+8      	; 0x205c <_ZN11IGAS_mb_48516validate_requestEPhh+0x70>
    {
        max_regs_num = MAX_READ_REGS;
    }
    else if (data[FUNC] == FC_WRITE_REGS)
    2054:	50 31       	cpi	r21, 0x10	; 16
    2056:	21 f0       	breq	.+8      	; 0x2060 <_ZN11IGAS_mb_48516validate_requestEPhh+0x74>
        static_cast<uint16_t>(
            (static_cast<uint16_t>(data[REGS_H]) << 8) |
            static_cast<uint16_t>(data[REGS_L])
        );

    uint8_t max_regs_num = 0U;
    2058:	a0 e0       	ldi	r26, 0x00	; 0
    205a:	03 c0       	rjmp	.+6      	; 0x2062 <_ZN11IGAS_mb_48516validate_requestEPhh+0x76>

    if (data[FUNC] == FC_READ_REGS)
    {
        max_regs_num = MAX_READ_REGS;
    205c:	af e0       	ldi	r26, 0x0F	; 15
    205e:	01 c0       	rjmp	.+2      	; 0x2062 <_ZN11IGAS_mb_48516validate_requestEPhh+0x76>
    }
    else if (data[FUNC] == FC_WRITE_REGS)
    {
        max_regs_num = MAX_WRITE_REGS;
    2060:	af e0       	ldi	r26, 0x0F	; 15
    }

    if ((regs_num < 1U) || (regs_num > static_cast<uint16_t>(max_regs_num)))
    2062:	00 97       	sbiw	r24, 0x00	; 0
    2064:	41 f1       	breq	.+80     	; 0x20b6 <_ZN11IGAS_mb_48516validate_requestEPhh+0xca>
    2066:	b0 e0       	ldi	r27, 0x00	; 0
    2068:	a8 17       	cp	r26, r24
    206a:	b9 07       	cpc	r27, r25
    206c:	38 f1       	brcs	.+78     	; 0x20bc <_ZN11IGAS_mb_48516validate_requestEPhh+0xd0>
    {
        return EXC_REGS_QUANT;
    }

    if (regs_num > static_cast<uint16_t>(regLimit - start_addr))
    206e:	62 1b       	sub	r22, r18
    2070:	73 0b       	sbc	r23, r19
    2072:	68 17       	cp	r22, r24
    2074:	79 07       	cpc	r23, r25
    2076:	28 f1       	brcs	.+74     	; 0x20c2 <_ZN11IGAS_mb_48516validate_requestEPhh+0xd6>
    {
        return EXC_ADDR_RANGE;
    }

    if (data[FUNC] == FC_WRITE_REGS)
    2078:	50 31       	cpi	r21, 0x10	; 16
    207a:	31 f5       	brne	.+76     	; 0x20c8 <_ZN11IGAS_mb_48516validate_requestEPhh+0xdc>
    {
        if (length < MIN_WRITE_MULTIPLE_REQUEST_SIZE)
    207c:	49 30       	cpi	r20, 0x09	; 9
    207e:	38 f1       	brcs	.+78     	; 0x20ce <_ZN11IGAS_mb_48516validate_requestEPhh+0xe2>
        {
            return EXC_REGS_QUANT;
        }

        const uint8_t byte_count = data[BYTE_CNT];
    2080:	26 81       	ldd	r18, Z+6	; 0x06

        if (byte_count != static_cast<uint8_t>(regs_num * 2U))
    2082:	88 0f       	add	r24, r24
    2084:	28 13       	cpse	r18, r24
    2086:	26 c0       	rjmp	.+76     	; 0x20d4 <_ZN11IGAS_mb_48516validate_requestEPhh+0xe8>
        }

        const uint16_t expected_length =
            static_cast<uint16_t>(
                static_cast<uint16_t>(BYTE_CNT + 1U) +
                static_cast<uint16_t>(byte_count) +
    2088:	30 e0       	ldi	r19, 0x00	; 0
                CHECKSUM_SIZE
            );
    208a:	27 5f       	subi	r18, 0xF7	; 247
    208c:	3f 4f       	sbci	r19, 0xFF	; 255

        if (static_cast<uint16_t>(length) != expected_length)
    208e:	84 2f       	mov	r24, r20
    2090:	90 e0       	ldi	r25, 0x00	; 0
    2092:	28 17       	cp	r18, r24
    2094:	39 07       	cpc	r19, r25
    2096:	09 f5       	brne	.+66     	; 0x20da <_ZN11IGAS_mb_48516validate_requestEPhh+0xee>
        {
            return EXC_REGS_QUANT;
        }
    }

    return 0;
    2098:	80 e0       	ldi	r24, 0x00	; 0
    209a:	90 e0       	ldi	r25, 0x00	; 0
    209c:	20 c0       	rjmp	.+64     	; 0x20de <_ZN11IGAS_mb_48516validate_requestEPhh+0xf2>

int IGAS_mb_485::validate_request(uint8_t* data, uint8_t length)
{
    if (length < MIN_REQUEST_SIZE)
    {
        return EXC_REGS_QUANT;
    209e:	83 e0       	ldi	r24, 0x03	; 3
    20a0:	90 e0       	ldi	r25, 0x00	; 0
    20a2:	1d c0       	rjmp	.+58     	; 0x20de <_ZN11IGAS_mb_48516validate_requestEPhh+0xf2>
        }
    }

    if (!function_supported)
    {
        return EXC_FUNC_CODE;
    20a4:	81 e0       	ldi	r24, 0x01	; 1
    20a6:	90 e0       	ldi	r25, 0x00	; 0
    20a8:	1a c0       	rjmp	.+52     	; 0x20de <_ZN11IGAS_mb_48516validate_requestEPhh+0xf2>
            static_cast<uint16_t>(data[START_L])
        );

    if (start_addr >= regLimit)
    {
        return EXC_ADDR_RANGE;
    20aa:	82 e0       	ldi	r24, 0x02	; 2
    20ac:	90 e0       	ldi	r25, 0x00	; 0
    20ae:	17 c0       	rjmp	.+46     	; 0x20de <_ZN11IGAS_mb_48516validate_requestEPhh+0xf2>
    }

    if (data[FUNC] == FC_WRITE_REG)
    {
        return 0;
    20b0:	80 e0       	ldi	r24, 0x00	; 0
    20b2:	90 e0       	ldi	r25, 0x00	; 0
    20b4:	14 c0       	rjmp	.+40     	; 0x20de <_ZN11IGAS_mb_48516validate_requestEPhh+0xf2>
        max_regs_num = MAX_WRITE_REGS;
    }

    if ((regs_num < 1U) || (regs_num > static_cast<uint16_t>(max_regs_num)))
    {
        return EXC_REGS_QUANT;
    20b6:	83 e0       	ldi	r24, 0x03	; 3
    20b8:	90 e0       	ldi	r25, 0x00	; 0
    20ba:	11 c0       	rjmp	.+34     	; 0x20de <_ZN11IGAS_mb_48516validate_requestEPhh+0xf2>
    20bc:	83 e0       	ldi	r24, 0x03	; 3
    20be:	90 e0       	ldi	r25, 0x00	; 0
    20c0:	0e c0       	rjmp	.+28     	; 0x20de <_ZN11IGAS_mb_48516validate_requestEPhh+0xf2>
    }

    if (regs_num > static_cast<uint16_t>(regLimit - start_addr))
    {
        return EXC_ADDR_RANGE;
    20c2:	82 e0       	ldi	r24, 0x02	; 2
    20c4:	90 e0       	ldi	r25, 0x00	; 0
    20c6:	0b c0       	rjmp	.+22     	; 0x20de <_ZN11IGAS_mb_48516validate_requestEPhh+0xf2>
        {
            return EXC_REGS_QUANT;
        }
    }

    return 0;
    20c8:	80 e0       	ldi	r24, 0x00	; 0
    20ca:	90 e0       	ldi	r25, 0x00	; 0
    20cc:	08 c0       	rjmp	.+16     	; 0x20de <_ZN11IGAS_mb_48516validate_requestEPhh+0xf2>

    if (data[FUNC] == FC_WRITE_REGS)
    {
        if (length < MIN_WRITE_MULTIPLE_REQUEST_SIZE)
        {
            return EXC_REGS_QUANT;
    20ce:	83 e0       	ldi	r24, 0x03	; 3
    20d0:	90 e0       	ldi	r25, 0x00	; 0
    20d2:	05 c0       	rjmp	.+10     	; 0x20de <_ZN11IGAS_mb_48516validate_requestEPhh+0xf2>

        const uint8_t byte_count = data[BYTE_CNT];

        if (byte_count != static_cast<uint8_t>(regs_num * 2U))
        {
            return EXC_REGS_QUANT;
    20d4:	83 e0       	ldi	r24, 0x03	; 3
    20d6:	90 e0       	ldi	r25, 0x00	; 0
    20d8:	02 c0       	rjmp	.+4      	; 0x20de <_ZN11IGAS_mb_48516validate_requestEPhh+0xf2>
                CHECKSUM_SIZE
            );

        if (static_cast<uint16_t>(length) != expected_length)
        {
            return EXC_REGS_QUANT;
    20da:	83 e0       	ldi	r24, 0x03	; 3
    20dc:	90 e0       	ldi	r25, 0x00	; 0
        }
    }

    return 0;
}
    20de:	df 91       	pop	r29
    20e0:	cf 91       	pop	r28
    20e2:	08 95       	ret

000020e4 <_ZN11IGAS_mb_48511setDelegateEPFvPiiiiE>:

void IGAS_mb_485::setDelegate(
    void (*fp)(int16_t*, int16_t, int16_t, int16_t)
)
{
    fpAction = fp;
    20e4:	fc 01       	movw	r30, r24
    20e6:	76 83       	std	Z+6, r23	; 0x06
    20e8:	65 83       	std	Z+5, r22	; 0x05
    20ea:	08 95       	ret

000020ec <_ZN11IGAS_mb_4858doActionEPiiii>:
    int16_t* t1,
    int16_t t2,
    int16_t t3,
    int16_t t4
)
{
    20ec:	0f 93       	push	r16
    20ee:	1f 93       	push	r17
    20f0:	cf 93       	push	r28
    20f2:	df 93       	push	r29
    if (fpAction != 0)
    20f4:	dc 01       	movw	r26, r24
    20f6:	15 96       	adiw	r26, 0x05	; 5
    20f8:	ed 91       	ld	r30, X+
    20fa:	fc 91       	ld	r31, X
    20fc:	16 97       	sbiw	r26, 0x06	; 6
    20fe:	30 97       	sbiw	r30, 0x00	; 0
    2100:	39 f0       	breq	.+14     	; 0x2110 <_ZN11IGAS_mb_4858doActionEPiiii+0x24>
    2102:	e9 01       	movw	r28, r18
    2104:	da 01       	movw	r26, r20
    2106:	cb 01       	movw	r24, r22
    {
        (*fpAction)(t1, t2, t3, t4);
    2108:	98 01       	movw	r18, r16
    210a:	ae 01       	movw	r20, r28
    210c:	bd 01       	movw	r22, r26
    210e:	09 95       	icall
    }
    2110:	df 91       	pop	r29
    2112:	cf 91       	pop	r28
    2114:	1f 91       	pop	r17
    2116:	0f 91       	pop	r16
    2118:	08 95       	ret

0000211a <_ZN11IGAS_mb_48510write_regsEjPhPi>:
int IGAS_mb_485::write_regs(
    uint16_t start_addr,
    uint8_t* query,
    int16_t* regs
)
{
    211a:	8f 92       	push	r8
    211c:	9f 92       	push	r9
    211e:	af 92       	push	r10
    2120:	bf 92       	push	r11
    2122:	cf 92       	push	r12
    2124:	df 92       	push	r13
    2126:	ef 92       	push	r14
    2128:	ff 92       	push	r15
    212a:	0f 93       	push	r16
    212c:	1f 93       	push	r17
    212e:	cf 93       	push	r28
    2130:	df 93       	push	r29
    2132:	4c 01       	movw	r8, r24
    2134:	5b 01       	movw	r10, r22
    2136:	7a 01       	movw	r14, r20
    2138:	69 01       	movw	r12, r18
    uint16_t i = 0U;

    for (i = 0U; i < static_cast<uint16_t>(query[REGS_L]); ++i)
    213a:	c0 e0       	ldi	r28, 0x00	; 0
    213c:	d0 e0       	ldi	r29, 0x00	; 0
    213e:	f7 01       	movw	r30, r14
    2140:	85 81       	ldd	r24, Z+5	; 0x05
    2142:	90 e0       	ldi	r25, 0x00	; 0
    2144:	c8 17       	cp	r28, r24
    2146:	d9 07       	cpc	r29, r25
    2148:	d0 f4       	brcc	.+52     	; 0x217e <_ZN11IGAS_mb_48510write_regsEjPhPi+0x64>
    {
        int16_t temp =
            static_cast<int16_t>(
                static_cast<uint16_t>(query[(BYTE_CNT + 1) + i * 2U]) << 8
    214a:	fe 01       	movw	r30, r28
    214c:	ee 0f       	add	r30, r30
    214e:	ff 1f       	adc	r31, r31
    2150:	ee 0d       	add	r30, r14
    2152:	ff 1d       	adc	r31, r15
            );
    2154:	00 e0       	ldi	r16, 0x00	; 0
    2156:	17 81       	ldd	r17, Z+7	; 0x07

        temp = static_cast<int16_t>(
            temp |
            static_cast<int16_t>(query[(BYTE_CNT + 2) + i * 2U])
    2158:	fe 01       	movw	r30, r28
    215a:	34 96       	adiw	r30, 0x04	; 4
    215c:	ee 0f       	add	r30, r30
    215e:	ff 1f       	adc	r31, r31
    2160:	ee 0d       	add	r30, r14
    2162:	ff 1d       	adc	r31, r15
    2164:	80 81       	ld	r24, Z
        );
    2166:	08 2b       	or	r16, r24

        doAction(
            regs,
            static_cast<int16_t>(start_addr + i),
    2168:	ae 01       	movw	r20, r28
    216a:	4a 0d       	add	r20, r10
    216c:	5b 1d       	adc	r21, r11
            singleRegister,
            temp
        );
    216e:	21 e0       	ldi	r18, 0x01	; 1
    2170:	30 e0       	ldi	r19, 0x00	; 0
    2172:	b6 01       	movw	r22, r12
    2174:	c4 01       	movw	r24, r8
    2176:	0e 94 76 10 	call	0x20ec	; 0x20ec <_ZN11IGAS_mb_4858doActionEPiiii>
    int16_t* regs
)
{
    uint16_t i = 0U;

    for (i = 0U; i < static_cast<uint16_t>(query[REGS_L]); ++i)
    217a:	21 96       	adiw	r28, 0x01	; 1
    217c:	e0 cf       	rjmp	.-64     	; 0x213e <_ZN11IGAS_mb_48510write_regsEjPhPi+0x24>
            temp
        );
    }

    return static_cast<int>(i);
}
    217e:	ce 01       	movw	r24, r28
    2180:	df 91       	pop	r29
    2182:	cf 91       	pop	r28
    2184:	1f 91       	pop	r17
    2186:	0f 91       	pop	r16
    2188:	ff 90       	pop	r15
    218a:	ef 90       	pop	r14
    218c:	df 90       	pop	r13
    218e:	cf 90       	pop	r12
    2190:	bf 90       	pop	r11
    2192:	af 90       	pop	r10
    2194:	9f 90       	pop	r9
    2196:	8f 90       	pop	r8
    2198:	08 95       	ret

0000219a <_ZN11IGAS_mb_48525preset_multiple_registersEhjhPhPi>:
    uint16_t start_addr,
    uint8_t count,
    uint8_t* query,
    int16_t* regs
)
{
    219a:	6f 92       	push	r6
    219c:	7f 92       	push	r7
    219e:	8f 92       	push	r8
    21a0:	9f 92       	push	r9
    21a2:	af 92       	push	r10
    21a4:	bf 92       	push	r11
    21a6:	cf 92       	push	r12
    21a8:	df 92       	push	r13
    21aa:	ef 92       	push	r14
    21ac:	ff 92       	push	r15
    21ae:	0f 93       	push	r16
    21b0:	1f 93       	push	r17
    21b2:	cf 93       	push	r28
    21b4:	df 93       	push	r29
    21b6:	cd b7       	in	r28, 0x3d	; 61
    21b8:	de b7       	in	r29, 0x3e	; 62
    21ba:	28 97       	sbiw	r28, 0x08	; 8
    21bc:	0f b6       	in	r0, 0x3f	; 63
    21be:	f8 94       	cli
    21c0:	de bf       	out	0x3e, r29	; 62
    21c2:	0f be       	out	0x3f, r0	; 63
    21c4:	cd bf       	out	0x3d, r28	; 61
    21c6:	6c 01       	movw	r12, r24
    21c8:	5a 01       	movw	r10, r20
    21ca:	48 01       	movw	r8, r16
    21cc:	37 01       	movw	r6, r14
        slave,
        FC_WRITE_REGS,
        start_addr,
        count,
        packet
    );
    21ce:	ce 01       	movw	r24, r28
    21d0:	01 96       	adiw	r24, 0x01	; 1
    21d2:	7c 01       	movw	r14, r24
    21d4:	02 2f       	mov	r16, r18
    21d6:	9a 01       	movw	r18, r20
    21d8:	40 e1       	ldi	r20, 0x10	; 16
    21da:	c6 01       	movw	r24, r12
    21dc:	0e 94 02 0f 	call	0x1e04	; 0x1e04 <_ZN11IGAS_mb_48518build_write_packetEhhjhPh>

    if (write_regs(start_addr, query, regs) != 0)
    21e0:	93 01       	movw	r18, r6
    21e2:	a4 01       	movw	r20, r8
    21e4:	b5 01       	movw	r22, r10
    21e6:	c6 01       	movw	r24, r12
    21e8:	0e 94 8d 10 	call	0x211a	; 0x211a <_ZN11IGAS_mb_48510write_regsEjPhPi>
    21ec:	00 97       	sbiw	r24, 0x00	; 0
    21ee:	29 f0       	breq	.+10     	; 0x21fa <_ZN11IGAS_mb_48525preset_multiple_registersEhjhPhPi+0x60>
    {
        return send_reply(packet, RESPONSE_SIZE);
    21f0:	46 e0       	ldi	r20, 0x06	; 6
    21f2:	b7 01       	movw	r22, r14
    21f4:	c6 01       	movw	r24, r12
    21f6:	0e 94 76 0f 	call	0x1eec	; 0x1eec <_ZN11IGAS_mb_48510send_replyEPhh>
    }

    return 0;
}
    21fa:	28 96       	adiw	r28, 0x08	; 8
    21fc:	0f b6       	in	r0, 0x3f	; 63
    21fe:	f8 94       	cli
    2200:	de bf       	out	0x3e, r29	; 62
    2202:	0f be       	out	0x3f, r0	; 63
    2204:	cd bf       	out	0x3d, r28	; 61
    2206:	df 91       	pop	r29
    2208:	cf 91       	pop	r28
    220a:	1f 91       	pop	r17
    220c:	0f 91       	pop	r16
    220e:	ff 90       	pop	r15
    2210:	ef 90       	pop	r14
    2212:	df 90       	pop	r13
    2214:	cf 90       	pop	r12
    2216:	bf 90       	pop	r11
    2218:	af 90       	pop	r10
    221a:	9f 90       	pop	r9
    221c:	8f 90       	pop	r8
    221e:	7f 90       	pop	r7
    2220:	6f 90       	pop	r6
    2222:	08 95       	ret

00002224 <_ZN11IGAS_mb_48521write_single_registerEhjPhPi>:
    uint8_t slave,
    uint16_t write_addr,
    uint8_t* query,
    int16_t* regs
)
{
    2224:	6f 92       	push	r6
    2226:	7f 92       	push	r7
    2228:	8f 92       	push	r8
    222a:	9f 92       	push	r9
    222c:	af 92       	push	r10
    222e:	bf 92       	push	r11
    2230:	cf 92       	push	r12
    2232:	df 92       	push	r13
    2234:	ef 92       	push	r14
    2236:	ff 92       	push	r15
    2238:	0f 93       	push	r16
    223a:	1f 93       	push	r17
    223c:	cf 93       	push	r28
    223e:	df 93       	push	r29
    2240:	cd b7       	in	r28, 0x3d	; 61
    2242:	de b7       	in	r29, 0x3e	; 62
    2244:	28 97       	sbiw	r28, 0x08	; 8
    2246:	0f b6       	in	r0, 0x3f	; 63
    2248:	f8 94       	cli
    224a:	de bf       	out	0x3e, r29	; 62
    224c:	0f be       	out	0x3f, r0	; 63
    224e:	cd bf       	out	0x3d, r28	; 61
    2250:	5c 01       	movw	r10, r24
    2252:	4a 01       	movw	r8, r20
    2254:	38 01       	movw	r6, r16
    const uint16_t reg_val =
        static_cast<uint16_t>(
            (static_cast<uint16_t>(query[REGS_H]) << 8) |
    2256:	f9 01       	movw	r30, r18
    2258:	c4 80       	ldd	r12, Z+4	; 0x04
    225a:	d1 2c       	mov	r13, r1
    225c:	dc 2c       	mov	r13, r12
    225e:	cc 24       	eor	r12, r12
            static_cast<uint16_t>(query[REGS_L])
    2260:	85 81       	ldd	r24, Z+5	; 0x05
        );
    2262:	c8 2a       	or	r12, r24
        slave,
        FC_WRITE_REG,
        write_addr,
        reg_val,
        packet
    );
    2264:	ce 01       	movw	r24, r28
    2266:	01 96       	adiw	r24, 0x01	; 1
    2268:	7c 01       	movw	r14, r24
    226a:	86 01       	movw	r16, r12
    226c:	9a 01       	movw	r18, r20
    226e:	46 e0       	ldi	r20, 0x06	; 6
    2270:	c5 01       	movw	r24, r10
    2272:	0e 94 10 0f 	call	0x1e20	; 0x1e20 <_ZN11IGAS_mb_48525build_write_single_packetEhhjjPh>
    doAction(
        regs,
        static_cast<int16_t>(write_addr),
        singleRegister,
        static_cast<int16_t>(reg_val)
    );
    2276:	21 e0       	ldi	r18, 0x01	; 1
    2278:	30 e0       	ldi	r19, 0x00	; 0
    227a:	a4 01       	movw	r20, r8
    227c:	b3 01       	movw	r22, r6
    227e:	c5 01       	movw	r24, r10
    2280:	0e 94 76 10 	call	0x20ec	; 0x20ec <_ZN11IGAS_mb_4858doActionEPiiii>

    return send_reply(packet, RESPONSE_SIZE);
    2284:	46 e0       	ldi	r20, 0x06	; 6
    2286:	b7 01       	movw	r22, r14
    2288:	c5 01       	movw	r24, r10
    228a:	0e 94 76 0f 	call	0x1eec	; 0x1eec <_ZN11IGAS_mb_48510send_replyEPhh>
}
    228e:	28 96       	adiw	r28, 0x08	; 8
    2290:	0f b6       	in	r0, 0x3f	; 63
    2292:	f8 94       	cli
    2294:	de bf       	out	0x3e, r29	; 62
    2296:	0f be       	out	0x3f, r0	; 63
    2298:	cd bf       	out	0x3d, r28	; 61
    229a:	df 91       	pop	r29
    229c:	cf 91       	pop	r28
    229e:	1f 91       	pop	r17
    22a0:	0f 91       	pop	r16
    22a2:	ff 90       	pop	r15
    22a4:	ef 90       	pop	r14
    22a6:	df 90       	pop	r13
    22a8:	cf 90       	pop	r12
    22aa:	bf 90       	pop	r11
    22ac:	af 90       	pop	r10
    22ae:	9f 90       	pop	r9
    22b0:	8f 90       	pop	r8
    22b2:	7f 90       	pop	r7
    22b4:	6f 90       	pop	r6
    22b6:	08 95       	ret

000022b8 <_ZN11IGAS_mb_48522read_holding_registersEhjhPi>:
    uint8_t slave,
    uint16_t start_addr,
    uint8_t reg_count,
    int16_t* regs
)
{
    22b8:	8f 92       	push	r8
    22ba:	9f 92       	push	r9
    22bc:	bf 92       	push	r11
    22be:	cf 92       	push	r12
    22c0:	df 92       	push	r13
    22c2:	ef 92       	push	r14
    22c4:	ff 92       	push	r15
    22c6:	0f 93       	push	r16
    22c8:	1f 93       	push	r17
    22ca:	cf 93       	push	r28
    22cc:	df 93       	push	r29
    22ce:	cd b7       	in	r28, 0x3d	; 61
    22d0:	de b7       	in	r29, 0x3e	; 62
    22d2:	a8 97       	sbiw	r28, 0x28	; 40
    22d4:	0f b6       	in	r0, 0x3f	; 63
    22d6:	f8 94       	cli
    22d8:	de bf       	out	0x3e, r29	; 62
    22da:	0f be       	out	0x3f, r0	; 63
    22dc:	cd bf       	out	0x3d, r28	; 61
    22de:	6c 01       	movw	r12, r24
    22e0:	4a 01       	movw	r8, r20
    22e2:	b2 2e       	mov	r11, r18
    22e4:	78 01       	movw	r14, r16
    build_read_packet(
        slave,
        FC_READ_REGS,
        reg_count,
        packet
    );
    22e6:	8e 01       	movw	r16, r28
    22e8:	0f 5f       	subi	r16, 0xFF	; 255
    22ea:	1f 4f       	sbci	r17, 0xFF	; 255
    22ec:	43 e0       	ldi	r20, 0x03	; 3
    22ee:	0e 94 f8 0e 	call	0x1df0	; 0x1df0 <_ZN11IGAS_mb_48517build_read_packetEhhhPh>

    doAction(
    22f2:	2b 2d       	mov	r18, r11
    22f4:	30 e0       	ldi	r19, 0x00	; 0
        regs,
        static_cast<int16_t>(start_addr),
        static_cast<int16_t>(reg_count),
        0
    );
    22f6:	00 e0       	ldi	r16, 0x00	; 0
    22f8:	10 e0       	ldi	r17, 0x00	; 0
    22fa:	a4 01       	movw	r20, r8
    22fc:	b7 01       	movw	r22, r14
    22fe:	c6 01       	movw	r24, r12
    2300:	0e 94 76 10 	call	0x20ec	; 0x20ec <_ZN11IGAS_mb_4858doActionEPiiii>

    for (uint8_t i = 0U; i < reg_count; ++i)
    2304:	80 e0       	ldi	r24, 0x00	; 0
    uint8_t reg_count,
    int16_t* regs
)
{
    uint8_t packet[MAX_MESSAGE_LENGTH];
    int packet_size = 3;
    2306:	43 e0       	ldi	r20, 0x03	; 3
    2308:	50 e0       	ldi	r21, 0x00	; 0
        static_cast<int16_t>(start_addr),
        static_cast<int16_t>(reg_count),
        0
    );

    for (uint8_t i = 0U; i < reg_count; ++i)
    230a:	8b 15       	cp	r24, r11
    230c:	e0 f4       	brcc	.+56     	; 0x2346 <_ZN11IGAS_mb_48522read_holding_registersEhjhPi+0x8e>
    {
        const uint16_t reg_value = static_cast<uint16_t>(regs[i]);
    230e:	e8 2f       	mov	r30, r24
    2310:	f0 e0       	ldi	r31, 0x00	; 0
    2312:	ee 0f       	add	r30, r30
    2314:	ff 1f       	adc	r31, r31
    2316:	ee 0d       	add	r30, r14
    2318:	ff 1d       	adc	r31, r15
    231a:	90 81       	ld	r25, Z
    231c:	21 81       	ldd	r18, Z+1	; 0x01

        packet[packet_size++] =
            static_cast<uint8_t>(reg_value >> 8);
    231e:	e1 e0       	ldi	r30, 0x01	; 1
    2320:	f0 e0       	ldi	r31, 0x00	; 0
    2322:	ec 0f       	add	r30, r28
    2324:	fd 1f       	adc	r31, r29
    2326:	e4 0f       	add	r30, r20
    2328:	f5 1f       	adc	r31, r21
    232a:	20 83       	st	Z, r18

        packet[packet_size++] =
            static_cast<uint8_t>(reg_value & 0x00FFU);
    232c:	fa 01       	movw	r30, r20
    232e:	31 96       	adiw	r30, 0x01	; 1
    2330:	21 e0       	ldi	r18, 0x01	; 1
    2332:	30 e0       	ldi	r19, 0x00	; 0
    2334:	2c 0f       	add	r18, r28
    2336:	3d 1f       	adc	r19, r29
    2338:	e2 0f       	add	r30, r18
    233a:	f3 1f       	adc	r31, r19
    233c:	4e 5f       	subi	r20, 0xFE	; 254
    233e:	5f 4f       	sbci	r21, 0xFF	; 255
    2340:	90 83       	st	Z, r25
        static_cast<int16_t>(start_addr),
        static_cast<int16_t>(reg_count),
        0
    );

    for (uint8_t i = 0U; i < reg_count; ++i)
    2342:	8f 5f       	subi	r24, 0xFF	; 255
    2344:	e2 cf       	rjmp	.-60     	; 0x230a <_ZN11IGAS_mb_48522read_holding_registersEhjhPi+0x52>

        packet[packet_size++] =
            static_cast<uint8_t>(reg_value & 0x00FFU);
    }

    return send_reply(packet, static_cast<uint8_t>(packet_size));
    2346:	be 01       	movw	r22, r28
    2348:	6f 5f       	subi	r22, 0xFF	; 255
    234a:	7f 4f       	sbci	r23, 0xFF	; 255
    234c:	c6 01       	movw	r24, r12
    234e:	0e 94 76 0f 	call	0x1eec	; 0x1eec <_ZN11IGAS_mb_48510send_replyEPhh>
}
    2352:	a8 96       	adiw	r28, 0x28	; 40
    2354:	0f b6       	in	r0, 0x3f	; 63
    2356:	f8 94       	cli
    2358:	de bf       	out	0x3e, r29	; 62
    235a:	0f be       	out	0x3f, r0	; 63
    235c:	cd bf       	out	0x3d, r28	; 61
    235e:	df 91       	pop	r29
    2360:	cf 91       	pop	r28
    2362:	1f 91       	pop	r17
    2364:	0f 91       	pop	r16
    2366:	ff 90       	pop	r15
    2368:	ef 90       	pop	r14
    236a:	df 90       	pop	r13
    236c:	cf 90       	pop	r12
    236e:	bf 90       	pop	r11
    2370:	9f 90       	pop	r9
    2372:	8f 90       	pop	r8
    2374:	08 95       	ret

00002376 <_ZN11IGAS_mb_4856updateEv>:
/*----------------------------------------------------------------------------
 * ą×čüąĮąŠą▓ąĮąŠą╣ ąŠą▒čĆą░ą▒ąŠčéčćąĖą║
 *---------------------------------------------------------------------------*/

uint8_t IGAS_mb_485::update(void)
{
    2376:	cf 92       	push	r12
    2378:	df 92       	push	r13
    237a:	ef 92       	push	r14
    237c:	ff 92       	push	r15
    237e:	0f 93       	push	r16
    2380:	1f 93       	push	r17
    2382:	cf 93       	push	r28
    2384:	df 93       	push	r29
    2386:	cd b7       	in	r28, 0x3d	; 61
    2388:	de b7       	in	r29, 0x3e	; 62
    238a:	cd 57       	subi	r28, 0x7D	; 125
    238c:	d1 09       	sbc	r29, r1
    238e:	0f b6       	in	r0, 0x3f	; 63
    2390:	f8 94       	cli
    2392:	de bf       	out	0x3e, r29	; 62
    2394:	0f be       	out	0x3f, r0	; 63
    2396:	cd bf       	out	0x3d, r28	; 61
    2398:	6c 01       	movw	r12, r24
     *
     * @return ąÜąŠą╗ąĖčćąĄčüčéą▓ąŠ ą▒ą░ą╣čé ą▓ ą┐čĆąĖčæą╝ąĮąŠą╝ ą▒čāčäąĄčĆąĄ.
     */
    int available(void)
    {
        return static_cast<int>(hal::uart0_available());
    239a:	0e 94 a1 0b 	call	0x1742	; 0x1742 <_ZN3hal15uart0_availableEv>
    239e:	08 2f       	mov	r16, r24
    23a0:	10 e0       	ldi	r17, 0x00	; 0
    const int16_t length_now =
        static_cast<int16_t>(Serial.available());

    if (length_now == 0)
    23a2:	01 15       	cp	r16, r1
    23a4:	11 05       	cpc	r17, r1
    23a6:	29 f4       	brne	.+10     	; 0x23b2 <_ZN11IGAS_mb_4856updateEv+0x3c>
    {
        lastBytesReceived = 0;
    23a8:	f6 01       	movw	r30, r12
    23aa:	16 86       	std	Z+14, r1	; 0x0e
    23ac:	15 86       	std	Z+13, r1	; 0x0d
        return 0;
    23ae:	f1 2c       	mov	r15, r1
    23b0:	8b c0       	rjmp	.+278    	; 0x24c8 <_ZN11IGAS_mb_4856updateEv+0x152>
    }

    if (lai_board::rs485IsTransmitMode())
    23b2:	0e 94 db 09 	call	0x13b6	; 0x13b6 <_ZN9lai_board19rs485IsTransmitModeEv>
    23b6:	81 11       	cpse	r24, r1
    23b8:	80 c0       	rjmp	.+256    	; 0x24ba <_ZN11IGAS_mb_4856updateEv+0x144>
 *
 * @see hal::millis
 */
static inline uint32_t millis(void)
{
    return hal::millis();
    23ba:	0e 94 be 0c 	call	0x197c	; 0x197c <_ZN3hal6millisEv>
    uint8_t query[MAX_MESSAGE_LENGTH];
    uint8_t errpacket[EXCEPTION_SIZE + CHECKSUM_SIZE];

    const uint32_t t_ms = millis();

    if (lastBytesReceived != length_now)
    23be:	f6 01       	movw	r30, r12
    23c0:	25 85       	ldd	r18, Z+13	; 0x0d
    23c2:	36 85       	ldd	r19, Z+14	; 0x0e
    23c4:	20 17       	cp	r18, r16
    23c6:	31 07       	cpc	r19, r17
    23c8:	41 f0       	breq	.+16     	; 0x23da <_ZN11IGAS_mb_4856updateEv+0x64>
    {
        lastBytesReceived = length_now;
    23ca:	16 87       	std	Z+14, r17	; 0x0e
    23cc:	05 87       	std	Z+13, r16	; 0x0d
        Nowdt = t_ms;
    23ce:	61 87       	std	Z+9, r22	; 0x09
    23d0:	72 87       	std	Z+10, r23	; 0x0a
    23d2:	83 87       	std	Z+11, r24	; 0x0b
    23d4:	94 87       	std	Z+12, r25	; 0x0c
        return 0;
    23d6:	f1 2c       	mov	r15, r1
    23d8:	77 c0       	rjmp	.+238    	; 0x24c8 <_ZN11IGAS_mb_4856updateEv+0x152>
    }

    if (static_cast<uint32_t>(t_ms - Nowdt) < interframe_delay)
    23da:	f6 01       	movw	r30, r12
    23dc:	01 85       	ldd	r16, Z+9	; 0x09
    23de:	12 85       	ldd	r17, Z+10	; 0x0a
    23e0:	23 85       	ldd	r18, Z+11	; 0x0b
    23e2:	34 85       	ldd	r19, Z+12	; 0x0c
    23e4:	dc 01       	movw	r26, r24
    23e6:	cb 01       	movw	r24, r22
    23e8:	80 1b       	sub	r24, r16
    23ea:	91 0b       	sbc	r25, r17
    23ec:	a2 0b       	sbc	r26, r18
    23ee:	b3 0b       	sbc	r27, r19
    23f0:	03 81       	ldd	r16, Z+3	; 0x03
    23f2:	14 81       	ldd	r17, Z+4	; 0x04
    23f4:	20 e0       	ldi	r18, 0x00	; 0
    23f6:	30 e0       	ldi	r19, 0x00	; 0
    23f8:	80 17       	cp	r24, r16
    23fa:	91 07       	cpc	r25, r17
    23fc:	a2 07       	cpc	r26, r18
    23fe:	b3 07       	cpc	r27, r19
    2400:	08 f4       	brcc	.+2      	; 0x2404 <_ZN11IGAS_mb_4856updateEv+0x8e>
    2402:	5d c0       	rjmp	.+186    	; 0x24be <_ZN11IGAS_mb_4856updateEv+0x148>
    {
        return 0;
    }

    lastBytesReceived = 0;
    2404:	16 86       	std	Z+14, r1	; 0x0e
    2406:	15 86       	std	Z+13, r1	; 0x0d

    const int16_t frame_len = modbus_request(slave, query);
    2408:	60 81       	ld	r22, Z
    240a:	ae 01       	movw	r20, r28
    240c:	4f 5f       	subi	r20, 0xFF	; 255
    240e:	5f 4f       	sbci	r21, 0xFF	; 255
    2410:	c6 01       	movw	r24, r12
    2412:	0e 94 b3 0f 	call	0x1f66	; 0x1f66 <_ZN11IGAS_mb_48514modbus_requestEhPh>

    if (frame_len < MIN_REQUEST_SIZE)
    2416:	88 30       	cpi	r24, 0x08	; 8
    2418:	91 05       	cpc	r25, r1
    241a:	0c f4       	brge	.+2      	; 0x241e <_ZN11IGAS_mb_4856updateEv+0xa8>
    241c:	52 c0       	rjmp	.+164    	; 0x24c2 <_ZN11IGAS_mb_4856updateEv+0x14c>
    {
        return 0;
    }

    const int exception =
        validate_request(query, static_cast<uint8_t>(frame_len));
    241e:	48 2f       	mov	r20, r24
    2420:	be 01       	movw	r22, r28
    2422:	6f 5f       	subi	r22, 0xFF	; 255
    2424:	7f 4f       	sbci	r23, 0xFF	; 255
    2426:	c6 01       	movw	r24, r12
    2428:	0e 94 f6 0f 	call	0x1fec	; 0x1fec <_ZN11IGAS_mb_48516validate_requestEPhh>

    if (exception != 0)
    242c:	00 97       	sbiw	r24, 0x00	; 0
    242e:	89 f0       	breq	.+34     	; 0x2452 <_ZN11IGAS_mb_4856updateEv+0xdc>
    {
        build_error_packet(
    2430:	f8 2e       	mov	r15, r24
    2432:	4a 81       	ldd	r20, Y+2	; 0x02
    2434:	f6 01       	movw	r30, r12
    2436:	60 81       	ld	r22, Z
            slave,
            query[FUNC],
            static_cast<uint8_t>(exception),
            errpacket
        );
    2438:	8e 01       	movw	r16, r28
    243a:	07 5d       	subi	r16, 0xD7	; 215
    243c:	1f 4f       	sbci	r17, 0xFF	; 255
    243e:	28 2f       	mov	r18, r24
    2440:	c6 01       	movw	r24, r12
    2442:	0e 94 20 0f 	call	0x1e40	; 0x1e40 <_ZN11IGAS_mb_48518build_error_packetEhhhPh>

        (void)send_reply(errpacket, EXCEPTION_SIZE);
    2446:	43 e0       	ldi	r20, 0x03	; 3
    2448:	b8 01       	movw	r22, r16
    244a:	c6 01       	movw	r24, r12
    244c:	0e 94 76 0f 	call	0x1eec	; 0x1eec <_ZN11IGAS_mb_48510send_replyEPhh>

        return static_cast<uint8_t>(exception);
    2450:	3b c0       	rjmp	.+118    	; 0x24c8 <_ZN11IGAS_mb_4856updateEv+0x152>
    }

    const uint16_t start_addr =
        static_cast<uint16_t>(
            (static_cast<uint16_t>(query[START_H]) << 8) |
    2452:	4b 81       	ldd	r20, Y+3	; 0x03
    2454:	50 e0       	ldi	r21, 0x00	; 0
    2456:	54 2f       	mov	r21, r20
    2458:	44 27       	eor	r20, r20
            static_cast<uint16_t>(query[START_L])
    245a:	8c 81       	ldd	r24, Y+4	; 0x04
        );
    245c:	48 2b       	or	r20, r24

    int16_t regs[MAX_MESSAGE_LENGTH];

    func = query[FUNC];
    245e:	8a 81       	ldd	r24, Y+2	; 0x02
    2460:	f6 01       	movw	r30, r12
    2462:	82 83       	std	Z+2, r24	; 0x02

    switch (query[FUNC])
    2464:	86 30       	cpi	r24, 0x06	; 6
    2466:	e1 f0       	breq	.+56     	; 0x24a0 <_ZN11IGAS_mb_4856updateEv+0x12a>
    2468:	80 31       	cpi	r24, 0x10	; 16
    246a:	61 f0       	breq	.+24     	; 0x2484 <_ZN11IGAS_mb_4856updateEv+0x10e>
    246c:	83 30       	cpi	r24, 0x03	; 3
    246e:	59 f5       	brne	.+86     	; 0x24c6 <_ZN11IGAS_mb_4856updateEv+0x150>
    {
        case FC_READ_REGS:
            return static_cast<uint8_t>(
                read_holding_registers(
    2470:	8e 01       	movw	r16, r28
    2472:	02 5d       	subi	r16, 0xD2	; 210
    2474:	1f 4f       	sbci	r17, 0xFF	; 255
    2476:	2e 81       	ldd	r18, Y+6	; 0x06
    2478:	60 81       	ld	r22, Z
    247a:	c6 01       	movw	r24, r12
    247c:	0e 94 5c 11 	call	0x22b8	; 0x22b8 <_ZN11IGAS_mb_48522read_holding_registersEhjhPi>
    2480:	f8 2e       	mov	r15, r24
                    slave,
                    start_addr,
                    query[REGS_L],
                    regs
                )
            );
    2482:	22 c0       	rjmp	.+68     	; 0x24c8 <_ZN11IGAS_mb_4856updateEv+0x152>

        case FC_WRITE_REGS:
            return static_cast<uint8_t>(
                preset_multiple_registers(
    2484:	ce 01       	movw	r24, r28
    2486:	8e 96       	adiw	r24, 0x2e	; 46
    2488:	7c 01       	movw	r14, r24
    248a:	8e 01       	movw	r16, r28
    248c:	0f 5f       	subi	r16, 0xFF	; 255
    248e:	1f 4f       	sbci	r17, 0xFF	; 255
    2490:	2e 81       	ldd	r18, Y+6	; 0x06
    2492:	f6 01       	movw	r30, r12
    2494:	60 81       	ld	r22, Z
    2496:	c6 01       	movw	r24, r12
    2498:	0e 94 cd 10 	call	0x219a	; 0x219a <_ZN11IGAS_mb_48525preset_multiple_registersEhjhPhPi>
    249c:	f8 2e       	mov	r15, r24
                    start_addr,
                    query[REGS_L],
                    query,
                    regs
                )
            );
    249e:	14 c0       	rjmp	.+40     	; 0x24c8 <_ZN11IGAS_mb_4856updateEv+0x152>

        case FC_WRITE_REG:
            (void)write_single_register(
    24a0:	f6 01       	movw	r30, r12
    24a2:	60 81       	ld	r22, Z
                slave,
                start_addr,
                query,
                regs
            );
    24a4:	8e 01       	movw	r16, r28
    24a6:	02 5d       	subi	r16, 0xD2	; 210
    24a8:	1f 4f       	sbci	r17, 0xFF	; 255
    24aa:	9e 01       	movw	r18, r28
    24ac:	2f 5f       	subi	r18, 0xFF	; 255
    24ae:	3f 4f       	sbci	r19, 0xFF	; 255
    24b0:	c6 01       	movw	r24, r12
    24b2:	0e 94 12 11 	call	0x2224	; 0x2224 <_ZN11IGAS_mb_48521write_single_registerEhjPhPi>
            return 0;
    24b6:	f1 2c       	mov	r15, r1
    24b8:	07 c0       	rjmp	.+14     	; 0x24c8 <_ZN11IGAS_mb_4856updateEv+0x152>
        return 0;
    }

    if (lai_board::rs485IsTransmitMode())
    {
        return 0;
    24ba:	f1 2c       	mov	r15, r1
    24bc:	05 c0       	rjmp	.+10     	; 0x24c8 <_ZN11IGAS_mb_4856updateEv+0x152>
        return 0;
    }

    if (static_cast<uint32_t>(t_ms - Nowdt) < interframe_delay)
    {
        return 0;
    24be:	f1 2c       	mov	r15, r1
    24c0:	03 c0       	rjmp	.+6      	; 0x24c8 <_ZN11IGAS_mb_4856updateEv+0x152>

    const int16_t frame_len = modbus_request(slave, query);

    if (frame_len < MIN_REQUEST_SIZE)
    {
        return 0;
    24c2:	f1 2c       	mov	r15, r1
    24c4:	01 c0       	rjmp	.+2      	; 0x24c8 <_ZN11IGAS_mb_4856updateEv+0x152>
                regs
            );
            return 0;

        default:
            return 0;
    24c6:	f1 2c       	mov	r15, r1
    }
}
    24c8:	8f 2d       	mov	r24, r15
    24ca:	c3 58       	subi	r28, 0x83	; 131
    24cc:	df 4f       	sbci	r29, 0xFF	; 255
    24ce:	0f b6       	in	r0, 0x3f	; 63
    24d0:	f8 94       	cli
    24d2:	de bf       	out	0x3e, r29	; 62
    24d4:	0f be       	out	0x3f, r0	; 63
    24d6:	cd bf       	out	0x3d, r28	; 61
    24d8:	df 91       	pop	r29
    24da:	cf 91       	pop	r28
    24dc:	1f 91       	pop	r17
    24de:	0f 91       	pop	r16
    24e0:	ff 90       	pop	r15
    24e2:	ef 90       	pop	r14
    24e4:	df 90       	pop	r13
    24e6:	cf 90       	pop	r12
    24e8:	08 95       	ret

000024ea <main>:
 *
 * @return į¾ĒĻ÷Ķ  ĒÕ ŌŅńŌ­Ó∙ÓÕ“ ¾’­ÓŌļÕĒĶÕ.
 */
int main(void)
{
    cli();
    24ea:	f8 94       	cli

    hal::tick_init();
    24ec:	0e 94 a6 0c 	call	0x194c	; 0x194c <_ZN3hal9tick_initEv>

    sei();
    24f0:	78 94       	sei

    setup();
    24f2:	0e 94 cc 08 	call	0x1198	; 0x1198 <_Z5setupv>

    for (;;)
    {
        loop();
    24f6:	0e 94 70 09 	call	0x12e0	; 0x12e0 <_Z4loopv>
    24fa:	fd cf       	rjmp	.-6      	; 0x24f6 <main+0xc>

000024fc <__subsf3>:
    24fc:	50 58       	subi	r21, 0x80	; 128

000024fe <__addsf3>:
    24fe:	bb 27       	eor	r27, r27
    2500:	aa 27       	eor	r26, r26
    2502:	0e 94 96 12 	call	0x252c	; 0x252c <__addsf3x>
    2506:	0c 94 e7 13 	jmp	0x27ce	; 0x27ce <__fp_round>
    250a:	0e 94 d9 13 	call	0x27b2	; 0x27b2 <__fp_pscA>
    250e:	38 f0       	brcs	.+14     	; 0x251e <__addsf3+0x20>
    2510:	0e 94 e0 13 	call	0x27c0	; 0x27c0 <__fp_pscB>
    2514:	20 f0       	brcs	.+8      	; 0x251e <__addsf3+0x20>
    2516:	39 f4       	brne	.+14     	; 0x2526 <__addsf3+0x28>
    2518:	9f 3f       	cpi	r25, 0xFF	; 255
    251a:	19 f4       	brne	.+6      	; 0x2522 <__addsf3+0x24>
    251c:	26 f4       	brtc	.+8      	; 0x2526 <__addsf3+0x28>
    251e:	0c 94 d6 13 	jmp	0x27ac	; 0x27ac <__fp_nan>
    2522:	0e f4       	brtc	.+2      	; 0x2526 <__addsf3+0x28>
    2524:	e0 95       	com	r30
    2526:	e7 fb       	bst	r30, 7
    2528:	0c 94 d0 13 	jmp	0x27a0	; 0x27a0 <__fp_inf>

0000252c <__addsf3x>:
    252c:	e9 2f       	mov	r30, r25
    252e:	0e 94 f8 13 	call	0x27f0	; 0x27f0 <__fp_split3>
    2532:	58 f3       	brcs	.-42     	; 0x250a <__addsf3+0xc>
    2534:	ba 17       	cp	r27, r26
    2536:	62 07       	cpc	r22, r18
    2538:	73 07       	cpc	r23, r19
    253a:	84 07       	cpc	r24, r20
    253c:	95 07       	cpc	r25, r21
    253e:	20 f0       	brcs	.+8      	; 0x2548 <__addsf3x+0x1c>
    2540:	79 f4       	brne	.+30     	; 0x2560 <__addsf3x+0x34>
    2542:	a6 f5       	brtc	.+104    	; 0x25ac <__addsf3x+0x80>
    2544:	0c 94 1a 14 	jmp	0x2834	; 0x2834 <__fp_zero>
    2548:	0e f4       	brtc	.+2      	; 0x254c <__addsf3x+0x20>
    254a:	e0 95       	com	r30
    254c:	0b 2e       	mov	r0, r27
    254e:	ba 2f       	mov	r27, r26
    2550:	a0 2d       	mov	r26, r0
    2552:	0b 01       	movw	r0, r22
    2554:	b9 01       	movw	r22, r18
    2556:	90 01       	movw	r18, r0
    2558:	0c 01       	movw	r0, r24
    255a:	ca 01       	movw	r24, r20
    255c:	a0 01       	movw	r20, r0
    255e:	11 24       	eor	r1, r1
    2560:	ff 27       	eor	r31, r31
    2562:	59 1b       	sub	r21, r25
    2564:	99 f0       	breq	.+38     	; 0x258c <__addsf3x+0x60>
    2566:	59 3f       	cpi	r21, 0xF9	; 249
    2568:	50 f4       	brcc	.+20     	; 0x257e <__addsf3x+0x52>
    256a:	50 3e       	cpi	r21, 0xE0	; 224
    256c:	68 f1       	brcs	.+90     	; 0x25c8 <__addsf3x+0x9c>
    256e:	1a 16       	cp	r1, r26
    2570:	f0 40       	sbci	r31, 0x00	; 0
    2572:	a2 2f       	mov	r26, r18
    2574:	23 2f       	mov	r18, r19
    2576:	34 2f       	mov	r19, r20
    2578:	44 27       	eor	r20, r20
    257a:	58 5f       	subi	r21, 0xF8	; 248
    257c:	f3 cf       	rjmp	.-26     	; 0x2564 <__addsf3x+0x38>
    257e:	46 95       	lsr	r20
    2580:	37 95       	ror	r19
    2582:	27 95       	ror	r18
    2584:	a7 95       	ror	r26
    2586:	f0 40       	sbci	r31, 0x00	; 0
    2588:	53 95       	inc	r21
    258a:	c9 f7       	brne	.-14     	; 0x257e <__addsf3x+0x52>
    258c:	7e f4       	brtc	.+30     	; 0x25ac <__addsf3x+0x80>
    258e:	1f 16       	cp	r1, r31
    2590:	ba 0b       	sbc	r27, r26
    2592:	62 0b       	sbc	r22, r18
    2594:	73 0b       	sbc	r23, r19
    2596:	84 0b       	sbc	r24, r20
    2598:	ba f0       	brmi	.+46     	; 0x25c8 <__addsf3x+0x9c>
    259a:	91 50       	subi	r25, 0x01	; 1
    259c:	a1 f0       	breq	.+40     	; 0x25c6 <__addsf3x+0x9a>
    259e:	ff 0f       	add	r31, r31
    25a0:	bb 1f       	adc	r27, r27
    25a2:	66 1f       	adc	r22, r22
    25a4:	77 1f       	adc	r23, r23
    25a6:	88 1f       	adc	r24, r24
    25a8:	c2 f7       	brpl	.-16     	; 0x259a <__addsf3x+0x6e>
    25aa:	0e c0       	rjmp	.+28     	; 0x25c8 <__addsf3x+0x9c>
    25ac:	ba 0f       	add	r27, r26
    25ae:	62 1f       	adc	r22, r18
    25b0:	73 1f       	adc	r23, r19
    25b2:	84 1f       	adc	r24, r20
    25b4:	48 f4       	brcc	.+18     	; 0x25c8 <__addsf3x+0x9c>
    25b6:	87 95       	ror	r24
    25b8:	77 95       	ror	r23
    25ba:	67 95       	ror	r22
    25bc:	b7 95       	ror	r27
    25be:	f7 95       	ror	r31
    25c0:	9e 3f       	cpi	r25, 0xFE	; 254
    25c2:	08 f0       	brcs	.+2      	; 0x25c6 <__addsf3x+0x9a>
    25c4:	b0 cf       	rjmp	.-160    	; 0x2526 <__addsf3+0x28>
    25c6:	93 95       	inc	r25
    25c8:	88 0f       	add	r24, r24
    25ca:	08 f0       	brcs	.+2      	; 0x25ce <__addsf3x+0xa2>
    25cc:	99 27       	eor	r25, r25
    25ce:	ee 0f       	add	r30, r30
    25d0:	97 95       	ror	r25
    25d2:	87 95       	ror	r24
    25d4:	08 95       	ret

000025d6 <__divsf3>:
    25d6:	0e 94 ff 12 	call	0x25fe	; 0x25fe <__divsf3x>
    25da:	0c 94 e7 13 	jmp	0x27ce	; 0x27ce <__fp_round>
    25de:	0e 94 e0 13 	call	0x27c0	; 0x27c0 <__fp_pscB>
    25e2:	58 f0       	brcs	.+22     	; 0x25fa <__divsf3+0x24>
    25e4:	0e 94 d9 13 	call	0x27b2	; 0x27b2 <__fp_pscA>
    25e8:	40 f0       	brcs	.+16     	; 0x25fa <__divsf3+0x24>
    25ea:	29 f4       	brne	.+10     	; 0x25f6 <__divsf3+0x20>
    25ec:	5f 3f       	cpi	r21, 0xFF	; 255
    25ee:	29 f0       	breq	.+10     	; 0x25fa <__divsf3+0x24>
    25f0:	0c 94 d0 13 	jmp	0x27a0	; 0x27a0 <__fp_inf>
    25f4:	51 11       	cpse	r21, r1
    25f6:	0c 94 1b 14 	jmp	0x2836	; 0x2836 <__fp_szero>
    25fa:	0c 94 d6 13 	jmp	0x27ac	; 0x27ac <__fp_nan>

000025fe <__divsf3x>:
    25fe:	0e 94 f8 13 	call	0x27f0	; 0x27f0 <__fp_split3>
    2602:	68 f3       	brcs	.-38     	; 0x25de <__divsf3+0x8>

00002604 <__divsf3_pse>:
    2604:	99 23       	and	r25, r25
    2606:	b1 f3       	breq	.-20     	; 0x25f4 <__divsf3+0x1e>
    2608:	55 23       	and	r21, r21
    260a:	91 f3       	breq	.-28     	; 0x25f0 <__divsf3+0x1a>
    260c:	95 1b       	sub	r25, r21
    260e:	55 0b       	sbc	r21, r21
    2610:	bb 27       	eor	r27, r27
    2612:	aa 27       	eor	r26, r26
    2614:	62 17       	cp	r22, r18
    2616:	73 07       	cpc	r23, r19
    2618:	84 07       	cpc	r24, r20
    261a:	38 f0       	brcs	.+14     	; 0x262a <__divsf3_pse+0x26>
    261c:	9f 5f       	subi	r25, 0xFF	; 255
    261e:	5f 4f       	sbci	r21, 0xFF	; 255
    2620:	22 0f       	add	r18, r18
    2622:	33 1f       	adc	r19, r19
    2624:	44 1f       	adc	r20, r20
    2626:	aa 1f       	adc	r26, r26
    2628:	a9 f3       	breq	.-22     	; 0x2614 <__divsf3_pse+0x10>
    262a:	35 d0       	rcall	.+106    	; 0x2696 <__divsf3_pse+0x92>
    262c:	0e 2e       	mov	r0, r30
    262e:	3a f0       	brmi	.+14     	; 0x263e <__divsf3_pse+0x3a>
    2630:	e0 e8       	ldi	r30, 0x80	; 128
    2632:	32 d0       	rcall	.+100    	; 0x2698 <__divsf3_pse+0x94>
    2634:	91 50       	subi	r25, 0x01	; 1
    2636:	50 40       	sbci	r21, 0x00	; 0
    2638:	e6 95       	lsr	r30
    263a:	00 1c       	adc	r0, r0
    263c:	ca f7       	brpl	.-14     	; 0x2630 <__divsf3_pse+0x2c>
    263e:	2b d0       	rcall	.+86     	; 0x2696 <__divsf3_pse+0x92>
    2640:	fe 2f       	mov	r31, r30
    2642:	29 d0       	rcall	.+82     	; 0x2696 <__divsf3_pse+0x92>
    2644:	66 0f       	add	r22, r22
    2646:	77 1f       	adc	r23, r23
    2648:	88 1f       	adc	r24, r24
    264a:	bb 1f       	adc	r27, r27
    264c:	26 17       	cp	r18, r22
    264e:	37 07       	cpc	r19, r23
    2650:	48 07       	cpc	r20, r24
    2652:	ab 07       	cpc	r26, r27
    2654:	b0 e8       	ldi	r27, 0x80	; 128
    2656:	09 f0       	breq	.+2      	; 0x265a <__divsf3_pse+0x56>
    2658:	bb 0b       	sbc	r27, r27
    265a:	80 2d       	mov	r24, r0
    265c:	bf 01       	movw	r22, r30
    265e:	ff 27       	eor	r31, r31
    2660:	93 58       	subi	r25, 0x83	; 131
    2662:	5f 4f       	sbci	r21, 0xFF	; 255
    2664:	3a f0       	brmi	.+14     	; 0x2674 <__divsf3_pse+0x70>
    2666:	9e 3f       	cpi	r25, 0xFE	; 254
    2668:	51 05       	cpc	r21, r1
    266a:	78 f0       	brcs	.+30     	; 0x268a <__divsf3_pse+0x86>
    266c:	0c 94 d0 13 	jmp	0x27a0	; 0x27a0 <__fp_inf>
    2670:	0c 94 1b 14 	jmp	0x2836	; 0x2836 <__fp_szero>
    2674:	5f 3f       	cpi	r21, 0xFF	; 255
    2676:	e4 f3       	brlt	.-8      	; 0x2670 <__divsf3_pse+0x6c>
    2678:	98 3e       	cpi	r25, 0xE8	; 232
    267a:	d4 f3       	brlt	.-12     	; 0x2670 <__divsf3_pse+0x6c>
    267c:	86 95       	lsr	r24
    267e:	77 95       	ror	r23
    2680:	67 95       	ror	r22
    2682:	b7 95       	ror	r27
    2684:	f7 95       	ror	r31
    2686:	9f 5f       	subi	r25, 0xFF	; 255
    2688:	c9 f7       	brne	.-14     	; 0x267c <__divsf3_pse+0x78>
    268a:	88 0f       	add	r24, r24
    268c:	91 1d       	adc	r25, r1
    268e:	96 95       	lsr	r25
    2690:	87 95       	ror	r24
    2692:	97 f9       	bld	r25, 7
    2694:	08 95       	ret
    2696:	e1 e0       	ldi	r30, 0x01	; 1
    2698:	66 0f       	add	r22, r22
    269a:	77 1f       	adc	r23, r23
    269c:	88 1f       	adc	r24, r24
    269e:	bb 1f       	adc	r27, r27
    26a0:	62 17       	cp	r22, r18
    26a2:	73 07       	cpc	r23, r19
    26a4:	84 07       	cpc	r24, r20
    26a6:	ba 07       	cpc	r27, r26
    26a8:	20 f0       	brcs	.+8      	; 0x26b2 <__divsf3_pse+0xae>
    26aa:	62 1b       	sub	r22, r18
    26ac:	73 0b       	sbc	r23, r19
    26ae:	84 0b       	sbc	r24, r20
    26b0:	ba 0b       	sbc	r27, r26
    26b2:	ee 1f       	adc	r30, r30
    26b4:	88 f7       	brcc	.-30     	; 0x2698 <__divsf3_pse+0x94>
    26b6:	e0 95       	com	r30
    26b8:	08 95       	ret

000026ba <__fixsfsi>:
    26ba:	0e 94 64 13 	call	0x26c8	; 0x26c8 <__fixunssfsi>
    26be:	68 94       	set
    26c0:	b1 11       	cpse	r27, r1
    26c2:	0c 94 1b 14 	jmp	0x2836	; 0x2836 <__fp_szero>
    26c6:	08 95       	ret

000026c8 <__fixunssfsi>:
    26c8:	0e 94 00 14 	call	0x2800	; 0x2800 <__fp_splitA>
    26cc:	88 f0       	brcs	.+34     	; 0x26f0 <__fixunssfsi+0x28>
    26ce:	9f 57       	subi	r25, 0x7F	; 127
    26d0:	98 f0       	brcs	.+38     	; 0x26f8 <__fixunssfsi+0x30>
    26d2:	b9 2f       	mov	r27, r25
    26d4:	99 27       	eor	r25, r25
    26d6:	b7 51       	subi	r27, 0x17	; 23
    26d8:	b0 f0       	brcs	.+44     	; 0x2706 <__fixunssfsi+0x3e>
    26da:	e1 f0       	breq	.+56     	; 0x2714 <__fixunssfsi+0x4c>
    26dc:	66 0f       	add	r22, r22
    26de:	77 1f       	adc	r23, r23
    26e0:	88 1f       	adc	r24, r24
    26e2:	99 1f       	adc	r25, r25
    26e4:	1a f0       	brmi	.+6      	; 0x26ec <__fixunssfsi+0x24>
    26e6:	ba 95       	dec	r27
    26e8:	c9 f7       	brne	.-14     	; 0x26dc <__fixunssfsi+0x14>
    26ea:	14 c0       	rjmp	.+40     	; 0x2714 <__fixunssfsi+0x4c>
    26ec:	b1 30       	cpi	r27, 0x01	; 1
    26ee:	91 f0       	breq	.+36     	; 0x2714 <__fixunssfsi+0x4c>
    26f0:	0e 94 1a 14 	call	0x2834	; 0x2834 <__fp_zero>
    26f4:	b1 e0       	ldi	r27, 0x01	; 1
    26f6:	08 95       	ret
    26f8:	0c 94 1a 14 	jmp	0x2834	; 0x2834 <__fp_zero>
    26fc:	67 2f       	mov	r22, r23
    26fe:	78 2f       	mov	r23, r24
    2700:	88 27       	eor	r24, r24
    2702:	b8 5f       	subi	r27, 0xF8	; 248
    2704:	39 f0       	breq	.+14     	; 0x2714 <__fixunssfsi+0x4c>
    2706:	b9 3f       	cpi	r27, 0xF9	; 249
    2708:	cc f3       	brlt	.-14     	; 0x26fc <__fixunssfsi+0x34>
    270a:	86 95       	lsr	r24
    270c:	77 95       	ror	r23
    270e:	67 95       	ror	r22
    2710:	b3 95       	inc	r27
    2712:	d9 f7       	brne	.-10     	; 0x270a <__fixunssfsi+0x42>
    2714:	3e f4       	brtc	.+14     	; 0x2724 <__fixunssfsi+0x5c>
    2716:	90 95       	com	r25
    2718:	80 95       	com	r24
    271a:	70 95       	com	r23
    271c:	61 95       	neg	r22
    271e:	7f 4f       	sbci	r23, 0xFF	; 255
    2720:	8f 4f       	sbci	r24, 0xFF	; 255
    2722:	9f 4f       	sbci	r25, 0xFF	; 255
    2724:	08 95       	ret

00002726 <__floatunsisf>:
    2726:	e8 94       	clt
    2728:	09 c0       	rjmp	.+18     	; 0x273c <__floatsisf+0x12>

0000272a <__floatsisf>:
    272a:	97 fb       	bst	r25, 7
    272c:	3e f4       	brtc	.+14     	; 0x273c <__floatsisf+0x12>
    272e:	90 95       	com	r25
    2730:	80 95       	com	r24
    2732:	70 95       	com	r23
    2734:	61 95       	neg	r22
    2736:	7f 4f       	sbci	r23, 0xFF	; 255
    2738:	8f 4f       	sbci	r24, 0xFF	; 255
    273a:	9f 4f       	sbci	r25, 0xFF	; 255
    273c:	99 23       	and	r25, r25
    273e:	a9 f0       	breq	.+42     	; 0x276a <__floatsisf+0x40>
    2740:	f9 2f       	mov	r31, r25
    2742:	96 e9       	ldi	r25, 0x96	; 150
    2744:	bb 27       	eor	r27, r27
    2746:	93 95       	inc	r25
    2748:	f6 95       	lsr	r31
    274a:	87 95       	ror	r24
    274c:	77 95       	ror	r23
    274e:	67 95       	ror	r22
    2750:	b7 95       	ror	r27
    2752:	f1 11       	cpse	r31, r1
    2754:	f8 cf       	rjmp	.-16     	; 0x2746 <__floatsisf+0x1c>
    2756:	fa f4       	brpl	.+62     	; 0x2796 <__floatsisf+0x6c>
    2758:	bb 0f       	add	r27, r27
    275a:	11 f4       	brne	.+4      	; 0x2760 <__floatsisf+0x36>
    275c:	60 ff       	sbrs	r22, 0
    275e:	1b c0       	rjmp	.+54     	; 0x2796 <__floatsisf+0x6c>
    2760:	6f 5f       	subi	r22, 0xFF	; 255
    2762:	7f 4f       	sbci	r23, 0xFF	; 255
    2764:	8f 4f       	sbci	r24, 0xFF	; 255
    2766:	9f 4f       	sbci	r25, 0xFF	; 255
    2768:	16 c0       	rjmp	.+44     	; 0x2796 <__floatsisf+0x6c>
    276a:	88 23       	and	r24, r24
    276c:	11 f0       	breq	.+4      	; 0x2772 <__floatsisf+0x48>
    276e:	96 e9       	ldi	r25, 0x96	; 150
    2770:	11 c0       	rjmp	.+34     	; 0x2794 <__floatsisf+0x6a>
    2772:	77 23       	and	r23, r23
    2774:	21 f0       	breq	.+8      	; 0x277e <__floatsisf+0x54>
    2776:	9e e8       	ldi	r25, 0x8E	; 142
    2778:	87 2f       	mov	r24, r23
    277a:	76 2f       	mov	r23, r22
    277c:	05 c0       	rjmp	.+10     	; 0x2788 <__floatsisf+0x5e>
    277e:	66 23       	and	r22, r22
    2780:	71 f0       	breq	.+28     	; 0x279e <__floatsisf+0x74>
    2782:	96 e8       	ldi	r25, 0x86	; 134
    2784:	86 2f       	mov	r24, r22
    2786:	70 e0       	ldi	r23, 0x00	; 0
    2788:	60 e0       	ldi	r22, 0x00	; 0
    278a:	2a f0       	brmi	.+10     	; 0x2796 <__floatsisf+0x6c>
    278c:	9a 95       	dec	r25
    278e:	66 0f       	add	r22, r22
    2790:	77 1f       	adc	r23, r23
    2792:	88 1f       	adc	r24, r24
    2794:	da f7       	brpl	.-10     	; 0x278c <__floatsisf+0x62>
    2796:	88 0f       	add	r24, r24
    2798:	96 95       	lsr	r25
    279a:	87 95       	ror	r24
    279c:	97 f9       	bld	r25, 7
    279e:	08 95       	ret

000027a0 <__fp_inf>:
    27a0:	97 f9       	bld	r25, 7
    27a2:	9f 67       	ori	r25, 0x7F	; 127
    27a4:	80 e8       	ldi	r24, 0x80	; 128
    27a6:	70 e0       	ldi	r23, 0x00	; 0
    27a8:	60 e0       	ldi	r22, 0x00	; 0
    27aa:	08 95       	ret

000027ac <__fp_nan>:
    27ac:	9f ef       	ldi	r25, 0xFF	; 255
    27ae:	80 ec       	ldi	r24, 0xC0	; 192
    27b0:	08 95       	ret

000027b2 <__fp_pscA>:
    27b2:	00 24       	eor	r0, r0
    27b4:	0a 94       	dec	r0
    27b6:	16 16       	cp	r1, r22
    27b8:	17 06       	cpc	r1, r23
    27ba:	18 06       	cpc	r1, r24
    27bc:	09 06       	cpc	r0, r25
    27be:	08 95       	ret

000027c0 <__fp_pscB>:
    27c0:	00 24       	eor	r0, r0
    27c2:	0a 94       	dec	r0
    27c4:	12 16       	cp	r1, r18
    27c6:	13 06       	cpc	r1, r19
    27c8:	14 06       	cpc	r1, r20
    27ca:	05 06       	cpc	r0, r21
    27cc:	08 95       	ret

000027ce <__fp_round>:
    27ce:	09 2e       	mov	r0, r25
    27d0:	03 94       	inc	r0
    27d2:	00 0c       	add	r0, r0
    27d4:	11 f4       	brne	.+4      	; 0x27da <__fp_round+0xc>
    27d6:	88 23       	and	r24, r24
    27d8:	52 f0       	brmi	.+20     	; 0x27ee <__fp_round+0x20>
    27da:	bb 0f       	add	r27, r27
    27dc:	40 f4       	brcc	.+16     	; 0x27ee <__fp_round+0x20>
    27de:	bf 2b       	or	r27, r31
    27e0:	11 f4       	brne	.+4      	; 0x27e6 <__fp_round+0x18>
    27e2:	60 ff       	sbrs	r22, 0
    27e4:	04 c0       	rjmp	.+8      	; 0x27ee <__fp_round+0x20>
    27e6:	6f 5f       	subi	r22, 0xFF	; 255
    27e8:	7f 4f       	sbci	r23, 0xFF	; 255
    27ea:	8f 4f       	sbci	r24, 0xFF	; 255
    27ec:	9f 4f       	sbci	r25, 0xFF	; 255
    27ee:	08 95       	ret

000027f0 <__fp_split3>:
    27f0:	57 fd       	sbrc	r21, 7
    27f2:	90 58       	subi	r25, 0x80	; 128
    27f4:	44 0f       	add	r20, r20
    27f6:	55 1f       	adc	r21, r21
    27f8:	59 f0       	breq	.+22     	; 0x2810 <__fp_splitA+0x10>
    27fa:	5f 3f       	cpi	r21, 0xFF	; 255
    27fc:	71 f0       	breq	.+28     	; 0x281a <__fp_splitA+0x1a>
    27fe:	47 95       	ror	r20

00002800 <__fp_splitA>:
    2800:	88 0f       	add	r24, r24
    2802:	97 fb       	bst	r25, 7
    2804:	99 1f       	adc	r25, r25
    2806:	61 f0       	breq	.+24     	; 0x2820 <__fp_splitA+0x20>
    2808:	9f 3f       	cpi	r25, 0xFF	; 255
    280a:	79 f0       	breq	.+30     	; 0x282a <__fp_splitA+0x2a>
    280c:	87 95       	ror	r24
    280e:	08 95       	ret
    2810:	12 16       	cp	r1, r18
    2812:	13 06       	cpc	r1, r19
    2814:	14 06       	cpc	r1, r20
    2816:	55 1f       	adc	r21, r21
    2818:	f2 cf       	rjmp	.-28     	; 0x27fe <__fp_split3+0xe>
    281a:	46 95       	lsr	r20
    281c:	f1 df       	rcall	.-30     	; 0x2800 <__fp_splitA>
    281e:	08 c0       	rjmp	.+16     	; 0x2830 <__fp_splitA+0x30>
    2820:	16 16       	cp	r1, r22
    2822:	17 06       	cpc	r1, r23
    2824:	18 06       	cpc	r1, r24
    2826:	99 1f       	adc	r25, r25
    2828:	f1 cf       	rjmp	.-30     	; 0x280c <__fp_splitA+0xc>
    282a:	86 95       	lsr	r24
    282c:	71 05       	cpc	r23, r1
    282e:	61 05       	cpc	r22, r1
    2830:	08 94       	sec
    2832:	08 95       	ret

00002834 <__fp_zero>:
    2834:	e8 94       	clt

00002836 <__fp_szero>:
    2836:	bb 27       	eor	r27, r27
    2838:	66 27       	eor	r22, r22
    283a:	77 27       	eor	r23, r23
    283c:	cb 01       	movw	r24, r22
    283e:	97 f9       	bld	r25, 7
    2840:	08 95       	ret

00002842 <__gesf2>:
    2842:	0e 94 93 14 	call	0x2926	; 0x2926 <__fp_cmp>
    2846:	08 f4       	brcc	.+2      	; 0x284a <__gesf2+0x8>
    2848:	8f ef       	ldi	r24, 0xFF	; 255
    284a:	08 95       	ret

0000284c <__mulsf3>:
    284c:	0e 94 39 14 	call	0x2872	; 0x2872 <__mulsf3x>
    2850:	0c 94 e7 13 	jmp	0x27ce	; 0x27ce <__fp_round>
    2854:	0e 94 d9 13 	call	0x27b2	; 0x27b2 <__fp_pscA>
    2858:	38 f0       	brcs	.+14     	; 0x2868 <__mulsf3+0x1c>
    285a:	0e 94 e0 13 	call	0x27c0	; 0x27c0 <__fp_pscB>
    285e:	20 f0       	brcs	.+8      	; 0x2868 <__mulsf3+0x1c>
    2860:	95 23       	and	r25, r21
    2862:	11 f0       	breq	.+4      	; 0x2868 <__mulsf3+0x1c>
    2864:	0c 94 d0 13 	jmp	0x27a0	; 0x27a0 <__fp_inf>
    2868:	0c 94 d6 13 	jmp	0x27ac	; 0x27ac <__fp_nan>
    286c:	11 24       	eor	r1, r1
    286e:	0c 94 1b 14 	jmp	0x2836	; 0x2836 <__fp_szero>

00002872 <__mulsf3x>:
    2872:	0e 94 f8 13 	call	0x27f0	; 0x27f0 <__fp_split3>
    2876:	70 f3       	brcs	.-36     	; 0x2854 <__mulsf3+0x8>

00002878 <__mulsf3_pse>:
    2878:	95 9f       	mul	r25, r21
    287a:	c1 f3       	breq	.-16     	; 0x286c <__mulsf3+0x20>
    287c:	95 0f       	add	r25, r21
    287e:	50 e0       	ldi	r21, 0x00	; 0
    2880:	55 1f       	adc	r21, r21
    2882:	62 9f       	mul	r22, r18
    2884:	f0 01       	movw	r30, r0
    2886:	72 9f       	mul	r23, r18
    2888:	bb 27       	eor	r27, r27
    288a:	f0 0d       	add	r31, r0
    288c:	b1 1d       	adc	r27, r1
    288e:	63 9f       	mul	r22, r19
    2890:	aa 27       	eor	r26, r26
    2892:	f0 0d       	add	r31, r0
    2894:	b1 1d       	adc	r27, r1
    2896:	aa 1f       	adc	r26, r26
    2898:	64 9f       	mul	r22, r20
    289a:	66 27       	eor	r22, r22
    289c:	b0 0d       	add	r27, r0
    289e:	a1 1d       	adc	r26, r1
    28a0:	66 1f       	adc	r22, r22
    28a2:	82 9f       	mul	r24, r18
    28a4:	22 27       	eor	r18, r18
    28a6:	b0 0d       	add	r27, r0
    28a8:	a1 1d       	adc	r26, r1
    28aa:	62 1f       	adc	r22, r18
    28ac:	73 9f       	mul	r23, r19
    28ae:	b0 0d       	add	r27, r0
    28b0:	a1 1d       	adc	r26, r1
    28b2:	62 1f       	adc	r22, r18
    28b4:	83 9f       	mul	r24, r19
    28b6:	a0 0d       	add	r26, r0
    28b8:	61 1d       	adc	r22, r1
    28ba:	22 1f       	adc	r18, r18
    28bc:	74 9f       	mul	r23, r20
    28be:	33 27       	eor	r19, r19
    28c0:	a0 0d       	add	r26, r0
    28c2:	61 1d       	adc	r22, r1
    28c4:	23 1f       	adc	r18, r19
    28c6:	84 9f       	mul	r24, r20
    28c8:	60 0d       	add	r22, r0
    28ca:	21 1d       	adc	r18, r1
    28cc:	82 2f       	mov	r24, r18
    28ce:	76 2f       	mov	r23, r22
    28d0:	6a 2f       	mov	r22, r26
    28d2:	11 24       	eor	r1, r1
    28d4:	9f 57       	subi	r25, 0x7F	; 127
    28d6:	50 40       	sbci	r21, 0x00	; 0
    28d8:	9a f0       	brmi	.+38     	; 0x2900 <__mulsf3_pse+0x88>
    28da:	f1 f0       	breq	.+60     	; 0x2918 <__mulsf3_pse+0xa0>
    28dc:	88 23       	and	r24, r24
    28de:	4a f0       	brmi	.+18     	; 0x28f2 <__mulsf3_pse+0x7a>
    28e0:	ee 0f       	add	r30, r30
    28e2:	ff 1f       	adc	r31, r31
    28e4:	bb 1f       	adc	r27, r27
    28e6:	66 1f       	adc	r22, r22
    28e8:	77 1f       	adc	r23, r23
    28ea:	88 1f       	adc	r24, r24
    28ec:	91 50       	subi	r25, 0x01	; 1
    28ee:	50 40       	sbci	r21, 0x00	; 0
    28f0:	a9 f7       	brne	.-22     	; 0x28dc <__mulsf3_pse+0x64>
    28f2:	9e 3f       	cpi	r25, 0xFE	; 254
    28f4:	51 05       	cpc	r21, r1
    28f6:	80 f0       	brcs	.+32     	; 0x2918 <__mulsf3_pse+0xa0>
    28f8:	0c 94 d0 13 	jmp	0x27a0	; 0x27a0 <__fp_inf>
    28fc:	0c 94 1b 14 	jmp	0x2836	; 0x2836 <__fp_szero>
    2900:	5f 3f       	cpi	r21, 0xFF	; 255
    2902:	e4 f3       	brlt	.-8      	; 0x28fc <__mulsf3_pse+0x84>
    2904:	98 3e       	cpi	r25, 0xE8	; 232
    2906:	d4 f3       	brlt	.-12     	; 0x28fc <__mulsf3_pse+0x84>
    2908:	86 95       	lsr	r24
    290a:	77 95       	ror	r23
    290c:	67 95       	ror	r22
    290e:	b7 95       	ror	r27
    2910:	f7 95       	ror	r31
    2912:	e7 95       	ror	r30
    2914:	9f 5f       	subi	r25, 0xFF	; 255
    2916:	c1 f7       	brne	.-16     	; 0x2908 <__mulsf3_pse+0x90>
    2918:	fe 2b       	or	r31, r30
    291a:	88 0f       	add	r24, r24
    291c:	91 1d       	adc	r25, r1
    291e:	96 95       	lsr	r25
    2920:	87 95       	ror	r24
    2922:	97 f9       	bld	r25, 7
    2924:	08 95       	ret

00002926 <__fp_cmp>:
    2926:	99 0f       	add	r25, r25
    2928:	00 08       	sbc	r0, r0
    292a:	55 0f       	add	r21, r21
    292c:	aa 0b       	sbc	r26, r26
    292e:	e0 e8       	ldi	r30, 0x80	; 128
    2930:	fe ef       	ldi	r31, 0xFE	; 254
    2932:	16 16       	cp	r1, r22
    2934:	17 06       	cpc	r1, r23
    2936:	e8 07       	cpc	r30, r24
    2938:	f9 07       	cpc	r31, r25
    293a:	c0 f0       	brcs	.+48     	; 0x296c <__fp_cmp+0x46>
    293c:	12 16       	cp	r1, r18
    293e:	13 06       	cpc	r1, r19
    2940:	e4 07       	cpc	r30, r20
    2942:	f5 07       	cpc	r31, r21
    2944:	98 f0       	brcs	.+38     	; 0x296c <__fp_cmp+0x46>
    2946:	62 1b       	sub	r22, r18
    2948:	73 0b       	sbc	r23, r19
    294a:	84 0b       	sbc	r24, r20
    294c:	95 0b       	sbc	r25, r21
    294e:	39 f4       	brne	.+14     	; 0x295e <__fp_cmp+0x38>
    2950:	0a 26       	eor	r0, r26
    2952:	61 f0       	breq	.+24     	; 0x296c <__fp_cmp+0x46>
    2954:	23 2b       	or	r18, r19
    2956:	24 2b       	or	r18, r20
    2958:	25 2b       	or	r18, r21
    295a:	21 f4       	brne	.+8      	; 0x2964 <__fp_cmp+0x3e>
    295c:	08 95       	ret
    295e:	0a 26       	eor	r0, r26
    2960:	09 f4       	brne	.+2      	; 0x2964 <__fp_cmp+0x3e>
    2962:	a1 40       	sbci	r26, 0x01	; 1
    2964:	a6 95       	lsr	r26
    2966:	8f ef       	ldi	r24, 0xFF	; 255
    2968:	81 1d       	adc	r24, r1
    296a:	81 1d       	adc	r24, r1
    296c:	08 95       	ret

0000296e <__mulsi3>:
    296e:	db 01       	movw	r26, r22
    2970:	8f 93       	push	r24
    2972:	9f 93       	push	r25
    2974:	0e 94 e9 14 	call	0x29d2	; 0x29d2 <__muluhisi3>
    2978:	bf 91       	pop	r27
    297a:	af 91       	pop	r26
    297c:	a2 9f       	mul	r26, r18
    297e:	80 0d       	add	r24, r0
    2980:	91 1d       	adc	r25, r1
    2982:	a3 9f       	mul	r26, r19
    2984:	90 0d       	add	r25, r0
    2986:	b2 9f       	mul	r27, r18
    2988:	90 0d       	add	r25, r0
    298a:	11 24       	eor	r1, r1
    298c:	08 95       	ret

0000298e <__udivmodsi4>:
    298e:	a1 e2       	ldi	r26, 0x21	; 33
    2990:	1a 2e       	mov	r1, r26
    2992:	aa 1b       	sub	r26, r26
    2994:	bb 1b       	sub	r27, r27
    2996:	fd 01       	movw	r30, r26
    2998:	0d c0       	rjmp	.+26     	; 0x29b4 <__udivmodsi4_ep>

0000299a <__udivmodsi4_loop>:
    299a:	aa 1f       	adc	r26, r26
    299c:	bb 1f       	adc	r27, r27
    299e:	ee 1f       	adc	r30, r30
    29a0:	ff 1f       	adc	r31, r31
    29a2:	a2 17       	cp	r26, r18
    29a4:	b3 07       	cpc	r27, r19
    29a6:	e4 07       	cpc	r30, r20
    29a8:	f5 07       	cpc	r31, r21
    29aa:	20 f0       	brcs	.+8      	; 0x29b4 <__udivmodsi4_ep>
    29ac:	a2 1b       	sub	r26, r18
    29ae:	b3 0b       	sbc	r27, r19
    29b0:	e4 0b       	sbc	r30, r20
    29b2:	f5 0b       	sbc	r31, r21

000029b4 <__udivmodsi4_ep>:
    29b4:	66 1f       	adc	r22, r22
    29b6:	77 1f       	adc	r23, r23
    29b8:	88 1f       	adc	r24, r24
    29ba:	99 1f       	adc	r25, r25
    29bc:	1a 94       	dec	r1
    29be:	69 f7       	brne	.-38     	; 0x299a <__udivmodsi4_loop>
    29c0:	60 95       	com	r22
    29c2:	70 95       	com	r23
    29c4:	80 95       	com	r24
    29c6:	90 95       	com	r25
    29c8:	9b 01       	movw	r18, r22
    29ca:	ac 01       	movw	r20, r24
    29cc:	bd 01       	movw	r22, r26
    29ce:	cf 01       	movw	r24, r30
    29d0:	08 95       	ret

000029d2 <__muluhisi3>:
    29d2:	0e 94 fa 14 	call	0x29f4	; 0x29f4 <__umulhisi3>
    29d6:	a5 9f       	mul	r26, r21
    29d8:	90 0d       	add	r25, r0
    29da:	b4 9f       	mul	r27, r20
    29dc:	90 0d       	add	r25, r0
    29de:	a4 9f       	mul	r26, r20
    29e0:	80 0d       	add	r24, r0
    29e2:	91 1d       	adc	r25, r1
    29e4:	11 24       	eor	r1, r1
    29e6:	08 95       	ret

000029e8 <__tablejump2__>:
    29e8:	ee 0f       	add	r30, r30
    29ea:	ff 1f       	adc	r31, r31
    29ec:	05 90       	lpm	r0, Z+
    29ee:	f4 91       	lpm	r31, Z
    29f0:	e0 2d       	mov	r30, r0
    29f2:	09 94       	ijmp

000029f4 <__umulhisi3>:
    29f4:	a2 9f       	mul	r26, r18
    29f6:	b0 01       	movw	r22, r0
    29f8:	b3 9f       	mul	r27, r19
    29fa:	c0 01       	movw	r24, r0
    29fc:	a3 9f       	mul	r26, r19
    29fe:	70 0d       	add	r23, r0
    2a00:	81 1d       	adc	r24, r1
    2a02:	11 24       	eor	r1, r1
    2a04:	91 1d       	adc	r25, r1
    2a06:	b2 9f       	mul	r27, r18
    2a08:	70 0d       	add	r23, r0
    2a0a:	81 1d       	adc	r24, r1
    2a0c:	11 24       	eor	r1, r1
    2a0e:	91 1d       	adc	r25, r1
    2a10:	08 95       	ret

00002a12 <eeprom_read_byte>:
    2a12:	f9 99       	sbic	0x1f, 1	; 31
    2a14:	fe cf       	rjmp	.-4      	; 0x2a12 <eeprom_read_byte>
    2a16:	92 bd       	out	0x22, r25	; 34
    2a18:	81 bd       	out	0x21, r24	; 33
    2a1a:	f8 9a       	sbi	0x1f, 0	; 31
    2a1c:	99 27       	eor	r25, r25
    2a1e:	80 b5       	in	r24, 0x20	; 32
    2a20:	08 95       	ret

00002a22 <eeprom_update_byte>:
    2a22:	26 2f       	mov	r18, r22

00002a24 <eeprom_update_r18>:
    2a24:	f9 99       	sbic	0x1f, 1	; 31
    2a26:	fe cf       	rjmp	.-4      	; 0x2a24 <eeprom_update_r18>
    2a28:	92 bd       	out	0x22, r25	; 34
    2a2a:	81 bd       	out	0x21, r24	; 33
    2a2c:	f8 9a       	sbi	0x1f, 0	; 31
    2a2e:	01 97       	sbiw	r24, 0x01	; 1
    2a30:	00 b4       	in	r0, 0x20	; 32
    2a32:	02 16       	cp	r0, r18
    2a34:	39 f0       	breq	.+14     	; 0x2a44 <eeprom_update_r18+0x20>
    2a36:	1f ba       	out	0x1f, r1	; 31
    2a38:	20 bd       	out	0x20, r18	; 32
    2a3a:	0f b6       	in	r0, 0x3f	; 63
    2a3c:	f8 94       	cli
    2a3e:	fa 9a       	sbi	0x1f, 2	; 31
    2a40:	f9 9a       	sbi	0x1f, 1	; 31
    2a42:	0f be       	out	0x3f, r0	; 63
    2a44:	08 95       	ret

00002a46 <_exit>:
    2a46:	f8 94       	cli

00002a48 <__stop_program>:
    2a48:	ff cf       	rjmp	.-2      	; 0x2a48 <__stop_program>
